

Microchip MPLAB XC8 Assembler V2.20 build 20200408173844 
                                                                                               Sun Jul 12 19:05:46 2020

Microchip MPLAB XC8 C Compiler v2.20 (Free license) build 20200408173844 Og1 
     1                           	processor	16F877A
     2                           	pagewidth 120
     3                           	opt	flic
     4                           	psect	idataBANK0,global,class=CODE,delta=2,noexec
     5                           	psect	strings,global,class=STRING,delta=2,noexec
     6                           	psect	cinit,global,class=CODE,merge=1,delta=2
     7                           	psect	bssBANK0,global,class=BANK0,space=1,delta=1,noexec
     8                           	psect	dataBANK0,global,class=BANK0,space=1,delta=1,noexec
     9                           	psect	bssBANK1,global,class=BANK1,space=1,delta=1,noexec
    10                           	psect	bssBANK3,global,class=BANK3,space=1,delta=1,noexec
    11                           	psect	clrtext,global,class=CODE,delta=2
    12                           	psect	cstackBANK1,global,class=BANK1,space=1,delta=1,noexec
    13                           	psect	cstackCOMMON,global,class=COMMON,space=1,delta=1,noexec
    14                           	psect	cstackBANK0,global,class=BANK0,space=1,delta=1,noexec
    15                           	psect	maintext,global,class=CODE,split=1,delta=2
    16                           	psect	text1,local,class=CODE,merge=1,delta=2
    17                           	psect	text2,local,class=CODE,merge=1,delta=2
    18                           	psect	text3,local,class=CODE,merge=1,delta=2,group=1
    19                           	psect	text4,local,class=CODE,merge=1,delta=2
    20                           	psect	text5,local,class=CODE,merge=1,delta=2
    21                           	psect	text6,local,class=CODE,merge=1,delta=2
    22                           	psect	text7,local,class=CODE,merge=1,delta=2
    23                           	psect	text8,local,class=CODE,merge=1,delta=2
    24                           	psect	text9,local,class=CODE,merge=1,delta=2
    25                           	psect	text10,local,class=CODE,merge=1,delta=2
    26                           	psect	text11,local,class=CODE,merge=1,delta=2
    27                           	psect	text12,local,class=CODE,merge=1,delta=2
    28                           	psect	text13,local,class=CODE,merge=1,delta=2
    29                           	psect	text14,local,class=CODE,merge=1,delta=2
    30                           	psect	text15,local,class=CODE,merge=1,delta=2
    31                           	psect	text16,local,class=CODE,merge=1,delta=2
    32                           	psect	text17,local,class=CODE,merge=1,delta=2,group=1
    33                           	psect	text18,local,class=CODE,merge=1,delta=2,group=1
    34                           	psect	text19,local,class=CODE,merge=1,delta=2,group=1
    35                           	psect	text20,local,class=CODE,merge=1,delta=2,group=1
    36                           	psect	text21,local,class=CODE,merge=1,delta=2
    37                           	psect	text22,local,class=CODE,merge=1,delta=2,group=1
    38                           	psect	text23,local,class=CODE,merge=1,delta=2,group=1
    39                           	psect	text24,local,class=CODE,merge=1,delta=2
    40                           	psect	text25,local,class=CODE,merge=1,delta=2,group=1
    41                           	psect	text26,local,class=CODE,merge=1,delta=2,group=1
    42                           	psect	text27,local,class=CODE,merge=1,delta=2
    43                           	psect	text28,local,class=CODE,merge=1,delta=2,group=1
    44                           	psect	text29,local,class=CODE,merge=1,delta=2
    45                           	psect	text30,local,class=CODE,merge=1,delta=2,group=2
    46                           	psect	text31,local,class=CODE,merge=1,delta=2
    47                           	psect	text32,local,class=CODE,merge=1,delta=2
    48                           	psect	text33,local,class=CODE,merge=1,delta=2
    49                           	psect	text34,local,class=CODE,merge=1,delta=2
    50                           	psect	text35,local,class=CODE,merge=1,delta=2
    51                           	psect	text36,local,class=CODE,merge=1,delta=2
    52                           	psect	text37,local,class=CODE,merge=1,delta=2
    53                           	psect	text38,local,class=CODE,merge=1,delta=2
    54                           	psect	text39,local,class=CODE,merge=1,delta=2
    55                           	psect	text40,local,class=CODE,merge=1,delta=2
    56                           	psect	text41,local,class=CODE,merge=1,delta=2
    57                           	psect	text42,local,class=CODE,merge=1,delta=2
    58                           	psect	text43,local,class=CODE,merge=1,delta=2
    59                           	psect	text44,local,class=CODE,merge=1,delta=2
    60                           	psect	text45,local,class=CODE,merge=1,delta=2
    61                           	psect	intentry,global,class=CODE,delta=2
    62                           	psect	text46,local,class=CODE,merge=1,delta=2
    63                           	psect	text47,local,class=CODE,merge=1,delta=2
    64                           	psect	text48,local,class=CODE,merge=1,delta=2
    65                           	psect	text49,local,class=CODE,merge=1,delta=2
    66                           	psect	text50,local,class=CODE,merge=1,delta=2,group=1
    67                           	psect	text51,local,class=CODE,merge=1,delta=2
    68                           	psect	functab,global,class=ENTRY,delta=2
    69                           	psect	config,global,abs,ovrld,class=CONFIG,space=4,delta=2,noexec
    70                           	dabs	1,0x7E,2
    71  0000                     
    72                           ; Version 2.20
    73                           ; Generated 12/02/2020 GMT
    74                           ; 
    75                           ; Copyright © 2020, Microchip Technology Inc. and its subsidiaries ("Microchip")
    76                           ; All rights reserved.
    77                           ; 
    78                           ; This software is developed by Microchip Technology Inc. and its subsidiaries ("Microch
      +                          ip").
    79                           ; 
    80                           ; Redistribution and use in source and binary forms, with or without modification, are
    81                           ; permitted provided that the following conditions are met:
    82                           ; 
    83                           ;     1. Redistributions of source code must retain the above copyright notice, this lis
      +                          t of
    84                           ;        conditions and the following disclaimer.
    85                           ; 
    86                           ;     2. Redistributions in binary form must reproduce the above copyright notice, this 
      +                          list
    87                           ;        of conditions and the following disclaimer in the documentation and/or other
    88                           ;        materials provided with the distribution.
    89                           ; 
    90                           ;     3. Microchip's name may not be used to endorse or promote products derived from th
      +                          is
    91                           ;        software without specific prior written permission.
    92                           ; 
    93                           ; THIS SOFTWARE IS PROVIDED BY MICROCHIP "AS IS" AND ANY EXPRESS OR IMPLIED WARRANTIES,
    94                           ; INCLUDING, BUT NOT LIMITED TO, THE IMPLIED WARRANTIES OF MERCHANTABILITY AND FITNESS F
      +                          OR
    95                           ; PURPOSE ARE DISCLAIMED.  IN NO EVENT SHALL MICROCHIP BE LIABLE FOR ANY DIRECT, INDIREC
      +                          T,
    96                           ; INCIDENTAL, SPECIAL, EXEMPLARY, OR CONSEQUENTIAL DAMAGES (INCLUDING BUT NOT LIMITED TO
    97                           ; PROCUREMENT OF SUBSTITUTE GOODS OR SERVICES; LOSS OF USE, DATA OR PROFITS; OR BUSINESS
    98                           ; INTERRUPTION) HOWSOEVER CAUSED AND ON ANY THEORY OF LIABILITY, WHETHER IN CONTRACT, ST
      +                          RICT
    99                           ; LIABILITY, OR TORT (INCLUDING NEGLIGENCE OR OTHERWISE) ARISING IN ANY WAY OUT OF THE U
      +                          SE OF
   100                           ; THIS SOFTWARE, EVEN IF ADVISED OF THE POSSIBILITY OF SUCH DAMAGE.
   101                           ; 
   102                           ; 
   103                           ; Code-generator required, PIC16F877A Definitions
   104                           ; 
   105                           ; SFR Addresses
   106  0000                     	;# 
   107  0001                     	;# 
   108  0002                     	;# 
   109  0003                     	;# 
   110  0004                     	;# 
   111  0005                     	;# 
   112  0006                     	;# 
   113  0007                     	;# 
   114  0008                     	;# 
   115  0009                     	;# 
   116  000A                     	;# 
   117  000B                     	;# 
   118  000C                     	;# 
   119  000D                     	;# 
   120  000E                     	;# 
   121  000E                     	;# 
   122  000F                     	;# 
   123  0010                     	;# 
   124  0011                     	;# 
   125  0012                     	;# 
   126  0013                     	;# 
   127  0014                     	;# 
   128  0015                     	;# 
   129  0015                     	;# 
   130  0016                     	;# 
   131  0017                     	;# 
   132  0018                     	;# 
   133  0019                     	;# 
   134  001A                     	;# 
   135  001B                     	;# 
   136  001B                     	;# 
   137  001C                     	;# 
   138  001D                     	;# 
   139  001E                     	;# 
   140  001F                     	;# 
   141  0081                     	;# 
   142  0085                     	;# 
   143  0086                     	;# 
   144  0087                     	;# 
   145  0088                     	;# 
   146  0089                     	;# 
   147  008C                     	;# 
   148  008D                     	;# 
   149  008E                     	;# 
   150  0091                     	;# 
   151  0092                     	;# 
   152  0093                     	;# 
   153  0094                     	;# 
   154  0098                     	;# 
   155  0099                     	;# 
   156  009C                     	;# 
   157  009D                     	;# 
   158  009E                     	;# 
   159  009F                     	;# 
   160  010C                     	;# 
   161  010D                     	;# 
   162  010E                     	;# 
   163  010F                     	;# 
   164  018C                     	;# 
   165  018D                     	;# 
   166  0000                     	;# 
   167  0001                     	;# 
   168  0002                     	;# 
   169  0003                     	;# 
   170  0004                     	;# 
   171  0005                     	;# 
   172  0006                     	;# 
   173  0007                     	;# 
   174  0008                     	;# 
   175  0009                     	;# 
   176  000A                     	;# 
   177  000B                     	;# 
   178  000C                     	;# 
   179  000D                     	;# 
   180  000E                     	;# 
   181  000E                     	;# 
   182  000F                     	;# 
   183  0010                     	;# 
   184  0011                     	;# 
   185  0012                     	;# 
   186  0013                     	;# 
   187  0014                     	;# 
   188  0015                     	;# 
   189  0015                     	;# 
   190  0016                     	;# 
   191  0017                     	;# 
   192  0018                     	;# 
   193  0019                     	;# 
   194  001A                     	;# 
   195  001B                     	;# 
   196  001B                     	;# 
   197  001C                     	;# 
   198  001D                     	;# 
   199  001E                     	;# 
   200  001F                     	;# 
   201  0081                     	;# 
   202  0085                     	;# 
   203  0086                     	;# 
   204  0087                     	;# 
   205  0088                     	;# 
   206  0089                     	;# 
   207  008C                     	;# 
   208  008D                     	;# 
   209  008E                     	;# 
   210  0091                     	;# 
   211  0092                     	;# 
   212  0093                     	;# 
   213  0094                     	;# 
   214  0098                     	;# 
   215  0099                     	;# 
   216  009C                     	;# 
   217  009D                     	;# 
   218  009E                     	;# 
   219  009F                     	;# 
   220  010C                     	;# 
   221  010D                     	;# 
   222  010E                     	;# 
   223  010F                     	;# 
   224  018C                     	;# 
   225  018D                     	;# 
   226  0000                     	;# 
   227  0001                     	;# 
   228  0002                     	;# 
   229  0003                     	;# 
   230  0004                     	;# 
   231  0005                     	;# 
   232  0006                     	;# 
   233  0007                     	;# 
   234  0008                     	;# 
   235  0009                     	;# 
   236  000A                     	;# 
   237  000B                     	;# 
   238  000C                     	;# 
   239  000D                     	;# 
   240  000E                     	;# 
   241  000E                     	;# 
   242  000F                     	;# 
   243  0010                     	;# 
   244  0011                     	;# 
   245  0012                     	;# 
   246  0013                     	;# 
   247  0014                     	;# 
   248  0015                     	;# 
   249  0015                     	;# 
   250  0016                     	;# 
   251  0017                     	;# 
   252  0018                     	;# 
   253  0019                     	;# 
   254  001A                     	;# 
   255  001B                     	;# 
   256  001B                     	;# 
   257  001C                     	;# 
   258  001D                     	;# 
   259  001E                     	;# 
   260  001F                     	;# 
   261  0081                     	;# 
   262  0085                     	;# 
   263  0086                     	;# 
   264  0087                     	;# 
   265  0088                     	;# 
   266  0089                     	;# 
   267  008C                     	;# 
   268  008D                     	;# 
   269  008E                     	;# 
   270  0091                     	;# 
   271  0092                     	;# 
   272  0093                     	;# 
   273  0094                     	;# 
   274  0098                     	;# 
   275  0099                     	;# 
   276  009C                     	;# 
   277  009D                     	;# 
   278  009E                     	;# 
   279  009F                     	;# 
   280  010C                     	;# 
   281  010D                     	;# 
   282  010E                     	;# 
   283  010F                     	;# 
   284  018C                     	;# 
   285  018D                     	;# 
   286  0000                     	;# 
   287  0001                     	;# 
   288  0002                     	;# 
   289  0003                     	;# 
   290  0004                     	;# 
   291  0005                     	;# 
   292  0006                     	;# 
   293  0007                     	;# 
   294  0008                     	;# 
   295  0009                     	;# 
   296  000A                     	;# 
   297  000B                     	;# 
   298  000C                     	;# 
   299  000D                     	;# 
   300  000E                     	;# 
   301  000E                     	;# 
   302  000F                     	;# 
   303  0010                     	;# 
   304  0011                     	;# 
   305  0012                     	;# 
   306  0013                     	;# 
   307  0014                     	;# 
   308  0015                     	;# 
   309  0015                     	;# 
   310  0016                     	;# 
   311  0017                     	;# 
   312  0018                     	;# 
   313  0019                     	;# 
   314  001A                     	;# 
   315  001B                     	;# 
   316  001B                     	;# 
   317  001C                     	;# 
   318  001D                     	;# 
   319  001E                     	;# 
   320  001F                     	;# 
   321  0081                     	;# 
   322  0085                     	;# 
   323  0086                     	;# 
   324  0087                     	;# 
   325  0088                     	;# 
   326  0089                     	;# 
   327  008C                     	;# 
   328  008D                     	;# 
   329  008E                     	;# 
   330  0091                     	;# 
   331  0092                     	;# 
   332  0093                     	;# 
   333  0094                     	;# 
   334  0098                     	;# 
   335  0099                     	;# 
   336  009C                     	;# 
   337  009D                     	;# 
   338  009E                     	;# 
   339  009F                     	;# 
   340  010C                     	;# 
   341  010D                     	;# 
   342  010E                     	;# 
   343  010F                     	;# 
   344  018C                     	;# 
   345  018D                     	;# 
   346  0000                     	;# 
   347  0001                     	;# 
   348  0002                     	;# 
   349  0003                     	;# 
   350  0004                     	;# 
   351  0005                     	;# 
   352  0006                     	;# 
   353  0007                     	;# 
   354  0008                     	;# 
   355  0009                     	;# 
   356  000A                     	;# 
   357  000B                     	;# 
   358  000C                     	;# 
   359  000D                     	;# 
   360  000E                     	;# 
   361  000E                     	;# 
   362  000F                     	;# 
   363  0010                     	;# 
   364  0011                     	;# 
   365  0012                     	;# 
   366  0013                     	;# 
   367  0014                     	;# 
   368  0015                     	;# 
   369  0015                     	;# 
   370  0016                     	;# 
   371  0017                     	;# 
   372  0018                     	;# 
   373  0019                     	;# 
   374  001A                     	;# 
   375  001B                     	;# 
   376  001B                     	;# 
   377  001C                     	;# 
   378  001D                     	;# 
   379  001E                     	;# 
   380  001F                     	;# 
   381  0081                     	;# 
   382  0085                     	;# 
   383  0086                     	;# 
   384  0087                     	;# 
   385  0088                     	;# 
   386  0089                     	;# 
   387  008C                     	;# 
   388  008D                     	;# 
   389  008E                     	;# 
   390  0091                     	;# 
   391  0092                     	;# 
   392  0093                     	;# 
   393  0094                     	;# 
   394  0098                     	;# 
   395  0099                     	;# 
   396  009C                     	;# 
   397  009D                     	;# 
   398  009E                     	;# 
   399  009F                     	;# 
   400  010C                     	;# 
   401  010D                     	;# 
   402  010E                     	;# 
   403  010F                     	;# 
   404  018C                     	;# 
   405  018D                     	;# 
   406  0000                     	;# 
   407  0001                     	;# 
   408  0002                     	;# 
   409  0003                     	;# 
   410  0004                     	;# 
   411  0005                     	;# 
   412  0006                     	;# 
   413  0007                     	;# 
   414  0008                     	;# 
   415  0009                     	;# 
   416  000A                     	;# 
   417  000B                     	;# 
   418  000C                     	;# 
   419  000D                     	;# 
   420  000E                     	;# 
   421  000E                     	;# 
   422  000F                     	;# 
   423  0010                     	;# 
   424  0011                     	;# 
   425  0012                     	;# 
   426  0013                     	;# 
   427  0014                     	;# 
   428  0015                     	;# 
   429  0015                     	;# 
   430  0016                     	;# 
   431  0017                     	;# 
   432  0018                     	;# 
   433  0019                     	;# 
   434  001A                     	;# 
   435  001B                     	;# 
   436  001B                     	;# 
   437  001C                     	;# 
   438  001D                     	;# 
   439  001E                     	;# 
   440  001F                     	;# 
   441  0081                     	;# 
   442  0085                     	;# 
   443  0086                     	;# 
   444  0087                     	;# 
   445  0088                     	;# 
   446  0089                     	;# 
   447  008C                     	;# 
   448  008D                     	;# 
   449  008E                     	;# 
   450  0091                     	;# 
   451  0092                     	;# 
   452  0093                     	;# 
   453  0094                     	;# 
   454  0098                     	;# 
   455  0099                     	;# 
   456  009C                     	;# 
   457  009D                     	;# 
   458  009E                     	;# 
   459  009F                     	;# 
   460  010C                     	;# 
   461  010D                     	;# 
   462  010E                     	;# 
   463  010F                     	;# 
   464  018C                     	;# 
   465  018D                     	;# 
   466  0000                     	;# 
   467  0001                     	;# 
   468  0002                     	;# 
   469  0003                     	;# 
   470  0004                     	;# 
   471  0005                     	;# 
   472  0006                     	;# 
   473  0007                     	;# 
   474  0008                     	;# 
   475  0009                     	;# 
   476  000A                     	;# 
   477  000B                     	;# 
   478  000C                     	;# 
   479  000D                     	;# 
   480  000E                     	;# 
   481  000E                     	;# 
   482  000F                     	;# 
   483  0010                     	;# 
   484  0011                     	;# 
   485  0012                     	;# 
   486  0013                     	;# 
   487  0014                     	;# 
   488  0015                     	;# 
   489  0015                     	;# 
   490  0016                     	;# 
   491  0017                     	;# 
   492  0018                     	;# 
   493  0019                     	;# 
   494  001A                     	;# 
   495  001B                     	;# 
   496  001B                     	;# 
   497  001C                     	;# 
   498  001D                     	;# 
   499  001E                     	;# 
   500  001F                     	;# 
   501  0081                     	;# 
   502  0085                     	;# 
   503  0086                     	;# 
   504  0087                     	;# 
   505  0088                     	;# 
   506  0089                     	;# 
   507  008C                     	;# 
   508  008D                     	;# 
   509  008E                     	;# 
   510  0091                     	;# 
   511  0092                     	;# 
   512  0093                     	;# 
   513  0094                     	;# 
   514  0098                     	;# 
   515  0099                     	;# 
   516  009C                     	;# 
   517  009D                     	;# 
   518  009E                     	;# 
   519  009F                     	;# 
   520  010C                     	;# 
   521  010D                     	;# 
   522  010E                     	;# 
   523  010F                     	;# 
   524  018C                     	;# 
   525  018D                     	;# 
   526  0000                     	;# 
   527  0001                     	;# 
   528  0002                     	;# 
   529  0003                     	;# 
   530  0004                     	;# 
   531  0005                     	;# 
   532  0006                     	;# 
   533  0007                     	;# 
   534  0008                     	;# 
   535  0009                     	;# 
   536  000A                     	;# 
   537  000B                     	;# 
   538  000C                     	;# 
   539  000D                     	;# 
   540  000E                     	;# 
   541  000E                     	;# 
   542  000F                     	;# 
   543  0010                     	;# 
   544  0011                     	;# 
   545  0012                     	;# 
   546  0013                     	;# 
   547  0014                     	;# 
   548  0015                     	;# 
   549  0015                     	;# 
   550  0016                     	;# 
   551  0017                     	;# 
   552  0018                     	;# 
   553  0019                     	;# 
   554  001A                     	;# 
   555  001B                     	;# 
   556  001B                     	;# 
   557  001C                     	;# 
   558  001D                     	;# 
   559  001E                     	;# 
   560  001F                     	;# 
   561  0081                     	;# 
   562  0085                     	;# 
   563  0086                     	;# 
   564  0087                     	;# 
   565  0088                     	;# 
   566  0089                     	;# 
   567  008C                     	;# 
   568  008D                     	;# 
   569  008E                     	;# 
   570  0091                     	;# 
   571  0092                     	;# 
   572  0093                     	;# 
   573  0094                     	;# 
   574  0098                     	;# 
   575  0099                     	;# 
   576  009C                     	;# 
   577  009D                     	;# 
   578  009E                     	;# 
   579  009F                     	;# 
   580  010C                     	;# 
   581  010D                     	;# 
   582  010E                     	;# 
   583  010F                     	;# 
   584  018C                     	;# 
   585  018D                     	;# 
   586  0000                     	;# 
   587  0001                     	;# 
   588  0002                     	;# 
   589  0003                     	;# 
   590  0004                     	;# 
   591  0005                     	;# 
   592  0006                     	;# 
   593  0007                     	;# 
   594  0008                     	;# 
   595  0009                     	;# 
   596  000A                     	;# 
   597  000B                     	;# 
   598  000C                     	;# 
   599  000D                     	;# 
   600  000E                     	;# 
   601  000E                     	;# 
   602  000F                     	;# 
   603  0010                     	;# 
   604  0011                     	;# 
   605  0012                     	;# 
   606  0013                     	;# 
   607  0014                     	;# 
   608  0015                     	;# 
   609  0015                     	;# 
   610  0016                     	;# 
   611  0017                     	;# 
   612  0018                     	;# 
   613  0019                     	;# 
   614  001A                     	;# 
   615  001B                     	;# 
   616  001B                     	;# 
   617  001C                     	;# 
   618  001D                     	;# 
   619  001E                     	;# 
   620  001F                     	;# 
   621  0081                     	;# 
   622  0085                     	;# 
   623  0086                     	;# 
   624  0087                     	;# 
   625  0088                     	;# 
   626  0089                     	;# 
   627  008C                     	;# 
   628  008D                     	;# 
   629  008E                     	;# 
   630  0091                     	;# 
   631  0092                     	;# 
   632  0093                     	;# 
   633  0094                     	;# 
   634  0098                     	;# 
   635  0099                     	;# 
   636  009C                     	;# 
   637  009D                     	;# 
   638  009E                     	;# 
   639  009F                     	;# 
   640  010C                     	;# 
   641  010D                     	;# 
   642  010E                     	;# 
   643  010F                     	;# 
   644  018C                     	;# 
   645  018D                     	;# 
   646  0000                     	;# 
   647  0001                     	;# 
   648  0002                     	;# 
   649  0003                     	;# 
   650  0004                     	;# 
   651  0005                     	;# 
   652  0006                     	;# 
   653  0007                     	;# 
   654  0008                     	;# 
   655  0009                     	;# 
   656  000A                     	;# 
   657  000B                     	;# 
   658  000C                     	;# 
   659  000D                     	;# 
   660  000E                     	;# 
   661  000E                     	;# 
   662  000F                     	;# 
   663  0010                     	;# 
   664  0011                     	;# 
   665  0012                     	;# 
   666  0013                     	;# 
   667  0014                     	;# 
   668  0015                     	;# 
   669  0015                     	;# 
   670  0016                     	;# 
   671  0017                     	;# 
   672  0018                     	;# 
   673  0019                     	;# 
   674  001A                     	;# 
   675  001B                     	;# 
   676  001B                     	;# 
   677  001C                     	;# 
   678  001D                     	;# 
   679  001E                     	;# 
   680  001F                     	;# 
   681  0081                     	;# 
   682  0085                     	;# 
   683  0086                     	;# 
   684  0087                     	;# 
   685  0088                     	;# 
   686  0089                     	;# 
   687  008C                     	;# 
   688  008D                     	;# 
   689  008E                     	;# 
   690  0091                     	;# 
   691  0092                     	;# 
   692  0093                     	;# 
   693  0094                     	;# 
   694  0098                     	;# 
   695  0099                     	;# 
   696  009C                     	;# 
   697  009D                     	;# 
   698  009E                     	;# 
   699  009F                     	;# 
   700  010C                     	;# 
   701  010D                     	;# 
   702  010E                     	;# 
   703  010F                     	;# 
   704  018C                     	;# 
   705  018D                     	;# 
   706  0000                     	;# 
   707  0001                     	;# 
   708  0002                     	;# 
   709  0003                     	;# 
   710  0004                     	;# 
   711  0005                     	;# 
   712  0006                     	;# 
   713  0007                     	;# 
   714  0008                     	;# 
   715  0009                     	;# 
   716  000A                     	;# 
   717  000B                     	;# 
   718  000C                     	;# 
   719  000D                     	;# 
   720  000E                     	;# 
   721  000E                     	;# 
   722  000F                     	;# 
   723  0010                     	;# 
   724  0011                     	;# 
   725  0012                     	;# 
   726  0013                     	;# 
   727  0014                     	;# 
   728  0015                     	;# 
   729  0015                     	;# 
   730  0016                     	;# 
   731  0017                     	;# 
   732  0018                     	;# 
   733  0019                     	;# 
   734  001A                     	;# 
   735  001B                     	;# 
   736  001B                     	;# 
   737  001C                     	;# 
   738  001D                     	;# 
   739  001E                     	;# 
   740  001F                     	;# 
   741  0081                     	;# 
   742  0085                     	;# 
   743  0086                     	;# 
   744  0087                     	;# 
   745  0088                     	;# 
   746  0089                     	;# 
   747  008C                     	;# 
   748  008D                     	;# 
   749  008E                     	;# 
   750  0091                     	;# 
   751  0092                     	;# 
   752  0093                     	;# 
   753  0094                     	;# 
   754  0098                     	;# 
   755  0099                     	;# 
   756  009C                     	;# 
   757  009D                     	;# 
   758  009E                     	;# 
   759  009F                     	;# 
   760  010C                     	;# 
   761  010D                     	;# 
   762  010E                     	;# 
   763  010F                     	;# 
   764  018C                     	;# 
   765  018D                     	;# 
   766  0000                     	;# 
   767  0001                     	;# 
   768  0002                     	;# 
   769  0003                     	;# 
   770  0004                     	;# 
   771  0005                     	;# 
   772  0006                     	;# 
   773  0007                     	;# 
   774  0008                     	;# 
   775  0009                     	;# 
   776  000A                     	;# 
   777  000B                     	;# 
   778  000C                     	;# 
   779  000D                     	;# 
   780  000E                     	;# 
   781  000E                     	;# 
   782  000F                     	;# 
   783  0010                     	;# 
   784  0011                     	;# 
   785  0012                     	;# 
   786  0013                     	;# 
   787  0014                     	;# 
   788  0015                     	;# 
   789  0015                     	;# 
   790  0016                     	;# 
   791  0017                     	;# 
   792  0018                     	;# 
   793  0019                     	;# 
   794  001A                     	;# 
   795  001B                     	;# 
   796  001B                     	;# 
   797  001C                     	;# 
   798  001D                     	;# 
   799  001E                     	;# 
   800  001F                     	;# 
   801  0081                     	;# 
   802  0085                     	;# 
   803  0086                     	;# 
   804  0087                     	;# 
   805  0088                     	;# 
   806  0089                     	;# 
   807  008C                     	;# 
   808  008D                     	;# 
   809  008E                     	;# 
   810  0091                     	;# 
   811  0092                     	;# 
   812  0093                     	;# 
   813  0094                     	;# 
   814  0098                     	;# 
   815  0099                     	;# 
   816  009C                     	;# 
   817  009D                     	;# 
   818  009E                     	;# 
   819  009F                     	;# 
   820  010C                     	;# 
   821  010D                     	;# 
   822  010E                     	;# 
   823  010F                     	;# 
   824  018C                     	;# 
   825  018D                     	;# 
   826  0000                     	;# 
   827  0001                     	;# 
   828  0002                     	;# 
   829  0003                     	;# 
   830  0004                     	;# 
   831  0005                     	;# 
   832  0006                     	;# 
   833  0007                     	;# 
   834  0008                     	;# 
   835  0009                     	;# 
   836  000A                     	;# 
   837  000B                     	;# 
   838  000C                     	;# 
   839  000D                     	;# 
   840  000E                     	;# 
   841  000E                     	;# 
   842  000F                     	;# 
   843  0010                     	;# 
   844  0011                     	;# 
   845  0012                     	;# 
   846  0013                     	;# 
   847  0014                     	;# 
   848  0015                     	;# 
   849  0015                     	;# 
   850  0016                     	;# 
   851  0017                     	;# 
   852  0018                     	;# 
   853  0019                     	;# 
   854  001A                     	;# 
   855  001B                     	;# 
   856  001B                     	;# 
   857  001C                     	;# 
   858  001D                     	;# 
   859  001E                     	;# 
   860  001F                     	;# 
   861  0081                     	;# 
   862  0085                     	;# 
   863  0086                     	;# 
   864  0087                     	;# 
   865  0088                     	;# 
   866  0089                     	;# 
   867  008C                     	;# 
   868  008D                     	;# 
   869  008E                     	;# 
   870  0091                     	;# 
   871  0092                     	;# 
   872  0093                     	;# 
   873  0094                     	;# 
   874  0098                     	;# 
   875  0099                     	;# 
   876  009C                     	;# 
   877  009D                     	;# 
   878  009E                     	;# 
   879  009F                     	;# 
   880  010C                     	;# 
   881  010D                     	;# 
   882  010E                     	;# 
   883  010F                     	;# 
   884  018C                     	;# 
   885  018D                     	;# 
   886  0000                     	;# 
   887  0001                     	;# 
   888  0002                     	;# 
   889  0003                     	;# 
   890  0004                     	;# 
   891  0005                     	;# 
   892  0006                     	;# 
   893  0007                     	;# 
   894  0008                     	;# 
   895  0009                     	;# 
   896  000A                     	;# 
   897  000B                     	;# 
   898  000C                     	;# 
   899  000D                     	;# 
   900  000E                     	;# 
   901  000E                     	;# 
   902  000F                     	;# 
   903  0010                     	;# 
   904  0011                     	;# 
   905  0012                     	;# 
   906  0013                     	;# 
   907  0014                     	;# 
   908  0015                     	;# 
   909  0015                     	;# 
   910  0016                     	;# 
   911  0017                     	;# 
   912  0018                     	;# 
   913  0019                     	;# 
   914  001A                     	;# 
   915  001B                     	;# 
   916  001B                     	;# 
   917  001C                     	;# 
   918  001D                     	;# 
   919  001E                     	;# 
   920  001F                     	;# 
   921  0081                     	;# 
   922  0085                     	;# 
   923  0086                     	;# 
   924  0087                     	;# 
   925  0088                     	;# 
   926  0089                     	;# 
   927  008C                     	;# 
   928  008D                     	;# 
   929  008E                     	;# 
   930  0091                     	;# 
   931  0092                     	;# 
   932  0093                     	;# 
   933  0094                     	;# 
   934  0098                     	;# 
   935  0099                     	;# 
   936  009C                     	;# 
   937  009D                     	;# 
   938  009E                     	;# 
   939  009F                     	;# 
   940  010C                     	;# 
   941  010D                     	;# 
   942  010E                     	;# 
   943  010F                     	;# 
   944  018C                     	;# 
   945  018D                     	;# 
   946  0000                     	;# 
   947  0001                     	;# 
   948  0002                     	;# 
   949  0003                     	;# 
   950  0004                     	;# 
   951  0005                     	;# 
   952  0006                     	;# 
   953  0007                     	;# 
   954  0008                     	;# 
   955  0009                     	;# 
   956  000A                     	;# 
   957  000B                     	;# 
   958  000C                     	;# 
   959  000D                     	;# 
   960  000E                     	;# 
   961  000E                     	;# 
   962  000F                     	;# 
   963  0010                     	;# 
   964  0011                     	;# 
   965  0012                     	;# 
   966  0013                     	;# 
   967  0014                     	;# 
   968  0015                     	;# 
   969  0015                     	;# 
   970  0016                     	;# 
   971  0017                     	;# 
   972  0018                     	;# 
   973  0019                     	;# 
   974  001A                     	;# 
   975  001B                     	;# 
   976  001B                     	;# 
   977  001C                     	;# 
   978  001D                     	;# 
   979  001E                     	;# 
   980  001F                     	;# 
   981  0081                     	;# 
   982  0085                     	;# 
   983  0086                     	;# 
   984  0087                     	;# 
   985  0088                     	;# 
   986  0089                     	;# 
   987  008C                     	;# 
   988  008D                     	;# 
   989  008E                     	;# 
   990  0091                     	;# 
   991  0092                     	;# 
   992  0093                     	;# 
   993  0094                     	;# 
   994  0098                     	;# 
   995  0099                     	;# 
   996  009C                     	;# 
   997  009D                     	;# 
   998  009E                     	;# 
   999  009F                     	;# 
  1000  010C                     	;# 
  1001  010D                     	;# 
  1002  010E                     	;# 
  1003  010F                     	;# 
  1004  018C                     	;# 
  1005  018D                     	;# 
  1006  0000                     	;# 
  1007  0001                     	;# 
  1008  0002                     	;# 
  1009  0003                     	;# 
  1010  0004                     	;# 
  1011  0005                     	;# 
  1012  0006                     	;# 
  1013  0007                     	;# 
  1014  0008                     	;# 
  1015  0009                     	;# 
  1016  000A                     	;# 
  1017  000B                     	;# 
  1018  000C                     	;# 
  1019  000D                     	;# 
  1020  000E                     	;# 
  1021  000E                     	;# 
  1022  000F                     	;# 
  1023  0010                     	;# 
  1024  0011                     	;# 
  1025  0012                     	;# 
  1026  0013                     	;# 
  1027  0014                     	;# 
  1028  0015                     	;# 
  1029  0015                     	;# 
  1030  0016                     	;# 
  1031  0017                     	;# 
  1032  0018                     	;# 
  1033  0019                     	;# 
  1034  001A                     	;# 
  1035  001B                     	;# 
  1036  001B                     	;# 
  1037  001C                     	;# 
  1038  001D                     	;# 
  1039  001E                     	;# 
  1040  001F                     	;# 
  1041  0081                     	;# 
  1042  0085                     	;# 
  1043  0086                     	;# 
  1044  0087                     	;# 
  1045  0088                     	;# 
  1046  0089                     	;# 
  1047  008C                     	;# 
  1048  008D                     	;# 
  1049  008E                     	;# 
  1050  0091                     	;# 
  1051  0092                     	;# 
  1052  0093                     	;# 
  1053  0094                     	;# 
  1054  0098                     	;# 
  1055  0099                     	;# 
  1056  009C                     	;# 
  1057  009D                     	;# 
  1058  009E                     	;# 
  1059  009F                     	;# 
  1060  010C                     	;# 
  1061  010D                     	;# 
  1062  010E                     	;# 
  1063  010F                     	;# 
  1064  018C                     	;# 
  1065  018D                     	;# 
  1066                           
  1067                           	psect	idataBANK0
  1068  17F0                     __pidataBANK0:
  1069                           
  1070                           ;initializer for LED_BLINKING@Counter
  1071  17F0  3401               	retlw	1
  1072                           
  1073                           ;initializer for Display_Blink@Counter
  1074  17F1  3401               	retlw	1
  1075                           
  1076                           ;initializer for Display_MainFunction@Enable_Digit_Selector
  1077  17F2  3401               	retlw	1
  1078                           
  1079                           ;initializer for _Average_Nvalues
  1080  17F3  340A               	retlw	10
  1081                           
  1082                           	psect	strings
  1083  0800                     __pstrings:
  1084  0800                     stringtab:
  1085  0800                     __stringtab:
  1086  0800                     stringcode:	
  1087                           ;	String table - string pointers are 1 byte each
  1088                           
  1089  0800                     stringdir:
  1090  0800  3008               	movlw	high stringdir
  1091  0801  008A               	movwf	10
  1092  0802  0804               	movf	4,w
  1093  0803  0A84               	incf	4,f
  1094  0804  0782               	addwf	2,f
  1095  0805                     __stringbase:
  1096  0805  3400               	retlw	0
  1097  0806                     __end_of__stringtab:
  1098  0806                     _Scheduler_Intitys:
  1099  0806  3404               	retlw	low (fp__Scheduler_Task1-fpbase)
  1100  0807  3414               	retlw	20
  1101  0808  3400               	retlw	0
  1102  0809  3400               	retlw	0
  1103  080A  3400               	retlw	0
  1104  080B  3407               	retlw	low (fp__Scheduler_Task2-fpbase)
  1105  080C  3464               	retlw	100
  1106  080D  3400               	retlw	0
  1107  080E  3400               	retlw	0
  1108  080F  3400               	retlw	0
  1109  0810  3401               	retlw	low (fp__Scheduler_Task3-fpbase)
  1110  0811  34C8               	retlw	200
  1111  0812  3400               	retlw	0
  1112  0813  3400               	retlw	0
  1113  0814  3400               	retlw	0
  1114  0815                     __end_of_Scheduler_Intitys:
  1115  0007                     _PORTCbits	set	7
  1116  0001                     _TMR0	set	1
  1117  0007                     _PORTC	set	7
  1118  0008                     _PORTD	set	8
  1119  0005                     _PORTA	set	5
  1120  0006                     _PORTB	set	6
  1121  000B                     _INTCONbits	set	11
  1122  001E                     _ADRESH	set	30
  1123  001F                     _ADCON0bits	set	31
  1124  0087                     _TRISCbits	set	135
  1125  0081                     _OPTION_REGbits	set	129
  1126  0088                     _TRISD	set	136
  1127  0085                     _TRISA	set	133
  1128  0086                     _TRISB	set	134
  1129  0087                     _TRISC	set	135
  1130  009E                     _ADRESL	set	158
  1131  009F                     _ADCON1bits	set	159
  1132  040E                     _INTEDG	set	1038
  1133                           
  1134                           	psect	cinit
  1135  0015                     start_initialization:	
  1136                           ; #config settings
  1137                           
  1138  0015                     __initialization:
  1139                           
  1140                           ; Initialize objects allocated to BANK0
  1141  0015  160A  118A  27F0  120A  118A  	fcall	__pidataBANK0	;fetch initializer
  1142  001A  00D2               	movwf	__pdataBANK0& (0+127)
  1143  001B  160A  118A  27F1  120A  118A  	fcall	__pidataBANK0+1	;fetch initializer
  1144  0020  00D3               	movwf	(__pdataBANK0+1)& (0+127)
  1145  0021  160A  118A  27F2  120A  118A  	fcall	__pidataBANK0+2	;fetch initializer
  1146  0026  00D4               	movwf	(__pdataBANK0+2)& (0+127)
  1147  0027  160A  118A  27F3  120A  118A  	fcall	__pidataBANK0+3	;fetch initializer
  1148  002C  00D5               	movwf	(__pdataBANK0+3)& (0+127)
  1149                           
  1150                           ; Clear objects allocated to BANK3
  1151  002D  1783               	bsf	3,7	;select IRP bank2
  1152  002E  3090               	movlw	low __pbssBANK3
  1153  002F  0084               	movwf	4
  1154  0030  30B8               	movlw	low (__pbssBANK3+40)
  1155  0031  120A  158A  2017  120A  118A  	fcall	clear_ram0
  1156                           
  1157                           ; Clear objects allocated to BANK1
  1158  0036  1683               	bsf	3,5	;RP0=1, select bank1
  1159  0037  1303               	bcf	3,6	;RP1=0, select bank1
  1160  0038  01DA               	clrf	__pbssBANK1& (0+127)
  1161  0039  01DB               	clrf	(__pbssBANK1+1)& (0+127)
  1162  003A  01DC               	clrf	(__pbssBANK1+2)& (0+127)
  1163  003B  01DD               	clrf	(__pbssBANK1+3)& (0+127)
  1164  003C  01DE               	clrf	(__pbssBANK1+4)& (0+127)
  1165  003D  01DF               	clrf	(__pbssBANK1+5)& (0+127)
  1166                           
  1167                           ; Clear objects allocated to BANK0
  1168  003E  1383               	bcf	3,7	;select IRP bank0
  1169  003F  303B               	movlw	low __pbssBANK0
  1170  0040  0084               	movwf	4
  1171  0041  3052               	movlw	low (__pbssBANK0+23)
  1172  0042  120A  158A  2017  120A  118A  	fcall	clear_ram0
  1173  0047                     end_of_initialization:	
  1174                           ;End of C runtime variable initialization code
  1175                           
  1176  0047                     __end_of__initialization:
  1177  0047  0183               	clrf	3
  1178  0048  120A  158A  2AD7   	ljmp	_main	;jump to C main() function
  1179                           
  1180                           	psect	bssBANK0
  1181  003B                     __pbssBANK0:
  1182  003B                     _Tick_Num:
  1183  003B                     	ds	4
  1184  003F                     _Avrage_buffer:
  1185  003F                     	ds	4
  1186  0043                     Set_EEPROM_Data@nt:
  1187  0043                     	ds	1
  1188  0044                     Set_EEPROM_Data@al:
  1189  0044                     	ds	1
  1190  0045                     Set_EEPROM_Data@ah:
  1191  0045                     	ds	1
  1192  0046                     _EEPROM_Data:
  1193  0046                     	ds	1
  1194  0047                     Display_MainFunction@Display:
  1195  0047                     	ds	1
  1196  0048                     Display_MainFunction@Tempreture:
  1197  0048                     	ds	1
  1198  0049                     Display_MainFunction@Digit_2:
  1199  0049                     	ds	1
  1200  004A                     Display_MainFunction@Digit_1:
  1201  004A                     	ds	1
  1202  004B                     _LED_Status:
  1203  004B                     	ds	1
  1204  004C                     _Enable_Display:
  1205  004C                     	ds	1
  1206  004D                     _Temperature:
  1207  004D                     	ds	5
  1208                           
  1209                           	psect	dataBANK0
  1210  0052                     __pdataBANK0:
  1211  0052                     LED_BLINKING@Counter:
  1212  0052                     	ds	1
  1213  0053                     Display_Blink@Counter:
  1214  0053                     	ds	1
  1215  0054                     Display_MainFunction@Enable_Digit_Selector:
  1216  0054                     	ds	1
  1217  0055                     _Average_Nvalues:
  1218  0055                     	ds	1
  1219                           
  1220                           	psect	bssBANK1
  1221  00DA                     __pbssBANK1:
  1222  00DA                     _Mode:
  1223  00DA                     	ds	2
  1224  00DC                     _ADC_Info:
  1225  00DC                     	ds	1
  1226  00DD                     _Scheduler_ActivationFlags:
  1227  00DD                     	ds	3
  1228                           
  1229                           	psect	bssBANK3
  1230  0190                     __pbssBANK3:
  1231  0190                     _temb_val:
  1232  0190                     	ds	40
  1233                           
  1234                           	psect	clrtext
  1235  0817                     clear_ram0:	
  1236                           ;	Called with FSR containing the base address, and
  1237                           ;	W with the last address+1
  1238                           
  1239  0817  0064               	clrwdt	;clear the watchdog before getting into this loop
  1240  0818                     clrloop0:
  1241  0818  0180               	clrf	0	;clear RAM location pointed to by FSR
  1242  0819  0A84               	incf	4,f	;increment pointer
  1243  081A  0604               	xorwf	4,w	;XOR with final address
  1244  081B  1903               	btfsc	3,2	;have we reached the end yet?
  1245  081C  3400               	retlw	0	;all done for this memory range, return
  1246  081D  0604               	xorwf	4,w	;XOR again to restore value
  1247  081E  2818               	goto	clrloop0	;do the next byte
  1248                           
  1249                           	psect	cstackBANK1
  1250  00A0                     __pcstackBANK1:
  1251  00A0                     ?_memset:
  1252  00A0                     ??_Elements_MainFunction:	
  1253                           ; 1 bytes @ 0x0
  1254                           
  1255  00A0                     ??_i2c_wb:	
  1256                           ; 1 bytes @ 0x0
  1257                           
  1258  00A0                     ?__Umul8_16:	
  1259                           ; 1 bytes @ 0x0
  1260                           
  1261  00A0                     ?___wmul:	
  1262                           ; 2 bytes @ 0x0
  1263                           
  1264  00A0                     ?___awdiv:	
  1265                           ; 2 bytes @ 0x0
  1266                           
  1267  00A0                     ?___awmod:	
  1268                           ; 2 bytes @ 0x0
  1269                           
  1270  00A0                     ?___lwmod:	
  1271                           ; 2 bytes @ 0x0
  1272                           
  1273  00A0                     ?___lldiv:	
  1274                           ; 2 bytes @ 0x0
  1275                           
  1276  00A0                     ?___xxtofl:	
  1277                           ; 4 bytes @ 0x0
  1278                           
  1279  00A0                     i2c_rb@ack:	
  1280                           ; 4 bytes @ 0x0
  1281                           
  1282  00A0                     ___bmul@product:	
  1283                           ; 1 bytes @ 0x0
  1284                           
  1285  00A0                     __Umul8_16@multiplicand:	
  1286                           ; 1 bytes @ 0x0
  1287                           
  1288  00A0                     ___wmul@multiplier:	
  1289                           ; 1 bytes @ 0x0
  1290                           
  1291  00A0                     ___awdiv@divisor:	
  1292                           ; 2 bytes @ 0x0
  1293                           
  1294  00A0                     ___awmod@divisor:	
  1295                           ; 2 bytes @ 0x0
  1296                           
  1297  00A0                     ___lwmod@divisor:	
  1298                           ; 2 bytes @ 0x0
  1299                           
  1300  00A0                     memset@c:	
  1301                           ; 2 bytes @ 0x0
  1302                           
  1303  00A0                     ___lldiv@divisor:	
  1304                           ; 2 bytes @ 0x0
  1305                           
  1306  00A0                     ___xxtofl@val:	
  1307                           ; 4 bytes @ 0x0
  1308                           
  1309                           
  1310                           ; 4 bytes @ 0x0
  1311  00A0                     	ds	1
  1312  00A1                     i2c_rb@ret:
  1313  00A1                     ___bmul@multiplier:	
  1314                           ; 1 bytes @ 0x1
  1315                           
  1316                           
  1317                           ; 1 bytes @ 0x1
  1318  00A1                     	ds	1
  1319  00A2                     ??__Umul8_16:
  1320  00A2                     i2c_wb@val:	
  1321                           ; 1 bytes @ 0x2
  1322                           
  1323  00A2                     i2c_rb@i:	
  1324                           ; 1 bytes @ 0x2
  1325                           
  1326  00A2                     ___wmul@multiplicand:	
  1327                           ; 1 bytes @ 0x2
  1328                           
  1329  00A2                     ___awdiv@dividend:	
  1330                           ; 2 bytes @ 0x2
  1331                           
  1332  00A2                     ___awmod@dividend:	
  1333                           ; 2 bytes @ 0x2
  1334                           
  1335  00A2                     ___lwmod@dividend:	
  1336                           ; 2 bytes @ 0x2
  1337                           
  1338  00A2                     memset@n:	
  1339                           ; 2 bytes @ 0x2
  1340                           
  1341                           
  1342                           ; 2 bytes @ 0x2
  1343  00A2                     	ds	1
  1344  00A3                     i2c_wb@i:
  1345                           
  1346                           ; 1 bytes @ 0x3
  1347  00A3                     	ds	1
  1348  00A4                     ?_e2pext_r:
  1349  00A4                     ??___xxtofl:	
  1350                           ; 1 bytes @ 0x4
  1351                           
  1352  00A4                     ___awdiv@counter:	
  1353                           ; 1 bytes @ 0x4
  1354                           
  1355  00A4                     ___awmod@counter:	
  1356                           ; 1 bytes @ 0x4
  1357                           
  1358  00A4                     memset@p:	
  1359                           ; 1 bytes @ 0x4
  1360                           
  1361  00A4                     e2pext_r@addr:	
  1362                           ; 1 bytes @ 0x4
  1363                           
  1364  00A4                     ___wmul@product:	
  1365                           ; 2 bytes @ 0x4
  1366                           
  1367  00A4                     __Umul8_16@product:	
  1368                           ; 2 bytes @ 0x4
  1369                           
  1370  00A4                     ___lldiv@dividend:	
  1371                           ; 2 bytes @ 0x4
  1372                           
  1373                           
  1374                           ; 4 bytes @ 0x4
  1375  00A4                     	ds	1
  1376  00A5                     ___awdiv@sign:
  1377  00A5                     ___awmod@sign:	
  1378                           ; 1 bytes @ 0x5
  1379                           
  1380  00A5                     memset@p1:	
  1381                           ; 1 bytes @ 0x5
  1382                           
  1383                           
  1384                           ; 1 bytes @ 0x5
  1385  00A5                     	ds	1
  1386  00A6                     ?_Display_Blink:
  1387  00A6                     ?_Start_Setting_Timer:	
  1388                           ; 1 bytes @ 0x6
  1389                           
  1390  00A6                     ?_LED_BLINKING:	
  1391                           ; 1 bytes @ 0x6
  1392                           
  1393  00A6                     e2pext_r@ret:	
  1394                           ; 1 bytes @ 0x6
  1395                           
  1396  00A6                     Display_Blink@Times_Ms:	
  1397                           ; 1 bytes @ 0x6
  1398                           
  1399  00A6                     LED_BLINKING@Time_Ms:	
  1400                           ; 2 bytes @ 0x6
  1401                           
  1402  00A6                     Start_Setting_Timer@Timer_Ms:	
  1403                           ; 2 bytes @ 0x6
  1404                           
  1405  00A6                     ___awdiv@quotient:	
  1406                           ; 2 bytes @ 0x6
  1407                           
  1408  00A6                     __Umul8_16@word_mpld:	
  1409                           ; 2 bytes @ 0x6
  1410                           
  1411                           
  1412                           ; 2 bytes @ 0x6
  1413  00A6                     	ds	1
  1414  00A7                     e2pext_r@al:
  1415                           
  1416                           ; 1 bytes @ 0x7
  1417  00A7                     	ds	1
  1418  00A8                     e2pext_r@ah:
  1419  00A8                     __Umul8_16@multiplier:	
  1420                           ; 1 bytes @ 0x8
  1421                           
  1422  00A8                     ___xxtofl@sign:	
  1423                           ; 1 bytes @ 0x8
  1424                           
  1425  00A8                     Display_Blink@Task_Peroid:	
  1426                           ; 1 bytes @ 0x8
  1427                           
  1428  00A8                     LED_BLINKING@Task_Peroid:	
  1429                           ; 2 bytes @ 0x8
  1430                           
  1431  00A8                     Start_Setting_Timer@Peroid_Task:	
  1432                           ; 2 bytes @ 0x8
  1433                           
  1434  00A8                     ___lldiv@quotient:	
  1435                           ; 2 bytes @ 0x8
  1436                           
  1437                           
  1438                           ; 4 bytes @ 0x8
  1439  00A8                     	ds	1
  1440  00A9                     ??_Get_EEPROM_Data:
  1441  00A9                     ___xxtofl@exp:	
  1442                           ; 1 bytes @ 0x9
  1443                           
  1444                           
  1445                           ; 1 bytes @ 0x9
  1446  00A9                     	ds	1
  1447  00AA                     ??_Display_Blink:
  1448  00AA                     ??_Start_Setting_Timer:	
  1449                           ; 1 bytes @ 0xA
  1450                           
  1451  00AA                     ??_LED_BLINKING:	
  1452                           ; 1 bytes @ 0xA
  1453                           
  1454  00AA                     Get_EEPROM_Data@Flag:	
  1455                           ; 1 bytes @ 0xA
  1456                           
  1457  00AA                     ___xxtofl@arg:	
  1458                           ; 1 bytes @ 0xA
  1459                           
  1460                           
  1461                           ; 4 bytes @ 0xA
  1462  00AA                     	ds	1
  1463  00AB                     Get_EEPROM_Data@Temp:
  1464                           
  1465                           ; 1 bytes @ 0xB
  1466  00AB                     	ds	1
  1467  00AC                     ??_Mode_MainFunction:
  1468  00AC                     ??_Display_MainFunction:	
  1469                           ; 1 bytes @ 0xC
  1470                           
  1471  00AC                     ___lldiv@counter:	
  1472                           ; 1 bytes @ 0xC
  1473                           
  1474                           
  1475                           ; 1 bytes @ 0xC
  1476  00AC                     	ds	1
  1477  00AD                     ?_Average_Value:
  1478  00AD                     Average_Value@Avrage_Values:	
  1479                           ; 1 bytes @ 0xD
  1480                           
  1481                           
  1482                           ; 1 bytes @ 0xD
  1483  00AD                     	ds	1
  1484  00AE                     ??_Average_Value:
  1485  00AE                     ?___flmul:	
  1486                           ; 1 bytes @ 0xE
  1487                           
  1488  00AE                     ___flmul@b:	
  1489                           ; 4 bytes @ 0xE
  1490                           
  1491                           
  1492                           ; 4 bytes @ 0xE
  1493  00AE                     	ds	4
  1494  00B2                     ___flmul@a:
  1495                           
  1496                           ; 4 bytes @ 0x12
  1497  00B2                     	ds	1
  1498  00B3                     Average_Value@Value:
  1499                           
  1500                           ; 1 bytes @ 0x13
  1501  00B3                     	ds	1
  1502  00B4                     Average_Value@index:
  1503                           
  1504                           ; 1 bytes @ 0x14
  1505  00B4                     	ds	2
  1506  00B6                     ??___flmul:
  1507                           
  1508                           ; 1 bytes @ 0x16
  1509  00B6                     	ds	5
  1510  00BB                     ___flmul@sign:
  1511                           
  1512                           ; 1 bytes @ 0x1B
  1513  00BB                     	ds	1
  1514  00BC                     ___flmul@aexp:
  1515                           
  1516                           ; 1 bytes @ 0x1C
  1517  00BC                     	ds	1
  1518  00BD                     ___flmul@grs:
  1519                           
  1520                           ; 4 bytes @ 0x1D
  1521  00BD                     	ds	4
  1522  00C1                     ___flmul@bexp:
  1523                           
  1524                           ; 1 bytes @ 0x21
  1525  00C1                     	ds	1
  1526  00C2                     ___flmul@prod:
  1527                           
  1528                           ; 4 bytes @ 0x22
  1529  00C2                     	ds	4
  1530  00C6                     ___flmul@temp:
  1531                           
  1532                           ; 2 bytes @ 0x26
  1533  00C6                     	ds	2
  1534  00C8                     ?___fltol:
  1535  00C8                     ___fltol@f1:	
  1536                           ; 4 bytes @ 0x28
  1537                           
  1538                           
  1539                           ; 4 bytes @ 0x28
  1540  00C8                     	ds	4
  1541  00CC                     ??___fltol:
  1542                           
  1543                           ; 1 bytes @ 0x2C
  1544  00CC                     	ds	4
  1545  00D0                     ___fltol@sign1:
  1546                           
  1547                           ; 1 bytes @ 0x30
  1548  00D0                     	ds	1
  1549  00D1                     ___fltol@exp1:
  1550                           
  1551                           ; 1 bytes @ 0x31
  1552  00D1                     	ds	1
  1553  00D2                     ??_Temperature_Calc:
  1554                           
  1555                           ; 1 bytes @ 0x32
  1556  00D2                     	ds	4
  1557  00D6                     Temperature_Calc@ADC_VALUE:
  1558                           
  1559                           ; 1 bytes @ 0x36
  1560  00D6                     	ds	1
  1561  00D7                     ADC_Value_Ready_CallBack@ADC_Value:
  1562                           
  1563                           ; 2 bytes @ 0x37
  1564  00D7                     	ds	2
  1565  00D9                     Scheduler_Start@IntityIndex:
  1566                           
  1567                           ; 1 bytes @ 0x39
  1568  00D9                     	ds	1
  1569                           
  1570                           	psect	cstackCOMMON
  1571  0070                     __pcstackCOMMON:
  1572  0070                     ?_ADC_Value_Ready_CallBack:
  1573  0070                     ?_Temperature_Calc:	
  1574                           ; 1 bytes @ 0x0
  1575                           
  1576  0070                     ?_GPIO_Init:	
  1577                           ; 1 bytes @ 0x0
  1578                           
  1579  0070                     ?_On_Off_Init:	
  1580                           ; 1 bytes @ 0x0
  1581                           
  1582  0070                     ?_Display_Init:	
  1583                           ; 1 bytes @ 0x0
  1584                           
  1585  0070                     ?_Elements_Init:	
  1586                           ; 1 bytes @ 0x0
  1587                           
  1588  0070                     ?_Mode_Init:	
  1589                           ; 1 bytes @ 0x0
  1590                           
  1591  0070                     ?_Get_EEPROM_Data:	
  1592                           ; 1 bytes @ 0x0
  1593                           
  1594  0070                     ?_Scheduler_Init:	
  1595                           ; 1 bytes @ 0x0
  1596                           
  1597  0070                     ?_Timer0_Init:	
  1598                           ; 1 bytes @ 0x0
  1599                           
  1600  0070                     ?_Scheduler_Start:	
  1601                           ; 1 bytes @ 0x0
  1602                           
  1603  0070                     ?_Timer0_CallBack:	
  1604                           ; 1 bytes @ 0x0
  1605                           
  1606  0070                     ?_Scheduler_Task1:	
  1607                           ; 1 bytes @ 0x0
  1608                           
  1609  0070                     ?_Scheduler_Task2:	
  1610                           ; 1 bytes @ 0x0
  1611                           
  1612  0070                     ?_Scheduler_Task3:	
  1613                           ; 1 bytes @ 0x0
  1614                           
  1615  0070                     ?_Mode_MainFunction:	
  1616                           ; 1 bytes @ 0x0
  1617                           
  1618  0070                     ?_Set_EEPROM_Data:	
  1619                           ; 1 bytes @ 0x0
  1620                           
  1621  0070                     ?_ADC_Init:	
  1622                           ; 1 bytes @ 0x0
  1623                           
  1624  0070                     ?_ADC_Start_Conv:	
  1625                           ; 1 bytes @ 0x0
  1626                           
  1627  0070                     ?_ADC_Conv_MainFunction:	
  1628                           ; 1 bytes @ 0x0
  1629                           
  1630  0070                     ?_main:	
  1631                           ; 1 bytes @ 0x0
  1632                           
  1633  0070                     ?_EXTI_On_Off_CallBack:	
  1634                           ; 1 bytes @ 0x0
  1635                           
  1636  0070                     ??_EXTI_On_Off_CallBack:	
  1637                           ; 1 bytes @ 0x0
  1638                           
  1639  0070                     ?_Read_UP_DOWN_BUTTONS:	
  1640                           ; 1 bytes @ 0x0
  1641                           
  1642  0070                     ?_Display_MainFunction:	
  1643                           ; 1 bytes @ 0x0
  1644                           
  1645  0070                     ?_LED_MainFunction:	
  1646                           ; 1 bytes @ 0x0
  1647                           
  1648  0070                     ?_Elements_MainFunction:	
  1649                           ; 1 bytes @ 0x0
  1650                           
  1651  0070                     ?_myISR:	
  1652                           ; 1 bytes @ 0x0
  1653                           
  1654  0070                     ?_delay:	
  1655                           ; 1 bytes @ 0x0
  1656                           
  1657  0070                     ?_i2c_start:	
  1658                           ; 1 bytes @ 0x0
  1659                           
  1660  0070                     ?_i2c_stop:	
  1661                           ; 1 bytes @ 0x0
  1662                           
  1663  0070                     ?_i2c_wb:	
  1664                           ; 1 bytes @ 0x0
  1665                           
  1666  0070                     ?_i2c_rb:	
  1667                           ; 1 bytes @ 0x0
  1668                           
  1669  0070                     ?i1___bmul:	
  1670                           ; 1 bytes @ 0x0
  1671                           
  1672  0070                     i1___bmul@multiplicand:	
  1673                           ; 1 bytes @ 0x0
  1674                           
  1675                           
  1676                           ; 1 bytes @ 0x0
  1677  0070                     	ds	1
  1678  0071                     ??i1___bmul:
  1679  0071                     i1___bmul@product:	
  1680                           ; 1 bytes @ 0x1
  1681                           
  1682                           
  1683                           ; 1 bytes @ 0x1
  1684  0071                     	ds	1
  1685  0072                     i1___bmul@multiplier:
  1686                           
  1687                           ; 1 bytes @ 0x2
  1688  0072                     	ds	1
  1689  0073                     ?i1___lldiv:
  1690  0073                     i1___lldiv@divisor:	
  1691                           ; 4 bytes @ 0x3
  1692                           
  1693                           
  1694                           ; 4 bytes @ 0x3
  1695  0073                     	ds	4
  1696  0077                     i1___lldiv@dividend:
  1697                           
  1698                           ; 4 bytes @ 0x7
  1699  0077                     	ds	4
  1700  007B                     ??i1___lldiv:
  1701                           
  1702                           ; 1 bytes @ 0xB
  1703  007B                     	ds	1
  1704  007C                     ??___llmod:
  1705                           
  1706                           ; 1 bytes @ 0xC
  1707  007C                     	ds	1
  1708  007D                     ___llmod@counter:
  1709                           
  1710                           ; 1 bytes @ 0xD
  1711  007D                     	ds	1
  1712  007E                     ??_Timer0_CallBack:
  1713  007E                     ??_Scheduler_ActivateTask:	
  1714                           ; 1 bytes @ 0xE
  1715                           
  1716                           
  1717                           	psect	cstackBANK0
  1718  0020                     __pcstackBANK0:	
  1719                           ; 1 bytes @ 0xE
  1720                           
  1721  0020                     i1___lldiv@quotient:
  1722                           
  1723                           ; 4 bytes @ 0x0
  1724  0020                     	ds	4
  1725  0024                     i1___lldiv@counter:
  1726                           
  1727                           ; 1 bytes @ 0x4
  1728  0024                     	ds	1
  1729  0025                     ?___llmod:
  1730  0025                     ___llmod@divisor:	
  1731                           ; 4 bytes @ 0x5
  1732                           
  1733                           
  1734                           ; 4 bytes @ 0x5
  1735  0025                     	ds	4
  1736  0029                     ___llmod@dividend:
  1737                           
  1738                           ; 4 bytes @ 0x9
  1739  0029                     	ds	4
  1740  002D                     ?_Scheduler_ActivateTask:
  1741  002D                     Scheduler_ActivateTask@SystemTick:	
  1742                           ; 1 bytes @ 0xD
  1743                           
  1744                           
  1745                           ; 4 bytes @ 0xD
  1746  002D                     	ds	4
  1747  0031                     Scheduler_ActivateTask@SystemTick_Loc:
  1748                           
  1749                           ; 4 bytes @ 0x11
  1750  0031                     	ds	4
  1751  0035                     Scheduler_ActivateTask@IntityIndex:
  1752                           
  1753                           ; 1 bytes @ 0x15
  1754  0035                     	ds	1
  1755  0036                     ??_myISR:
  1756                           
  1757                           ; 1 bytes @ 0x16
  1758  0036                     	ds	4
  1759  003A                     ??_GPIO_Init:
  1760  003A                     ??_On_Off_Init:	
  1761                           ; 1 bytes @ 0x1A
  1762                           
  1763  003A                     ??_Display_Init:	
  1764                           ; 1 bytes @ 0x1A
  1765                           
  1766  003A                     ??_Elements_Init:	
  1767                           ; 1 bytes @ 0x1A
  1768                           
  1769  003A                     ??_Mode_Init:	
  1770                           ; 1 bytes @ 0x1A
  1771                           
  1772  003A                     ??_Scheduler_Init:	
  1773                           ; 1 bytes @ 0x1A
  1774                           
  1775  003A                     ??_Timer0_Init:	
  1776                           ; 1 bytes @ 0x1A
  1777                           
  1778  003A                     ??_memset:	
  1779                           ; 1 bytes @ 0x1A
  1780                           
  1781  003A                     ??_Scheduler_Task1:	
  1782                           ; 1 bytes @ 0x1A
  1783                           
  1784  003A                     ??_ADC_Init:	
  1785                           ; 1 bytes @ 0x1A
  1786                           
  1787  003A                     ??_ADC_Start_Conv:	
  1788                           ; 1 bytes @ 0x1A
  1789                           
  1790  003A                     ??_Read_UP_DOWN_BUTTONS:	
  1791                           ; 1 bytes @ 0x1A
  1792                           
  1793  003A                     ??_LED_MainFunction:	
  1794                           ; 1 bytes @ 0x1A
  1795                           
  1796  003A                     ??_delay:	
  1797                           ; 1 bytes @ 0x1A
  1798                           
  1799  003A                     ??_i2c_start:	
  1800                           ; 1 bytes @ 0x1A
  1801                           
  1802  003A                     ??_i2c_stop:	
  1803                           ; 1 bytes @ 0x1A
  1804                           
  1805  003A                     ??_i2c_rb:	
  1806                           ; 1 bytes @ 0x1A
  1807                           
  1808  003A                     ??___wmul:	
  1809                           ; 1 bytes @ 0x1A
  1810                           
  1811  003A                     ?___bmul:	
  1812                           ; 1 bytes @ 0x1A
  1813                           
  1814  003A                     ??___lldiv:	
  1815                           ; 1 bytes @ 0x1A
  1816                           
  1817  003A                     ??___awdiv:	
  1818                           ; 1 bytes @ 0x1A
  1819                           
  1820  003A                     ??___awmod:	
  1821                           ; 1 bytes @ 0x1A
  1822                           
  1823  003A                     ??___lwmod:	
  1824                           ; 1 bytes @ 0x1A
  1825                           
  1826  003A                     ___bmul@multiplicand:	
  1827                           ; 1 bytes @ 0x1A
  1828                           
  1829  003A                     ___lwmod@counter:	
  1830                           ; 1 bytes @ 0x1A
  1831                           
  1832                           
  1833                           ; 1 bytes @ 0x1A
  1834  003A                     	ds	1
  1835  003B                     ??_ADC_Value_Ready_CallBack:
  1836  003B                     ??_Scheduler_Start:	
  1837                           ; 1 bytes @ 0x1B
  1838                           
  1839  003B                     ??_Scheduler_Task2:	
  1840                           ; 1 bytes @ 0x1B
  1841                           
  1842  003B                     ??_Scheduler_Task3:	
  1843                           ; 1 bytes @ 0x1B
  1844                           
  1845  003B                     ??_Set_EEPROM_Data:	
  1846                           ; 1 bytes @ 0x1B
  1847                           
  1848  003B                     ??_e2pext_r:	
  1849                           ; 1 bytes @ 0x1B
  1850                           
  1851  003B                     ??_ADC_Conv_MainFunction:	
  1852                           ; 1 bytes @ 0x1B
  1853                           
  1854  003B                     ??_main:	
  1855                           ; 1 bytes @ 0x1B
  1856                           
  1857  003B                     ??___bmul:	
  1858                           ; 1 bytes @ 0x1B
  1859                           
  1860                           
  1861                           	psect	maintext
  1862  0AD7                     __pmaintext:	
  1863                           ; 1 bytes @ 0x1B
  1864 ;;
  1865 ;;Main: autosize = 0, tempsize = 0, incstack = 0, save=0
  1866 ;;
  1867 ;; *************** function _main *****************
  1868 ;; Defined at:
  1869 ;;		line 40 in file "main.c"
  1870 ;; Parameters:    Size  Location     Type
  1871 ;;		None
  1872 ;; Auto vars:     Size  Location     Type
  1873 ;;		None
  1874 ;; Return value:  Size  Location     Type
  1875 ;;                  1    wreg      void 
  1876 ;; Registers used:
  1877 ;;		wreg, fsr0l, fsr0h, status,2, status,0, btemp+1, pclath, cstack
  1878 ;; Tracked objects:
  1879 ;;		On entry : B00/0
  1880 ;;		On exit  : 0/0
  1881 ;;		Unchanged: 0/0
  1882 ;; Data sizes:     COMMON   BANK0   BANK1   BANK3   BANK2
  1883 ;;      Params:         0       0       0       0       0
  1884 ;;      Locals:         0       0       0       0       0
  1885 ;;      Temps:          0       0       0       0       0
  1886 ;;      Totals:         0       0       0       0       0
  1887 ;;Total ram usage:        0 bytes
  1888 ;; Hardware stack levels required when called:   11
  1889 ;; This function calls:
  1890 ;;		_ADC_Init
  1891 ;;		_ADC_Start_Conv
  1892 ;;		_Display_Init
  1893 ;;		_Elements_Init
  1894 ;;		_GPIO_Init
  1895 ;;		_Get_EEPROM_Data
  1896 ;;		_Mode_Init
  1897 ;;		_On_Off_Init
  1898 ;;		_Scheduler_Init
  1899 ;;		_Scheduler_Start
  1900 ;;		_Timer0_Init
  1901 ;; This function is called by:
  1902 ;;		Startup code after reset
  1903 ;; This function uses a non-reentrant model
  1904 ;;
  1905                           
  1906                           
  1907                           ;psect for function _main
  1908  0AD7                     _main:
  1909  0AD7                     l3923:	
  1910                           ;incstack = 0
  1911 ;; hardware stack exceeded
  1912                           ; Regs used in _main: [wreg-fsr0h+status,2+status,0+btemp+1+pclath+cstack]
  1913                           
  1914                           
  1915                           ;main.c: 42:   GPIO_Init();
  1916  0AD7  120A  158A  2164  120A  158A  	fcall	_GPIO_Init
  1917  0ADC                     l3925:
  1918                           
  1919                           ;main.c: 43:   ADC_Init();
  1920  0ADC  120A  158A  20EC  120A  158A  	fcall	_ADC_Init
  1921  0AE1                     l3927:
  1922                           
  1923                           ;main.c: 44:   On_Off_Init();
  1924  0AE1  160A  118A  27F4  120A  158A  	fcall	_On_Off_Init
  1925                           
  1926                           ;main.c: 45:   Display_Init();
  1927  0AE6  120A  158A  2041  120A  158A  	fcall	_Display_Init
  1928                           
  1929                           ;main.c: 46:   Elements_Init();
  1930  0AEB  120A  158A  204E  120A  158A  	fcall	_Elements_Init
  1931  0AF0                     l3929:
  1932                           
  1933                           ;main.c: 47:   Mode_Init();
  1934  0AF0  160A  118A  27EC  120A  158A  	fcall	_Mode_Init
  1935  0AF5                     l3931:
  1936                           
  1937                           ;main.c: 48:   Get_EEPROM_Data();
  1938  0AF5  120A  158A  247E  120A  158A  	fcall	_Get_EEPROM_Data
  1939                           
  1940                           ;main.c: 49:   ADC_Start_Conv();
  1941  0AFA  120A  158A  2034  120A  158A  	fcall	_ADC_Start_Conv
  1942  0AFF                     l3933:
  1943                           
  1944                           ;main.c: 50:   Scheduler_Init();
  1945  0AFF  120A  158A  206C  120A  158A  	fcall	_Scheduler_Init
  1946  0B04                     l3935:
  1947                           
  1948                           ;main.c: 51:   Timer0_Init();
  1949  0B04  120A  158A  208C  120A  158A  	fcall	_Timer0_Init
  1950  0B09                     l3937:
  1951                           
  1952                           ;main.c: 52:   Scheduler_Start();
  1953  0B09  120A  158A  229E  120A  158A  	fcall	_Scheduler_Start
  1954  0B0E                     l70:	
  1955                           ;main.c: 55:   while(1);
  1956                           
  1957  0B0E                     l71:
  1958  0B0E  2B0E               	goto	l70
  1959  0B0F  120A  118A  2812   	ljmp	start
  1960  0B12                     __end_of_main:
  1961                           
  1962                           	psect	text1
  1963  088C                     __ptext1:	
  1964 ;; *************** function _Timer0_Init *****************
  1965 ;; Defined at:
  1966 ;;		line 10 in file "Timer/Timer.c"
  1967 ;; Parameters:    Size  Location     Type
  1968 ;;		None
  1969 ;; Auto vars:     Size  Location     Type
  1970 ;;		None
  1971 ;; Return value:  Size  Location     Type
  1972 ;;                  1    wreg      void 
  1973 ;; Registers used:
  1974 ;;		wreg
  1975 ;; Tracked objects:
  1976 ;;		On entry : 0/0
  1977 ;;		On exit  : 0/0
  1978 ;;		Unchanged: 0/0
  1979 ;; Data sizes:     COMMON   BANK0   BANK1   BANK3   BANK2
  1980 ;;      Params:         0       0       0       0       0
  1981 ;;      Locals:         0       0       0       0       0
  1982 ;;      Temps:          0       0       0       0       0
  1983 ;;      Totals:         0       0       0       0       0
  1984 ;;Total ram usage:        0 bytes
  1985 ;; Hardware stack levels used:    1
  1986 ;; Hardware stack levels required when called:    4
  1987 ;; This function calls:
  1988 ;;		Nothing
  1989 ;; This function is called by:
  1990 ;;		_main
  1991 ;; This function uses a non-reentrant model
  1992 ;;
  1993                           
  1994                           
  1995                           ;psect for function _Timer0_Init
  1996  088C                     _Timer0_Init:
  1997  088C                     l3001:	
  1998                           ;incstack = 0
  1999                           ; Regs used in _Timer0_Init: [wreg]
  2000                           
  2001                           
  2002                           ;Timer/Timer.c: 13:      OPTION_REGbits.T0CS=0;
  2003  088C  1683               	bsf	3,5	;RP0=1, select bank1
  2004  088D  1303               	bcf	3,6	;RP1=0, select bank1
  2005  088E  1281               	bcf	1,5	;volatile
  2006                           
  2007                           ;Timer/Timer.c: 14:      OPTION_REGbits.PSA=0;
  2008  088F  1181               	bcf	1,3	;volatile
  2009                           
  2010                           ;Timer/Timer.c: 17:      OPTION_REGbits.PS0=1;
  2011  0890  1401               	bsf	1,0	;volatile
  2012                           
  2013                           ;Timer/Timer.c: 18:      OPTION_REGbits.PS1=1;
  2014  0891  1481               	bsf	1,1	;volatile
  2015                           
  2016                           ;Timer/Timer.c: 19:      OPTION_REGbits.PS2=1;
  2017  0892  1501               	bsf	1,2	;volatile
  2018                           
  2019                           ;Timer/Timer.c: 22:         INTCONbits.TMR0IE=1;
  2020  0893  168B               	bsf	11,5	;volatile
  2021                           
  2022                           ;Timer/Timer.c: 23:         INTCONbits.PEIE=1;
  2023  0894  170B               	bsf	11,6	;volatile
  2024                           
  2025                           ;Timer/Timer.c: 24:         INTCONbits.GIE=1;
  2026  0895  178B               	bsf	11,7	;volatile
  2027  0896                     l3003:
  2028                           
  2029                           ;Timer/Timer.c: 26:      TMR0=100;
  2030  0896  3064               	movlw	100
  2031  0897  1283               	bcf	3,5	;RP0=0, select bank0
  2032  0898  1303               	bcf	3,6	;RP1=0, select bank0
  2033  0899  0081               	movwf	1	;volatile
  2034  089A                     l3005:
  2035                           
  2036                           ;Timer/Timer.c: 27:         INTCONbits.TMR0IF=0;
  2037  089A  110B               	bcf	11,2	;volatile
  2038  089B                     l370:
  2039  089B  0008               	return
  2040  089C                     __end_of_Timer0_Init:
  2041                           
  2042                           	psect	text2
  2043  0A9E                     __ptext2:	
  2044 ;; *************** function _Scheduler_Start *****************
  2045 ;; Defined at:
  2046 ;;		line 13 in file "Scheduler/Scheduler.c"
  2047 ;; Parameters:    Size  Location     Type
  2048 ;;		None
  2049 ;; Auto vars:     Size  Location     Type
  2050 ;;  IntityIndex     1   57[BANK1 ] unsigned char 
  2051 ;; Return value:  Size  Location     Type
  2052 ;;                  1    wreg      void 
  2053 ;; Registers used:
  2054 ;;		wreg, fsr0l, fsr0h, status,2, status,0, btemp+1, pclath, cstack
  2055 ;; Tracked objects:
  2056 ;;		On entry : 0/0
  2057 ;;		On exit  : 0/0
  2058 ;;		Unchanged: 0/0
  2059 ;; Data sizes:     COMMON   BANK0   BANK1   BANK3   BANK2
  2060 ;;      Params:         0       0       0       0       0
  2061 ;;      Locals:         0       0       1       0       0
  2062 ;;      Temps:          0       0       0       0       0
  2063 ;;      Totals:         0       0       1       0       0
  2064 ;;Total ram usage:        1 bytes
  2065 ;; Hardware stack levels used:    1
  2066 ;; Hardware stack levels required when called:   10
  2067 ;; This function calls:
  2068 ;;		_Scheduler_Task1
  2069 ;;		_Scheduler_Task2
  2070 ;;		_Scheduler_Task3
  2071 ;;		___bmul
  2072 ;; This function is called by:
  2073 ;;		_main
  2074 ;; This function uses a non-reentrant model
  2075 ;;
  2076                           
  2077                           
  2078                           ;psect for function _Scheduler_Start
  2079  0A9E                     _Scheduler_Start:
  2080  0A9E                     l291:	
  2081                           ;incstack = 0
  2082 ;; hardware stack exceeded
  2083                           ; Regs used in _Scheduler_Start: [wreg-fsr0h+status,2+status,0+btemp+1+pclath+cstack]
  2084                           ;Scheduler/Scheduler.c: 15:   while(1)
  2085                           
  2086  0A9E                     l3903:
  2087                           
  2088                           ;Scheduler/Scheduler.c: 16:   {;Scheduler/Scheduler.c: 17:  for( uint8_t IntityIndex = 0
      +                           ; IntityIndex < ( 3U ) ; IntityIndex++ )
  2089  0A9E  1683               	bsf	3,5	;RP0=1, select bank1
  2090  0A9F  1303               	bcf	3,6	;RP1=0, select bank1
  2091  0AA0  01D9               	clrf	Scheduler_Start@IntityIndex^(0+128)
  2092  0AA1                     l3909:
  2093                           
  2094                           ;Scheduler/Scheduler.c: 18:  {;Scheduler/Scheduler.c: 19:   if( Scheduler_ActivationFlag
      +                          s[IntityIndex] == 1 )
  2095  0AA1  0859               	movf	Scheduler_Start@IntityIndex^(0+128),w
  2096  0AA2  3EDD               	addlw	(low (_Scheduler_ActivationFlags| 0))& (0+255)
  2097  0AA3  0084               	movwf	4
  2098  0AA4  1383               	bcf	3,7	;select IRP bank1
  2099  0AA5  0300               	decf	0,w
  2100  0AA6  1D03               	btfss	3,2
  2101  0AA7  2AA9               	goto	u5551
  2102  0AA8  2AAA               	goto	u5550
  2103  0AA9                     u5551:
  2104  0AA9  2ACB               	goto	l3915
  2105  0AAA                     u5550:
  2106  0AAA                     l3911:
  2107                           
  2108                           ;Scheduler/Scheduler.c: 20:   {;Scheduler/Scheduler.c: 21:    (*Scheduler_Intitys[Intity
      +                          Index].fuction_ptr)();
  2109  0AAA  3005               	movlw	5
  2110  0AAB  00FF               	movwf	btemp+1
  2111  0AAC  087F               	movf	btemp+1,w
  2112  0AAD  1283               	bcf	3,5	;RP0=0, select bank0
  2113  0AAE  1303               	bcf	3,6	;RP1=0, select bank0
  2114  0AAF  00BA               	movwf	___bmul@multiplicand
  2115  0AB0  1683               	bsf	3,5	;RP0=1, select bank1
  2116  0AB1  1303               	bcf	3,6	;RP1=0, select bank1
  2117  0AB2  0859               	movf	Scheduler_Start@IntityIndex^(0+128),w
  2118  0AB3  120A  158A  2145  120A  158A  	fcall	___bmul
  2119  0AB8  3E01               	addlw	low ((_Scheduler_Intitys-__stringbase)| (0+32768))
  2120  0AB9  0084               	movwf	4
  2121  0ABA  120A  158A  2000  120A  158A  	fcall	stringdir
  2122  0ABF  120A  118A  204B  120A  158A  	fcall	fptable
  2123  0AC4                     l3913:
  2124                           
  2125                           ;Scheduler/Scheduler.c: 22:    Scheduler_ActivationFlags[IntityIndex] = 0 ;
  2126  0AC4  1683               	bsf	3,5	;RP0=1, select bank1
  2127  0AC5  1303               	bcf	3,6	;RP1=0, select bank1
  2128  0AC6  0859               	movf	Scheduler_Start@IntityIndex^(0+128),w
  2129  0AC7  3EDD               	addlw	(low (_Scheduler_ActivationFlags| 0))& (0+255)
  2130  0AC8  0084               	movwf	4
  2131  0AC9  1383               	bcf	3,7	;select IRP bank1
  2132  0ACA  0180               	clrf	0
  2133  0ACB                     l3915:
  2134                           
  2135                           ;Scheduler/Scheduler.c: 24:  }
  2136  0ACB  3001               	movlw	1
  2137  0ACC  00FF               	movwf	btemp+1
  2138  0ACD  087F               	movf	btemp+1,w
  2139  0ACE  07D9               	addwf	Scheduler_Start@IntityIndex^(0+128),f
  2140  0ACF                     l3917:
  2141  0ACF  3003               	movlw	3
  2142  0AD0  0259               	subwf	Scheduler_Start@IntityIndex^(0+128),w
  2143  0AD1  1C03               	skipc
  2144  0AD2  2AD4               	goto	u5561
  2145  0AD3  2AD5               	goto	u5560
  2146  0AD4                     u5561:
  2147  0AD4  2AA1               	goto	l3909
  2148  0AD5                     u5560:
  2149  0AD5  2A9E               	goto	l291
  2150  0AD6  0008               	return
  2151  0AD7                     __end_of_Scheduler_Start:
  2152                           
  2153                           	psect	text3
  2154  0945                     __ptext3:	
  2155 ;; *************** function ___bmul *****************
  2156 ;; Defined at:
  2157 ;;		line 4 in file "C:\Program Files (x86)\Microchip\xc8\v2.20\pic\sources\c90\common\Umul8.c"
  2158 ;; Parameters:    Size  Location     Type
  2159 ;;  multiplier      1    wreg     unsigned char 
  2160 ;;  multiplicand    1   26[BANK0 ] unsigned char 
  2161 ;; Auto vars:     Size  Location     Type
  2162 ;;  multiplier      1    1[BANK1 ] unsigned char 
  2163 ;;  product         1    0[BANK1 ] unsigned char 
  2164 ;; Return value:  Size  Location     Type
  2165 ;;                  1    wreg      unsigned char 
  2166 ;; Registers used:
  2167 ;;		wreg, status,2, status,0, btemp+1
  2168 ;; Tracked objects:
  2169 ;;		On entry : 0/0
  2170 ;;		On exit  : 0/0
  2171 ;;		Unchanged: 0/0
  2172 ;; Data sizes:     COMMON   BANK0   BANK1   BANK3   BANK2
  2173 ;;      Params:         0       1       0       0       0
  2174 ;;      Locals:         0       0       2       0       0
  2175 ;;      Temps:          0       0       0       0       0
  2176 ;;      Totals:         0       1       2       0       0
  2177 ;;Total ram usage:        3 bytes
  2178 ;; Hardware stack levels used:    1
  2179 ;; Hardware stack levels required when called:    4
  2180 ;; This function calls:
  2181 ;;		Nothing
  2182 ;; This function is called by:
  2183 ;;		_Scheduler_Start
  2184 ;;		_Scheduler_ActivateTask
  2185 ;; This function uses a non-reentrant model
  2186 ;;
  2187                           
  2188                           
  2189                           ;psect for function ___bmul
  2190  0945                     ___bmul:
  2191                           
  2192                           ;incstack = 0
  2193                           ; Regs used in ___bmul: [wreg+status,2+status,0+btemp+1]
  2194                           ;___bmul@multiplier stored from wreg
  2195  0945  1683               	bsf	3,5	;RP0=1, select bank1
  2196  0946  1303               	bcf	3,6	;RP1=0, select bank1
  2197  0947  00A1               	movwf	___bmul@multiplier^(0+128)
  2198  0948                     l3865:
  2199  0948  01A0               	clrf	___bmul@product^(0+128)
  2200  0949                     l3867:
  2201  0949  1C21               	btfss	___bmul@multiplier^(0+128),0
  2202  094A  294C               	goto	u5481
  2203  094B  294D               	goto	u5480
  2204  094C                     u5481:
  2205  094C  2955               	goto	l3871
  2206  094D                     u5480:
  2207  094D                     l3869:
  2208  094D  1283               	bcf	3,5	;RP0=0, select bank0
  2209  094E  1303               	bcf	3,6	;RP1=0, select bank0
  2210  094F  083A               	movf	___bmul@multiplicand,w
  2211  0950  00FF               	movwf	btemp+1
  2212  0951  087F               	movf	btemp+1,w
  2213  0952  1683               	bsf	3,5	;RP0=1, select bank1
  2214  0953  1303               	bcf	3,6	;RP1=0, select bank1
  2215  0954  07A0               	addwf	___bmul@product^(0+128),f
  2216  0955                     l3871:
  2217  0955  1003               	clrc
  2218  0956  1283               	bcf	3,5	;RP0=0, select bank0
  2219  0957  1303               	bcf	3,6	;RP1=0, select bank0
  2220  0958  0DBA               	rlf	___bmul@multiplicand,f
  2221  0959                     l3873:
  2222  0959  1003               	clrc
  2223  095A  1683               	bsf	3,5	;RP0=1, select bank1
  2224  095B  1303               	bcf	3,6	;RP1=0, select bank1
  2225  095C  0CA1               	rrf	___bmul@multiplier^(0+128),f
  2226  095D                     l3875:
  2227  095D  0821               	movf	___bmul@multiplier^(0+128),w
  2228  095E  1D03               	btfss	3,2
  2229  095F  2961               	goto	u5491
  2230  0960  2962               	goto	u5490
  2231  0961                     u5491:
  2232  0961  2949               	goto	l3867
  2233  0962                     u5490:
  2234  0962                     l3877:
  2235  0962  0820               	movf	___bmul@product^(0+128),w
  2236  0963                     l591:
  2237  0963  0008               	return
  2238  0964                     __end_of___bmul:
  2239                           
  2240                           	psect	text4
  2241  0829                     __ptext4:	
  2242 ;; *************** function _Scheduler_Task2 *****************
  2243 ;; Defined at:
  2244 ;;		line 17 in file "Scheduler/Tasks.c"
  2245 ;; Parameters:    Size  Location     Type
  2246 ;;		None
  2247 ;; Auto vars:     Size  Location     Type
  2248 ;;		None
  2249 ;; Return value:  Size  Location     Type
  2250 ;;                  1    wreg      void 
  2251 ;; Registers used:
  2252 ;;		wreg, fsr0l, fsr0h, status,2, status,0, btemp+1, pclath, cstack
  2253 ;; Tracked objects:
  2254 ;;		On entry : 0/0
  2255 ;;		On exit  : 0/0
  2256 ;;		Unchanged: 0/0
  2257 ;; Data sizes:     COMMON   BANK0   BANK1   BANK3   BANK2
  2258 ;;      Params:         0       0       0       0       0
  2259 ;;      Locals:         0       0       0       0       0
  2260 ;;      Temps:          0       0       0       0       0
  2261 ;;      Totals:         0       0       0       0       0
  2262 ;;Total ram usage:        0 bytes
  2263 ;; Hardware stack levels used:    1
  2264 ;; Hardware stack levels required when called:    9
  2265 ;; This function calls:
  2266 ;;		_ADC_Conv_MainFunction
  2267 ;;		_LED_MainFunction
  2268 ;; This function is called by:
  2269 ;;		_Scheduler_Start
  2270 ;; This function uses a non-reentrant model
  2271 ;;
  2272                           
  2273                           
  2274                           ;psect for function _Scheduler_Task2
  2275  0829                     _Scheduler_Task2:
  2276  0829                     l3859:	
  2277                           ;incstack = 0
  2278 ;; hardware stack exceeded
  2279                           ; Regs used in _Scheduler_Task2: [wreg-fsr0h+status,2+status,0+btemp+1+pclath+cstack]
  2280                           
  2281                           
  2282                           ;Scheduler/Tasks.c: 19:  ADC_Conv_MainFunction();
  2283  0829  120A  158A  2127  120A  158A  	fcall	_ADC_Conv_MainFunction
  2284  082E                     l3861:
  2285                           
  2286                           ;Scheduler/Tasks.c: 20:  LED_MainFunction();
  2287  082E  120A  158A  2352  120A  158A  	fcall	_LED_MainFunction
  2288  0833                     l344:
  2289  0833  0008               	return
  2290  0834                     __end_of_Scheduler_Task2:
  2291                           
  2292                           	psect	text5
  2293  17FA                     __ptext5:	
  2294 ;; *************** function _Scheduler_Task1 *****************
  2295 ;; Defined at:
  2296 ;;		line 11 in file "Scheduler/Tasks.c"
  2297 ;; Parameters:    Size  Location     Type
  2298 ;;		None
  2299 ;; Auto vars:     Size  Location     Type
  2300 ;;		None
  2301 ;; Return value:  Size  Location     Type
  2302 ;;                  1    wreg      void 
  2303 ;; Registers used:
  2304 ;;		wreg, fsr0l, fsr0h, status,2, status,0, btemp+1, pclath, cstack
  2305 ;; Tracked objects:
  2306 ;;		On entry : 0/0
  2307 ;;		On exit  : 0/0
  2308 ;;		Unchanged: 0/0
  2309 ;; Data sizes:     COMMON   BANK0   BANK1   BANK3   BANK2
  2310 ;;      Params:         0       0       0       0       0
  2311 ;;      Locals:         0       0       0       0       0
  2312 ;;      Temps:          0       0       0       0       0
  2313 ;;      Totals:         0       0       0       0       0
  2314 ;;Total ram usage:        0 bytes
  2315 ;; Hardware stack levels used:    1
  2316 ;; Hardware stack levels required when called:    7
  2317 ;; This function calls:
  2318 ;;		_Display_MainFunction
  2319 ;; This function is called by:
  2320 ;;		_Scheduler_Start
  2321 ;; This function uses a non-reentrant model
  2322 ;;
  2323                           
  2324                           
  2325                           ;psect for function _Scheduler_Task1
  2326  17FA                     _Scheduler_Task1:
  2327  17FA                     l3857:	
  2328                           ;incstack = 0
  2329 ;; hardware stack exceeded
  2330                           ; Regs used in _Scheduler_Task1: [wreg-fsr0h+status,2+status,0+btemp+1+pclath+cstack]
  2331                           
  2332                           
  2333                           ;Scheduler/Tasks.c: 13:  Display_MainFunction();
  2334  17FA  120A  118A  23BB  160A  118A  	fcall	_Display_MainFunction
  2335  17FF                     l341:
  2336  17FF  0008               	return
  2337  1800                     __end_of_Scheduler_Task1:
  2338                           
  2339                           	psect	text6
  2340  087C                     __ptext6:	
  2341 ;; *************** function _Scheduler_Task3 *****************
  2342 ;; Defined at:
  2343 ;;		line 24 in file "Scheduler/Tasks.c"
  2344 ;; Parameters:    Size  Location     Type
  2345 ;;		None
  2346 ;; Auto vars:     Size  Location     Type
  2347 ;;		None
  2348 ;; Return value:  Size  Location     Type
  2349 ;;                  1    wreg      void 
  2350 ;; Registers used:
  2351 ;;		wreg, status,2, status,0, btemp+1, pclath, cstack
  2352 ;; Tracked objects:
  2353 ;;		On entry : 0/0
  2354 ;;		On exit  : 0/0
  2355 ;;		Unchanged: 0/0
  2356 ;; Data sizes:     COMMON   BANK0   BANK1   BANK3   BANK2
  2357 ;;      Params:         0       0       0       0       0
  2358 ;;      Locals:         0       0       0       0       0
  2359 ;;      Temps:          0       0       0       0       0
  2360 ;;      Totals:         0       0       0       0       0
  2361 ;;Total ram usage:        0 bytes
  2362 ;; Hardware stack levels used:    1
  2363 ;; Hardware stack levels required when called:    8
  2364 ;; This function calls:
  2365 ;;		_Elements_MainFunction
  2366 ;;		_Mode_MainFunction
  2367 ;;		_Set_EEPROM_Data
  2368 ;; This function is called by:
  2369 ;;		_Scheduler_Start
  2370 ;; This function uses a non-reentrant model
  2371 ;;
  2372                           
  2373                           
  2374                           ;psect for function _Scheduler_Task3
  2375  087C                     _Scheduler_Task3:
  2376  087C                     l3863:	
  2377                           ;incstack = 0
  2378 ;; hardware stack exceeded
  2379                           ; Regs used in _Scheduler_Task3: [wreg+status,2+status,0+btemp+1+pclath+cstack]
  2380                           
  2381                           
  2382                           ;Scheduler/Tasks.c: 26:     Mode_MainFunction();
  2383  087C  120A  158A  278A  120A  158A  	fcall	_Mode_MainFunction
  2384                           
  2385                           ;Scheduler/Tasks.c: 27:  Elements_MainFunction();
  2386  0881  120A  158A  25E6  120A  158A  	fcall	_Elements_MainFunction
  2387                           
  2388                           ;Scheduler/Tasks.c: 28:     Set_EEPROM_Data();
  2389  0886  120A  158A  2588  120A  158A  	fcall	_Set_EEPROM_Data
  2390  088B                     l347:
  2391  088B  0008               	return
  2392  088C                     __end_of_Scheduler_Task3:
  2393                           
  2394                           	psect	text7
  2395  0D88                     __ptext7:	
  2396 ;; *************** function _Set_EEPROM_Data *****************
  2397 ;; Defined at:
  2398 ;;		line 53 in file "EEPROM/EEPROM.c"
  2399 ;; Parameters:    Size  Location     Type
  2400 ;;		None
  2401 ;; Auto vars:     Size  Location     Type
  2402 ;;		None
  2403 ;; Return value:  Size  Location     Type
  2404 ;;                  1    wreg      void 
  2405 ;; Registers used:
  2406 ;;		wreg, status,2, status,0, btemp+1, pclath, cstack
  2407 ;; Tracked objects:
  2408 ;;		On entry : 0/0
  2409 ;;		On exit  : 0/0
  2410 ;;		Unchanged: 0/0
  2411 ;; Data sizes:     COMMON   BANK0   BANK1   BANK3   BANK2
  2412 ;;      Params:         0       0       0       0       0
  2413 ;;      Locals:         0       0       0       0       0
  2414 ;;      Temps:          0       0       0       0       0
  2415 ;;      Totals:         0       0       0       0       0
  2416 ;;Total ram usage:        0 bytes
  2417 ;; Hardware stack levels used:    1
  2418 ;; Hardware stack levels required when called:    7
  2419 ;; This function calls:
  2420 ;;		_e2pext_r
  2421 ;;		_i2c_start
  2422 ;;		_i2c_stop
  2423 ;;		_i2c_wb
  2424 ;; This function is called by:
  2425 ;;		_Scheduler_Task3
  2426 ;; This function uses a non-reentrant model
  2427 ;;
  2428                           
  2429                           
  2430                           ;psect for function _Set_EEPROM_Data
  2431  0D88                     _Set_EEPROM_Data:
  2432  0D88                     l3809:	
  2433                           ;incstack = 0
  2434 ;; hardware stack exceeded
  2435                           ; Regs used in _Set_EEPROM_Data: [wreg+status,2+status,0+btemp+1+pclath+cstack]
  2436                           
  2437                           
  2438                           ;EEPROM/EEPROM.c: 55: static unsigned char ah;;EEPROM/EEPROM.c: 56: static unsigned char
      +                           al;;EEPROM/EEPROM.c: 57: static unsigned char nt;;EEPROM/EEPROM.c: 60: if(Temperature.S
      +                          tore_Set_Temp_Flag==1)
  2439  0D88  1283               	bcf	3,5	;RP0=0, select bank0
  2440  0D89  1303               	bcf	3,6	;RP1=0, select bank0
  2441  0D8A  1CD0               	btfss	_Temperature+3,1
  2442  0D8B  2D8D               	goto	u5411
  2443  0D8C  2D8E               	goto	u5410
  2444  0D8D                     u5411:
  2445  0D8D  2DE5               	goto	l463
  2446  0D8E                     u5410:
  2447  0D8E                     l3811:
  2448                           
  2449                           ;EEPROM/EEPROM.c: 61: {;EEPROM/EEPROM.c: 62:      EEPROM_Data=Temperature.Set_Temp|(1<<7
      +                          );
  2450  0D8E  084F               	movf	_Temperature+2,w
  2451  0D8F  3880               	iorlw	128
  2452  0D90  00FF               	movwf	btemp+1
  2453  0D91  087F               	movf	btemp+1,w
  2454  0D92  00C6               	movwf	_EEPROM_Data
  2455  0D93                     l3813:
  2456                           
  2457                           ;EEPROM/EEPROM.c: 64:      ah=(0xa&0x0100)>>8;
  2458  0D93  01C5               	clrf	Set_EEPROM_Data@ah
  2459                           
  2460                           ;EEPROM/EEPROM.c: 65:      al=0xa&0x00FF;
  2461  0D94  300A               	movlw	10
  2462  0D95  00FF               	movwf	btemp+1
  2463  0D96  087F               	movf	btemp+1,w
  2464  0D97  00C4               	movwf	Set_EEPROM_Data@al
  2465  0D98                     l3815:
  2466                           
  2467                           ;EEPROM/EEPROM.c: 66:      nt=0;
  2468  0D98  01C3               	clrf	Set_EEPROM_Data@nt
  2469  0D99                     l3817:
  2470                           
  2471                           ;EEPROM/EEPROM.c: 69:      {;EEPROM/EEPROM.c: 70:        i2c_start();
  2472  0D99  120A  158A  209C  120A  158A  	fcall	_i2c_start
  2473  0D9E                     l3819:
  2474                           
  2475                           ;EEPROM/EEPROM.c: 71:        if(ah)
  2476  0D9E  1283               	bcf	3,5	;RP0=0, select bank0
  2477  0D9F  1303               	bcf	3,6	;RP1=0, select bank0
  2478  0DA0  0845               	movf	Set_EEPROM_Data@ah,w
  2479  0DA1  1903               	btfsc	3,2
  2480  0DA2  2DA4               	goto	u5421
  2481  0DA3  2DA5               	goto	u5420
  2482  0DA4                     u5421:
  2483  0DA4  2DAC               	goto	l3823
  2484  0DA5                     u5420:
  2485  0DA5                     l3821:
  2486                           
  2487                           ;EEPROM/EEPROM.c: 72:        {;EEPROM/EEPROM.c: 73:          i2c_wb(0xA2);
  2488  0DA5  30A2               	movlw	162
  2489  0DA6  120A  158A  23DC  120A  158A  	fcall	_i2c_wb
  2490                           
  2491                           ;EEPROM/EEPROM.c: 74:        }
  2492  0DAB  2DB2               	goto	l459
  2493  0DAC                     l3823:
  2494                           
  2495                           ;EEPROM/EEPROM.c: 76:        {;EEPROM/EEPROM.c: 77:          i2c_wb(0xA0);
  2496  0DAC  30A0               	movlw	160
  2497  0DAD  120A  158A  23DC  120A  158A  	fcall	_i2c_wb
  2498  0DB2                     l459:	
  2499                           ;EEPROM/EEPROM.c: 78:        }
  2500                           
  2501                           
  2502                           ;EEPROM/EEPROM.c: 79:        i2c_wb(al);
  2503  0DB2  1283               	bcf	3,5	;RP0=0, select bank0
  2504  0DB3  1303               	bcf	3,6	;RP1=0, select bank0
  2505  0DB4  0844               	movf	Set_EEPROM_Data@al,w
  2506  0DB5  120A  158A  23DC  120A  158A  	fcall	_i2c_wb
  2507                           
  2508                           ;EEPROM/EEPROM.c: 80:        i2c_wb(EEPROM_Data);
  2509  0DBA  1283               	bcf	3,5	;RP0=0, select bank0
  2510  0DBB  1303               	bcf	3,6	;RP1=0, select bank0
  2511  0DBC  0846               	movf	_EEPROM_Data,w
  2512  0DBD  120A  158A  23DC  120A  158A  	fcall	_i2c_wb
  2513  0DC2                     l3825:
  2514                           
  2515                           ;EEPROM/EEPROM.c: 81:        i2c_stop();
  2516  0DC2  120A  158A  20AE  120A  158A  	fcall	_i2c_stop
  2517  0DC7                     l3827:
  2518                           
  2519                           ;EEPROM/EEPROM.c: 83:        nt++;
  2520  0DC7  3001               	movlw	1
  2521  0DC8  00FF               	movwf	btemp+1
  2522  0DC9  087F               	movf	btemp+1,w
  2523  0DCA  1283               	bcf	3,5	;RP0=0, select bank0
  2524  0DCB  1303               	bcf	3,6	;RP1=0, select bank0
  2525  0DCC  07C3               	addwf	Set_EEPROM_Data@nt,f
  2526  0DCD                     l3829:
  2527                           
  2528                           ;EEPROM/EEPROM.c: 84:      }
  2529  0DCD  300A               	movlw	10
  2530  0DCE  1683               	bsf	3,5	;RP0=1, select bank1
  2531  0DCF  1303               	bcf	3,6	;RP1=0, select bank1
  2532  0DD0  00A4               	movwf	e2pext_r@addr^(0+128)
  2533  0DD1  3000               	movlw	0
  2534  0DD2  00A5               	movwf	(e2pext_r@addr^(0+128)+1)
  2535  0DD3  120A  158A  24D4  120A  158A  	fcall	_e2pext_r
  2536  0DD8  1283               	bcf	3,5	;RP0=0, select bank0
  2537  0DD9  1303               	bcf	3,6	;RP1=0, select bank0
  2538  0DDA  0646               	xorwf	_EEPROM_Data,w
  2539  0DDB  1903               	skipnz
  2540  0DDC  2DDE               	goto	u5431
  2541  0DDD  2DDF               	goto	u5430
  2542  0DDE                     u5431:
  2543  0DDE  2DE5               	goto	l463
  2544  0DDF                     u5430:
  2545  0DDF                     l3831:
  2546  0DDF  300A               	movlw	10
  2547  0DE0  0243               	subwf	Set_EEPROM_Data@nt,w
  2548  0DE1  1C03               	skipc
  2549  0DE2  2DE4               	goto	u5441
  2550  0DE3  2DE5               	goto	u5440
  2551  0DE4                     u5441:
  2552  0DE4  2D99               	goto	l3817
  2553  0DE5                     u5440:
  2554  0DE5                     l463:
  2555  0DE5  0008               	return
  2556  0DE6                     __end_of_Set_EEPROM_Data:
  2557                           
  2558                           	psect	text8
  2559  0F8A                     __ptext8:	
  2560 ;; *************** function _Mode_MainFunction *****************
  2561 ;; Defined at:
  2562 ;;		line 28 in file "WaterHeater_Mode/WaterHeater_Mode.c"
  2563 ;; Parameters:    Size  Location     Type
  2564 ;;		None
  2565 ;; Auto vars:     Size  Location     Type
  2566 ;;		None
  2567 ;; Return value:  Size  Location     Type
  2568 ;;                  1    wreg      void 
  2569 ;; Registers used:
  2570 ;;		wreg, status,2, status,0, btemp+1, pclath, cstack
  2571 ;; Tracked objects:
  2572 ;;		On entry : 0/0
  2573 ;;		On exit  : 0/0
  2574 ;;		Unchanged: 0/0
  2575 ;; Data sizes:     COMMON   BANK0   BANK1   BANK3   BANK2
  2576 ;;      Params:         0       0       0       0       0
  2577 ;;      Locals:         0       0       0       0       0
  2578 ;;      Temps:          0       0       1       0       0
  2579 ;;      Totals:         0       0       1       0       0
  2580 ;;Total ram usage:        1 bytes
  2581 ;; Hardware stack levels used:    1
  2582 ;; Hardware stack levels required when called:    6
  2583 ;; This function calls:
  2584 ;;		_Read_UP_DOWN_BUTTONS
  2585 ;;		_Start_Setting_Timer
  2586 ;; This function is called by:
  2587 ;;		_Scheduler_Task3
  2588 ;; This function uses a non-reentrant model
  2589 ;;
  2590                           
  2591                           
  2592                           ;psect for function _Mode_MainFunction
  2593  0F8A                     _Mode_MainFunction:
  2594  0F8A                     l3783:	
  2595                           ;incstack = 0
  2596 ;; hardware stack exceeded
  2597                           ; Regs used in _Mode_MainFunction: [wreg+status,2+status,0+btemp+1+pclath+cstack]
  2598                           
  2599                           
  2600                           ;WaterHeater_Mode/WaterHeater_Mode.c: 30:  Read_UP_DOWN_BUTTONS();
  2601  0F8A  120A  158A  21CB  120A  158A  	fcall	_Read_UP_DOWN_BUTTONS
  2602  0F8F                     l3785:
  2603                           
  2604                           ;WaterHeater_Mode/WaterHeater_Mode.c: 32:    if(Mode.Select_Mode==Setting_Mode)
  2605  0F8F  3002               	movlw	2
  2606  0F90  1683               	bsf	3,5	;RP0=1, select bank1
  2607  0F91  1303               	bcf	3,6	;RP1=0, select bank1
  2608  0F92  065A               	xorwf	_Mode^(0+128),w
  2609  0F93  1D03               	btfss	3,2
  2610  0F94  2F96               	goto	u5301
  2611  0F95  2F97               	goto	u5300
  2612  0F96                     u5301:
  2613  0F96  2FFF               	goto	l393
  2614  0F97                     u5300:
  2615  0F97                     l3787:
  2616                           
  2617                           ;WaterHeater_Mode/WaterHeater_Mode.c: 33:    {;WaterHeater_Mode/WaterHeater_Mode.c: 35: 
      +                              Start_Setting_Timer(5000,200);
  2618  0F97  3088               	movlw	136
  2619  0F98  00A6               	movwf	Start_Setting_Timer@Timer_Ms^(0+128)
  2620  0F99  3013               	movlw	19
  2621  0F9A  00A7               	movwf	(Start_Setting_Timer@Timer_Ms^(0+128)+1)
  2622  0F9B  30C8               	movlw	200
  2623  0F9C  00A8               	movwf	Start_Setting_Timer@Peroid_Task^(0+128)
  2624  0F9D  3000               	movlw	0
  2625  0F9E  00A9               	movwf	(Start_Setting_Timer@Peroid_Task^(0+128)+1)
  2626  0F9F  120A  158A  2241  120A  158A  	fcall	_Start_Setting_Timer
  2627  0FA4                     l3789:
  2628                           
  2629                           ;WaterHeater_Mode/WaterHeater_Mode.c: 36:     if((((PORTB>>2)&1)==0) &&(((PORTB>>1)&1)==
      +                          1) && Temperature.Set_Temp !=(75U))
  2630  0FA4  1283               	bcf	3,5	;RP0=0, select bank0
  2631  0FA5  1303               	bcf	3,6	;RP1=0, select bank0
  2632  0FA6  0806               	movf	6,w	;volatile
  2633  0FA7  1683               	bsf	3,5	;RP0=1, select bank1
  2634  0FA8  1303               	bcf	3,6	;RP1=0, select bank1
  2635  0FA9  00AC               	movwf	??_Mode_MainFunction^(0+128)
  2636  0FAA  3002               	movlw	2
  2637  0FAB                     u5315:
  2638  0FAB  1003               	clrc
  2639  0FAC  0CAC               	rrf	??_Mode_MainFunction^(0+128),f
  2640  0FAD  3EFF               	addlw	-1
  2641  0FAE  1D03               	skipz
  2642  0FAF  2FAB               	goto	u5315
  2643  0FB0  182C               	btfsc	??_Mode_MainFunction^(0+128),0
  2644  0FB1  2FB3               	goto	u5321
  2645  0FB2  2FB4               	goto	u5320
  2646  0FB3                     u5321:
  2647  0FB3  2FD5               	goto	l3799
  2648  0FB4                     u5320:
  2649  0FB4                     l3791:
  2650  0FB4  1283               	bcf	3,5	;RP0=0, select bank0
  2651  0FB5  1303               	bcf	3,6	;RP1=0, select bank0
  2652  0FB6  0806               	movf	6,w	;volatile
  2653  0FB7  1683               	bsf	3,5	;RP0=1, select bank1
  2654  0FB8  1303               	bcf	3,6	;RP1=0, select bank1
  2655  0FB9  00AC               	movwf	??_Mode_MainFunction^(0+128)
  2656  0FBA  3001               	movlw	1
  2657  0FBB                     u5335:
  2658  0FBB  1003               	clrc
  2659  0FBC  0CAC               	rrf	??_Mode_MainFunction^(0+128),f
  2660  0FBD  3EFF               	addlw	-1
  2661  0FBE  1D03               	skipz
  2662  0FBF  2FBB               	goto	u5335
  2663  0FC0  1C2C               	btfss	??_Mode_MainFunction^(0+128),0
  2664  0FC1  2FC3               	goto	u5341
  2665  0FC2  2FC4               	goto	u5340
  2666  0FC3                     u5341:
  2667  0FC3  2FD5               	goto	l3799
  2668  0FC4                     u5340:
  2669  0FC4                     l3793:
  2670  0FC4  304B               	movlw	75
  2671  0FC5  1283               	bcf	3,5	;RP0=0, select bank0
  2672  0FC6  1303               	bcf	3,6	;RP1=0, select bank0
  2673  0FC7  064F               	xorwf	_Temperature+2,w
  2674  0FC8  1903               	btfsc	3,2
  2675  0FC9  2FCB               	goto	u5351
  2676  0FCA  2FCC               	goto	u5350
  2677  0FCB                     u5351:
  2678  0FCB  2FD5               	goto	l3799
  2679  0FCC                     u5350:
  2680  0FCC                     l3795:
  2681                           
  2682                           ;WaterHeater_Mode/WaterHeater_Mode.c: 37:      {;WaterHeater_Mode/WaterHeater_Mode.c: 38
      +                          :       Temperature.Set_Temp += (5U);
  2683  0FCC  3005               	movlw	5
  2684  0FCD  00FF               	movwf	btemp+1
  2685  0FCE  087F               	movf	btemp+1,w
  2686  0FCF  07CF               	addwf	_Temperature+2,f
  2687  0FD0                     l3797:
  2688                           
  2689                           ;WaterHeater_Mode/WaterHeater_Mode.c: 39:       Mode.Setting_Mode_Timer=1;
  2690  0FD0  1683               	bsf	3,5	;RP0=1, select bank1
  2691  0FD1  1303               	bcf	3,6	;RP1=0, select bank1
  2692  0FD2  01DB               	clrf	(_Mode^(0+128)+1)
  2693  0FD3  0ADB               	incf	(_Mode^(0+128)+1),f
  2694                           
  2695                           ;WaterHeater_Mode/WaterHeater_Mode.c: 40:      }
  2696  0FD4  2FFF               	goto	l393
  2697  0FD5                     l3799:
  2698  0FD5  1283               	bcf	3,5	;RP0=0, select bank0
  2699  0FD6  0806               	movf	6,w	;volatile
  2700  0FD7  1683               	bsf	3,5	;RP0=1, select bank1
  2701  0FD8  1303               	bcf	3,6	;RP1=0, select bank1
  2702  0FD9  00AC               	movwf	??_Mode_MainFunction^(0+128)
  2703  0FDA  3002               	movlw	2
  2704  0FDB                     u5365:
  2705  0FDB  1003               	clrc
  2706  0FDC  0CAC               	rrf	??_Mode_MainFunction^(0+128),f
  2707  0FDD  3EFF               	addlw	-1
  2708  0FDE  1D03               	skipz
  2709  0FDF  2FDB               	goto	u5365
  2710  0FE0  1C2C               	btfss	??_Mode_MainFunction^(0+128),0
  2711  0FE1  2FE3               	goto	u5371
  2712  0FE2  2FE4               	goto	u5370
  2713  0FE3                     u5371:
  2714  0FE3  2FFF               	goto	l393
  2715  0FE4                     u5370:
  2716  0FE4                     l3801:
  2717  0FE4  1283               	bcf	3,5	;RP0=0, select bank0
  2718  0FE5  1303               	bcf	3,6	;RP1=0, select bank0
  2719  0FE6  0806               	movf	6,w	;volatile
  2720  0FE7  1683               	bsf	3,5	;RP0=1, select bank1
  2721  0FE8  1303               	bcf	3,6	;RP1=0, select bank1
  2722  0FE9  00AC               	movwf	??_Mode_MainFunction^(0+128)
  2723  0FEA  3001               	movlw	1
  2724  0FEB                     u5385:
  2725  0FEB  1003               	clrc
  2726  0FEC  0CAC               	rrf	??_Mode_MainFunction^(0+128),f
  2727  0FED  3EFF               	addlw	-1
  2728  0FEE  1D03               	skipz
  2729  0FEF  2FEB               	goto	u5385
  2730  0FF0  182C               	btfsc	??_Mode_MainFunction^(0+128),0
  2731  0FF1  2FF3               	goto	u5391
  2732  0FF2  2FF4               	goto	u5390
  2733  0FF3                     u5391:
  2734  0FF3  2FFF               	goto	l393
  2735  0FF4                     u5390:
  2736  0FF4                     l3803:
  2737  0FF4  3023               	movlw	35
  2738  0FF5  1283               	bcf	3,5	;RP0=0, select bank0
  2739  0FF6  1303               	bcf	3,6	;RP1=0, select bank0
  2740  0FF7  064F               	xorwf	_Temperature+2,w
  2741  0FF8  1903               	btfsc	3,2
  2742  0FF9  2FFB               	goto	u5401
  2743  0FFA  2FFC               	goto	u5400
  2744  0FFB                     u5401:
  2745  0FFB  2FFF               	goto	l393
  2746  0FFC                     u5400:
  2747  0FFC                     l3805:
  2748                           
  2749                           ;WaterHeater_Mode/WaterHeater_Mode.c: 42:      {;WaterHeater_Mode/WaterHeater_Mode.c: 43
      +                          :       Temperature.Set_Temp -= (5U);
  2750  0FFC  3005               	movlw	5
  2751  0FFD  02CF               	subwf	_Temperature+2,f
  2752  0FFE  2FD0               	goto	l3797
  2753  0FFF                     l393:
  2754  0FFF  0008               	return
  2755  1000                     __end_of_Mode_MainFunction:
  2756                           
  2757                           	psect	text9
  2758  0A41                     __ptext9:	
  2759 ;; *************** function _Start_Setting_Timer *****************
  2760 ;; Defined at:
  2761 ;;		line 54 in file "WaterHeater_Mode/WaterHeater_Mode.c"
  2762 ;; Parameters:    Size  Location     Type
  2763 ;;  Timer_Ms        2    6[BANK1 ] unsigned int 
  2764 ;;  Peroid_Task     2    8[BANK1 ] unsigned int 
  2765 ;; Auto vars:     Size  Location     Type
  2766 ;;		None
  2767 ;; Return value:  Size  Location     Type
  2768 ;;                  1    wreg      void 
  2769 ;; Registers used:
  2770 ;;		wreg, status,2, status,0, btemp+1, pclath, cstack
  2771 ;; Tracked objects:
  2772 ;;		On entry : 0/0
  2773 ;;		On exit  : 0/0
  2774 ;;		Unchanged: 0/0
  2775 ;; Data sizes:     COMMON   BANK0   BANK1   BANK3   BANK2
  2776 ;;      Params:         0       0       4       0       0
  2777 ;;      Locals:         0       0       0       0       0
  2778 ;;      Temps:          0       0       2       0       0
  2779 ;;      Totals:         0       0       6       0       0
  2780 ;;Total ram usage:        6 bytes
  2781 ;; Hardware stack levels used:    1
  2782 ;; Hardware stack levels required when called:    5
  2783 ;; This function calls:
  2784 ;;		___wmul
  2785 ;; This function is called by:
  2786 ;;		_Mode_MainFunction
  2787 ;; This function uses a non-reentrant model
  2788 ;;
  2789                           
  2790                           
  2791                           ;psect for function _Start_Setting_Timer
  2792  0A41                     _Start_Setting_Timer:
  2793  0A41                     l3547:	
  2794                           ;incstack = 0
  2795 ;; hardware stack exceeded
  2796                           ; Regs used in _Start_Setting_Timer: [wreg+status,2+status,0+btemp+1+pclath+cstack]
  2797                           
  2798                           
  2799                           ;WaterHeater_Mode/WaterHeater_Mode.c: 54: void Start_Setting_Timer(uint16_t Timer_Ms ,ui
      +                          nt16_t Peroid_Task);WaterHeater_Mode/WaterHeater_Mode.c: 55: {;WaterHeater_Mode/WaterHea
      +                          ter_Mode.c: 56:  if(Mode.Setting_Mode_Timer*Peroid_Task==Timer_Ms)
  2800  0A41  1683               	bsf	3,5	;RP0=1, select bank1
  2801  0A42  1303               	bcf	3,6	;RP1=0, select bank1
  2802  0A43  085B               	movf	(_Mode^(0+128)+1),w
  2803  0A44  00AA               	movwf	??_Start_Setting_Timer^(0+128)
  2804  0A45  01AB               	clrf	(??_Start_Setting_Timer^(0+128)+1)
  2805  0A46  082A               	movf	??_Start_Setting_Timer^(0+128),w
  2806  0A47  00A0               	movwf	___wmul@multiplier^(0+128)
  2807  0A48  082B               	movf	(??_Start_Setting_Timer+1)^(0+128),w
  2808  0A49  00A1               	movwf	(___wmul@multiplier+1)^(0+128)
  2809  0A4A  0829               	movf	(Start_Setting_Timer@Peroid_Task+1)^(0+128),w
  2810  0A4B  00A3               	movwf	(___wmul@multiplicand+1)^(0+128)
  2811  0A4C  0828               	movf	Start_Setting_Timer@Peroid_Task^(0+128),w
  2812  0A4D  00A2               	movwf	___wmul@multiplicand^(0+128)
  2813  0A4E  120A  158A  21F1  120A  158A  	fcall	___wmul
  2814  0A53  1683               	bsf	3,5	;RP0=1, select bank1
  2815  0A54  1303               	bcf	3,6	;RP1=0, select bank1
  2816  0A55  0827               	movf	(Start_Setting_Timer@Timer_Ms+1)^(0+128),w
  2817  0A56  0621               	xorwf	(?___wmul+1)^(0+128),w
  2818  0A57  1D03               	skipz
  2819  0A58  2A5B               	goto	u4865
  2820  0A59  0826               	movf	Start_Setting_Timer@Timer_Ms^(0+128),w
  2821  0A5A  0620               	xorwf	?___wmul^(0+128),w
  2822  0A5B                     u4865:
  2823  0A5B  1D03               	skipz
  2824  0A5C  2A5E               	goto	u4861
  2825  0A5D  2A5F               	goto	u4860
  2826  0A5E                     u4861:
  2827  0A5E  2A69               	goto	l3551
  2828  0A5F                     u4860:
  2829  0A5F                     l3549:
  2830                           
  2831                           ;WaterHeater_Mode/WaterHeater_Mode.c: 57:  {;WaterHeater_Mode/WaterHeater_Mode.c: 58:   
      +                          Temperature.Store_Set_Temp_Flag=1;
  2832  0A5F  1283               	bcf	3,5	;RP0=0, select bank0
  2833  0A60  1303               	bcf	3,6	;RP1=0, select bank0
  2834  0A61  14D0               	bsf	_Temperature+3,1
  2835                           
  2836                           ;WaterHeater_Mode/WaterHeater_Mode.c: 59:   Mode.Select_Mode=Normal_Mode;
  2837  0A62  1683               	bsf	3,5	;RP0=1, select bank1
  2838  0A63  1303               	bcf	3,6	;RP1=0, select bank1
  2839  0A64  01DA               	clrf	_Mode^(0+128)
  2840  0A65  0ADA               	incf	_Mode^(0+128),f
  2841                           
  2842                           ;WaterHeater_Mode/WaterHeater_Mode.c: 60:   Mode.Setting_Mode_Timer=1;
  2843  0A66  01DB               	clrf	(_Mode^(0+128)+1)
  2844  0A67  0ADB               	incf	(_Mode^(0+128)+1),f
  2845                           
  2846                           ;WaterHeater_Mode/WaterHeater_Mode.c: 62:  }
  2847  0A68  2A6D               	goto	l398
  2848  0A69                     l3551:
  2849                           
  2850                           ;WaterHeater_Mode/WaterHeater_Mode.c: 64:  {;WaterHeater_Mode/WaterHeater_Mode.c: 65:   
      +                          Mode.Setting_Mode_Timer++;
  2851  0A69  3001               	movlw	1
  2852  0A6A  00FF               	movwf	btemp+1
  2853  0A6B  087F               	movf	btemp+1,w
  2854  0A6C  07DB               	addwf	(_Mode^(0+128)+1),f
  2855  0A6D                     l398:
  2856  0A6D  0008               	return
  2857  0A6E                     __end_of_Start_Setting_Timer:
  2858                           
  2859                           	psect	text10
  2860  09CB                     __ptext10:	
  2861 ;; *************** function _Read_UP_DOWN_BUTTONS *****************
  2862 ;; Defined at:
  2863 ;;		line 39 in file "Buttons/Buttons.c"
  2864 ;; Parameters:    Size  Location     Type
  2865 ;;		None
  2866 ;; Auto vars:     Size  Location     Type
  2867 ;;		None
  2868 ;; Return value:  Size  Location     Type
  2869 ;;                  1    wreg      void 
  2870 ;; Registers used:
  2871 ;;		wreg, status,2, status,0, btemp+1
  2872 ;; Tracked objects:
  2873 ;;		On entry : 0/0
  2874 ;;		On exit  : 0/0
  2875 ;;		Unchanged: 0/0
  2876 ;; Data sizes:     COMMON   BANK0   BANK1   BANK3   BANK2
  2877 ;;      Params:         0       0       0       0       0
  2878 ;;      Locals:         0       0       0       0       0
  2879 ;;      Temps:          0       1       0       0       0
  2880 ;;      Totals:         0       1       0       0       0
  2881 ;;Total ram usage:        1 bytes
  2882 ;; Hardware stack levels used:    1
  2883 ;; Hardware stack levels required when called:    4
  2884 ;; This function calls:
  2885 ;;		Nothing
  2886 ;; This function is called by:
  2887 ;;		_Mode_MainFunction
  2888 ;; This function uses a non-reentrant model
  2889 ;;
  2890                           
  2891                           
  2892                           ;psect for function _Read_UP_DOWN_BUTTONS
  2893  09CB                     _Read_UP_DOWN_BUTTONS:
  2894  09CB                     l2507:	
  2895                           ;incstack = 0
  2896                           ; Regs used in _Read_UP_DOWN_BUTTONS: [wreg+status,2+status,0+btemp+1]
  2897                           
  2898                           
  2899                           ;Buttons/Buttons.c: 41:     if(((((PORTB>>2)&1)==0) ||(((PORTB>>1)&1)==0)) && Mode.Selec
      +                          t_Mode==Normal_Mode)
  2900  09CB  1283               	bcf	3,5	;RP0=0, select bank0
  2901  09CC  1303               	bcf	3,6	;RP1=0, select bank0
  2902  09CD  0806               	movf	6,w	;volatile
  2903  09CE  00BA               	movwf	??_Read_UP_DOWN_BUTTONS
  2904  09CF  3002               	movlw	2
  2905  09D0                     u2875:
  2906  09D0  1003               	clrc
  2907  09D1  0CBA               	rrf	??_Read_UP_DOWN_BUTTONS,f
  2908  09D2  3EFF               	addlw	-1
  2909  09D3  1D03               	skipz
  2910  09D4  29D0               	goto	u2875
  2911  09D5  1C3A               	btfss	??_Read_UP_DOWN_BUTTONS,0
  2912  09D6  29D8               	goto	u2881
  2913  09D7  29D9               	goto	u2880
  2914  09D8                     u2881:
  2915  09D8  29E5               	goto	l2511
  2916  09D9                     u2880:
  2917  09D9                     l2509:
  2918  09D9  0806               	movf	6,w	;volatile
  2919  09DA  00BA               	movwf	??_Read_UP_DOWN_BUTTONS
  2920  09DB  3001               	movlw	1
  2921  09DC                     u2895:
  2922  09DC  1003               	clrc
  2923  09DD  0CBA               	rrf	??_Read_UP_DOWN_BUTTONS,f
  2924  09DE  3EFF               	addlw	-1
  2925  09DF  1D03               	skipz
  2926  09E0  29DC               	goto	u2895
  2927  09E1  183A               	btfsc	??_Read_UP_DOWN_BUTTONS,0
  2928  09E2  29E4               	goto	u2901
  2929  09E3  29E5               	goto	u2900
  2930  09E4                     u2901:
  2931  09E4  29F0               	goto	l109
  2932  09E5                     u2900:
  2933  09E5                     l2511:
  2934  09E5  1683               	bsf	3,5	;RP0=1, select bank1
  2935  09E6  1303               	bcf	3,6	;RP1=0, select bank1
  2936  09E7  035A               	decf	_Mode^(0+128),w
  2937  09E8  1D03               	btfss	3,2
  2938  09E9  29EB               	goto	u2911
  2939  09EA  29EC               	goto	u2910
  2940  09EB                     u2911:
  2941  09EB  29F0               	goto	l109
  2942  09EC                     u2910:
  2943  09EC                     l2513:
  2944                           
  2945                           ;Buttons/Buttons.c: 42:     {;Buttons/Buttons.c: 43:       Mode.Select_Mode=Setting_Mode
      +                          ;
  2946  09EC  3002               	movlw	2
  2947  09ED  00FF               	movwf	btemp+1
  2948  09EE  087F               	movf	btemp+1,w
  2949  09EF  00DA               	movwf	_Mode^(0+128)
  2950  09F0                     l109:
  2951  09F0  0008               	return
  2952  09F1                     __end_of_Read_UP_DOWN_BUTTONS:
  2953                           
  2954                           	psect	text11
  2955  0DE6                     __ptext11:	
  2956 ;; *************** function _Elements_MainFunction *****************
  2957 ;; Defined at:
  2958 ;;		line 58 in file "Elements/Elements.c"
  2959 ;; Parameters:    Size  Location     Type
  2960 ;;		None
  2961 ;; Auto vars:     Size  Location     Type
  2962 ;;		None
  2963 ;; Return value:  Size  Location     Type
  2964 ;;                  1    wreg      void 
  2965 ;; Registers used:
  2966 ;;		wreg, status,2, status,0, btemp+1
  2967 ;; Tracked objects:
  2968 ;;		On entry : 0/0
  2969 ;;		On exit  : 0/0
  2970 ;;		Unchanged: 0/0
  2971 ;; Data sizes:     COMMON   BANK0   BANK1   BANK3   BANK2
  2972 ;;      Params:         0       0       0       0       0
  2973 ;;      Locals:         0       0       0       0       0
  2974 ;;      Temps:          0       0       4       0       0
  2975 ;;      Totals:         0       0       4       0       0
  2976 ;;Total ram usage:        4 bytes
  2977 ;; Hardware stack levels used:    1
  2978 ;; Hardware stack levels required when called:    4
  2979 ;; This function calls:
  2980 ;;		Nothing
  2981 ;; This function is called by:
  2982 ;;		_Scheduler_Task3
  2983 ;; This function uses a non-reentrant model
  2984 ;;
  2985                           
  2986                           
  2987                           ;psect for function _Elements_MainFunction
  2988  0DE6                     _Elements_MainFunction:
  2989  0DE6                     l3761:	
  2990                           ;incstack = 0
  2991                           ; Regs used in _Elements_MainFunction: [wreg+status,2+status,0+btemp+1]
  2992                           
  2993                           
  2994                           ;Elements/Elements.c: 60:   if(Temperature.Average_Value_Ready_Flag==1 && Mode.Select_Mo
      +                          de==Normal_Mode)
  2995  0DE6  1283               	bcf	3,5	;RP0=0, select bank0
  2996  0DE7  1303               	bcf	3,6	;RP1=0, select bank0
  2997  0DE8  1C50               	btfss	_Temperature+3,0
  2998  0DE9  2DEB               	goto	u5261
  2999  0DEA  2DEC               	goto	u5260
  3000  0DEB                     u5261:
  3001  0DEB  2E41               	goto	l3781
  3002  0DEC                     u5260:
  3003  0DEC                     l3763:
  3004  0DEC  1683               	bsf	3,5	;RP0=1, select bank1
  3005  0DED  1303               	bcf	3,6	;RP1=0, select bank1
  3006  0DEE  035A               	decf	_Mode^(0+128),w
  3007  0DEF  1D03               	btfss	3,2
  3008  0DF0  2DF2               	goto	u5271
  3009  0DF1  2DF3               	goto	u5270
  3010  0DF2                     u5271:
  3011  0DF2  2E41               	goto	l3781
  3012  0DF3                     u5270:
  3013  0DF3                     l3765:
  3014                           
  3015                           ;Elements/Elements.c: 61:   {;Elements/Elements.c: 63:         if(Temperature.Average_Va
      +                          lue < (Temperature.Set_Temp - (5U)))
  3016  0DF3  1283               	bcf	3,5	;RP0=0, select bank0
  3017  0DF4  1303               	bcf	3,6	;RP1=0, select bank0
  3018  0DF5  084F               	movf	_Temperature+2,w
  3019  0DF6  3EFB               	addlw	251
  3020  0DF7  1683               	bsf	3,5	;RP0=1, select bank1
  3021  0DF8  1303               	bcf	3,6	;RP1=0, select bank1
  3022  0DF9  00A0               	movwf	??_Elements_MainFunction^(0+128)
  3023  0DFA  30FF               	movlw	255
  3024  0DFB  1803               	skipnc
  3025  0DFC  3000               	movlw	0
  3026  0DFD  00A1               	movwf	(??_Elements_MainFunction^(0+128)+1)
  3027  0DFE  1283               	bcf	3,5	;RP0=0, select bank0
  3028  0DFF  1303               	bcf	3,6	;RP1=0, select bank0
  3029  0E00  084E               	movf	_Temperature+1,w
  3030  0E01  1683               	bsf	3,5	;RP0=1, select bank1
  3031  0E02  1303               	bcf	3,6	;RP1=0, select bank1
  3032  0E03  00A2               	movwf	(??_Elements_MainFunction+2)^(0+128)
  3033  0E04  01A3               	clrf	((??_Elements_MainFunction+2)^(0+128)+1)
  3034  0E05  0821               	movf	(??_Elements_MainFunction+1)^(0+128),w
  3035  0E06  0223               	subwf	(??_Elements_MainFunction+3)^(0+128),w
  3036  0E07  1D03               	skipz
  3037  0E08  2E0B               	goto	u5285
  3038  0E09  0820               	movf	??_Elements_MainFunction^(0+128),w
  3039  0E0A  0222               	subwf	(??_Elements_MainFunction+2)^(0+128),w
  3040  0E0B                     u5285:
  3041  0E0B  1803               	skipnc
  3042  0E0C  2E0E               	goto	u5281
  3043  0E0D  2E0F               	goto	u5280
  3044  0E0E                     u5281:
  3045  0E0E  2E1B               	goto	l3773
  3046  0E0F                     u5280:
  3047  0E0F                     l3767:
  3048                           
  3049                           ;Elements/Elements.c: 64:          {;Elements/Elements.c: 65:          (PORTC &= ~(1<<2)
      +                          );
  3050  0E0F  30FB               	movlw	251
  3051  0E10  00FF               	movwf	btemp+1
  3052  0E11  087F               	movf	btemp+1,w
  3053  0E12  1283               	bcf	3,5	;RP0=0, select bank0
  3054  0E13  1303               	bcf	3,6	;RP1=0, select bank0
  3055  0E14  0587               	andwf	7,f	;volatile
  3056  0E15                     l3769:
  3057                           
  3058                           ;Elements/Elements.c: 66:          (PORTC|= (1<<5));
  3059  0E15  1687               	bsf	7,5	;volatile
  3060  0E16                     l3771:
  3061                           
  3062                           ;Elements/Elements.c: 67:    LED_Status=LED_BLINK ;
  3063  0E16  3002               	movlw	2
  3064  0E17  00FF               	movwf	btemp+1
  3065  0E18  087F               	movf	btemp+1,w
  3066  0E19  00CB               	movwf	_LED_Status
  3067                           
  3068                           ;Elements/Elements.c: 69:          }else if(Temperature.Average_Value > (Temperature.Set
      +                          _Temp + (5U)))
  3069  0E1A  2E4A               	goto	l207
  3070  0E1B                     l3773:
  3071  0E1B  1283               	bcf	3,5	;RP0=0, select bank0
  3072  0E1C  1303               	bcf	3,6	;RP1=0, select bank0
  3073  0E1D  084E               	movf	_Temperature+1,w
  3074  0E1E  1683               	bsf	3,5	;RP0=1, select bank1
  3075  0E1F  1303               	bcf	3,6	;RP1=0, select bank1
  3076  0E20  00A0               	movwf	??_Elements_MainFunction^(0+128)
  3077  0E21  01A1               	clrf	(??_Elements_MainFunction^(0+128)+1)
  3078  0E22  1283               	bcf	3,5	;RP0=0, select bank0
  3079  0E23  1303               	bcf	3,6	;RP1=0, select bank0
  3080  0E24  084F               	movf	_Temperature+2,w
  3081  0E25  3E05               	addlw	5
  3082  0E26  1683               	bsf	3,5	;RP0=1, select bank1
  3083  0E27  1303               	bcf	3,6	;RP1=0, select bank1
  3084  0E28  00A2               	movwf	(??_Elements_MainFunction+2)^(0+128)
  3085  0E29  3000               	movlw	0
  3086  0E2A  1803               	skipnc
  3087  0E2B  3001               	movlw	1
  3088  0E2C  00A3               	movwf	((??_Elements_MainFunction+2)^(0+128)+1)
  3089  0E2D  0821               	movf	(??_Elements_MainFunction+1)^(0+128),w
  3090  0E2E  0223               	subwf	(??_Elements_MainFunction+3)^(0+128),w
  3091  0E2F  1D03               	skipz
  3092  0E30  2E33               	goto	u5295
  3093  0E31  0820               	movf	??_Elements_MainFunction^(0+128),w
  3094  0E32  0222               	subwf	(??_Elements_MainFunction+2)^(0+128),w
  3095  0E33                     u5295:
  3096  0E33  1803               	skipnc
  3097  0E34  2E36               	goto	u5291
  3098  0E35  2E37               	goto	u5290
  3099  0E36                     u5291:
  3100  0E36  2E4A               	goto	l207
  3101  0E37                     u5290:
  3102  0E37                     l3775:
  3103                           
  3104                           ;Elements/Elements.c: 70:          {;Elements/Elements.c: 72:           (PORTC &= ~(1<<5
      +                          ));
  3105  0E37  30DF               	movlw	223
  3106  0E38  00FF               	movwf	btemp+1
  3107  0E39  087F               	movf	btemp+1,w
  3108  0E3A  1283               	bcf	3,5	;RP0=0, select bank0
  3109  0E3B  1303               	bcf	3,6	;RP1=0, select bank0
  3110  0E3C  0587               	andwf	7,f	;volatile
  3111  0E3D                     l3777:
  3112                           
  3113                           ;Elements/Elements.c: 73:           (PORTC|= (1<<2));
  3114  0E3D  1507               	bsf	7,2	;volatile
  3115  0E3E                     l3779:
  3116                           
  3117                           ;Elements/Elements.c: 74:     LED_Status=LED_ON ;
  3118  0E3E  01CB               	clrf	_LED_Status
  3119  0E3F  0ACB               	incf	_LED_Status,f
  3120  0E40  2E4A               	goto	l207
  3121  0E41                     l3781:
  3122                           
  3123                           ;Elements/Elements.c: 79:   {;Elements/Elements.c: 80:    (PORTC &= ~(1<<2));
  3124  0E41  30FB               	movlw	251
  3125  0E42  00FF               	movwf	btemp+1
  3126  0E43  087F               	movf	btemp+1,w
  3127  0E44  1283               	bcf	3,5	;RP0=0, select bank0
  3128  0E45  0587               	andwf	7,f	;volatile
  3129                           
  3130                           ;Elements/Elements.c: 81:    (PORTC &= ~(1<<5));
  3131  0E46  30DF               	movlw	223
  3132  0E47  00FF               	movwf	btemp+1
  3133  0E48  087F               	movf	btemp+1,w
  3134  0E49  0587               	andwf	7,f	;volatile
  3135  0E4A                     l207:
  3136  0E4A  0008               	return
  3137  0E4B                     __end_of_Elements_MainFunction:
  3138                           
  3139                           	psect	text12
  3140  0B52                     __ptext12:	
  3141 ;; *************** function _LED_MainFunction *****************
  3142 ;; Defined at:
  3143 ;;		line 37 in file "Elements/Elements.c"
  3144 ;; Parameters:    Size  Location     Type
  3145 ;;		None
  3146 ;; Auto vars:     Size  Location     Type
  3147 ;;		None
  3148 ;; Return value:  Size  Location     Type
  3149 ;;                  1    wreg      void 
  3150 ;; Registers used:
  3151 ;;		wreg, status,2, status,0, btemp+1, pclath, cstack
  3152 ;; Tracked objects:
  3153 ;;		On entry : 0/0
  3154 ;;		On exit  : 0/0
  3155 ;;		Unchanged: 0/0
  3156 ;; Data sizes:     COMMON   BANK0   BANK1   BANK3   BANK2
  3157 ;;      Params:         0       0       0       0       0
  3158 ;;      Locals:         0       0       0       0       0
  3159 ;;      Temps:          0       0       0       0       0
  3160 ;;      Totals:         0       0       0       0       0
  3161 ;;Total ram usage:        0 bytes
  3162 ;; Hardware stack levels used:    1
  3163 ;; Hardware stack levels required when called:    6
  3164 ;; This function calls:
  3165 ;;		_LED_BLINKING
  3166 ;; This function is called by:
  3167 ;;		_Scheduler_Task2
  3168 ;; This function uses a non-reentrant model
  3169 ;;
  3170                           
  3171                           
  3172                           ;psect for function _LED_MainFunction
  3173  0B52                     _LED_MainFunction:
  3174  0B52                     l3743:	
  3175                           ;incstack = 0
  3176 ;; hardware stack exceeded
  3177                           ; Regs used in _LED_MainFunction: [wreg+status,2+status,0+btemp+1+pclath+cstack]
  3178                           
  3179                           
  3180                           ;Elements/Elements.c: 39:  if(LED_Status==LED_BLINK && Mode.Select_Mode==Normal_Mode)
  3181  0B52  3002               	movlw	2
  3182  0B53  1283               	bcf	3,5	;RP0=0, select bank0
  3183  0B54  1303               	bcf	3,6	;RP1=0, select bank0
  3184  0B55  064B               	xorwf	_LED_Status,w
  3185  0B56  1D03               	btfss	3,2
  3186  0B57  2B59               	goto	u5201
  3187  0B58  2B5A               	goto	u5200
  3188  0B59                     u5201:
  3189  0B59  2B6F               	goto	l3749
  3190  0B5A                     u5200:
  3191  0B5A                     l3745:
  3192  0B5A  1683               	bsf	3,5	;RP0=1, select bank1
  3193  0B5B  1303               	bcf	3,6	;RP1=0, select bank1
  3194  0B5C  035A               	decf	_Mode^(0+128),w
  3195  0B5D  1D03               	btfss	3,2
  3196  0B5E  2B60               	goto	u5211
  3197  0B5F  2B61               	goto	u5210
  3198  0B60                     u5211:
  3199  0B60  2B6F               	goto	l3749
  3200  0B61                     u5210:
  3201  0B61                     l3747:
  3202                           
  3203                           ;Elements/Elements.c: 40:  {;Elements/Elements.c: 42:   LED_BLINKING(1000,100);
  3204  0B61  30E8               	movlw	232
  3205  0B62  00A6               	movwf	LED_BLINKING@Time_Ms^(0+128)
  3206  0B63  3003               	movlw	3
  3207  0B64  00A7               	movwf	(LED_BLINKING@Time_Ms^(0+128)+1)
  3208  0B65  3064               	movlw	100
  3209  0B66  00A8               	movwf	LED_BLINKING@Task_Peroid^(0+128)
  3210  0B67  3000               	movlw	0
  3211  0B68  00A9               	movwf	(LED_BLINKING@Task_Peroid^(0+128)+1)
  3212  0B69  120A  158A  226E  120A  158A  	fcall	_LED_BLINKING
  3213                           
  3214                           ;Elements/Elements.c: 43:  }
  3215  0B6E  2B93               	goto	l199
  3216  0B6F                     l3749:
  3217  0B6F  1283               	bcf	3,5	;RP0=0, select bank0
  3218  0B70  034B               	decf	_LED_Status,w
  3219  0B71  1D03               	btfss	3,2
  3220  0B72  2B74               	goto	u5221
  3221  0B73  2B75               	goto	u5220
  3222  0B74                     u5221:
  3223  0B74  2B80               	goto	l3755
  3224  0B75                     u5220:
  3225  0B75                     l3751:
  3226  0B75  1683               	bsf	3,5	;RP0=1, select bank1
  3227  0B76  1303               	bcf	3,6	;RP1=0, select bank1
  3228  0B77  035A               	decf	_Mode^(0+128),w
  3229  0B78  1D03               	btfss	3,2
  3230  0B79  2B7B               	goto	u5231
  3231  0B7A  2B7C               	goto	u5230
  3232  0B7B                     u5231:
  3233  0B7B  2B80               	goto	l3755
  3234  0B7C                     u5230:
  3235  0B7C                     l3753:
  3236                           
  3237                           ;Elements/Elements.c: 45:  {;Elements/Elements.c: 46:   (PORTB|= (1<<4));
  3238  0B7C  1283               	bcf	3,5	;RP0=0, select bank0
  3239  0B7D  1303               	bcf	3,6	;RP1=0, select bank0
  3240  0B7E  1606               	bsf	6,4	;volatile
  3241                           
  3242                           ;Elements/Elements.c: 47:  }
  3243  0B7F  2B93               	goto	l199
  3244  0B80                     l3755:
  3245  0B80  1683               	bsf	3,5	;RP0=1, select bank1
  3246  0B81  1303               	bcf	3,6	;RP1=0, select bank1
  3247  0B82  085A               	movf	_Mode^(0+128),w
  3248  0B83  1903               	btfsc	3,2
  3249  0B84  2B86               	goto	u5241
  3250  0B85  2B87               	goto	u5240
  3251  0B86                     u5241:
  3252  0B86  2B8D               	goto	l3759
  3253  0B87                     u5240:
  3254  0B87                     l3757:
  3255  0B87  3002               	movlw	2
  3256  0B88  065A               	xorwf	_Mode^(0+128),w
  3257  0B89  1D03               	btfss	3,2
  3258  0B8A  2B8C               	goto	u5251
  3259  0B8B  2B8D               	goto	u5250
  3260  0B8C                     u5251:
  3261  0B8C  2B93               	goto	l199
  3262  0B8D                     u5250:
  3263  0B8D                     l3759:
  3264                           
  3265                           ;Elements/Elements.c: 49:  {;Elements/Elements.c: 50:   (PORTB &= ~(1<<4));
  3266  0B8D  30EF               	movlw	239
  3267  0B8E  00FF               	movwf	btemp+1
  3268  0B8F  087F               	movf	btemp+1,w
  3269  0B90  1283               	bcf	3,5	;RP0=0, select bank0
  3270  0B91  1303               	bcf	3,6	;RP1=0, select bank0
  3271  0B92  0586               	andwf	6,f	;volatile
  3272  0B93                     l199:
  3273  0B93  0008               	return
  3274  0B94                     __end_of_LED_MainFunction:
  3275                           
  3276                           	psect	text13
  3277  0A6E                     __ptext13:	
  3278 ;; *************** function _LED_BLINKING *****************
  3279 ;; Defined at:
  3280 ;;		line 20 in file "Elements/Elements.c"
  3281 ;; Parameters:    Size  Location     Type
  3282 ;;  Time_Ms         2    6[BANK1 ] unsigned int 
  3283 ;;  Task_Peroid     2    8[BANK1 ] unsigned int 
  3284 ;; Auto vars:     Size  Location     Type
  3285 ;;		None
  3286 ;; Return value:  Size  Location     Type
  3287 ;;                  1    wreg      void 
  3288 ;; Registers used:
  3289 ;;		wreg, status,2, status,0, btemp+1, pclath, cstack
  3290 ;; Tracked objects:
  3291 ;;		On entry : 0/0
  3292 ;;		On exit  : 0/0
  3293 ;;		Unchanged: 0/0
  3294 ;; Data sizes:     COMMON   BANK0   BANK1   BANK3   BANK2
  3295 ;;      Params:         0       0       4       0       0
  3296 ;;      Locals:         0       0       0       0       0
  3297 ;;      Temps:          0       0       2       0       0
  3298 ;;      Totals:         0       0       6       0       0
  3299 ;;Total ram usage:        6 bytes
  3300 ;; Hardware stack levels used:    1
  3301 ;; Hardware stack levels required when called:    5
  3302 ;; This function calls:
  3303 ;;		___wmul
  3304 ;; This function is called by:
  3305 ;;		_LED_MainFunction
  3306 ;; This function uses a non-reentrant model
  3307 ;;
  3308                           
  3309                           
  3310                           ;psect for function _LED_BLINKING
  3311  0A6E                     _LED_BLINKING:
  3312  0A6E                     l3539:	
  3313                           ;incstack = 0
  3314 ;; hardware stack exceeded
  3315                           ; Regs used in _LED_BLINKING: [wreg+status,2+status,0+btemp+1+pclath+cstack]
  3316                           
  3317                           
  3318                           ;Elements/Elements.c: 20: void LED_BLINKING(uint16_t Time_Ms,uint16_t Task_Peroid);Eleme
      +                          nts/Elements.c: 21: {;Elements/Elements.c: 22:  static uint8_t Counter=1;;Elements/Eleme
      +                          nts.c: 24:    if(Counter*Task_Peroid==Time_Ms)
  3319  0A6E  1283               	bcf	3,5	;RP0=0, select bank0
  3320  0A6F  1303               	bcf	3,6	;RP1=0, select bank0
  3321  0A70  0852               	movf	LED_BLINKING@Counter,w
  3322  0A71  1683               	bsf	3,5	;RP0=1, select bank1
  3323  0A72  1303               	bcf	3,6	;RP1=0, select bank1
  3324  0A73  00AA               	movwf	??_LED_BLINKING^(0+128)
  3325  0A74  01AB               	clrf	(??_LED_BLINKING^(0+128)+1)
  3326  0A75  082A               	movf	??_LED_BLINKING^(0+128),w
  3327  0A76  00A0               	movwf	___wmul@multiplier^(0+128)
  3328  0A77  082B               	movf	(??_LED_BLINKING+1)^(0+128),w
  3329  0A78  00A1               	movwf	(___wmul@multiplier+1)^(0+128)
  3330  0A79  0829               	movf	(LED_BLINKING@Task_Peroid+1)^(0+128),w
  3331  0A7A  00A3               	movwf	(___wmul@multiplicand+1)^(0+128)
  3332  0A7B  0828               	movf	LED_BLINKING@Task_Peroid^(0+128),w
  3333  0A7C  00A2               	movwf	___wmul@multiplicand^(0+128)
  3334  0A7D  120A  158A  21F1  120A  158A  	fcall	___wmul
  3335  0A82  1683               	bsf	3,5	;RP0=1, select bank1
  3336  0A83  1303               	bcf	3,6	;RP1=0, select bank1
  3337  0A84  0827               	movf	(LED_BLINKING@Time_Ms+1)^(0+128),w
  3338  0A85  0621               	xorwf	(?___wmul+1)^(0+128),w
  3339  0A86  1D03               	skipz
  3340  0A87  2A8A               	goto	u4855
  3341  0A88  0826               	movf	LED_BLINKING@Time_Ms^(0+128),w
  3342  0A89  0620               	xorwf	?___wmul^(0+128),w
  3343  0A8A                     u4855:
  3344  0A8A  1D03               	skipz
  3345  0A8B  2A8D               	goto	u4851
  3346  0A8C  2A8E               	goto	u4850
  3347  0A8D                     u4851:
  3348  0A8D  2A97               	goto	l3545
  3349  0A8E                     u4850:
  3350  0A8E                     l3541:
  3351                           
  3352                           ;Elements/Elements.c: 25:    {;Elements/Elements.c: 26:     (PORTB^= (1<<4));
  3353  0A8E  3010               	movlw	16
  3354  0A8F  00FF               	movwf	btemp+1
  3355  0A90  087F               	movf	btemp+1,w
  3356  0A91  1283               	bcf	3,5	;RP0=0, select bank0
  3357  0A92  1303               	bcf	3,6	;RP1=0, select bank0
  3358  0A93  0686               	xorwf	6,f	;volatile
  3359  0A94                     l3543:
  3360                           
  3361                           ;Elements/Elements.c: 27:        Counter=1;
  3362  0A94  01D2               	clrf	LED_BLINKING@Counter
  3363  0A95  0AD2               	incf	LED_BLINKING@Counter,f
  3364                           
  3365                           ;Elements/Elements.c: 29:    }
  3366  0A96  2A9D               	goto	l189
  3367  0A97                     l3545:
  3368                           
  3369                           ;Elements/Elements.c: 31:    {;Elements/Elements.c: 32:     Counter++;
  3370  0A97  3001               	movlw	1
  3371  0A98  00FF               	movwf	btemp+1
  3372  0A99  087F               	movf	btemp+1,w
  3373  0A9A  1283               	bcf	3,5	;RP0=0, select bank0
  3374  0A9B  1303               	bcf	3,6	;RP1=0, select bank0
  3375  0A9C  07D2               	addwf	LED_BLINKING@Counter,f
  3376  0A9D                     l189:
  3377  0A9D  0008               	return
  3378  0A9E                     __end_of_LED_BLINKING:
  3379                           
  3380                           	psect	text14
  3381  0927                     __ptext14:	
  3382 ;; *************** function _ADC_Conv_MainFunction *****************
  3383 ;; Defined at:
  3384 ;;		line 47 in file "ADC/ADC.c"
  3385 ;; Parameters:    Size  Location     Type
  3386 ;;		None
  3387 ;; Auto vars:     Size  Location     Type
  3388 ;;		None
  3389 ;; Return value:  Size  Location     Type
  3390 ;;                  1    wreg      void 
  3391 ;; Registers used:
  3392 ;;		wreg, fsr0l, fsr0h, status,2, status,0, btemp+1, pclath, cstack
  3393 ;; Tracked objects:
  3394 ;;		On entry : 0/0
  3395 ;;		On exit  : 0/0
  3396 ;;		Unchanged: 0/0
  3397 ;; Data sizes:     COMMON   BANK0   BANK1   BANK3   BANK2
  3398 ;;      Params:         0       0       0       0       0
  3399 ;;      Locals:         0       0       0       0       0
  3400 ;;      Temps:          0       0       0       0       0
  3401 ;;      Totals:         0       0       0       0       0
  3402 ;;Total ram usage:        0 bytes
  3403 ;; Hardware stack levels used:    1
  3404 ;; Hardware stack levels required when called:    8
  3405 ;; This function calls:
  3406 ;;		_ADC_Value_Ready_CallBack
  3407 ;; This function is called by:
  3408 ;;		_Scheduler_Task2
  3409 ;; This function uses a non-reentrant model
  3410 ;;
  3411                           
  3412                           
  3413                           ;psect for function _ADC_Conv_MainFunction
  3414  0927                     _ADC_Conv_MainFunction:
  3415  0927                     l3661:	
  3416                           ;incstack = 0
  3417 ;; hardware stack exceeded
  3418                           ; Regs used in _ADC_Conv_MainFunction: [wreg-fsr0h+status,2+status,0+btemp+1+pclath+csta
      +                          ck]
  3419                           
  3420                           
  3421                           ;ADC/ADC.c: 49:  if(ADC_Info.ADC_INIT_FLAG==1 && ADC_Info.ADC_START_FLAG==1 && Mode.Sele
      +                          ct_Mode==Normal_Mode)
  3422  0927  1683               	bsf	3,5	;RP0=1, select bank1
  3423  0928  1303               	bcf	3,6	;RP1=0, select bank1
  3424  0929  1C5C               	btfss	_ADC_Info^(0+128),0
  3425  092A  292C               	goto	u5081
  3426  092B  292D               	goto	u5080
  3427  092C                     u5081:
  3428  092C  2944               	goto	l30
  3429  092D                     u5080:
  3430  092D                     l3663:
  3431  092D  1CDC               	btfss	_ADC_Info^(0+128),1
  3432  092E  2930               	goto	u5091
  3433  092F  2931               	goto	u5090
  3434  0930                     u5091:
  3435  0930  2944               	goto	l30
  3436  0931                     u5090:
  3437  0931                     l3665:
  3438  0931  035A               	decf	_Mode^(0+128),w
  3439  0932  1D03               	btfss	3,2
  3440  0933  2935               	goto	u5101
  3441  0934  2936               	goto	u5100
  3442  0935                     u5101:
  3443  0935  2944               	goto	l30
  3444  0936                     u5100:
  3445  0936                     l3667:
  3446                           
  3447                           ;ADC/ADC.c: 50:  {;ADC/ADC.c: 51:      if(ADCON0bits.GO_DONE==0)
  3448  0936  1283               	bcf	3,5	;RP0=0, select bank0
  3449  0937  1303               	bcf	3,6	;RP1=0, select bank0
  3450  0938  191F               	btfsc	31,2	;volatile
  3451  0939  293B               	goto	u5111
  3452  093A  293C               	goto	u5110
  3453  093B                     u5111:
  3454  093B  2944               	goto	l30
  3455  093C                     u5110:
  3456  093C                     l3669:
  3457                           
  3458                           ;ADC/ADC.c: 52:      {;ADC/ADC.c: 53:       ADC_Value_Ready_CallBack();
  3459  093C  120A  158A  205D  120A  158A  	fcall	_ADC_Value_Ready_CallBack
  3460  0941                     l3671:
  3461                           
  3462                           ;ADC/ADC.c: 54:       ADCON0bits.GO_DONE=1;
  3463  0941  1283               	bcf	3,5	;RP0=0, select bank0
  3464  0942  1303               	bcf	3,6	;RP1=0, select bank0
  3465  0943  151F               	bsf	31,2	;volatile
  3466  0944                     l30:
  3467  0944  0008               	return
  3468  0945                     __end_of_ADC_Conv_MainFunction:
  3469                           
  3470                           	psect	text15
  3471  085D                     __ptext15:	
  3472 ;; *************** function _ADC_Value_Ready_CallBack *****************
  3473 ;; Defined at:
  3474 ;;		line 59 in file "ADC/ADC.c"
  3475 ;; Parameters:    Size  Location     Type
  3476 ;;		None
  3477 ;; Auto vars:     Size  Location     Type
  3478 ;;  ADC_Value       2   55[BANK1 ] unsigned int 
  3479 ;; Return value:  Size  Location     Type
  3480 ;;                  1    wreg      void 
  3481 ;; Registers used:
  3482 ;;		wreg, fsr0l, fsr0h, status,2, status,0, btemp+1, pclath, cstack
  3483 ;; Tracked objects:
  3484 ;;		On entry : 0/0
  3485 ;;		On exit  : 0/0
  3486 ;;		Unchanged: 0/0
  3487 ;; Data sizes:     COMMON   BANK0   BANK1   BANK3   BANK2
  3488 ;;      Params:         0       0       0       0       0
  3489 ;;      Locals:         0       0       2       0       0
  3490 ;;      Temps:          0       0       0       0       0
  3491 ;;      Totals:         0       0       2       0       0
  3492 ;;Total ram usage:        2 bytes
  3493 ;; Hardware stack levels used:    1
  3494 ;; Hardware stack levels required when called:    7
  3495 ;; This function calls:
  3496 ;;		_Temperature_Calc
  3497 ;; This function is called by:
  3498 ;;		_ADC_Conv_MainFunction
  3499 ;; This function uses a non-reentrant model
  3500 ;;
  3501                           
  3502                           
  3503                           ;psect for function _ADC_Value_Ready_CallBack
  3504  085D                     _ADC_Value_Ready_CallBack:
  3505  085D                     l3519:	
  3506                           ;incstack = 0
  3507 ;; hardware stack exceeded
  3508                           ; Regs used in _ADC_Value_Ready_CallBack: [wreg-fsr0h+status,2+status,0+btemp+1+pclath+c
      +                          stack]
  3509                           
  3510                           
  3511                           ;ADC/ADC.c: 61:   uint16_t ADC_Value=(ADRESH<<8)|(ADRESL);
  3512  085D  1283               	bcf	3,5	;RP0=0, select bank0
  3513  085E  1303               	bcf	3,6	;RP1=0, select bank0
  3514  085F  081E               	movf	30,w	;volatile
  3515  0860  1683               	bsf	3,5	;RP0=1, select bank1
  3516  0861  1303               	bcf	3,6	;RP1=0, select bank1
  3517  0862  00D8               	movwf	(ADC_Value_Ready_CallBack@ADC_Value+1)^(0+128)
  3518  0863  081E               	movf	30,w	;volatile
  3519  0864  00D7               	movwf	ADC_Value_Ready_CallBack@ADC_Value^(0+128)
  3520  0865                     l3521:
  3521                           
  3522                           ;ADC/ADC.c: 62:   Temperature_Calc(ADC_Value);
  3523  0865  0857               	movf	ADC_Value_Ready_CallBack@ADC_Value^(0+128),w
  3524  0866  120A  118A  26AD  120A  158A  	fcall	_Temperature_Calc
  3525  086B                     l33:
  3526  086B  0008               	return
  3527  086C                     __end_of_ADC_Value_Ready_CallBack:
  3528                           
  3529                           	psect	text16
  3530  06AD                     __ptext16:	
  3531 ;; *************** function _Temperature_Calc *****************
  3532 ;; Defined at:
  3533 ;;		line 14 in file "Temperature/Temperature.c"
  3534 ;; Parameters:    Size  Location     Type
  3535 ;;  ADC_VALUE       1    wreg     unsigned char 
  3536 ;; Auto vars:     Size  Location     Type
  3537 ;;  ADC_VALUE       1   54[BANK1 ] unsigned char 
  3538 ;; Return value:  Size  Location     Type
  3539 ;;                  1    wreg      void 
  3540 ;; Registers used:
  3541 ;;		wreg, fsr0l, fsr0h, status,2, status,0, btemp+1, pclath, cstack
  3542 ;; Tracked objects:
  3543 ;;		On entry : 0/0
  3544 ;;		On exit  : 0/0
  3545 ;;		Unchanged: 0/0
  3546 ;; Data sizes:     COMMON   BANK0   BANK1   BANK3   BANK2
  3547 ;;      Params:         0       0       0       0       0
  3548 ;;      Locals:         0       0       1       0       0
  3549 ;;      Temps:          0       0       4       0       0
  3550 ;;      Totals:         0       0       5       0       0
  3551 ;;Total ram usage:        5 bytes
  3552 ;; Hardware stack levels used:    1
  3553 ;; Hardware stack levels required when called:    6
  3554 ;; This function calls:
  3555 ;;		_Average_Value
  3556 ;;		___flmul
  3557 ;;		___fltol
  3558 ;;		___lwmod
  3559 ;;		___xxtofl
  3560 ;; This function is called by:
  3561 ;;		_ADC_Value_Ready_CallBack
  3562 ;; This function uses a non-reentrant model
  3563 ;;
  3564                           
  3565                           
  3566                           ;psect for function _Temperature_Calc
  3567  06AD                     _Temperature_Calc:
  3568                           
  3569                           ;incstack = 0
  3570 ;; hardware stack exceeded
  3571                           ; Regs used in _Temperature_Calc: [wreg-fsr0h+status,2+status,0+btemp+1+pclath+cstack]
  3572                           ;Temperature_Calc@ADC_VALUE stored from wreg
  3573  06AD  1683               	bsf	3,5	;RP0=1, select bank1
  3574  06AE  1303               	bcf	3,6	;RP1=0, select bank1
  3575  06AF  00D6               	movwf	Temperature_Calc@ADC_VALUE^(0+128)
  3576  06B0                     l3421:
  3577                           
  3578                           ;Temperature/Temperature.c: 14: void Temperature_Calc(uint8_t ADC_VALUE);Temperature/Tem
      +                          perature.c: 15: {;Temperature/Temperature.c: 16:  Temperature.Temp_Value=ADC_VALUE * 0.4
      +                          882;
  3579  06B0  0856               	movf	Temperature_Calc@ADC_VALUE^(0+128),w
  3580  06B1  00D2               	movwf	??_Temperature_Calc^(0+128)
  3581  06B2  01D3               	clrf	(??_Temperature_Calc^(0+128)+1)
  3582  06B3  01D4               	clrf	(??_Temperature_Calc^(0+128)+2)
  3583  06B4  01D5               	clrf	(??_Temperature_Calc^(0+128)+3)
  3584  06B5  0855               	movf	(??_Temperature_Calc+3)^(0+128),w
  3585  06B6  00A3               	movwf	(___xxtofl@val+3)^(0+128)
  3586  06B7  0854               	movf	(??_Temperature_Calc+2)^(0+128),w
  3587  06B8  00A2               	movwf	(___xxtofl@val+2)^(0+128)
  3588  06B9  0853               	movf	(??_Temperature_Calc+1)^(0+128),w
  3589  06BA  00A1               	movwf	(___xxtofl@val+1)^(0+128)
  3590  06BB  0852               	movf	??_Temperature_Calc^(0+128),w
  3591  06BC  00A0               	movwf	___xxtofl@val^(0+128)
  3592  06BD  3001               	movlw	1
  3593  06BE  120A  118A  24C5  120A  118A  	fcall	___xxtofl
  3594  06C3  1683               	bsf	3,5	;RP0=1, select bank1
  3595  06C4  1303               	bcf	3,6	;RP1=0, select bank1
  3596  06C5  0823               	movf	(?___xxtofl+3)^(0+128),w
  3597  06C6  00B5               	movwf	(___flmul@a+3)^(0+128)
  3598  06C7  0822               	movf	(?___xxtofl+2)^(0+128),w
  3599  06C8  00B4               	movwf	(___flmul@a+2)^(0+128)
  3600  06C9  0821               	movf	(?___xxtofl+1)^(0+128),w
  3601  06CA  00B3               	movwf	(___flmul@a+1)^(0+128)
  3602  06CB  0820               	movf	?___xxtofl^(0+128),w
  3603  06CC  00B2               	movwf	___flmul@a^(0+128)
  3604  06CD  303E               	movlw	62
  3605  06CE  00B1               	movwf	(___flmul@b+3)^(0+128)
  3606  06CF  30F9               	movlw	249
  3607  06D0  00B0               	movwf	(___flmul@b+2)^(0+128)
  3608  06D1  30F5               	movlw	245
  3609  06D2  00AF               	movwf	(___flmul@b+1)^(0+128)
  3610  06D3  305A               	movlw	90
  3611  06D4  00AE               	movwf	___flmul@b^(0+128)
  3612  06D5  120A  118A  205A  120A  118A  	fcall	___flmul
  3613  06DA  1683               	bsf	3,5	;RP0=1, select bank1
  3614  06DB  1303               	bcf	3,6	;RP1=0, select bank1
  3615  06DC  0831               	movf	(?___flmul+3)^(0+128),w
  3616  06DD  00CB               	movwf	(___fltol@f1+3)^(0+128)
  3617  06DE  0830               	movf	(?___flmul+2)^(0+128),w
  3618  06DF  00CA               	movwf	(___fltol@f1+2)^(0+128)
  3619  06E0  082F               	movf	(?___flmul+1)^(0+128),w
  3620  06E1  00C9               	movwf	(___fltol@f1+1)^(0+128)
  3621  06E2  082E               	movf	?___flmul^(0+128),w
  3622  06E3  00C8               	movwf	___fltol@f1^(0+128)
  3623  06E4  120A  118A  2631  120A  118A  	fcall	___fltol
  3624  06E9  1683               	bsf	3,5	;RP0=1, select bank1
  3625  06EA  1303               	bcf	3,6	;RP1=0, select bank1
  3626  06EB  0848               	movf	?___fltol^(0+128),w
  3627  06EC  00FF               	movwf	btemp+1
  3628  06ED  087F               	movf	btemp+1,w
  3629  06EE  1283               	bcf	3,5	;RP0=0, select bank0
  3630  06EF  1303               	bcf	3,6	;RP1=0, select bank0
  3631  06F0  00CD               	movwf	_Temperature
  3632  06F1                     l3423:
  3633                           
  3634                           ;Temperature/Temperature.c: 17:  Average_Value(Temperature.Temp_Value, &Temperature.Aver
      +                          age_Value);
  3635  06F1  304E               	movlw	(low ((_Temperature| 0+1)))& (0+255)
  3636  06F2  00FF               	movwf	btemp+1
  3637  06F3  087F               	movf	btemp+1,w
  3638  06F4  1683               	bsf	3,5	;RP0=1, select bank1
  3639  06F5  1303               	bcf	3,6	;RP1=0, select bank1
  3640  06F6  00AD               	movwf	Average_Value@Avrage_Values^(0+128)
  3641  06F7  1283               	bcf	3,5	;RP0=0, select bank0
  3642  06F8  1303               	bcf	3,6	;RP1=0, select bank0
  3643  06F9  084D               	movf	_Temperature,w
  3644  06FA  120A  118A  2581  120A  118A  	fcall	_Average_Value
  3645  06FF                     l3425:
  3646                           
  3647                           ;Temperature/Temperature.c: 18:  Temperature.Average_NValues=(Temperature.Average_NValue
      +                          s+1)%10U;
  3648  06FF  300A               	movlw	10
  3649  0700  1683               	bsf	3,5	;RP0=1, select bank1
  3650  0701  1303               	bcf	3,6	;RP1=0, select bank1
  3651  0702  00A0               	movwf	___lwmod@divisor^(0+128)
  3652  0703  3000               	movlw	0
  3653  0704  00A1               	movwf	(___lwmod@divisor^(0+128)+1)
  3654  0705  1283               	bcf	3,5	;RP0=0, select bank0
  3655  0706  1303               	bcf	3,6	;RP1=0, select bank0
  3656  0707  0851               	movf	_Temperature+4,w
  3657  0708  3E01               	addlw	1
  3658  0709  1683               	bsf	3,5	;RP0=1, select bank1
  3659  070A  1303               	bcf	3,6	;RP1=0, select bank1
  3660  070B  00A2               	movwf	___lwmod@dividend^(0+128)
  3661  070C  3000               	movlw	0
  3662  070D  1803               	skipnc
  3663  070E  3001               	movlw	1
  3664  070F  00A3               	movwf	(___lwmod@dividend^(0+128)+1)
  3665  0710  120A  158A  2394  120A  118A  	fcall	___lwmod
  3666  0715  1683               	bsf	3,5	;RP0=1, select bank1
  3667  0716  1303               	bcf	3,6	;RP1=0, select bank1
  3668  0717  0820               	movf	?___lwmod^(0+128),w
  3669  0718  00FF               	movwf	btemp+1
  3670  0719  087F               	movf	btemp+1,w
  3671  071A  1283               	bcf	3,5	;RP0=0, select bank0
  3672  071B  1303               	bcf	3,6	;RP1=0, select bank0
  3673  071C  00D1               	movwf	_Temperature+4
  3674  071D                     l3427:
  3675                           
  3676                           ;Temperature/Temperature.c: 20:  if(Temperature.Average_NValues==9)
  3677  071D  3009               	movlw	9
  3678  071E  0651               	xorwf	_Temperature+4,w
  3679  071F  1D03               	btfss	3,2
  3680  0720  2F22               	goto	u4721
  3681  0721  2F23               	goto	u4720
  3682  0722                     u4721:
  3683  0722  2F24               	goto	l357
  3684  0723                     u4720:
  3685  0723                     l3429:
  3686                           
  3687                           ;Temperature/Temperature.c: 21:  {;Temperature/Temperature.c: 22:        Temperature.Ave
      +                          rage_Value_Ready_Flag=1;
  3688  0723  1450               	bsf	_Temperature+3,0
  3689  0724                     l357:
  3690  0724  0008               	return
  3691  0725                     __end_of_Temperature_Calc:
  3692                           
  3693                           	psect	text17
  3694  04C5                     __ptext17:	
  3695 ;; *************** function ___xxtofl *****************
  3696 ;; Defined at:
  3697 ;;		line 10 in file "C:\Program Files (x86)\Microchip\xc8\v2.20\pic\sources\c90\common\xxtofl.c"
  3698 ;; Parameters:    Size  Location     Type
  3699 ;;  sign            1    wreg     unsigned char 
  3700 ;;  val             4    0[BANK1 ] long 
  3701 ;; Auto vars:     Size  Location     Type
  3702 ;;  sign            1    8[BANK1 ] unsigned char 
  3703 ;;  arg             4   10[BANK1 ] unsigned long 
  3704 ;;  exp             1    9[BANK1 ] unsigned char 
  3705 ;; Return value:  Size  Location     Type
  3706 ;;                  4    0[BANK1 ] unsigned char 
  3707 ;; Registers used:
  3708 ;;		wreg, status,2, status,0, btemp+1
  3709 ;; Tracked objects:
  3710 ;;		On entry : 0/0
  3711 ;;		On exit  : 0/0
  3712 ;;		Unchanged: 0/0
  3713 ;; Data sizes:     COMMON   BANK0   BANK1   BANK3   BANK2
  3714 ;;      Params:         0       0       4       0       0
  3715 ;;      Locals:         0       0       6       0       0
  3716 ;;      Temps:          0       0       4       0       0
  3717 ;;      Totals:         0       0      14       0       0
  3718 ;;Total ram usage:       14 bytes
  3719 ;; Hardware stack levels used:    1
  3720 ;; Hardware stack levels required when called:    4
  3721 ;; This function calls:
  3722 ;;		Nothing
  3723 ;; This function is called by:
  3724 ;;		_Temperature_Calc
  3725 ;; This function uses a non-reentrant model
  3726 ;;
  3727                           
  3728                           
  3729                           ;psect for function ___xxtofl
  3730  04C5                     ___xxtofl:
  3731                           
  3732                           ;incstack = 0
  3733 ;; hardware stack exceeded
  3734                           ; Regs used in ___xxtofl: [wreg+status,2+status,0+btemp+1]
  3735                           ;___xxtofl@sign stored from wreg
  3736  04C5  1683               	bsf	3,5	;RP0=1, select bank1
  3737  04C6  1303               	bcf	3,6	;RP1=0, select bank1
  3738  04C7  00A8               	movwf	___xxtofl@sign^(0+128)
  3739  04C8                     l3373:
  3740  04C8  0828               	movf	___xxtofl@sign^(0+128),w
  3741  04C9  1903               	btfsc	3,2
  3742  04CA  2CCC               	goto	u4581
  3743  04CB  2CCD               	goto	u4580
  3744  04CC                     u4581:
  3745  04CC  2CE1               	goto	l3379
  3746  04CD                     u4580:
  3747  04CD                     l3375:
  3748  04CD  1FA3               	btfss	(___xxtofl@val+3)^(0+128),7
  3749  04CE  2CD0               	goto	u4591
  3750  04CF  2CD1               	goto	u4590
  3751  04D0                     u4591:
  3752  04D0  2CE1               	goto	l3379
  3753  04D1                     u4590:
  3754  04D1                     l3377:
  3755  04D1  0920               	comf	___xxtofl@val^(0+128),w
  3756  04D2  00AA               	movwf	___xxtofl@arg^(0+128)
  3757  04D3  0921               	comf	(___xxtofl@val^(0+128)+1),w
  3758  04D4  00AB               	movwf	(___xxtofl@arg+1)^(0+128)
  3759  04D5  0922               	comf	(___xxtofl@val^(0+128)+2),w
  3760  04D6  00AC               	movwf	(___xxtofl@arg+2)^(0+128)
  3761  04D7  0923               	comf	(___xxtofl@val^(0+128)+3),w
  3762  04D8  00AD               	movwf	(___xxtofl@arg+3)^(0+128)
  3763  04D9  0AAA               	incf	___xxtofl@arg^(0+128),f
  3764  04DA  1903               	skipnz
  3765  04DB  0AAB               	incf	(___xxtofl@arg+1)^(0+128),f
  3766  04DC  1903               	skipnz
  3767  04DD  0AAC               	incf	(___xxtofl@arg+2)^(0+128),f
  3768  04DE  1903               	skipnz
  3769  04DF  0AAD               	incf	(___xxtofl@arg+3)^(0+128),f
  3770  04E0  2CE9               	goto	l998
  3771  04E1                     l3379:
  3772  04E1  0823               	movf	(___xxtofl@val+3)^(0+128),w
  3773  04E2  00AD               	movwf	(___xxtofl@arg+3)^(0+128)
  3774  04E3  0822               	movf	(___xxtofl@val+2)^(0+128),w
  3775  04E4  00AC               	movwf	(___xxtofl@arg+2)^(0+128)
  3776  04E5  0821               	movf	(___xxtofl@val+1)^(0+128),w
  3777  04E6  00AB               	movwf	(___xxtofl@arg+1)^(0+128)
  3778  04E7  0820               	movf	___xxtofl@val^(0+128),w
  3779  04E8  00AA               	movwf	___xxtofl@arg^(0+128)
  3780  04E9                     l998:
  3781  04E9  0823               	movf	(___xxtofl@val+3)^(0+128),w
  3782  04EA  0422               	iorwf	(___xxtofl@val+2)^(0+128),w
  3783  04EB  0421               	iorwf	(___xxtofl@val+1)^(0+128),w
  3784  04EC  0420               	iorwf	___xxtofl@val^(0+128),w
  3785  04ED  1D03               	skipz
  3786  04EE  2CF0               	goto	u4601
  3787  04EF  2CF1               	goto	u4600
  3788  04F0                     u4601:
  3789  04F0  2CFA               	goto	l3385
  3790  04F1                     u4600:
  3791  04F1                     l3381:
  3792  04F1  3000               	movlw	0
  3793  04F2  00A3               	movwf	(?___xxtofl+3)^(0+128)
  3794  04F3  3000               	movlw	0
  3795  04F4  00A2               	movwf	(?___xxtofl+2)^(0+128)
  3796  04F5  3000               	movlw	0
  3797  04F6  00A1               	movwf	(?___xxtofl+1)^(0+128)
  3798  04F7  3000               	movlw	0
  3799  04F8  00A0               	movwf	?___xxtofl^(0+128)
  3800  04F9  2D80               	goto	l1000
  3801  04FA                     l3385:
  3802  04FA  3096               	movlw	150
  3803  04FB  00FF               	movwf	btemp+1
  3804  04FC  087F               	movf	btemp+1,w
  3805  04FD  00A9               	movwf	___xxtofl@exp^(0+128)
  3806  04FE  2D0C               	goto	l3391
  3807  04FF                     l3387:
  3808  04FF  3001               	movlw	1
  3809  0500  00FF               	movwf	btemp+1
  3810  0501  087F               	movf	btemp+1,w
  3811  0502  07A9               	addwf	___xxtofl@exp^(0+128),f
  3812  0503                     l3389:
  3813  0503  3001               	movlw	1
  3814  0504                     u4615:
  3815  0504  1003               	clrc
  3816  0505  0CAD               	rrf	(___xxtofl@arg+3)^(0+128),f
  3817  0506  0CAC               	rrf	(___xxtofl@arg+2)^(0+128),f
  3818  0507  0CAB               	rrf	(___xxtofl@arg+1)^(0+128),f
  3819  0508  0CAA               	rrf	___xxtofl@arg^(0+128),f
  3820  0509  3EFF               	addlw	-1
  3821  050A  1D03               	skipz
  3822  050B  2D04               	goto	u4615
  3823  050C                     l3391:
  3824  050C  30FE               	movlw	254
  3825  050D  052D               	andwf	(___xxtofl@arg+3)^(0+128),w
  3826  050E  1D03               	btfss	3,2
  3827  050F  2D11               	goto	u4621
  3828  0510  2D12               	goto	u4620
  3829  0511                     u4621:
  3830  0511  2CFF               	goto	l3387
  3831  0512                     u4620:
  3832  0512  2D2E               	goto	l3399
  3833  0513                     l3393:
  3834  0513  3001               	movlw	1
  3835  0514  00FF               	movwf	btemp+1
  3836  0515  087F               	movf	btemp+1,w
  3837  0516  07A9               	addwf	___xxtofl@exp^(0+128),f
  3838  0517                     l3395:
  3839  0517  3001               	movlw	1
  3840  0518  07AA               	addwf	___xxtofl@arg^(0+128),f
  3841  0519  3000               	movlw	0
  3842  051A  1803               	skipnc
  3843  051B  3001               	movlw	1
  3844  051C  07AB               	addwf	(___xxtofl@arg+1)^(0+128),f
  3845  051D  3000               	movlw	0
  3846  051E  1803               	skipnc
  3847  051F  3001               	movlw	1
  3848  0520  07AC               	addwf	(___xxtofl@arg+2)^(0+128),f
  3849  0521  3000               	movlw	0
  3850  0522  1803               	skipnc
  3851  0523  3001               	movlw	1
  3852  0524  07AD               	addwf	(___xxtofl@arg+3)^(0+128),f
  3853  0525                     l3397:
  3854  0525  3001               	movlw	1
  3855  0526                     u4635:
  3856  0526  1003               	clrc
  3857  0527  0CAD               	rrf	(___xxtofl@arg+3)^(0+128),f
  3858  0528  0CAC               	rrf	(___xxtofl@arg+2)^(0+128),f
  3859  0529  0CAB               	rrf	(___xxtofl@arg+1)^(0+128),f
  3860  052A  0CAA               	rrf	___xxtofl@arg^(0+128),f
  3861  052B  3EFF               	addlw	-1
  3862  052C  1D03               	skipz
  3863  052D  2D26               	goto	u4635
  3864  052E                     l3399:
  3865  052E  30FF               	movlw	255
  3866  052F  052D               	andwf	(___xxtofl@arg+3)^(0+128),w
  3867  0530  1D03               	btfss	3,2
  3868  0531  2D33               	goto	u4641
  3869  0532  2D34               	goto	u4640
  3870  0533                     u4641:
  3871  0533  2D13               	goto	l3393
  3872  0534                     u4640:
  3873  0534  2D40               	goto	l3403
  3874  0535                     l3401:
  3875  0535  3001               	movlw	1
  3876  0536  02A9               	subwf	___xxtofl@exp^(0+128),f
  3877  0537  3001               	movlw	1
  3878  0538  00A4               	movwf	??___xxtofl^(0+128)
  3879  0539                     u4655:
  3880  0539  1003               	clrc
  3881  053A  0DAA               	rlf	___xxtofl@arg^(0+128),f
  3882  053B  0DAB               	rlf	(___xxtofl@arg+1)^(0+128),f
  3883  053C  0DAC               	rlf	(___xxtofl@arg+2)^(0+128),f
  3884  053D  0DAD               	rlf	(___xxtofl@arg+3)^(0+128),f
  3885  053E  0BA4               	decfsz	??___xxtofl^(0+128),f
  3886  053F  2D39               	goto	u4655
  3887  0540                     l3403:
  3888  0540  1BAC               	btfsc	(___xxtofl@arg+2)^(0+128),7
  3889  0541  2D43               	goto	u4661
  3890  0542  2D44               	goto	u4660
  3891  0543                     u4661:
  3892  0543  2D4A               	goto	l1011
  3893  0544                     u4660:
  3894  0544                     l3405:
  3895  0544  3002               	movlw	2
  3896  0545  0229               	subwf	___xxtofl@exp^(0+128),w
  3897  0546  1803               	skipnc
  3898  0547  2D49               	goto	u4671
  3899  0548  2D4A               	goto	u4670
  3900  0549                     u4671:
  3901  0549  2D35               	goto	l3401
  3902  054A                     u4670:
  3903  054A                     l1011:
  3904  054A  1829               	btfsc	___xxtofl@exp^(0+128),0
  3905  054B  2D4D               	goto	u4681
  3906  054C  2D4E               	goto	u4680
  3907  054D                     u4681:
  3908  054D  2D56               	goto	l1012
  3909  054E                     u4680:
  3910  054E                     l3407:
  3911  054E  30FF               	movlw	255
  3912  054F  05AA               	andwf	___xxtofl@arg^(0+128),f
  3913  0550  30FF               	movlw	255
  3914  0551  05AB               	andwf	(___xxtofl@arg+1)^(0+128),f
  3915  0552  307F               	movlw	127
  3916  0553  05AC               	andwf	(___xxtofl@arg+2)^(0+128),f
  3917  0554  30FF               	movlw	255
  3918  0555  05AD               	andwf	(___xxtofl@arg+3)^(0+128),f
  3919  0556                     l1012:
  3920  0556  1003               	clrc
  3921  0557  0CA9               	rrf	___xxtofl@exp^(0+128),f
  3922  0558                     l3409:
  3923  0558  0829               	movf	___xxtofl@exp^(0+128),w
  3924  0559  00A4               	movwf	??___xxtofl^(0+128)
  3925  055A  01A5               	clrf	(??___xxtofl^(0+128)+1)
  3926  055B  01A6               	clrf	(??___xxtofl^(0+128)+2)
  3927  055C  01A7               	clrf	(??___xxtofl^(0+128)+3)
  3928  055D  3018               	movlw	24
  3929  055E                     u4695:
  3930  055E  1003               	clrc
  3931  055F  0DA4               	rlf	??___xxtofl^(0+128),f
  3932  0560  0DA5               	rlf	(??___xxtofl^(0+128)+1),f
  3933  0561  0DA6               	rlf	(??___xxtofl^(0+128)+2),f
  3934  0562  0DA7               	rlf	(??___xxtofl^(0+128)+3),f
  3935  0563                     u4690:
  3936  0563  3EFF               	addlw	-1
  3937  0564  1D03               	skipz
  3938  0565  2D5E               	goto	u4695
  3939  0566  0824               	movf	??___xxtofl^(0+128),w
  3940  0567  04AA               	iorwf	___xxtofl@arg^(0+128),f
  3941  0568  0825               	movf	(??___xxtofl+1)^(0+128),w
  3942  0569  04AB               	iorwf	(___xxtofl@arg+1)^(0+128),f
  3943  056A  0826               	movf	(??___xxtofl+2)^(0+128),w
  3944  056B  04AC               	iorwf	(___xxtofl@arg+2)^(0+128),f
  3945  056C  0827               	movf	(??___xxtofl+3)^(0+128),w
  3946  056D  04AD               	iorwf	(___xxtofl@arg+3)^(0+128),f
  3947  056E                     l3411:
  3948  056E  0828               	movf	___xxtofl@sign^(0+128),w
  3949  056F  1903               	btfsc	3,2
  3950  0570  2D72               	goto	u4701
  3951  0571  2D73               	goto	u4700
  3952  0572                     u4701:
  3953  0572  2D78               	goto	l3417
  3954  0573                     u4700:
  3955  0573                     l3413:
  3956  0573  1FA3               	btfss	(___xxtofl@val+3)^(0+128),7
  3957  0574  2D76               	goto	u4711
  3958  0575  2D77               	goto	u4710
  3959  0576                     u4711:
  3960  0576  2D78               	goto	l3417
  3961  0577                     u4710:
  3962  0577                     l3415:
  3963  0577  17AD               	bsf	(___xxtofl@arg^(0+128)+3),7
  3964  0578                     l3417:
  3965  0578  082D               	movf	(___xxtofl@arg+3)^(0+128),w
  3966  0579  00A3               	movwf	(?___xxtofl+3)^(0+128)
  3967  057A  082C               	movf	(___xxtofl@arg+2)^(0+128),w
  3968  057B  00A2               	movwf	(?___xxtofl+2)^(0+128)
  3969  057C  082B               	movf	(___xxtofl@arg+1)^(0+128),w
  3970  057D  00A1               	movwf	(?___xxtofl+1)^(0+128)
  3971  057E  082A               	movf	___xxtofl@arg^(0+128),w
  3972  057F  00A0               	movwf	?___xxtofl^(0+128)
  3973  0580                     l1000:
  3974  0580  0008               	return
  3975  0581                     __end_of___xxtofl:
  3976                           
  3977                           	psect	text18
  3978  0631                     __ptext18:	
  3979 ;; *************** function ___fltol *****************
  3980 ;; Defined at:
  3981 ;;		line 43 in file "C:\Program Files (x86)\Microchip\xc8\v2.20\pic\sources\c90\common\fltol.c"
  3982 ;; Parameters:    Size  Location     Type
  3983 ;;  f1              4   40[BANK1 ] unsigned char 
  3984 ;; Auto vars:     Size  Location     Type
  3985 ;;  exp1            1   49[BANK1 ] unsigned char 
  3986 ;;  sign1           1   48[BANK1 ] unsigned char 
  3987 ;; Return value:  Size  Location     Type
  3988 ;;                  4   40[BANK1 ] long 
  3989 ;; Registers used:
  3990 ;;		wreg, status,2, status,0, btemp+1
  3991 ;; Tracked objects:
  3992 ;;		On entry : 0/0
  3993 ;;		On exit  : 0/0
  3994 ;;		Unchanged: 0/0
  3995 ;; Data sizes:     COMMON   BANK0   BANK1   BANK3   BANK2
  3996 ;;      Params:         0       0       4       0       0
  3997 ;;      Locals:         0       0       2       0       0
  3998 ;;      Temps:          0       0       4       0       0
  3999 ;;      Totals:         0       0      10       0       0
  4000 ;;Total ram usage:       10 bytes
  4001 ;; Hardware stack levels used:    1
  4002 ;; Hardware stack levels required when called:    4
  4003 ;; This function calls:
  4004 ;;		Nothing
  4005 ;; This function is called by:
  4006 ;;		_Temperature_Calc
  4007 ;; This function uses a non-reentrant model
  4008 ;;
  4009                           
  4010                           
  4011                           ;psect for function ___fltol
  4012  0631                     ___fltol:
  4013  0631                     l3193:	
  4014                           ;incstack = 0
  4015 ;; hardware stack exceeded
  4016                           ; Regs used in ___fltol: [wreg+status,2+status,0+btemp+1]
  4017                           
  4018  0631  1003               	clrc
  4019  0632  1683               	bsf	3,5	;RP0=1, select bank1
  4020  0633  1303               	bcf	3,6	;RP1=0, select bank1
  4021  0634  0D4A               	rlf	(___fltol@f1+2)^(0+128),w
  4022  0635  0D4B               	rlf	(___fltol@f1+3)^(0+128),w
  4023  0636  00FF               	movwf	btemp+1
  4024  0637  087F               	movf	btemp+1,w
  4025  0638  00D1               	movwf	___fltol@exp1^(0+128)
  4026  0639  0851               	movf	___fltol@exp1^(0+128),w
  4027  063A  1D03               	btfss	3,2
  4028  063B  2E3D               	goto	u4111
  4029  063C  2E3E               	goto	u4110
  4030  063D                     u4111:
  4031  063D  2E47               	goto	l3199
  4032  063E                     u4110:
  4033  063E                     l3195:
  4034  063E  3000               	movlw	0
  4035  063F  00CB               	movwf	(?___fltol+3)^(0+128)
  4036  0640  3000               	movlw	0
  4037  0641  00CA               	movwf	(?___fltol+2)^(0+128)
  4038  0642  3000               	movlw	0
  4039  0643  00C9               	movwf	(?___fltol+1)^(0+128)
  4040  0644  3000               	movlw	0
  4041  0645  00C8               	movwf	?___fltol^(0+128)
  4042  0646  2EAC               	goto	l751
  4043  0647                     l3199:
  4044  0647  0848               	movf	___fltol@f1^(0+128),w
  4045  0648  00CC               	movwf	??___fltol^(0+128)
  4046  0649  0849               	movf	(___fltol@f1+1)^(0+128),w
  4047  064A  00CD               	movwf	(??___fltol^(0+128)+1)
  4048  064B  084A               	movf	(___fltol@f1+2)^(0+128),w
  4049  064C  00CE               	movwf	(??___fltol^(0+128)+2)
  4050  064D  084B               	movf	(___fltol@f1+3)^(0+128),w
  4051  064E  00CF               	movwf	(??___fltol^(0+128)+3)
  4052  064F  301F               	movlw	31
  4053  0650                     u4125:
  4054  0650  1003               	clrc
  4055  0651  0CCF               	rrf	(??___fltol^(0+128)+3),f
  4056  0652  0CCE               	rrf	(??___fltol^(0+128)+2),f
  4057  0653  0CCD               	rrf	(??___fltol^(0+128)+1),f
  4058  0654  0CCC               	rrf	??___fltol^(0+128),f
  4059  0655                     u4120:
  4060  0655  3EFF               	addlw	-1
  4061  0656  1D03               	skipz
  4062  0657  2E50               	goto	u4125
  4063  0658  084C               	movf	??___fltol^(0+128),w
  4064  0659  00FF               	movwf	btemp+1
  4065  065A  087F               	movf	btemp+1,w
  4066  065B  00D0               	movwf	___fltol@sign1^(0+128)
  4067  065C                     l3201:
  4068  065C  17CA               	bsf	(___fltol@f1^(0+128)+2),7
  4069  065D                     l3203:
  4070  065D  30FF               	movlw	255
  4071  065E  05C8               	andwf	___fltol@f1^(0+128),f
  4072  065F  30FF               	movlw	255
  4073  0660  05C9               	andwf	(___fltol@f1+1)^(0+128),f
  4074  0661  30FF               	movlw	255
  4075  0662  05CA               	andwf	(___fltol@f1+2)^(0+128),f
  4076  0663  3000               	movlw	0
  4077  0664  05CB               	andwf	(___fltol@f1+3)^(0+128),f
  4078  0665                     l3205:
  4079  0665  3096               	movlw	150
  4080  0666  02D1               	subwf	___fltol@exp1^(0+128),f
  4081  0667                     l3207:
  4082  0667  1FD1               	btfss	___fltol@exp1^(0+128),7
  4083  0668  2E6A               	goto	u4131
  4084  0669  2E6B               	goto	u4130
  4085  066A                     u4131:
  4086  066A  2E85               	goto	l3219
  4087  066B                     u4130:
  4088  066B                     l3209:
  4089  066B  0851               	movf	___fltol@exp1^(0+128),w
  4090  066C  3A80               	xorlw	128
  4091  066D  3E97               	addlw	151
  4092  066E  1803               	skipnc
  4093  066F  2E71               	goto	u4141
  4094  0670  2E72               	goto	u4140
  4095  0671                     u4141:
  4096  0671  2E73               	goto	l3215
  4097  0672                     u4140:
  4098  0672  2E3E               	goto	l3195
  4099  0673                     l3215:
  4100  0673  3001               	movlw	1
  4101  0674                     u4155:
  4102  0674  1003               	clrc
  4103  0675  0CCB               	rrf	(___fltol@f1+3)^(0+128),f
  4104  0676  0CCA               	rrf	(___fltol@f1+2)^(0+128),f
  4105  0677  0CC9               	rrf	(___fltol@f1+1)^(0+128),f
  4106  0678  0CC8               	rrf	___fltol@f1^(0+128),f
  4107  0679  3EFF               	addlw	-1
  4108  067A  1D03               	skipz
  4109  067B  2E74               	goto	u4155
  4110  067C                     l3217:
  4111  067C  3001               	movlw	1
  4112  067D  00FF               	movwf	btemp+1
  4113  067E  087F               	movf	btemp+1,w
  4114  067F  07D1               	addwf	___fltol@exp1^(0+128),f
  4115  0680  1D03               	btfss	3,2
  4116  0681  2E83               	goto	u4161
  4117  0682  2E84               	goto	u4160
  4118  0683                     u4161:
  4119  0683  2E73               	goto	l3215
  4120  0684                     u4160:
  4121  0684  2E9C               	goto	l3227
  4122  0685                     l3219:
  4123  0685  3020               	movlw	32
  4124  0686  0251               	subwf	___fltol@exp1^(0+128),w
  4125  0687  1C03               	skipc
  4126  0688  2E8A               	goto	u4171
  4127  0689  2E8B               	goto	u4170
  4128  068A                     u4171:
  4129  068A  2E97               	goto	l758
  4130  068B                     u4170:
  4131  068B  2E3E               	goto	l3195
  4132  068C                     l3225:
  4133  068C  3001               	movlw	1
  4134  068D  00CC               	movwf	??___fltol^(0+128)
  4135  068E                     u4185:
  4136  068E  1003               	clrc
  4137  068F  0DC8               	rlf	___fltol@f1^(0+128),f
  4138  0690  0DC9               	rlf	(___fltol@f1+1)^(0+128),f
  4139  0691  0DCA               	rlf	(___fltol@f1+2)^(0+128),f
  4140  0692  0DCB               	rlf	(___fltol@f1+3)^(0+128),f
  4141  0693  0BCC               	decfsz	??___fltol^(0+128),f
  4142  0694  2E8E               	goto	u4185
  4143  0695  3001               	movlw	1
  4144  0696  02D1               	subwf	___fltol@exp1^(0+128),f
  4145  0697                     l758:
  4146  0697  0851               	movf	___fltol@exp1^(0+128),w
  4147  0698  1D03               	btfss	3,2
  4148  0699  2E9B               	goto	u4191
  4149  069A  2E9C               	goto	u4190
  4150  069B                     u4191:
  4151  069B  2E8C               	goto	l3225
  4152  069C                     u4190:
  4153  069C                     l3227:
  4154  069C  0850               	movf	___fltol@sign1^(0+128),w
  4155  069D  1903               	btfsc	3,2
  4156  069E  2EA0               	goto	u4201
  4157  069F  2EA1               	goto	u4200
  4158  06A0                     u4201:
  4159  06A0  2EAC               	goto	l761
  4160  06A1                     u4200:
  4161  06A1                     l3229:
  4162  06A1  09C8               	comf	___fltol@f1^(0+128),f
  4163  06A2  09C9               	comf	(___fltol@f1+1)^(0+128),f
  4164  06A3  09CA               	comf	(___fltol@f1+2)^(0+128),f
  4165  06A4  09CB               	comf	(___fltol@f1+3)^(0+128),f
  4166  06A5  0AC8               	incf	___fltol@f1^(0+128),f
  4167  06A6  1903               	skipnz
  4168  06A7  0AC9               	incf	(___fltol@f1+1)^(0+128),f
  4169  06A8  1903               	skipnz
  4170  06A9  0ACA               	incf	(___fltol@f1+2)^(0+128),f
  4171  06AA  1903               	skipnz
  4172  06AB  0ACB               	incf	(___fltol@f1+3)^(0+128),f
  4173  06AC                     l761:
  4174  06AC                     l751:
  4175  06AC  0008               	return
  4176  06AD                     __end_of___fltol:
  4177                           
  4178                           	psect	text19
  4179  005A                     __ptext19:	
  4180 ;; *************** function ___flmul *****************
  4181 ;; Defined at:
  4182 ;;		line 8 in file "C:\Program Files (x86)\Microchip\xc8\v2.20\pic\sources\c90\common\sprcmul.c"
  4183 ;; Parameters:    Size  Location     Type
  4184 ;;  b               4   14[BANK1 ] long 
  4185 ;;  a               4   18[BANK1 ] long 
  4186 ;; Auto vars:     Size  Location     Type
  4187 ;;  prod            4   34[BANK1 ] struct .
  4188 ;;  grs             4   29[BANK1 ] unsigned long 
  4189 ;;  temp            2   38[BANK1 ] struct .
  4190 ;;  bexp            1   33[BANK1 ] unsigned char 
  4191 ;;  aexp            1   28[BANK1 ] unsigned char 
  4192 ;;  sign            1   27[BANK1 ] unsigned char 
  4193 ;; Return value:  Size  Location     Type
  4194 ;;                  4   14[BANK1 ] unsigned char 
  4195 ;; Registers used:
  4196 ;;		wreg, status,2, status,0, btemp+1, pclath, cstack
  4197 ;; Tracked objects:
  4198 ;;		On entry : 0/0
  4199 ;;		On exit  : 0/0
  4200 ;;		Unchanged: 0/0
  4201 ;; Data sizes:     COMMON   BANK0   BANK1   BANK3   BANK2
  4202 ;;      Params:         0       0       8       0       0
  4203 ;;      Locals:         0       0      13       0       0
  4204 ;;      Temps:          0       0       5       0       0
  4205 ;;      Totals:         0       0      26       0       0
  4206 ;;Total ram usage:       26 bytes
  4207 ;; Hardware stack levels used:    1
  4208 ;; Hardware stack levels required when called:    5
  4209 ;; This function calls:
  4210 ;;		__Umul8_16
  4211 ;; This function is called by:
  4212 ;;		_Temperature_Calc
  4213 ;; This function uses a non-reentrant model
  4214 ;;
  4215                           
  4216                           
  4217                           ;psect for function ___flmul
  4218  005A                     ___flmul:
  4219  005A                     l3231:	
  4220                           ;incstack = 0
  4221 ;; hardware stack exceeded
  4222                           ; Regs used in ___flmul: [wreg+status,2+status,0+btemp+1+pclath+cstack]
  4223                           
  4224  005A  1683               	bsf	3,5	;RP0=1, select bank1
  4225  005B  1303               	bcf	3,6	;RP1=0, select bank1
  4226  005C  0831               	movf	(___flmul@b^(0+128)+3),w
  4227  005D  3980               	andlw	128
  4228  005E  00FF               	movwf	btemp+1
  4229  005F  087F               	movf	btemp+1,w
  4230  0060  00BB               	movwf	___flmul@sign^(0+128)
  4231  0061                     l3233:
  4232  0061  0831               	movf	(___flmul@b^(0+128)+3),w
  4233  0062  00B6               	movwf	??___flmul^(0+128)
  4234  0063  0736               	addwf	??___flmul^(0+128),w
  4235  0064  00FF               	movwf	btemp+1
  4236  0065  087F               	movf	btemp+1,w
  4237  0066  00C1               	movwf	___flmul@bexp^(0+128)
  4238  0067                     l3235:
  4239  0067  1FB0               	btfss	(___flmul@b^(0+128)+2),7
  4240  0068  286A               	goto	u4211
  4241  0069  286B               	goto	u4210
  4242  006A                     u4211:
  4243  006A  286C               	goto	l3239
  4244  006B                     u4210:
  4245  006B                     l3237:
  4246  006B  1441               	bsf	___flmul@bexp^(0+128),0
  4247  006C                     l3239:
  4248  006C  0841               	movf	___flmul@bexp^(0+128),w
  4249  006D  1903               	btfsc	3,2
  4250  006E  2870               	goto	u4221
  4251  006F  2871               	goto	u4220
  4252  0070                     u4221:
  4253  0070  2880               	goto	l3247
  4254  0071                     u4220:
  4255  0071                     l3241:
  4256  0071  0A41               	incf	___flmul@bexp^(0+128),w
  4257  0072  1D03               	btfss	3,2
  4258  0073  2875               	goto	u4231
  4259  0074  2876               	goto	u4230
  4260  0075                     u4231:
  4261  0075  287E               	goto	l3245
  4262  0076                     u4230:
  4263  0076                     l3243:
  4264  0076  3000               	movlw	0
  4265  0077  00B1               	movwf	(___flmul@b+3)^(0+128)
  4266  0078  3000               	movlw	0
  4267  0079  00B0               	movwf	(___flmul@b+2)^(0+128)
  4268  007A  3000               	movlw	0
  4269  007B  00AF               	movwf	(___flmul@b+1)^(0+128)
  4270  007C  3000               	movlw	0
  4271  007D  00AE               	movwf	___flmul@b^(0+128)
  4272  007E                     l3245:
  4273  007E  17B0               	bsf	(___flmul@b^(0+128)+2),7
  4274  007F  2888               	goto	l3249
  4275  0080                     l3247:
  4276  0080  3000               	movlw	0
  4277  0081  00B1               	movwf	(___flmul@b+3)^(0+128)
  4278  0082  3000               	movlw	0
  4279  0083  00B0               	movwf	(___flmul@b+2)^(0+128)
  4280  0084  3000               	movlw	0
  4281  0085  00AF               	movwf	(___flmul@b+1)^(0+128)
  4282  0086  3000               	movlw	0
  4283  0087  00AE               	movwf	___flmul@b^(0+128)
  4284  0088                     l3249:
  4285  0088  0835               	movf	(___flmul@a^(0+128)+3),w
  4286  0089  3980               	andlw	128
  4287  008A  00FF               	movwf	btemp+1
  4288  008B  087F               	movf	btemp+1,w
  4289  008C  06BB               	xorwf	___flmul@sign^(0+128),f
  4290  008D                     l3251:
  4291  008D  0835               	movf	(___flmul@a^(0+128)+3),w
  4292  008E  00B6               	movwf	??___flmul^(0+128)
  4293  008F  0736               	addwf	??___flmul^(0+128),w
  4294  0090  00FF               	movwf	btemp+1
  4295  0091  087F               	movf	btemp+1,w
  4296  0092  00BC               	movwf	___flmul@aexp^(0+128)
  4297  0093                     l3253:
  4298  0093  1FB4               	btfss	(___flmul@a^(0+128)+2),7
  4299  0094  2896               	goto	u4241
  4300  0095  2897               	goto	u4240
  4301  0096                     u4241:
  4302  0096  2898               	goto	l3257
  4303  0097                     u4240:
  4304  0097                     l3255:
  4305  0097  143C               	bsf	___flmul@aexp^(0+128),0
  4306  0098                     l3257:
  4307  0098  083C               	movf	___flmul@aexp^(0+128),w
  4308  0099  1903               	btfsc	3,2
  4309  009A  289C               	goto	u4251
  4310  009B  289D               	goto	u4250
  4311  009C                     u4251:
  4312  009C  28AC               	goto	l3265
  4313  009D                     u4250:
  4314  009D                     l3259:
  4315  009D  0A3C               	incf	___flmul@aexp^(0+128),w
  4316  009E  1D03               	btfss	3,2
  4317  009F  28A1               	goto	u4261
  4318  00A0  28A2               	goto	u4260
  4319  00A1                     u4261:
  4320  00A1  28AA               	goto	l3263
  4321  00A2                     u4260:
  4322  00A2                     l3261:
  4323  00A2  3000               	movlw	0
  4324  00A3  00B5               	movwf	(___flmul@a+3)^(0+128)
  4325  00A4  3000               	movlw	0
  4326  00A5  00B4               	movwf	(___flmul@a+2)^(0+128)
  4327  00A6  3000               	movlw	0
  4328  00A7  00B3               	movwf	(___flmul@a+1)^(0+128)
  4329  00A8  3000               	movlw	0
  4330  00A9  00B2               	movwf	___flmul@a^(0+128)
  4331  00AA                     l3263:
  4332  00AA  17B4               	bsf	(___flmul@a^(0+128)+2),7
  4333  00AB  28B4               	goto	l3267
  4334  00AC                     l3265:
  4335  00AC  3000               	movlw	0
  4336  00AD  00B5               	movwf	(___flmul@a+3)^(0+128)
  4337  00AE  3000               	movlw	0
  4338  00AF  00B4               	movwf	(___flmul@a+2)^(0+128)
  4339  00B0  3000               	movlw	0
  4340  00B1  00B3               	movwf	(___flmul@a+1)^(0+128)
  4341  00B2  3000               	movlw	0
  4342  00B3  00B2               	movwf	___flmul@a^(0+128)
  4343  00B4                     l3267:
  4344  00B4  083C               	movf	___flmul@aexp^(0+128),w
  4345  00B5  1903               	btfsc	3,2
  4346  00B6  28B8               	goto	u4271
  4347  00B7  28B9               	goto	u4270
  4348  00B8                     u4271:
  4349  00B8  28BE               	goto	l3271
  4350  00B9                     u4270:
  4351  00B9                     l3269:
  4352  00B9  0841               	movf	___flmul@bexp^(0+128),w
  4353  00BA  1D03               	btfss	3,2
  4354  00BB  28BD               	goto	u4281
  4355  00BC  28BE               	goto	u4280
  4356  00BD                     u4281:
  4357  00BD  28C7               	goto	l3275
  4358  00BE                     u4280:
  4359  00BE                     l3271:
  4360  00BE  3000               	movlw	0
  4361  00BF  00B1               	movwf	(?___flmul+3)^(0+128)
  4362  00C0  3000               	movlw	0
  4363  00C1  00B0               	movwf	(?___flmul+2)^(0+128)
  4364  00C2  3000               	movlw	0
  4365  00C3  00AF               	movwf	(?___flmul+1)^(0+128)
  4366  00C4  3000               	movlw	0
  4367  00C5  00AE               	movwf	?___flmul^(0+128)
  4368  00C6  2BBA               	goto	l954
  4369  00C7                     l3275:
  4370  00C7  082E               	movf	___flmul@b^(0+128),w
  4371  00C8  00FF               	movwf	btemp+1
  4372  00C9  087F               	movf	btemp+1,w
  4373  00CA  00A0               	movwf	__Umul8_16@multiplicand^(0+128)
  4374  00CB  0834               	movf	(___flmul@a^(0+128)+2),w
  4375  00CC  120A  158A  2218  120A  118A  	fcall	__Umul8_16
  4376  00D1  1683               	bsf	3,5	;RP0=1, select bank1
  4377  00D2  1303               	bcf	3,6	;RP1=0, select bank1
  4378  00D3  0821               	movf	(?__Umul8_16+1)^(0+128),w
  4379  00D4  00C7               	movwf	(___flmul@temp+1)^(0+128)
  4380  00D5  0820               	movf	?__Umul8_16^(0+128),w
  4381  00D6  00C6               	movwf	___flmul@temp^(0+128)
  4382  00D7                     l3277:
  4383  00D7  0846               	movf	___flmul@temp^(0+128),w
  4384  00D8  00B6               	movwf	??___flmul^(0+128)
  4385  00D9  01B7               	clrf	(??___flmul^(0+128)+1)
  4386  00DA  01B8               	clrf	(??___flmul^(0+128)+2)
  4387  00DB  01B9               	clrf	(??___flmul^(0+128)+3)
  4388  00DC  0839               	movf	(??___flmul+3)^(0+128),w
  4389  00DD  00C0               	movwf	(___flmul@grs+3)^(0+128)
  4390  00DE  0838               	movf	(??___flmul+2)^(0+128),w
  4391  00DF  00BF               	movwf	(___flmul@grs+2)^(0+128)
  4392  00E0  0837               	movf	(??___flmul+1)^(0+128),w
  4393  00E1  00BE               	movwf	(___flmul@grs+1)^(0+128)
  4394  00E2  0836               	movf	??___flmul^(0+128),w
  4395  00E3  00BD               	movwf	___flmul@grs^(0+128)
  4396  00E4                     l3279:
  4397  00E4  0847               	movf	(___flmul@temp^(0+128)+1),w
  4398  00E5  00B6               	movwf	??___flmul^(0+128)
  4399  00E6  01B7               	clrf	(??___flmul^(0+128)+1)
  4400  00E7  01B8               	clrf	(??___flmul^(0+128)+2)
  4401  00E8  01B9               	clrf	(??___flmul^(0+128)+3)
  4402  00E9  0839               	movf	(??___flmul+3)^(0+128),w
  4403  00EA  00C5               	movwf	(___flmul@prod+3)^(0+128)
  4404  00EB  0838               	movf	(??___flmul+2)^(0+128),w
  4405  00EC  00C4               	movwf	(___flmul@prod+2)^(0+128)
  4406  00ED  0837               	movf	(??___flmul+1)^(0+128),w
  4407  00EE  00C3               	movwf	(___flmul@prod+1)^(0+128)
  4408  00EF  0836               	movf	??___flmul^(0+128),w
  4409  00F0  00C2               	movwf	___flmul@prod^(0+128)
  4410  00F1  082F               	movf	(___flmul@b^(0+128)+1),w
  4411  00F2  00FF               	movwf	btemp+1
  4412  00F3  087F               	movf	btemp+1,w
  4413  00F4  00A0               	movwf	__Umul8_16@multiplicand^(0+128)
  4414  00F5  0833               	movf	(___flmul@a^(0+128)+1),w
  4415  00F6  120A  158A  2218  120A  118A  	fcall	__Umul8_16
  4416  00FB  1683               	bsf	3,5	;RP0=1, select bank1
  4417  00FC  1303               	bcf	3,6	;RP1=0, select bank1
  4418  00FD  0821               	movf	(?__Umul8_16+1)^(0+128),w
  4419  00FE  00C7               	movwf	(___flmul@temp+1)^(0+128)
  4420  00FF  0820               	movf	?__Umul8_16^(0+128),w
  4421  0100  00C6               	movwf	___flmul@temp^(0+128)
  4422  0101                     l3281:
  4423  0101  0846               	movf	___flmul@temp^(0+128),w
  4424  0102  00B6               	movwf	??___flmul^(0+128)
  4425  0103  01B7               	clrf	(??___flmul^(0+128)+1)
  4426  0104  01B8               	clrf	(??___flmul^(0+128)+2)
  4427  0105  01B9               	clrf	(??___flmul^(0+128)+3)
  4428  0106  0836               	movf	??___flmul^(0+128),w
  4429  0107  07BD               	addwf	___flmul@grs^(0+128),f
  4430  0108  0837               	movf	(??___flmul+1)^(0+128),w
  4431  0109  1103               	clrz
  4432  010A  1803               	skipnc
  4433  010B  3E01               	addlw	1
  4434  010C  1903               	skipnz
  4435  010D  290F               	goto	u4291
  4436  010E  07BE               	addwf	(___flmul@grs+1)^(0+128),f
  4437  010F                     u4291:
  4438  010F  0838               	movf	(??___flmul+2)^(0+128),w
  4439  0110  1103               	clrz
  4440  0111  1803               	skipnc
  4441  0112  3E01               	addlw	1
  4442  0113  1903               	skipnz
  4443  0114  2916               	goto	u4292
  4444  0115  07BF               	addwf	(___flmul@grs+2)^(0+128),f
  4445  0116                     u4292:
  4446  0116  0839               	movf	(??___flmul+3)^(0+128),w
  4447  0117  1103               	clrz
  4448  0118  1803               	skipnc
  4449  0119  3E01               	addlw	1
  4450  011A  1903               	skipnz
  4451  011B  291D               	goto	u4293
  4452  011C  07C0               	addwf	(___flmul@grs+3)^(0+128),f
  4453  011D                     u4293:
  4454  011D                     l3283:
  4455  011D  0847               	movf	(___flmul@temp^(0+128)+1),w
  4456  011E  00B6               	movwf	??___flmul^(0+128)
  4457  011F  01B7               	clrf	(??___flmul^(0+128)+1)
  4458  0120  01B8               	clrf	(??___flmul^(0+128)+2)
  4459  0121  01B9               	clrf	(??___flmul^(0+128)+3)
  4460  0122  0836               	movf	??___flmul^(0+128),w
  4461  0123  07C2               	addwf	___flmul@prod^(0+128),f
  4462  0124  0837               	movf	(??___flmul+1)^(0+128),w
  4463  0125  1103               	clrz
  4464  0126  1803               	skipnc
  4465  0127  3E01               	addlw	1
  4466  0128  1903               	skipnz
  4467  0129  292B               	goto	u4301
  4468  012A  07C3               	addwf	(___flmul@prod+1)^(0+128),f
  4469  012B                     u4301:
  4470  012B  0838               	movf	(??___flmul+2)^(0+128),w
  4471  012C  1103               	clrz
  4472  012D  1803               	skipnc
  4473  012E  3E01               	addlw	1
  4474  012F  1903               	skipnz
  4475  0130  2932               	goto	u4302
  4476  0131  07C4               	addwf	(___flmul@prod+2)^(0+128),f
  4477  0132                     u4302:
  4478  0132  0839               	movf	(??___flmul+3)^(0+128),w
  4479  0133  1103               	clrz
  4480  0134  1803               	skipnc
  4481  0135  3E01               	addlw	1
  4482  0136  1903               	skipnz
  4483  0137  2939               	goto	u4303
  4484  0138  07C5               	addwf	(___flmul@prod+3)^(0+128),f
  4485  0139                     u4303:
  4486  0139  0830               	movf	(___flmul@b^(0+128)+2),w
  4487  013A  00FF               	movwf	btemp+1
  4488  013B  087F               	movf	btemp+1,w
  4489  013C  00A0               	movwf	__Umul8_16@multiplicand^(0+128)
  4490  013D  0832               	movf	___flmul@a^(0+128),w
  4491  013E  120A  158A  2218  120A  118A  	fcall	__Umul8_16
  4492  0143  1683               	bsf	3,5	;RP0=1, select bank1
  4493  0144  1303               	bcf	3,6	;RP1=0, select bank1
  4494  0145  0821               	movf	(?__Umul8_16+1)^(0+128),w
  4495  0146  00C7               	movwf	(___flmul@temp+1)^(0+128)
  4496  0147  0820               	movf	?__Umul8_16^(0+128),w
  4497  0148  00C6               	movwf	___flmul@temp^(0+128)
  4498  0149                     l3285:
  4499  0149  0846               	movf	___flmul@temp^(0+128),w
  4500  014A  00B6               	movwf	??___flmul^(0+128)
  4501  014B  01B7               	clrf	(??___flmul^(0+128)+1)
  4502  014C  01B8               	clrf	(??___flmul^(0+128)+2)
  4503  014D  01B9               	clrf	(??___flmul^(0+128)+3)
  4504  014E  0836               	movf	??___flmul^(0+128),w
  4505  014F  07BD               	addwf	___flmul@grs^(0+128),f
  4506  0150  0837               	movf	(??___flmul+1)^(0+128),w
  4507  0151  1103               	clrz
  4508  0152  1803               	skipnc
  4509  0153  3E01               	addlw	1
  4510  0154  1903               	skipnz
  4511  0155  2957               	goto	u4311
  4512  0156  07BE               	addwf	(___flmul@grs+1)^(0+128),f
  4513  0157                     u4311:
  4514  0157  0838               	movf	(??___flmul+2)^(0+128),w
  4515  0158  1103               	clrz
  4516  0159  1803               	skipnc
  4517  015A  3E01               	addlw	1
  4518  015B  1903               	skipnz
  4519  015C  295E               	goto	u4312
  4520  015D  07BF               	addwf	(___flmul@grs+2)^(0+128),f
  4521  015E                     u4312:
  4522  015E  0839               	movf	(??___flmul+3)^(0+128),w
  4523  015F  1103               	clrz
  4524  0160  1803               	skipnc
  4525  0161  3E01               	addlw	1
  4526  0162  1903               	skipnz
  4527  0163  2965               	goto	u4313
  4528  0164  07C0               	addwf	(___flmul@grs+3)^(0+128),f
  4529  0165                     u4313:
  4530  0165                     l3287:
  4531  0165  0847               	movf	(___flmul@temp^(0+128)+1),w
  4532  0166  00B6               	movwf	??___flmul^(0+128)
  4533  0167  01B7               	clrf	(??___flmul^(0+128)+1)
  4534  0168  01B8               	clrf	(??___flmul^(0+128)+2)
  4535  0169  01B9               	clrf	(??___flmul^(0+128)+3)
  4536  016A  0836               	movf	??___flmul^(0+128),w
  4537  016B  07C2               	addwf	___flmul@prod^(0+128),f
  4538  016C  0837               	movf	(??___flmul+1)^(0+128),w
  4539  016D  1103               	clrz
  4540  016E  1803               	skipnc
  4541  016F  3E01               	addlw	1
  4542  0170  1903               	skipnz
  4543  0171  2973               	goto	u4321
  4544  0172  07C3               	addwf	(___flmul@prod+1)^(0+128),f
  4545  0173                     u4321:
  4546  0173  0838               	movf	(??___flmul+2)^(0+128),w
  4547  0174  1103               	clrz
  4548  0175  1803               	skipnc
  4549  0176  3E01               	addlw	1
  4550  0177  1903               	skipnz
  4551  0178  297A               	goto	u4322
  4552  0179  07C4               	addwf	(___flmul@prod+2)^(0+128),f
  4553  017A                     u4322:
  4554  017A  0839               	movf	(??___flmul+3)^(0+128),w
  4555  017B  1103               	clrz
  4556  017C  1803               	skipnc
  4557  017D  3E01               	addlw	1
  4558  017E  1903               	skipnz
  4559  017F  2981               	goto	u4323
  4560  0180  07C5               	addwf	(___flmul@prod+3)^(0+128),f
  4561  0181                     u4323:
  4562  0181                     l3289:
  4563  0181  3008               	movlw	8
  4564  0182  00B6               	movwf	??___flmul^(0+128)
  4565  0183                     u4335:
  4566  0183  1003               	clrc
  4567  0184  0DBD               	rlf	___flmul@grs^(0+128),f
  4568  0185  0DBE               	rlf	(___flmul@grs+1)^(0+128),f
  4569  0186  0DBF               	rlf	(___flmul@grs+2)^(0+128),f
  4570  0187  0DC0               	rlf	(___flmul@grs+3)^(0+128),f
  4571  0188  0BB6               	decfsz	??___flmul^(0+128),f
  4572  0189  2983               	goto	u4335
  4573  018A                     l3291:
  4574  018A  082F               	movf	(___flmul@b^(0+128)+1),w
  4575  018B  00FF               	movwf	btemp+1
  4576  018C  087F               	movf	btemp+1,w
  4577  018D  00A0               	movwf	__Umul8_16@multiplicand^(0+128)
  4578  018E  0832               	movf	___flmul@a^(0+128),w
  4579  018F  120A  158A  2218  120A  118A  	fcall	__Umul8_16
  4580  0194  1683               	bsf	3,5	;RP0=1, select bank1
  4581  0195  1303               	bcf	3,6	;RP1=0, select bank1
  4582  0196  0821               	movf	(?__Umul8_16+1)^(0+128),w
  4583  0197  00C7               	movwf	(___flmul@temp+1)^(0+128)
  4584  0198  0820               	movf	?__Umul8_16^(0+128),w
  4585  0199  00C6               	movwf	___flmul@temp^(0+128)
  4586  019A                     l3293:
  4587  019A  0846               	movf	___flmul@temp^(0+128),w
  4588  019B  00B6               	movwf	??___flmul^(0+128)
  4589  019C  0847               	movf	(___flmul@temp+1)^(0+128),w
  4590  019D  00B7               	movwf	(??___flmul^(0+128)+1)
  4591  019E  01B8               	clrf	(??___flmul^(0+128)+2)
  4592  019F  01B9               	clrf	(??___flmul^(0+128)+3)
  4593  01A0  0836               	movf	??___flmul^(0+128),w
  4594  01A1  07BD               	addwf	___flmul@grs^(0+128),f
  4595  01A2  0837               	movf	(??___flmul+1)^(0+128),w
  4596  01A3  1103               	clrz
  4597  01A4  1803               	skipnc
  4598  01A5  3E01               	addlw	1
  4599  01A6  1903               	skipnz
  4600  01A7  29A9               	goto	u4341
  4601  01A8  07BE               	addwf	(___flmul@grs+1)^(0+128),f
  4602  01A9                     u4341:
  4603  01A9  0838               	movf	(??___flmul+2)^(0+128),w
  4604  01AA  1103               	clrz
  4605  01AB  1803               	skipnc
  4606  01AC  3E01               	addlw	1
  4607  01AD  1903               	skipnz
  4608  01AE  29B0               	goto	u4342
  4609  01AF  07BF               	addwf	(___flmul@grs+2)^(0+128),f
  4610  01B0                     u4342:
  4611  01B0  0839               	movf	(??___flmul+3)^(0+128),w
  4612  01B1  1103               	clrz
  4613  01B2  1803               	skipnc
  4614  01B3  3E01               	addlw	1
  4615  01B4  1903               	skipnz
  4616  01B5  29B7               	goto	u4343
  4617  01B6  07C0               	addwf	(___flmul@grs+3)^(0+128),f
  4618  01B7                     u4343:
  4619  01B7                     l3295:
  4620  01B7  082E               	movf	___flmul@b^(0+128),w
  4621  01B8  00FF               	movwf	btemp+1
  4622  01B9  087F               	movf	btemp+1,w
  4623  01BA  00A0               	movwf	__Umul8_16@multiplicand^(0+128)
  4624  01BB  0833               	movf	(___flmul@a^(0+128)+1),w
  4625  01BC  120A  158A  2218  120A  118A  	fcall	__Umul8_16
  4626  01C1  1683               	bsf	3,5	;RP0=1, select bank1
  4627  01C2  1303               	bcf	3,6	;RP1=0, select bank1
  4628  01C3  0821               	movf	(?__Umul8_16+1)^(0+128),w
  4629  01C4  00C7               	movwf	(___flmul@temp+1)^(0+128)
  4630  01C5  0820               	movf	?__Umul8_16^(0+128),w
  4631  01C6  00C6               	movwf	___flmul@temp^(0+128)
  4632  01C7                     l3297:
  4633  01C7  0846               	movf	___flmul@temp^(0+128),w
  4634  01C8  00B6               	movwf	??___flmul^(0+128)
  4635  01C9  0847               	movf	(___flmul@temp+1)^(0+128),w
  4636  01CA  00B7               	movwf	(??___flmul^(0+128)+1)
  4637  01CB  01B8               	clrf	(??___flmul^(0+128)+2)
  4638  01CC  01B9               	clrf	(??___flmul^(0+128)+3)
  4639  01CD  0836               	movf	??___flmul^(0+128),w
  4640  01CE  07BD               	addwf	___flmul@grs^(0+128),f
  4641  01CF  0837               	movf	(??___flmul+1)^(0+128),w
  4642  01D0  1103               	clrz
  4643  01D1  1803               	skipnc
  4644  01D2  3E01               	addlw	1
  4645  01D3  1903               	skipnz
  4646  01D4  29D6               	goto	u4351
  4647  01D5  07BE               	addwf	(___flmul@grs+1)^(0+128),f
  4648  01D6                     u4351:
  4649  01D6  0838               	movf	(??___flmul+2)^(0+128),w
  4650  01D7  1103               	clrz
  4651  01D8  1803               	skipnc
  4652  01D9  3E01               	addlw	1
  4653  01DA  1903               	skipnz
  4654  01DB  29DD               	goto	u4352
  4655  01DC  07BF               	addwf	(___flmul@grs+2)^(0+128),f
  4656  01DD                     u4352:
  4657  01DD  0839               	movf	(??___flmul+3)^(0+128),w
  4658  01DE  1103               	clrz
  4659  01DF  1803               	skipnc
  4660  01E0  3E01               	addlw	1
  4661  01E1  1903               	skipnz
  4662  01E2  29E4               	goto	u4353
  4663  01E3  07C0               	addwf	(___flmul@grs+3)^(0+128),f
  4664  01E4                     u4353:
  4665  01E4                     l3299:
  4666  01E4  3008               	movlw	8
  4667  01E5  00B6               	movwf	??___flmul^(0+128)
  4668  01E6                     u4365:
  4669  01E6  1003               	clrc
  4670  01E7  0DBD               	rlf	___flmul@grs^(0+128),f
  4671  01E8  0DBE               	rlf	(___flmul@grs+1)^(0+128),f
  4672  01E9  0DBF               	rlf	(___flmul@grs+2)^(0+128),f
  4673  01EA  0DC0               	rlf	(___flmul@grs+3)^(0+128),f
  4674  01EB  0BB6               	decfsz	??___flmul^(0+128),f
  4675  01EC  29E6               	goto	u4365
  4676  01ED  082E               	movf	___flmul@b^(0+128),w
  4677  01EE  00FF               	movwf	btemp+1
  4678  01EF  087F               	movf	btemp+1,w
  4679  01F0  00A0               	movwf	__Umul8_16@multiplicand^(0+128)
  4680  01F1  0832               	movf	___flmul@a^(0+128),w
  4681  01F2  120A  158A  2218  120A  118A  	fcall	__Umul8_16
  4682  01F7  1683               	bsf	3,5	;RP0=1, select bank1
  4683  01F8  1303               	bcf	3,6	;RP1=0, select bank1
  4684  01F9  0821               	movf	(?__Umul8_16+1)^(0+128),w
  4685  01FA  00C7               	movwf	(___flmul@temp+1)^(0+128)
  4686  01FB  0820               	movf	?__Umul8_16^(0+128),w
  4687  01FC  00C6               	movwf	___flmul@temp^(0+128)
  4688  01FD                     l3301:
  4689  01FD  0846               	movf	___flmul@temp^(0+128),w
  4690  01FE  00B6               	movwf	??___flmul^(0+128)
  4691  01FF  0847               	movf	(___flmul@temp+1)^(0+128),w
  4692  0200  00B7               	movwf	(??___flmul^(0+128)+1)
  4693  0201  01B8               	clrf	(??___flmul^(0+128)+2)
  4694  0202  01B9               	clrf	(??___flmul^(0+128)+3)
  4695  0203  0836               	movf	??___flmul^(0+128),w
  4696  0204  07BD               	addwf	___flmul@grs^(0+128),f
  4697  0205  0837               	movf	(??___flmul+1)^(0+128),w
  4698  0206  1103               	clrz
  4699  0207  1803               	skipnc
  4700  0208  3E01               	addlw	1
  4701  0209  1903               	skipnz
  4702  020A  2A0C               	goto	u4371
  4703  020B  07BE               	addwf	(___flmul@grs+1)^(0+128),f
  4704  020C                     u4371:
  4705  020C  0838               	movf	(??___flmul+2)^(0+128),w
  4706  020D  1103               	clrz
  4707  020E  1803               	skipnc
  4708  020F  3E01               	addlw	1
  4709  0210  1903               	skipnz
  4710  0211  2A13               	goto	u4372
  4711  0212  07BF               	addwf	(___flmul@grs+2)^(0+128),f
  4712  0213                     u4372:
  4713  0213  0839               	movf	(??___flmul+3)^(0+128),w
  4714  0214  1103               	clrz
  4715  0215  1803               	skipnc
  4716  0216  3E01               	addlw	1
  4717  0217  1903               	skipnz
  4718  0218  2A1A               	goto	u4373
  4719  0219  07C0               	addwf	(___flmul@grs+3)^(0+128),f
  4720  021A                     u4373:
  4721  021A                     l3303:
  4722  021A  082F               	movf	(___flmul@b^(0+128)+1),w
  4723  021B  00FF               	movwf	btemp+1
  4724  021C  087F               	movf	btemp+1,w
  4725  021D  00A0               	movwf	__Umul8_16@multiplicand^(0+128)
  4726  021E  0834               	movf	(___flmul@a^(0+128)+2),w
  4727  021F  120A  158A  2218  120A  118A  	fcall	__Umul8_16
  4728  0224  1683               	bsf	3,5	;RP0=1, select bank1
  4729  0225  1303               	bcf	3,6	;RP1=0, select bank1
  4730  0226  0821               	movf	(?__Umul8_16+1)^(0+128),w
  4731  0227  00C7               	movwf	(___flmul@temp+1)^(0+128)
  4732  0228  0820               	movf	?__Umul8_16^(0+128),w
  4733  0229  00C6               	movwf	___flmul@temp^(0+128)
  4734  022A  0846               	movf	___flmul@temp^(0+128),w
  4735  022B  00B6               	movwf	??___flmul^(0+128)
  4736  022C  0847               	movf	(___flmul@temp+1)^(0+128),w
  4737  022D  00B7               	movwf	(??___flmul^(0+128)+1)
  4738  022E  01B8               	clrf	(??___flmul^(0+128)+2)
  4739  022F  01B9               	clrf	(??___flmul^(0+128)+3)
  4740  0230  0836               	movf	??___flmul^(0+128),w
  4741  0231  07C2               	addwf	___flmul@prod^(0+128),f
  4742  0232  0837               	movf	(??___flmul+1)^(0+128),w
  4743  0233  1103               	clrz
  4744  0234  1803               	skipnc
  4745  0235  3E01               	addlw	1
  4746  0236  1903               	skipnz
  4747  0237  2A39               	goto	u4381
  4748  0238  07C3               	addwf	(___flmul@prod+1)^(0+128),f
  4749  0239                     u4381:
  4750  0239  0838               	movf	(??___flmul+2)^(0+128),w
  4751  023A  1103               	clrz
  4752  023B  1803               	skipnc
  4753  023C  3E01               	addlw	1
  4754  023D  1903               	skipnz
  4755  023E  2A40               	goto	u4382
  4756  023F  07C4               	addwf	(___flmul@prod+2)^(0+128),f
  4757  0240                     u4382:
  4758  0240  0839               	movf	(??___flmul+3)^(0+128),w
  4759  0241  1103               	clrz
  4760  0242  1803               	skipnc
  4761  0243  3E01               	addlw	1
  4762  0244  1903               	skipnz
  4763  0245  2A47               	goto	u4383
  4764  0246  07C5               	addwf	(___flmul@prod+3)^(0+128),f
  4765  0247                     u4383:
  4766  0247                     l3305:
  4767  0247  0830               	movf	(___flmul@b^(0+128)+2),w
  4768  0248  00FF               	movwf	btemp+1
  4769  0249  087F               	movf	btemp+1,w
  4770  024A  00A0               	movwf	__Umul8_16@multiplicand^(0+128)
  4771  024B  0833               	movf	(___flmul@a^(0+128)+1),w
  4772  024C  120A  158A  2218  120A  118A  	fcall	__Umul8_16
  4773  0251  1683               	bsf	3,5	;RP0=1, select bank1
  4774  0252  1303               	bcf	3,6	;RP1=0, select bank1
  4775  0253  0821               	movf	(?__Umul8_16+1)^(0+128),w
  4776  0254  00C7               	movwf	(___flmul@temp+1)^(0+128)
  4777  0255  0820               	movf	?__Umul8_16^(0+128),w
  4778  0256  00C6               	movwf	___flmul@temp^(0+128)
  4779  0257                     l3307:
  4780  0257  0846               	movf	___flmul@temp^(0+128),w
  4781  0258  00B6               	movwf	??___flmul^(0+128)
  4782  0259  0847               	movf	(___flmul@temp+1)^(0+128),w
  4783  025A  00B7               	movwf	(??___flmul^(0+128)+1)
  4784  025B  01B8               	clrf	(??___flmul^(0+128)+2)
  4785  025C  01B9               	clrf	(??___flmul^(0+128)+3)
  4786  025D  0836               	movf	??___flmul^(0+128),w
  4787  025E  07C2               	addwf	___flmul@prod^(0+128),f
  4788  025F  0837               	movf	(??___flmul+1)^(0+128),w
  4789  0260  1103               	clrz
  4790  0261  1803               	skipnc
  4791  0262  3E01               	addlw	1
  4792  0263  1903               	skipnz
  4793  0264  2A66               	goto	u4391
  4794  0265  07C3               	addwf	(___flmul@prod+1)^(0+128),f
  4795  0266                     u4391:
  4796  0266  0838               	movf	(??___flmul+2)^(0+128),w
  4797  0267  1103               	clrz
  4798  0268  1803               	skipnc
  4799  0269  3E01               	addlw	1
  4800  026A  1903               	skipnz
  4801  026B  2A6D               	goto	u4392
  4802  026C  07C4               	addwf	(___flmul@prod+2)^(0+128),f
  4803  026D                     u4392:
  4804  026D  0839               	movf	(??___flmul+3)^(0+128),w
  4805  026E  1103               	clrz
  4806  026F  1803               	skipnc
  4807  0270  3E01               	addlw	1
  4808  0271  1903               	skipnz
  4809  0272  2A74               	goto	u4393
  4810  0273  07C5               	addwf	(___flmul@prod+3)^(0+128),f
  4811  0274                     u4393:
  4812  0274  0830               	movf	(___flmul@b^(0+128)+2),w
  4813  0275  00FF               	movwf	btemp+1
  4814  0276  087F               	movf	btemp+1,w
  4815  0277  00A0               	movwf	__Umul8_16@multiplicand^(0+128)
  4816  0278  0834               	movf	(___flmul@a^(0+128)+2),w
  4817  0279  120A  158A  2218  120A  118A  	fcall	__Umul8_16
  4818  027E  1683               	bsf	3,5	;RP0=1, select bank1
  4819  027F  1303               	bcf	3,6	;RP1=0, select bank1
  4820  0280  0821               	movf	(?__Umul8_16+1)^(0+128),w
  4821  0281  00C7               	movwf	(___flmul@temp+1)^(0+128)
  4822  0282  0820               	movf	?__Umul8_16^(0+128),w
  4823  0283  00C6               	movwf	___flmul@temp^(0+128)
  4824  0284                     l3309:
  4825  0284  0846               	movf	___flmul@temp^(0+128),w
  4826  0285  00B6               	movwf	??___flmul^(0+128)
  4827  0286  0847               	movf	(___flmul@temp+1)^(0+128),w
  4828  0287  00B7               	movwf	(??___flmul^(0+128)+1)
  4829  0288  01B8               	clrf	(??___flmul^(0+128)+2)
  4830  0289  01B9               	clrf	(??___flmul^(0+128)+3)
  4831  028A  3008               	movlw	8
  4832  028B                     u4405:
  4833  028B  1003               	clrc
  4834  028C  0DB6               	rlf	??___flmul^(0+128),f
  4835  028D  0DB7               	rlf	(??___flmul^(0+128)+1),f
  4836  028E  0DB8               	rlf	(??___flmul^(0+128)+2),f
  4837  028F  0DB9               	rlf	(??___flmul^(0+128)+3),f
  4838  0290                     u4400:
  4839  0290  3EFF               	addlw	-1
  4840  0291  1D03               	skipz
  4841  0292  2A8B               	goto	u4405
  4842  0293  0836               	movf	??___flmul^(0+128),w
  4843  0294  07C2               	addwf	___flmul@prod^(0+128),f
  4844  0295  0837               	movf	(??___flmul+1)^(0+128),w
  4845  0296  1103               	clrz
  4846  0297  1803               	skipnc
  4847  0298  3E01               	addlw	1
  4848  0299  1903               	skipnz
  4849  029A  2A9C               	goto	u4411
  4850  029B  07C3               	addwf	(___flmul@prod+1)^(0+128),f
  4851  029C                     u4411:
  4852  029C  0838               	movf	(??___flmul+2)^(0+128),w
  4853  029D  1103               	clrz
  4854  029E  1803               	skipnc
  4855  029F  3E01               	addlw	1
  4856  02A0  1903               	skipnz
  4857  02A1  2AA3               	goto	u4412
  4858  02A2  07C4               	addwf	(___flmul@prod+2)^(0+128),f
  4859  02A3                     u4412:
  4860  02A3  0839               	movf	(??___flmul+3)^(0+128),w
  4861  02A4  1103               	clrz
  4862  02A5  1803               	skipnc
  4863  02A6  3E01               	addlw	1
  4864  02A7  1903               	skipnz
  4865  02A8  2AAA               	goto	u4413
  4866  02A9  07C5               	addwf	(___flmul@prod+3)^(0+128),f
  4867  02AA                     u4413:
  4868  02AA                     l3311:
  4869  02AA  083D               	movf	___flmul@grs^(0+128),w
  4870  02AB  00B6               	movwf	??___flmul^(0+128)
  4871  02AC  083E               	movf	(___flmul@grs+1)^(0+128),w
  4872  02AD  00B7               	movwf	(??___flmul^(0+128)+1)
  4873  02AE  083F               	movf	(___flmul@grs+2)^(0+128),w
  4874  02AF  00B8               	movwf	(??___flmul^(0+128)+2)
  4875  02B0  0840               	movf	(___flmul@grs+3)^(0+128),w
  4876  02B1  00B9               	movwf	(??___flmul^(0+128)+3)
  4877  02B2  3018               	movlw	24
  4878  02B3                     u4425:
  4879  02B3  1003               	clrc
  4880  02B4  0CB9               	rrf	(??___flmul^(0+128)+3),f
  4881  02B5  0CB8               	rrf	(??___flmul^(0+128)+2),f
  4882  02B6  0CB7               	rrf	(??___flmul^(0+128)+1),f
  4883  02B7  0CB6               	rrf	??___flmul^(0+128),f
  4884  02B8                     u4420:
  4885  02B8  3EFF               	addlw	-1
  4886  02B9  1D03               	skipz
  4887  02BA  2AB3               	goto	u4425
  4888  02BB  0836               	movf	??___flmul^(0+128),w
  4889  02BC  07C2               	addwf	___flmul@prod^(0+128),f
  4890  02BD  0837               	movf	(??___flmul+1)^(0+128),w
  4891  02BE  1103               	clrz
  4892  02BF  1803               	skipnc
  4893  02C0  3E01               	addlw	1
  4894  02C1  1903               	skipnz
  4895  02C2  2AC4               	goto	u4431
  4896  02C3  07C3               	addwf	(___flmul@prod+1)^(0+128),f
  4897  02C4                     u4431:
  4898  02C4  0838               	movf	(??___flmul+2)^(0+128),w
  4899  02C5  1103               	clrz
  4900  02C6  1803               	skipnc
  4901  02C7  3E01               	addlw	1
  4902  02C8  1903               	skipnz
  4903  02C9  2ACB               	goto	u4432
  4904  02CA  07C4               	addwf	(___flmul@prod+2)^(0+128),f
  4905  02CB                     u4432:
  4906  02CB  0839               	movf	(??___flmul+3)^(0+128),w
  4907  02CC  1103               	clrz
  4908  02CD  1803               	skipnc
  4909  02CE  3E01               	addlw	1
  4910  02CF  1903               	skipnz
  4911  02D0  2AD2               	goto	u4433
  4912  02D1  07C5               	addwf	(___flmul@prod+3)^(0+128),f
  4913  02D2                     u4433:
  4914  02D2                     l3313:
  4915  02D2  3008               	movlw	8
  4916  02D3  00B6               	movwf	??___flmul^(0+128)
  4917  02D4                     u4445:
  4918  02D4  1003               	clrc
  4919  02D5  0DBD               	rlf	___flmul@grs^(0+128),f
  4920  02D6  0DBE               	rlf	(___flmul@grs+1)^(0+128),f
  4921  02D7  0DBF               	rlf	(___flmul@grs+2)^(0+128),f
  4922  02D8  0DC0               	rlf	(___flmul@grs+3)^(0+128),f
  4923  02D9  0BB6               	decfsz	??___flmul^(0+128),f
  4924  02DA  2AD4               	goto	u4445
  4925  02DB                     l3315:
  4926  02DB  0841               	movf	___flmul@bexp^(0+128),w
  4927  02DC  073C               	addwf	___flmul@aexp^(0+128),w
  4928  02DD  00B6               	movwf	??___flmul^(0+128)
  4929  02DE  01B7               	clrf	(??___flmul^(0+128)+1)
  4930  02DF  0DB7               	rlf	(??___flmul+1)^(0+128),f
  4931  02E0  0836               	movf	??___flmul^(0+128),w
  4932  02E1  3E82               	addlw	130
  4933  02E2  00C6               	movwf	___flmul@temp^(0+128)
  4934  02E3  0837               	movf	(??___flmul+1)^(0+128),w
  4935  02E4  1803               	skipnc
  4936  02E5  3E01               	addlw	1
  4937  02E6  3EFF               	addlw	255
  4938  02E7  00C7               	movwf	(___flmul@temp+1)^(0+128)
  4939  02E8  2B06               	goto	l3327
  4940  02E9                     l3317:
  4941  02E9  3001               	movlw	1
  4942  02EA  00B6               	movwf	??___flmul^(0+128)
  4943  02EB                     u4455:
  4944  02EB  1003               	clrc
  4945  02EC  0DC2               	rlf	___flmul@prod^(0+128),f
  4946  02ED  0DC3               	rlf	(___flmul@prod+1)^(0+128),f
  4947  02EE  0DC4               	rlf	(___flmul@prod+2)^(0+128),f
  4948  02EF  0DC5               	rlf	(___flmul@prod+3)^(0+128),f
  4949  02F0  0BB6               	decfsz	??___flmul^(0+128),f
  4950  02F1  2AEB               	goto	u4455
  4951  02F2                     l3319:
  4952  02F2  1FC0               	btfss	(___flmul@grs+3)^(0+128),7
  4953  02F3  2AF5               	goto	u4461
  4954  02F4  2AF6               	goto	u4460
  4955  02F5                     u4461:
  4956  02F5  2AF7               	goto	l3323
  4957  02F6                     u4460:
  4958  02F6                     l3321:
  4959  02F6  1442               	bsf	___flmul@prod^(0+128),0
  4960  02F7                     l3323:
  4961  02F7  3001               	movlw	1
  4962  02F8  00B6               	movwf	??___flmul^(0+128)
  4963  02F9                     u4475:
  4964  02F9  1003               	clrc
  4965  02FA  0DBD               	rlf	___flmul@grs^(0+128),f
  4966  02FB  0DBE               	rlf	(___flmul@grs+1)^(0+128),f
  4967  02FC  0DBF               	rlf	(___flmul@grs+2)^(0+128),f
  4968  02FD  0DC0               	rlf	(___flmul@grs+3)^(0+128),f
  4969  02FE  0BB6               	decfsz	??___flmul^(0+128),f
  4970  02FF  2AF9               	goto	u4475
  4971  0300                     l3325:
  4972  0300  30FF               	movlw	255
  4973  0301  07C6               	addwf	___flmul@temp^(0+128),f
  4974  0302  1803               	skipnc
  4975  0303  0AC7               	incf	(___flmul@temp+1)^(0+128),f
  4976  0304  30FF               	movlw	255
  4977  0305  07C7               	addwf	(___flmul@temp+1)^(0+128),f
  4978  0306                     l3327:
  4979  0306  1FC4               	btfss	(___flmul@prod+2)^(0+128),7
  4980  0307  2B09               	goto	u4481
  4981  0308  2B0A               	goto	u4480
  4982  0309                     u4481:
  4983  0309  2AE9               	goto	l3317
  4984  030A                     u4480:
  4985  030A                     l3329:
  4986  030A  01BC               	clrf	___flmul@aexp^(0+128)
  4987  030B                     l3331:
  4988  030B  1FC0               	btfss	(___flmul@grs+3)^(0+128),7
  4989  030C  2B0E               	goto	u4491
  4990  030D  2B0F               	goto	u4490
  4991  030E                     u4491:
  4992  030E  2B2B               	goto	l3339
  4993  030F                     u4490:
  4994  030F                     l3333:
  4995  030F  30FF               	movlw	255
  4996  0310  053D               	andwf	___flmul@grs^(0+128),w
  4997  0311  00B6               	movwf	??___flmul^(0+128)
  4998  0312  30FF               	movlw	255
  4999  0313  053E               	andwf	(___flmul@grs+1)^(0+128),w
  5000  0314  00B7               	movwf	(??___flmul^(0+128)+1)
  5001  0315  30FF               	movlw	255
  5002  0316  053F               	andwf	(___flmul@grs+2)^(0+128),w
  5003  0317  00B8               	movwf	(??___flmul^(0+128)+2)
  5004  0318  307F               	movlw	127
  5005  0319  0540               	andwf	(___flmul@grs+3)^(0+128),w
  5006  031A  00B9               	movwf	(??___flmul^(0+128)+3)
  5007  031B  0839               	movf	(??___flmul+3)^(0+128),w
  5008  031C  0438               	iorwf	(??___flmul+2)^(0+128),w
  5009  031D  0437               	iorwf	(??___flmul+1)^(0+128),w
  5010  031E  0436               	iorwf	??___flmul^(0+128),w
  5011  031F  1903               	skipnz
  5012  0320  2B22               	goto	u4501
  5013  0321  2B23               	goto	u4500
  5014  0322                     u4501:
  5015  0322  2B26               	goto	l960
  5016  0323                     u4500:
  5017  0323                     l3335:
  5018  0323  01BC               	clrf	___flmul@aexp^(0+128)
  5019  0324  0ABC               	incf	___flmul@aexp^(0+128),f
  5020  0325  2B2B               	goto	l3339
  5021  0326                     l960:
  5022  0326  1C42               	btfss	___flmul@prod^(0+128),0
  5023  0327  2B29               	goto	u4511
  5024  0328  2B2A               	goto	u4510
  5025  0329                     u4511:
  5026  0329  2B2B               	goto	l3339
  5027  032A                     u4510:
  5028  032A  2B23               	goto	l3335
  5029  032B                     l3339:
  5030  032B  083C               	movf	___flmul@aexp^(0+128),w
  5031  032C  1903               	btfsc	3,2
  5032  032D  2B2F               	goto	u4521
  5033  032E  2B30               	goto	u4520
  5034  032F                     u4521:
  5035  032F  2B61               	goto	l3349
  5036  0330                     u4520:
  5037  0330                     l3341:
  5038  0330  3001               	movlw	1
  5039  0331  07C2               	addwf	___flmul@prod^(0+128),f
  5040  0332  3000               	movlw	0
  5041  0333  1803               	skipnc
  5042  0334  3001               	movlw	1
  5043  0335  07C3               	addwf	(___flmul@prod+1)^(0+128),f
  5044  0336  3000               	movlw	0
  5045  0337  1803               	skipnc
  5046  0338  3001               	movlw	1
  5047  0339  07C4               	addwf	(___flmul@prod+2)^(0+128),f
  5048  033A  3000               	movlw	0
  5049  033B  1803               	skipnc
  5050  033C  3001               	movlw	1
  5051  033D  07C5               	addwf	(___flmul@prod+3)^(0+128),f
  5052  033E                     l3343:
  5053  033E  1C45               	btfss	(___flmul@prod+3)^(0+128),0
  5054  033F  2B41               	goto	u4531
  5055  0340  2B42               	goto	u4530
  5056  0341                     u4531:
  5057  0341  2B61               	goto	l3349
  5058  0342                     u4530:
  5059  0342                     l3345:
  5060  0342  0842               	movf	___flmul@prod^(0+128),w
  5061  0343  00B6               	movwf	??___flmul^(0+128)
  5062  0344  0843               	movf	(___flmul@prod+1)^(0+128),w
  5063  0345  00B7               	movwf	(??___flmul^(0+128)+1)
  5064  0346  0844               	movf	(___flmul@prod+2)^(0+128),w
  5065  0347  00B8               	movwf	(??___flmul^(0+128)+2)
  5066  0348  0845               	movf	(___flmul@prod+3)^(0+128),w
  5067  0349  00B9               	movwf	(??___flmul^(0+128)+3)
  5068  034A  3001               	movlw	1
  5069  034B  00BA               	movwf	(??___flmul+4)^(0+128)
  5070  034C                     u4545:
  5071  034C  0D39               	rlf	(??___flmul^(0+128)+3),w
  5072  034D  0CB9               	rrf	(??___flmul^(0+128)+3),f
  5073  034E  0CB8               	rrf	(??___flmul^(0+128)+2),f
  5074  034F  0CB7               	rrf	(??___flmul^(0+128)+1),f
  5075  0350  0CB6               	rrf	??___flmul^(0+128),f
  5076  0351                     u4540:
  5077  0351  0BBA               	decfsz	(??___flmul+4)^(0+128),f
  5078  0352  2B4C               	goto	u4545
  5079  0353  0839               	movf	(??___flmul+3)^(0+128),w
  5080  0354  00C5               	movwf	(___flmul@prod+3)^(0+128)
  5081  0355  0838               	movf	(??___flmul+2)^(0+128),w
  5082  0356  00C4               	movwf	(___flmul@prod+2)^(0+128)
  5083  0357  0837               	movf	(??___flmul+1)^(0+128),w
  5084  0358  00C3               	movwf	(___flmul@prod+1)^(0+128)
  5085  0359  0836               	movf	??___flmul^(0+128),w
  5086  035A  00C2               	movwf	___flmul@prod^(0+128)
  5087  035B                     l3347:
  5088  035B  3001               	movlw	1
  5089  035C  07C6               	addwf	___flmul@temp^(0+128),f
  5090  035D  1803               	skipnc
  5091  035E  0AC7               	incf	(___flmul@temp+1)^(0+128),f
  5092  035F  3000               	movlw	0
  5093  0360  07C7               	addwf	(___flmul@temp+1)^(0+128),f
  5094  0361                     l3349:
  5095  0361  0847               	movf	(___flmul@temp+1)^(0+128),w
  5096  0362  3A80               	xorlw	128
  5097  0363  00FF               	movwf	btemp+1
  5098  0364  3080               	movlw	128
  5099  0365  027F               	subwf	btemp+1,w
  5100  0366  1D03               	skipz
  5101  0367  2B6A               	goto	u4555
  5102  0368  30FF               	movlw	255
  5103  0369  0246               	subwf	___flmul@temp^(0+128),w
  5104  036A                     u4555:
  5105  036A  1C03               	skipc
  5106  036B  2B6D               	goto	u4551
  5107  036C  2B6E               	goto	u4550
  5108  036D                     u4551:
  5109  036D  2B79               	goto	l3353
  5110  036E                     u4550:
  5111  036E                     l3351:
  5112  036E  307F               	movlw	127
  5113  036F  1683               	bsf	3,5	;RP0=1, select bank1
  5114  0370  1303               	bcf	3,6	;RP1=0, select bank1
  5115  0371  00C5               	movwf	(___flmul@prod+3)^(0+128)
  5116  0372  3080               	movlw	128
  5117  0373  00C4               	movwf	(___flmul@prod+2)^(0+128)
  5118  0374  3000               	movlw	0
  5119  0375  00C3               	movwf	(___flmul@prod+1)^(0+128)
  5120  0376  3000               	movlw	0
  5121  0377  00C2               	movwf	___flmul@prod^(0+128)
  5122  0378  2BAE               	goto	l966
  5123  0379                     l3353:
  5124  0379  1683               	bsf	3,5	;RP0=1, select bank1
  5125  037A  1303               	bcf	3,6	;RP1=0, select bank1
  5126  037B  0847               	movf	(___flmul@temp+1)^(0+128),w
  5127  037C  3A80               	xorlw	128
  5128  037D  00FF               	movwf	btemp+1
  5129  037E  3080               	movlw	128
  5130  037F  027F               	subwf	btemp+1,w
  5131  0380  1D03               	skipz
  5132  0381  2B84               	goto	u4565
  5133  0382  3001               	movlw	1
  5134  0383  0246               	subwf	___flmul@temp^(0+128),w
  5135  0384                     u4565:
  5136  0384  1803               	skipnc
  5137  0385  2B87               	goto	u4561
  5138  0386  2B88               	goto	u4560
  5139  0387                     u4561:
  5140  0387  2B94               	goto	l3359
  5141  0388                     u4560:
  5142  0388                     l3355:
  5143  0388  3000               	movlw	0
  5144  0389  1683               	bsf	3,5	;RP0=1, select bank1
  5145  038A  1303               	bcf	3,6	;RP1=0, select bank1
  5146  038B  00C5               	movwf	(___flmul@prod+3)^(0+128)
  5147  038C  3000               	movlw	0
  5148  038D  00C4               	movwf	(___flmul@prod+2)^(0+128)
  5149  038E  3000               	movlw	0
  5150  038F  00C3               	movwf	(___flmul@prod+1)^(0+128)
  5151  0390  3000               	movlw	0
  5152  0391  00C2               	movwf	___flmul@prod^(0+128)
  5153  0392                     l3357:
  5154  0392  01BB               	clrf	___flmul@sign^(0+128)
  5155  0393  2BAE               	goto	l966
  5156  0394                     l3359:
  5157  0394  1683               	bsf	3,5	;RP0=1, select bank1
  5158  0395  1303               	bcf	3,6	;RP1=0, select bank1
  5159  0396  0846               	movf	___flmul@temp^(0+128),w
  5160  0397  00FF               	movwf	btemp+1
  5161  0398  087F               	movf	btemp+1,w
  5162  0399  00C1               	movwf	___flmul@bexp^(0+128)
  5163  039A                     l3361:
  5164  039A  30FF               	movlw	255
  5165  039B  05C2               	andwf	___flmul@prod^(0+128),f
  5166  039C  30FF               	movlw	255
  5167  039D  05C3               	andwf	(___flmul@prod+1)^(0+128),f
  5168  039E  307F               	movlw	127
  5169  039F  05C4               	andwf	(___flmul@prod+2)^(0+128),f
  5170  03A0  3000               	movlw	0
  5171  03A1  05C5               	andwf	(___flmul@prod+3)^(0+128),f
  5172  03A2                     l3363:
  5173  03A2  1C41               	btfss	___flmul@bexp^(0+128),0
  5174  03A3  2BA5               	goto	u4571
  5175  03A4  2BA6               	goto	u4570
  5176  03A5                     u4571:
  5177  03A5  2BA7               	goto	l3367
  5178  03A6                     u4570:
  5179  03A6                     l3365:
  5180  03A6  17C4               	bsf	(___flmul@prod^(0+128)+2),7
  5181  03A7                     l3367:
  5182  03A7  0841               	movf	___flmul@bexp^(0+128),w
  5183  03A8  00B6               	movwf	??___flmul^(0+128)
  5184  03A9  1003               	clrc
  5185  03AA  0C36               	rrf	??___flmul^(0+128),w
  5186  03AB  00FF               	movwf	btemp+1
  5187  03AC  087F               	movf	btemp+1,w
  5188  03AD  00C5               	movwf	(___flmul@prod^(0+128)+3)
  5189  03AE                     l966:
  5190  03AE  083B               	movf	___flmul@sign^(0+128),w
  5191  03AF  00FF               	movwf	btemp+1
  5192  03B0  087F               	movf	btemp+1,w
  5193  03B1  04C5               	iorwf	(___flmul@prod^(0+128)+3),f
  5194  03B2                     l3369:
  5195  03B2  0845               	movf	(___flmul@prod+3)^(0+128),w
  5196  03B3  00B1               	movwf	(?___flmul+3)^(0+128)
  5197  03B4  0844               	movf	(___flmul@prod+2)^(0+128),w
  5198  03B5  00B0               	movwf	(?___flmul+2)^(0+128)
  5199  03B6  0843               	movf	(___flmul@prod+1)^(0+128),w
  5200  03B7  00AF               	movwf	(?___flmul+1)^(0+128)
  5201  03B8  0842               	movf	___flmul@prod^(0+128),w
  5202  03B9  00AE               	movwf	?___flmul^(0+128)
  5203  03BA                     l954:
  5204  03BA  0008               	return
  5205  03BB                     __end_of___flmul:
  5206                           
  5207                           	psect	text20
  5208  0A18                     __ptext20:	
  5209 ;; *************** function __Umul8_16 *****************
  5210 ;; Defined at:
  5211 ;;		line 4 in file "C:\Program Files (x86)\Microchip\xc8\v2.20\pic\sources\c90\common\Umul8_16.c"
  5212 ;; Parameters:    Size  Location     Type
  5213 ;;  multiplier      1    wreg     unsigned char 
  5214 ;;  multiplicand    1    0[BANK1 ] unsigned char 
  5215 ;; Auto vars:     Size  Location     Type
  5216 ;;  multiplier      1    8[BANK1 ] unsigned char 
  5217 ;;  word_mpld       2    6[BANK1 ] unsigned int 
  5218 ;;  product         2    4[BANK1 ] unsigned int 
  5219 ;; Return value:  Size  Location     Type
  5220 ;;                  2    0[BANK1 ] unsigned int 
  5221 ;; Registers used:
  5222 ;;		wreg, status,2, status,0
  5223 ;; Tracked objects:
  5224 ;;		On entry : 0/0
  5225 ;;		On exit  : 0/0
  5226 ;;		Unchanged: 0/0
  5227 ;; Data sizes:     COMMON   BANK0   BANK1   BANK3   BANK2
  5228 ;;      Params:         0       0       2       0       0
  5229 ;;      Locals:         0       0       5       0       0
  5230 ;;      Temps:          0       0       2       0       0
  5231 ;;      Totals:         0       0       9       0       0
  5232 ;;Total ram usage:        9 bytes
  5233 ;; Hardware stack levels used:    1
  5234 ;; Hardware stack levels required when called:    4
  5235 ;; This function calls:
  5236 ;;		Nothing
  5237 ;; This function is called by:
  5238 ;;		___flmul
  5239 ;; This function uses a non-reentrant model
  5240 ;;
  5241                           
  5242                           
  5243                           ;psect for function __Umul8_16
  5244  0A18                     __Umul8_16:
  5245                           
  5246                           ;incstack = 0
  5247 ;; hardware stack exceeded
  5248                           ; Regs used in __Umul8_16: [wreg+status,2+status,0]
  5249                           ;__Umul8_16@multiplier stored from wreg
  5250  0A18  1683               	bsf	3,5	;RP0=1, select bank1
  5251  0A19  1303               	bcf	3,6	;RP1=0, select bank1
  5252  0A1A  00A8               	movwf	__Umul8_16@multiplier^(0+128)
  5253  0A1B                     l3157:
  5254  0A1B  01A4               	clrf	__Umul8_16@product^(0+128)
  5255  0A1C  01A5               	clrf	(__Umul8_16@product+1)^(0+128)
  5256  0A1D                     l3159:
  5257  0A1D  0820               	movf	__Umul8_16@multiplicand^(0+128),w
  5258  0A1E  00A2               	movwf	??__Umul8_16^(0+128)
  5259  0A1F  01A3               	clrf	(??__Umul8_16^(0+128)+1)
  5260  0A20  0822               	movf	??__Umul8_16^(0+128),w
  5261  0A21  00A6               	movwf	__Umul8_16@word_mpld^(0+128)
  5262  0A22  0823               	movf	(??__Umul8_16+1)^(0+128),w
  5263  0A23  00A7               	movwf	(__Umul8_16@word_mpld+1)^(0+128)
  5264  0A24                     l3161:
  5265  0A24  1C28               	btfss	__Umul8_16@multiplier^(0+128),0
  5266  0A25  2A27               	goto	u4041
  5267  0A26  2A28               	goto	u4040
  5268  0A27                     u4041:
  5269  0A27  2A2E               	goto	l973
  5270  0A28                     u4040:
  5271  0A28                     l3163:
  5272  0A28  0826               	movf	__Umul8_16@word_mpld^(0+128),w
  5273  0A29  07A4               	addwf	__Umul8_16@product^(0+128),f
  5274  0A2A  1803               	skipnc
  5275  0A2B  0AA5               	incf	(__Umul8_16@product+1)^(0+128),f
  5276  0A2C  0827               	movf	(__Umul8_16@word_mpld+1)^(0+128),w
  5277  0A2D  07A5               	addwf	(__Umul8_16@product+1)^(0+128),f
  5278  0A2E                     l973:
  5279  0A2E  3001               	movlw	1
  5280  0A2F                     u4055:
  5281  0A2F  1003               	clrc
  5282  0A30  0DA6               	rlf	__Umul8_16@word_mpld^(0+128),f
  5283  0A31  0DA7               	rlf	(__Umul8_16@word_mpld+1)^(0+128),f
  5284  0A32  3EFF               	addlw	-1
  5285  0A33  1D03               	skipz
  5286  0A34  2A2F               	goto	u4055
  5287  0A35  1003               	clrc
  5288  0A36  0CA8               	rrf	__Umul8_16@multiplier^(0+128),f
  5289  0A37                     l3165:
  5290  0A37  0828               	movf	__Umul8_16@multiplier^(0+128),w
  5291  0A38  1D03               	btfss	3,2
  5292  0A39  2A3B               	goto	u4061
  5293  0A3A  2A3C               	goto	u4060
  5294  0A3B                     u4061:
  5295  0A3B  2A24               	goto	l3161
  5296  0A3C                     u4060:
  5297  0A3C                     l3167:
  5298  0A3C  0825               	movf	(__Umul8_16@product+1)^(0+128),w
  5299  0A3D  00A1               	movwf	(?__Umul8_16+1)^(0+128)
  5300  0A3E  0824               	movf	__Umul8_16@product^(0+128),w
  5301  0A3F  00A0               	movwf	?__Umul8_16^(0+128)
  5302  0A40                     l975:
  5303  0A40  0008               	return
  5304  0A41                     __end_of__Umul8_16:
  5305                           
  5306                           	psect	text21
  5307  0581                     __ptext21:	
  5308 ;; *************** function _Average_Value *****************
  5309 ;; Defined at:
  5310 ;;		line 12 in file "Average/Average.c"
  5311 ;; Parameters:    Size  Location     Type
  5312 ;;  Value           1    wreg     unsigned char 
  5313 ;;  Avrage_Value    1   13[BANK1 ] PTR unsigned char 
  5314 ;;		 -> Temperature(5), 
  5315 ;; Auto vars:     Size  Location     Type
  5316 ;;  Value           1   19[BANK1 ] unsigned char 
  5317 ;;  index           1   20[BANK1 ] unsigned char 
  5318 ;; Return value:  Size  Location     Type
  5319 ;;                  1    wreg      void 
  5320 ;; Registers used:
  5321 ;;		wreg, fsr0l, fsr0h, status,2, status,0, btemp+1, pclath, cstack
  5322 ;; Tracked objects:
  5323 ;;		On entry : 0/0
  5324 ;;		On exit  : 0/0
  5325 ;;		Unchanged: 0/0
  5326 ;; Data sizes:     COMMON   BANK0   BANK1   BANK3   BANK2
  5327 ;;      Params:         0       0       1       0       0
  5328 ;;      Locals:         0       0       2       0       0
  5329 ;;      Temps:          0       0       5       0       0
  5330 ;;      Totals:         0       0       8       0       0
  5331 ;;Total ram usage:        8 bytes
  5332 ;; Hardware stack levels used:    1
  5333 ;; Hardware stack levels required when called:    5
  5334 ;; This function calls:
  5335 ;;		___lldiv
  5336 ;;		___lwmod
  5337 ;; This function is called by:
  5338 ;;		_Temperature_Calc
  5339 ;; This function uses a non-reentrant model
  5340 ;;
  5341                           
  5342                           
  5343                           ;psect for function _Average_Value
  5344  0581                     _Average_Value:
  5345                           
  5346                           ;incstack = 0
  5347 ;; hardware stack exceeded
  5348                           ; Regs used in _Average_Value: [wreg-fsr0h+status,2+status,0+btemp+1+pclath+cstack]
  5349                           ;Average_Value@Value stored from wreg
  5350  0581  1683               	bsf	3,5	;RP0=1, select bank1
  5351  0582  1303               	bcf	3,6	;RP1=0, select bank1
  5352  0583  00B3               	movwf	Average_Value@Value^(0+128)
  5353  0584                     l3171:
  5354                           
  5355                           ;Average/Average.c: 12: void Average_Value(uint8_t Value,uint8_t *Avrage_Values);Average
      +                          /Average.c: 13: {;Average/Average.c: 15:     Avrage_buffer=0;
  5356  0584  3000               	movlw	0
  5357  0585  1283               	bcf	3,5	;RP0=0, select bank0
  5358  0586  1303               	bcf	3,6	;RP1=0, select bank0
  5359  0587  00C2               	movwf	_Avrage_buffer+3
  5360  0588  3000               	movlw	0
  5361  0589  00C1               	movwf	_Avrage_buffer+2
  5362  058A  3000               	movlw	0
  5363  058B  00C0               	movwf	_Avrage_buffer+1
  5364  058C  3000               	movlw	0
  5365  058D  00BF               	movwf	_Avrage_buffer
  5366  058E                     l3173:
  5367                           
  5368                           ;Average/Average.c: 16:  temb_val[Average_Nvalues]=Value;
  5369  058E  1683               	bsf	3,5	;RP0=1, select bank1
  5370  058F  1303               	bcf	3,6	;RP1=0, select bank1
  5371  0590  0833               	movf	Average_Value@Value^(0+128),w
  5372  0591  00AE               	movwf	??_Average_Value^(0+128)
  5373  0592  01AF               	clrf	(??_Average_Value^(0+128)+1)
  5374  0593  01B0               	clrf	(??_Average_Value^(0+128)+2)
  5375  0594  01B1               	clrf	(??_Average_Value^(0+128)+3)
  5376  0595  1283               	bcf	3,5	;RP0=0, select bank0
  5377  0596  1303               	bcf	3,6	;RP1=0, select bank0
  5378  0597  0855               	movf	_Average_Nvalues,w
  5379  0598  1683               	bsf	3,5	;RP0=1, select bank1
  5380  0599  1303               	bcf	3,6	;RP1=0, select bank1
  5381  059A  00B2               	movwf	(??_Average_Value+4)^(0+128)
  5382  059B  3001               	movlw	1
  5383  059C                     u4075:
  5384  059C  1003               	clrc
  5385  059D  0DB2               	rlf	(??_Average_Value+4)^(0+128),f
  5386  059E  3EFF               	addlw	-1
  5387  059F  1D03               	skipz
  5388  05A0  2D9C               	goto	u4075
  5389  05A1  1003               	clrc
  5390  05A2  0D32               	rlf	(??_Average_Value+4)^(0+128),w
  5391  05A3  3E90               	addlw	(low (_temb_val| (0+256)))& (0+255)
  5392  05A4  0084               	movwf	4
  5393  05A5  082E               	movf	??_Average_Value^(0+128),w
  5394  05A6  1783               	bsf	3,7	;select IRP bank3
  5395  05A7  0080               	movwf	0
  5396  05A8  0A84               	incf	4,f
  5397  05A9  082F               	movf	(??_Average_Value+1)^(0+128),w
  5398  05AA  0080               	movwf	0
  5399  05AB  0A84               	incf	4,f
  5400  05AC  0830               	movf	(??_Average_Value+2)^(0+128),w
  5401  05AD  0080               	movwf	0
  5402  05AE  0A84               	incf	4,f
  5403  05AF  0831               	movf	(??_Average_Value+3)^(0+128),w
  5404  05B0  0080               	movwf	0
  5405  05B1                     l3175:
  5406                           
  5407                           ;Average/Average.c: 18:  Average_Nvalues= (Average_Nvalues+1)%10U;
  5408  05B1  300A               	movlw	10
  5409  05B2  00A0               	movwf	___lwmod@divisor^(0+128)
  5410  05B3  3000               	movlw	0
  5411  05B4  00A1               	movwf	(___lwmod@divisor^(0+128)+1)
  5412  05B5  1283               	bcf	3,5	;RP0=0, select bank0
  5413  05B6  1303               	bcf	3,6	;RP1=0, select bank0
  5414  05B7  0855               	movf	_Average_Nvalues,w
  5415  05B8  3E01               	addlw	1
  5416  05B9  1683               	bsf	3,5	;RP0=1, select bank1
  5417  05BA  1303               	bcf	3,6	;RP1=0, select bank1
  5418  05BB  00A2               	movwf	___lwmod@dividend^(0+128)
  5419  05BC  3000               	movlw	0
  5420  05BD  1803               	skipnc
  5421  05BE  3001               	movlw	1
  5422  05BF  00A3               	movwf	(___lwmod@dividend^(0+128)+1)
  5423  05C0  120A  158A  2394  120A  118A  	fcall	___lwmod
  5424  05C5  1683               	bsf	3,5	;RP0=1, select bank1
  5425  05C6  1303               	bcf	3,6	;RP1=0, select bank1
  5426  05C7  0820               	movf	?___lwmod^(0+128),w
  5427  05C8  00FF               	movwf	btemp+1
  5428  05C9  087F               	movf	btemp+1,w
  5429  05CA  1283               	bcf	3,5	;RP0=0, select bank0
  5430  05CB  1303               	bcf	3,6	;RP1=0, select bank0
  5431  05CC  00D5               	movwf	_Average_Nvalues
  5432  05CD                     l3177:
  5433                           
  5434                           ;Average/Average.c: 20:  for(uint8_t index=0;index<10U;index++)
  5435  05CD  1683               	bsf	3,5	;RP0=1, select bank1
  5436  05CE  1303               	bcf	3,6	;RP1=0, select bank1
  5437  05CF  01B4               	clrf	Average_Value@index^(0+128)
  5438  05D0                     l3183:
  5439                           
  5440                           ;Average/Average.c: 21:  {;Average/Average.c: 22:   Avrage_buffer+=temb_val[index];
  5441  05D0  0834               	movf	Average_Value@index^(0+128),w
  5442  05D1  00AE               	movwf	??_Average_Value^(0+128)
  5443  05D2  3001               	movlw	1
  5444  05D3                     u4085:
  5445  05D3  1003               	clrc
  5446  05D4  0DAE               	rlf	??_Average_Value^(0+128),f
  5447  05D5  3EFF               	addlw	-1
  5448  05D6  1D03               	skipz
  5449  05D7  2DD3               	goto	u4085
  5450  05D8  1003               	clrc
  5451  05D9  0D2E               	rlf	??_Average_Value^(0+128),w
  5452  05DA  3E90               	addlw	(low (_temb_val| (0+256)))& (0+255)
  5453  05DB  0084               	movwf	4
  5454  05DC  1783               	bsf	3,7	;select IRP bank3
  5455  05DD  0800               	movf	0,w
  5456  05DE  1283               	bcf	3,5	;RP0=0, select bank0
  5457  05DF  1303               	bcf	3,6	;RP1=0, select bank0
  5458  05E0  07BF               	addwf	_Avrage_buffer,f
  5459  05E1  0A84               	incf	4,f
  5460  05E2  0800               	movf	0,w
  5461  05E3  1803               	skipnc
  5462  05E4  0F00               	incfsz	0,w
  5463  05E5  2DE7               	goto	u4091
  5464  05E6  2DE8               	goto	u4092
  5465  05E7                     u4091:
  5466  05E7  07C0               	addwf	_Avrage_buffer+1,f
  5467  05E8                     u4092:
  5468  05E8  0A84               	incf	4,f
  5469  05E9  0800               	movf	0,w
  5470  05EA  1803               	skipnc
  5471  05EB  0F00               	incfsz	0,w
  5472  05EC  2DEE               	goto	u4093
  5473  05ED  2DEF               	goto	u4094
  5474  05EE                     u4093:
  5475  05EE  07C1               	addwf	_Avrage_buffer+2,f
  5476  05EF                     u4094:
  5477  05EF  0A84               	incf	4,f
  5478  05F0  0800               	movf	0,w
  5479  05F1  1803               	skipnc
  5480  05F2  0F00               	incfsz	0,w
  5481  05F3  2DF5               	goto	u4095
  5482  05F4  2DF6               	goto	u4096
  5483  05F5                     u4095:
  5484  05F5  07C2               	addwf	_Avrage_buffer+3,f
  5485  05F6                     u4096:
  5486  05F6                     l3185:
  5487                           
  5488                           ;Average/Average.c: 23:  }
  5489  05F6  3001               	movlw	1
  5490  05F7  00FF               	movwf	btemp+1
  5491  05F8  087F               	movf	btemp+1,w
  5492  05F9  1683               	bsf	3,5	;RP0=1, select bank1
  5493  05FA  1303               	bcf	3,6	;RP1=0, select bank1
  5494  05FB  07B4               	addwf	Average_Value@index^(0+128),f
  5495  05FC                     l3187:
  5496  05FC  300A               	movlw	10
  5497  05FD  0234               	subwf	Average_Value@index^(0+128),w
  5498  05FE  1C03               	skipc
  5499  05FF  2E01               	goto	u4101
  5500  0600  2E02               	goto	u4100
  5501  0601                     u4101:
  5502  0601  2DD0               	goto	l3183
  5503  0602                     u4100:
  5504  0602                     l3189:
  5505                           
  5506                           ;Average/Average.c: 26:    *Avrage_Values=Avrage_buffer/10U;
  5507  0602  3000               	movlw	0
  5508  0603  00A3               	movwf	(___lldiv@divisor+3)^(0+128)
  5509  0604  3000               	movlw	0
  5510  0605  00A2               	movwf	(___lldiv@divisor+2)^(0+128)
  5511  0606  3000               	movlw	0
  5512  0607  00A1               	movwf	(___lldiv@divisor+1)^(0+128)
  5513  0608  300A               	movlw	10
  5514  0609  00A0               	movwf	___lldiv@divisor^(0+128)
  5515  060A  1283               	bcf	3,5	;RP0=0, select bank0
  5516  060B  1303               	bcf	3,6	;RP1=0, select bank0
  5517  060C  0842               	movf	_Avrage_buffer+3,w
  5518  060D  1683               	bsf	3,5	;RP0=1, select bank1
  5519  060E  1303               	bcf	3,6	;RP1=0, select bank1
  5520  060F  00A7               	movwf	(___lldiv@dividend+3)^(0+128)
  5521  0610  1283               	bcf	3,5	;RP0=0, select bank0
  5522  0611  1303               	bcf	3,6	;RP1=0, select bank0
  5523  0612  0841               	movf	_Avrage_buffer+2,w
  5524  0613  1683               	bsf	3,5	;RP0=1, select bank1
  5525  0614  1303               	bcf	3,6	;RP1=0, select bank1
  5526  0615  00A6               	movwf	(___lldiv@dividend+2)^(0+128)
  5527  0616  1283               	bcf	3,5	;RP0=0, select bank0
  5528  0617  1303               	bcf	3,6	;RP1=0, select bank0
  5529  0618  0840               	movf	_Avrage_buffer+1,w
  5530  0619  1683               	bsf	3,5	;RP0=1, select bank1
  5531  061A  1303               	bcf	3,6	;RP1=0, select bank1
  5532  061B  00A5               	movwf	(___lldiv@dividend+1)^(0+128)
  5533  061C  1283               	bcf	3,5	;RP0=0, select bank0
  5534  061D  1303               	bcf	3,6	;RP1=0, select bank0
  5535  061E  083F               	movf	_Avrage_buffer,w
  5536  061F  1683               	bsf	3,5	;RP0=1, select bank1
  5537  0620  1303               	bcf	3,6	;RP1=0, select bank1
  5538  0621  00A4               	movwf	___lldiv@dividend^(0+128)
  5539  0622  120A  118A  2725  120A  118A  	fcall	___lldiv
  5540  0627  1683               	bsf	3,5	;RP0=1, select bank1
  5541  0628  1303               	bcf	3,6	;RP1=0, select bank1
  5542  0629  0820               	movf	?___lldiv^(0+128),w
  5543  062A  00FF               	movwf	btemp+1
  5544  062B  082D               	movf	Average_Value@Avrage_Values^(0+128),w
  5545  062C  0084               	movwf	4
  5546  062D  087F               	movf	btemp+1,w
  5547  062E  1383               	bcf	3,7	;select IRP bank0
  5548  062F  0080               	movwf	0
  5549  0630                     l84:
  5550  0630  0008               	return
  5551  0631                     __end_of_Average_Value:
  5552                           
  5553                           	psect	text22
  5554  0B94                     __ptext22:	
  5555 ;; *************** function ___lwmod *****************
  5556 ;; Defined at:
  5557 ;;		line 5 in file "C:\Program Files (x86)\Microchip\xc8\v2.20\pic\sources\c90\common\lwmod.c"
  5558 ;; Parameters:    Size  Location     Type
  5559 ;;  divisor         2    0[BANK1 ] unsigned int 
  5560 ;;  dividend        2    2[BANK1 ] unsigned int 
  5561 ;; Auto vars:     Size  Location     Type
  5562 ;;  counter         1   26[BANK0 ] unsigned char 
  5563 ;; Return value:  Size  Location     Type
  5564 ;;                  2    0[BANK1 ] unsigned int 
  5565 ;; Registers used:
  5566 ;;		wreg, status,2, status,0, btemp+1
  5567 ;; Tracked objects:
  5568 ;;		On entry : 0/0
  5569 ;;		On exit  : 0/0
  5570 ;;		Unchanged: 0/0
  5571 ;; Data sizes:     COMMON   BANK0   BANK1   BANK3   BANK2
  5572 ;;      Params:         0       0       4       0       0
  5573 ;;      Locals:         0       1       0       0       0
  5574 ;;      Temps:          0       0       0       0       0
  5575 ;;      Totals:         0       1       4       0       0
  5576 ;;Total ram usage:        5 bytes
  5577 ;; Hardware stack levels used:    1
  5578 ;; Hardware stack levels required when called:    4
  5579 ;; This function calls:
  5580 ;;		Nothing
  5581 ;; This function is called by:
  5582 ;;		_Average_Value
  5583 ;;		_Temperature_Calc
  5584 ;; This function uses a non-reentrant model
  5585 ;;
  5586                           
  5587                           
  5588                           ;psect for function ___lwmod
  5589  0B94                     ___lwmod:
  5590  0B94                     l3135:	
  5591                           ;incstack = 0
  5592 ;; hardware stack exceeded
  5593                           ; Regs used in ___lwmod: [wreg+status,2+status,0+btemp+1]
  5594                           
  5595  0B94  1683               	bsf	3,5	;RP0=1, select bank1
  5596  0B95  1303               	bcf	3,6	;RP1=0, select bank1
  5597  0B96  0820               	movf	___lwmod@divisor^(0+128),w
  5598  0B97  0421               	iorwf	(___lwmod@divisor+1)^(0+128),w
  5599  0B98  1903               	btfsc	3,2
  5600  0B99  2B9B               	goto	u3981
  5601  0B9A  2B9C               	goto	u3980
  5602  0B9B                     u3981:
  5603  0B9B  2BD5               	goto	l3153
  5604  0B9C                     u3980:
  5605  0B9C                     l3137:
  5606  0B9C  1283               	bcf	3,5	;RP0=0, select bank0
  5607  0B9D  1303               	bcf	3,6	;RP1=0, select bank0
  5608  0B9E  01BA               	clrf	___lwmod@counter
  5609  0B9F  0ABA               	incf	___lwmod@counter,f
  5610  0BA0  2BAE               	goto	l3143
  5611  0BA1                     l3139:
  5612  0BA1  3001               	movlw	1
  5613  0BA2                     u3995:
  5614  0BA2  1003               	clrc
  5615  0BA3  0DA0               	rlf	___lwmod@divisor^(0+128),f
  5616  0BA4  0DA1               	rlf	(___lwmod@divisor+1)^(0+128),f
  5617  0BA5  3EFF               	addlw	-1
  5618  0BA6  1D03               	skipz
  5619  0BA7  2BA2               	goto	u3995
  5620  0BA8                     l3141:
  5621  0BA8  3001               	movlw	1
  5622  0BA9  00FF               	movwf	btemp+1
  5623  0BAA  087F               	movf	btemp+1,w
  5624  0BAB  1283               	bcf	3,5	;RP0=0, select bank0
  5625  0BAC  1303               	bcf	3,6	;RP1=0, select bank0
  5626  0BAD  07BA               	addwf	___lwmod@counter,f
  5627  0BAE                     l3143:
  5628  0BAE  1683               	bsf	3,5	;RP0=1, select bank1
  5629  0BAF  1303               	bcf	3,6	;RP1=0, select bank1
  5630  0BB0  1FA1               	btfss	(___lwmod@divisor+1)^(0+128),7
  5631  0BB1  2BB3               	goto	u4001
  5632  0BB2  2BB4               	goto	u4000
  5633  0BB3                     u4001:
  5634  0BB3  2BA1               	goto	l3139
  5635  0BB4                     u4000:
  5636  0BB4                     l3145:
  5637  0BB4  1683               	bsf	3,5	;RP0=1, select bank1
  5638  0BB5  1303               	bcf	3,6	;RP1=0, select bank1
  5639  0BB6  0821               	movf	(___lwmod@divisor+1)^(0+128),w
  5640  0BB7  0223               	subwf	(___lwmod@dividend+1)^(0+128),w
  5641  0BB8  1D03               	skipz
  5642  0BB9  2BBC               	goto	u4015
  5643  0BBA  0820               	movf	___lwmod@divisor^(0+128),w
  5644  0BBB  0222               	subwf	___lwmod@dividend^(0+128),w
  5645  0BBC                     u4015:
  5646  0BBC  1C03               	skipc
  5647  0BBD  2BBF               	goto	u4011
  5648  0BBE  2BC0               	goto	u4010
  5649  0BBF                     u4011:
  5650  0BBF  2BC6               	goto	l3149
  5651  0BC0                     u4010:
  5652  0BC0                     l3147:
  5653  0BC0  0820               	movf	___lwmod@divisor^(0+128),w
  5654  0BC1  02A2               	subwf	___lwmod@dividend^(0+128),f
  5655  0BC2  0821               	movf	(___lwmod@divisor+1)^(0+128),w
  5656  0BC3  1C03               	skipc
  5657  0BC4  03A3               	decf	(___lwmod@dividend+1)^(0+128),f
  5658  0BC5  02A3               	subwf	(___lwmod@dividend+1)^(0+128),f
  5659  0BC6                     l3149:
  5660  0BC6  3001               	movlw	1
  5661  0BC7                     u4025:
  5662  0BC7  1003               	clrc
  5663  0BC8  0CA1               	rrf	(___lwmod@divisor+1)^(0+128),f
  5664  0BC9  0CA0               	rrf	___lwmod@divisor^(0+128),f
  5665  0BCA  3EFF               	addlw	-1
  5666  0BCB  1D03               	skipz
  5667  0BCC  2BC7               	goto	u4025
  5668  0BCD                     l3151:
  5669  0BCD  3001               	movlw	1
  5670  0BCE  1283               	bcf	3,5	;RP0=0, select bank0
  5671  0BCF  1303               	bcf	3,6	;RP1=0, select bank0
  5672  0BD0  02BA               	subwf	___lwmod@counter,f
  5673  0BD1  1D03               	btfss	3,2
  5674  0BD2  2BD4               	goto	u4031
  5675  0BD3  2BD5               	goto	u4030
  5676  0BD4                     u4031:
  5677  0BD4  2BB4               	goto	l3145
  5678  0BD5                     u4030:
  5679  0BD5                     l3153:
  5680  0BD5  1683               	bsf	3,5	;RP0=1, select bank1
  5681  0BD6  1303               	bcf	3,6	;RP1=0, select bank1
  5682  0BD7  0823               	movf	(___lwmod@dividend+1)^(0+128),w
  5683  0BD8  00A1               	movwf	(?___lwmod+1)^(0+128)
  5684  0BD9  0822               	movf	___lwmod@dividend^(0+128),w
  5685  0BDA  00A0               	movwf	?___lwmod^(0+128)
  5686  0BDB                     l847:
  5687  0BDB  0008               	return
  5688  0BDC                     __end_of___lwmod:
  5689                           
  5690                           	psect	text23
  5691  0725                     __ptext23:	
  5692 ;; *************** function ___lldiv *****************
  5693 ;; Defined at:
  5694 ;;		line 5 in file "C:\Program Files (x86)\Microchip\xc8\v2.20\pic\sources\c90\common\__lldiv.c"
  5695 ;; Parameters:    Size  Location     Type
  5696 ;;  divisor         4    0[BANK1 ] unsigned long 
  5697 ;;  dividend        4    4[BANK1 ] unsigned long 
  5698 ;; Auto vars:     Size  Location     Type
  5699 ;;  quotient        4    8[BANK1 ] unsigned long 
  5700 ;;  counter         1   12[BANK1 ] unsigned char 
  5701 ;; Return value:  Size  Location     Type
  5702 ;;                  4    0[BANK1 ] unsigned long 
  5703 ;; Registers used:
  5704 ;;		wreg, status,2, status,0, btemp+1
  5705 ;; Tracked objects:
  5706 ;;		On entry : 0/0
  5707 ;;		On exit  : 0/0
  5708 ;;		Unchanged: 0/0
  5709 ;; Data sizes:     COMMON   BANK0   BANK1   BANK3   BANK2
  5710 ;;      Params:         0       0       8       0       0
  5711 ;;      Locals:         0       0       5       0       0
  5712 ;;      Temps:          0       1       0       0       0
  5713 ;;      Totals:         0       1      13       0       0
  5714 ;;Total ram usage:       14 bytes
  5715 ;; Hardware stack levels used:    1
  5716 ;; Hardware stack levels required when called:    4
  5717 ;; This function calls:
  5718 ;;		Nothing
  5719 ;; This function is called by:
  5720 ;;		_Average_Value
  5721 ;; This function uses a non-reentrant model
  5722 ;;
  5723                           
  5724                           
  5725                           ;psect for function ___lldiv
  5726  0725                     ___lldiv:
  5727  0725                     l3109:	
  5728                           ;incstack = 0
  5729 ;; hardware stack exceeded
  5730                           ; Regs used in ___lldiv: [wreg+status,2+status,0+btemp+1]
  5731                           
  5732  0725  3000               	movlw	0
  5733  0726  1683               	bsf	3,5	;RP0=1, select bank1
  5734  0727  1303               	bcf	3,6	;RP1=0, select bank1
  5735  0728  00AB               	movwf	(___lldiv@quotient+3)^(0+128)
  5736  0729  3000               	movlw	0
  5737  072A  00AA               	movwf	(___lldiv@quotient+2)^(0+128)
  5738  072B  3000               	movlw	0
  5739  072C  00A9               	movwf	(___lldiv@quotient+1)^(0+128)
  5740  072D  3000               	movlw	0
  5741  072E  00A8               	movwf	___lldiv@quotient^(0+128)
  5742  072F  0823               	movf	(___lldiv@divisor+3)^(0+128),w
  5743  0730  0422               	iorwf	(___lldiv@divisor+2)^(0+128),w
  5744  0731  0421               	iorwf	(___lldiv@divisor+1)^(0+128),w
  5745  0732  0420               	iorwf	___lldiv@divisor^(0+128),w
  5746  0733  1903               	skipnz
  5747  0734  2F36               	goto	u3911
  5748  0735  2F37               	goto	u3910
  5749  0736                     u3911:
  5750  0736  2F94               	goto	l3131
  5751  0737                     u3910:
  5752  0737                     l3111:
  5753  0737  01AC               	clrf	___lldiv@counter^(0+128)
  5754  0738  0AAC               	incf	___lldiv@counter^(0+128),f
  5755  0739  2F4F               	goto	l3117
  5756  073A                     l3113:
  5757  073A  3001               	movlw	1
  5758  073B  1283               	bcf	3,5	;RP0=0, select bank0
  5759  073C  1303               	bcf	3,6	;RP1=0, select bank0
  5760  073D  00BA               	movwf	??___lldiv
  5761  073E                     u3925:
  5762  073E  1003               	clrc
  5763  073F  1683               	bsf	3,5	;RP0=1, select bank1
  5764  0740  1303               	bcf	3,6	;RP1=0, select bank1
  5765  0741  0DA0               	rlf	___lldiv@divisor^(0+128),f
  5766  0742  0DA1               	rlf	(___lldiv@divisor+1)^(0+128),f
  5767  0743  0DA2               	rlf	(___lldiv@divisor+2)^(0+128),f
  5768  0744  0DA3               	rlf	(___lldiv@divisor+3)^(0+128),f
  5769  0745  1283               	bcf	3,5	;RP0=0, select bank0
  5770  0746  1303               	bcf	3,6	;RP1=0, select bank0
  5771  0747  0BBA               	decfsz	??___lldiv,f
  5772  0748  2F3E               	goto	u3925
  5773  0749                     l3115:
  5774  0749  3001               	movlw	1
  5775  074A  00FF               	movwf	btemp+1
  5776  074B  087F               	movf	btemp+1,w
  5777  074C  1683               	bsf	3,5	;RP0=1, select bank1
  5778  074D  1303               	bcf	3,6	;RP1=0, select bank1
  5779  074E  07AC               	addwf	___lldiv@counter^(0+128),f
  5780  074F                     l3117:
  5781  074F  1FA3               	btfss	(___lldiv@divisor+3)^(0+128),7
  5782  0750  2F52               	goto	u3931
  5783  0751  2F53               	goto	u3930
  5784  0752                     u3931:
  5785  0752  2F3A               	goto	l3113
  5786  0753                     u3930:
  5787  0753                     l3119:
  5788  0753  3001               	movlw	1
  5789  0754  1283               	bcf	3,5	;RP0=0, select bank0
  5790  0755  1303               	bcf	3,6	;RP1=0, select bank0
  5791  0756  00BA               	movwf	??___lldiv
  5792  0757                     u3945:
  5793  0757  1003               	clrc
  5794  0758  1683               	bsf	3,5	;RP0=1, select bank1
  5795  0759  1303               	bcf	3,6	;RP1=0, select bank1
  5796  075A  0DA8               	rlf	___lldiv@quotient^(0+128),f
  5797  075B  0DA9               	rlf	(___lldiv@quotient+1)^(0+128),f
  5798  075C  0DAA               	rlf	(___lldiv@quotient+2)^(0+128),f
  5799  075D  0DAB               	rlf	(___lldiv@quotient+3)^(0+128),f
  5800  075E  1283               	bcf	3,5	;RP0=0, select bank0
  5801  075F  1303               	bcf	3,6	;RP1=0, select bank0
  5802  0760  0BBA               	decfsz	??___lldiv,f
  5803  0761  2F57               	goto	u3945
  5804  0762                     l3121:
  5805  0762  1683               	bsf	3,5	;RP0=1, select bank1
  5806  0763  1303               	bcf	3,6	;RP1=0, select bank1
  5807  0764  0823               	movf	(___lldiv@divisor+3)^(0+128),w
  5808  0765  0227               	subwf	(___lldiv@dividend+3)^(0+128),w
  5809  0766  1D03               	skipz
  5810  0767  2F72               	goto	u3955
  5811  0768  0822               	movf	(___lldiv@divisor+2)^(0+128),w
  5812  0769  0226               	subwf	(___lldiv@dividend+2)^(0+128),w
  5813  076A  1D03               	skipz
  5814  076B  2F72               	goto	u3955
  5815  076C  0821               	movf	(___lldiv@divisor+1)^(0+128),w
  5816  076D  0225               	subwf	(___lldiv@dividend+1)^(0+128),w
  5817  076E  1D03               	skipz
  5818  076F  2F72               	goto	u3955
  5819  0770  0820               	movf	___lldiv@divisor^(0+128),w
  5820  0771  0224               	subwf	___lldiv@dividend^(0+128),w
  5821  0772                     u3955:
  5822  0772  1C03               	skipc
  5823  0773  2F75               	goto	u3951
  5824  0774  2F76               	goto	u3950
  5825  0775                     u3951:
  5826  0775  2F85               	goto	l3127
  5827  0776                     u3950:
  5828  0776                     l3123:
  5829  0776  0820               	movf	___lldiv@divisor^(0+128),w
  5830  0777  02A4               	subwf	___lldiv@dividend^(0+128),f
  5831  0778  0821               	movf	(___lldiv@divisor+1)^(0+128),w
  5832  0779  1C03               	skipc
  5833  077A  0F21               	incfsz	(___lldiv@divisor+1)^(0+128),w
  5834  077B  02A5               	subwf	(___lldiv@dividend+1)^(0+128),f
  5835  077C  0822               	movf	(___lldiv@divisor+2)^(0+128),w
  5836  077D  1C03               	skipc
  5837  077E  0F22               	incfsz	(___lldiv@divisor+2)^(0+128),w
  5838  077F  02A6               	subwf	(___lldiv@dividend+2)^(0+128),f
  5839  0780  0823               	movf	(___lldiv@divisor+3)^(0+128),w
  5840  0781  1C03               	skipc
  5841  0782  0F23               	incfsz	(___lldiv@divisor+3)^(0+128),w
  5842  0783  02A7               	subwf	(___lldiv@dividend+3)^(0+128),f
  5843  0784                     l3125:
  5844  0784  1428               	bsf	___lldiv@quotient^(0+128),0
  5845  0785                     l3127:
  5846  0785  3001               	movlw	1
  5847  0786                     u3965:
  5848  0786  1003               	clrc
  5849  0787  0CA3               	rrf	(___lldiv@divisor+3)^(0+128),f
  5850  0788  0CA2               	rrf	(___lldiv@divisor+2)^(0+128),f
  5851  0789  0CA1               	rrf	(___lldiv@divisor+1)^(0+128),f
  5852  078A  0CA0               	rrf	___lldiv@divisor^(0+128),f
  5853  078B  3EFF               	addlw	-1
  5854  078C  1D03               	skipz
  5855  078D  2F86               	goto	u3965
  5856  078E                     l3129:
  5857  078E  3001               	movlw	1
  5858  078F  02AC               	subwf	___lldiv@counter^(0+128),f
  5859  0790  1D03               	btfss	3,2
  5860  0791  2F93               	goto	u3971
  5861  0792  2F94               	goto	u3970
  5862  0793                     u3971:
  5863  0793  2F53               	goto	l3119
  5864  0794                     u3970:
  5865  0794                     l3131:
  5866  0794  082B               	movf	(___lldiv@quotient+3)^(0+128),w
  5867  0795  00A3               	movwf	(?___lldiv+3)^(0+128)
  5868  0796  082A               	movf	(___lldiv@quotient+2)^(0+128),w
  5869  0797  00A2               	movwf	(?___lldiv+2)^(0+128)
  5870  0798  0829               	movf	(___lldiv@quotient+1)^(0+128),w
  5871  0799  00A1               	movwf	(?___lldiv+1)^(0+128)
  5872  079A  0828               	movf	___lldiv@quotient^(0+128),w
  5873  079B  00A0               	movwf	?___lldiv^(0+128)
  5874  079C                     l601:
  5875  079C  0008               	return
  5876  079D                     __end_of___lldiv:
  5877                           
  5878                           	psect	text24
  5879  03BB                     __ptext24:	
  5880 ;; *************** function _Display_MainFunction *****************
  5881 ;; Defined at:
  5882 ;;		line 24 in file "Display/Display.c"
  5883 ;; Parameters:    Size  Location     Type
  5884 ;;		None
  5885 ;; Auto vars:     Size  Location     Type
  5886 ;;		None
  5887 ;; Return value:  Size  Location     Type
  5888 ;;                  1    wreg      void 
  5889 ;; Registers used:
  5890 ;;		wreg, fsr0l, fsr0h, status,2, status,0, btemp+1, pclath, cstack
  5891 ;; Tracked objects:
  5892 ;;		On entry : 0/0
  5893 ;;		On exit  : 0/0
  5894 ;;		Unchanged: 0/0
  5895 ;; Data sizes:     COMMON   BANK0   BANK1   BANK3   BANK2
  5896 ;;      Params:         0       0       0       0       0
  5897 ;;      Locals:         0       0       0       0       0
  5898 ;;      Temps:          0       0       2       0       0
  5899 ;;      Totals:         0       0       2       0       0
  5900 ;;Total ram usage:        2 bytes
  5901 ;; Hardware stack levels used:    1
  5902 ;; Hardware stack levels required when called:    6
  5903 ;; This function calls:
  5904 ;;		_Display_Blink
  5905 ;;		___awdiv
  5906 ;;		___awmod
  5907 ;; This function is called by:
  5908 ;;		_Scheduler_Task1
  5909 ;; This function uses a non-reentrant model
  5910 ;;
  5911                           
  5912                           
  5913                           ;psect for function _Display_MainFunction
  5914  03BB                     _Display_MainFunction:
  5915  03BB                     l3673:	
  5916                           ;incstack = 0
  5917 ;; hardware stack exceeded
  5918                           ; Regs used in _Display_MainFunction: [wreg-fsr0h+status,2+status,0+btemp+1+pclath+cstac
      +                          k]
  5919                           
  5920                           
  5921                           ;Display/Display.c: 26:  static uint8_t Digit_1=0;;Display/Display.c: 27:  static uint8_
      +                          t Digit_2=0;;Display/Display.c: 28:  static uint8_t Tempreture=0;;Display/Display.c: 29:
      +                            static uint8_t Display=0;;Display/Display.c: 30:  static uint8_t Enable_Digit_Selector
      +                          =1;;Display/Display.c: 32:   if(Mode.Select_Mode==Normal_Mode)
  5922  03BB  1683               	bsf	3,5	;RP0=1, select bank1
  5923  03BC  1303               	bcf	3,6	;RP1=0, select bank1
  5924  03BD  035A               	decf	_Mode^(0+128),w
  5925  03BE  1D03               	btfss	3,2
  5926  03BF  2BC1               	goto	u5121
  5927  03C0  2BC2               	goto	u5120
  5928  03C1                     u5121:
  5929  03C1  2BCB               	goto	l3679
  5930  03C2                     u5120:
  5931  03C2                     l3675:
  5932                           
  5933                           ;Display/Display.c: 33:   {;Display/Display.c: 34:    Tempreture=Temperature.Average_Val
      +                          ue;
  5934  03C2  1283               	bcf	3,5	;RP0=0, select bank0
  5935  03C3  1303               	bcf	3,6	;RP1=0, select bank0
  5936  03C4  084E               	movf	_Temperature+1,w
  5937  03C5  00FF               	movwf	btemp+1
  5938  03C6  087F               	movf	btemp+1,w
  5939  03C7  00C8               	movwf	Display_MainFunction@Tempreture
  5940  03C8                     l3677:
  5941                           
  5942                           ;Display/Display.c: 35:    Enable_Display=Enable_Display_On;
  5943  03C8  01CC               	clrf	_Enable_Display
  5944  03C9  0ACC               	incf	_Enable_Display,f
  5945                           
  5946                           ;Display/Display.c: 36:   }
  5947  03CA  2BE7               	goto	l3687
  5948  03CB                     l3679:
  5949  03CB  3002               	movlw	2
  5950  03CC  065A               	xorwf	_Mode^(0+128),w
  5951  03CD  1D03               	btfss	3,2
  5952  03CE  2BD0               	goto	u5131
  5953  03CF  2BD1               	goto	u5130
  5954  03D0                     u5131:
  5955  03D0  2BD8               	goto	l3683
  5956  03D1                     u5130:
  5957  03D1                     l3681:
  5958                           
  5959                           ;Display/Display.c: 38:   {;Display/Display.c: 39:    Tempreture=Temperature.Set_Temp;
  5960  03D1  1283               	bcf	3,5	;RP0=0, select bank0
  5961  03D2  1303               	bcf	3,6	;RP1=0, select bank0
  5962  03D3  084F               	movf	_Temperature+2,w
  5963  03D4  00FF               	movwf	btemp+1
  5964  03D5  087F               	movf	btemp+1,w
  5965  03D6  00C8               	movwf	Display_MainFunction@Tempreture
  5966                           
  5967                           ;Display/Display.c: 40:   }
  5968  03D7  2BE7               	goto	l3687
  5969  03D8                     l3683:
  5970  03D8  085A               	movf	_Mode^(0+128),w
  5971  03D9  1D03               	btfss	3,2
  5972  03DA  2BDC               	goto	u5141
  5973  03DB  2BDD               	goto	u5140
  5974  03DC                     u5141:
  5975  03DC  2BE7               	goto	l3687
  5976  03DD                     u5140:
  5977  03DD                     l3685:
  5978                           
  5979                           ;Display/Display.c: 42:   {;Display/Display.c: 43:   (PORTA &= ~(1<<5)) ;
  5980  03DD  30DF               	movlw	223
  5981  03DE  00FF               	movwf	btemp+1
  5982  03DF  087F               	movf	btemp+1,w
  5983  03E0  1283               	bcf	3,5	;RP0=0, select bank0
  5984  03E1  1303               	bcf	3,6	;RP1=0, select bank0
  5985  03E2  0585               	andwf	5,f	;volatile
  5986                           
  5987                           ;Display/Display.c: 44:   (PORTA &= ~(1<<4)) ;
  5988  03E3  30EF               	movlw	239
  5989  03E4  00FF               	movwf	btemp+1
  5990  03E5  087F               	movf	btemp+1,w
  5991  03E6  0585               	andwf	5,f	;volatile
  5992  03E7                     l3687:
  5993                           
  5994                           ;Display/Display.c: 48:  if(Mode.Select_Mode!=Off_Mode)
  5995  03E7  1683               	bsf	3,5	;RP0=1, select bank1
  5996  03E8  1303               	bcf	3,6	;RP1=0, select bank1
  5997  03E9  085A               	movf	_Mode^(0+128),w
  5998  03EA  1903               	btfsc	3,2
  5999  03EB  2BED               	goto	u5151
  6000  03EC  2BEE               	goto	u5150
  6001  03ED                     u5151:
  6002  03ED  2CC4               	goto	l160
  6003  03EE                     u5150:
  6004  03EE                     l3689:
  6005                           
  6006                           ;Display/Display.c: 49:  {;Display/Display.c: 50:   if(Enable_Display==Enable_Display_On
      +                          )
  6007  03EE  1283               	bcf	3,5	;RP0=0, select bank0
  6008  03EF  1303               	bcf	3,6	;RP1=0, select bank0
  6009  03F0  034C               	decf	_Enable_Display,w
  6010  03F1  1D03               	btfss	3,2
  6011  03F2  2BF4               	goto	u5161
  6012  03F3  2BF5               	goto	u5160
  6013  03F4                     u5161:
  6014  03F4  2CAF               	goto	l3735
  6015  03F5                     u5160:
  6016  03F5                     l3691:
  6017                           
  6018                           ;Display/Display.c: 51:   {;Display/Display.c: 52:          Digit_1=Tempreture%10;
  6019  03F5  300A               	movlw	10
  6020  03F6  1683               	bsf	3,5	;RP0=1, select bank1
  6021  03F7  1303               	bcf	3,6	;RP1=0, select bank1
  6022  03F8  00A0               	movwf	___awmod@divisor^(0+128)
  6023  03F9  3000               	movlw	0
  6024  03FA  00A1               	movwf	(___awmod@divisor^(0+128)+1)
  6025  03FB  1283               	bcf	3,5	;RP0=0, select bank0
  6026  03FC  1303               	bcf	3,6	;RP1=0, select bank0
  6027  03FD  0848               	movf	Display_MainFunction@Tempreture,w
  6028  03FE  1683               	bsf	3,5	;RP0=1, select bank1
  6029  03FF  1303               	bcf	3,6	;RP1=0, select bank1
  6030  0400  00AC               	movwf	??_Display_MainFunction^(0+128)
  6031  0401  01AD               	clrf	(??_Display_MainFunction^(0+128)+1)
  6032  0402  082C               	movf	??_Display_MainFunction^(0+128),w
  6033  0403  00A2               	movwf	___awmod@dividend^(0+128)
  6034  0404  082D               	movf	(??_Display_MainFunction+1)^(0+128),w
  6035  0405  00A3               	movwf	(___awmod@dividend+1)^(0+128)
  6036  0406  120A  158A  252D  120A  118A  	fcall	___awmod
  6037  040B  1683               	bsf	3,5	;RP0=1, select bank1
  6038  040C  1303               	bcf	3,6	;RP1=0, select bank1
  6039  040D  0820               	movf	?___awmod^(0+128),w
  6040  040E  00FF               	movwf	btemp+1
  6041  040F  087F               	movf	btemp+1,w
  6042  0410  1283               	bcf	3,5	;RP0=0, select bank0
  6043  0411  1303               	bcf	3,6	;RP1=0, select bank0
  6044  0412  00CA               	movwf	Display_MainFunction@Digit_1
  6045                           
  6046                           ;Display/Display.c: 53:          Digit_2=Tempreture/10;
  6047  0413  300A               	movlw	10
  6048  0414  1683               	bsf	3,5	;RP0=1, select bank1
  6049  0415  1303               	bcf	3,6	;RP1=0, select bank1
  6050  0416  00A0               	movwf	___awdiv@divisor^(0+128)
  6051  0417  3000               	movlw	0
  6052  0418  00A1               	movwf	(___awdiv@divisor^(0+128)+1)
  6053  0419  1283               	bcf	3,5	;RP0=0, select bank0
  6054  041A  1303               	bcf	3,6	;RP1=0, select bank0
  6055  041B  0848               	movf	Display_MainFunction@Tempreture,w
  6056  041C  1683               	bsf	3,5	;RP0=1, select bank1
  6057  041D  1303               	bcf	3,6	;RP1=0, select bank1
  6058  041E  00AC               	movwf	??_Display_MainFunction^(0+128)
  6059  041F  01AD               	clrf	(??_Display_MainFunction^(0+128)+1)
  6060  0420  082C               	movf	??_Display_MainFunction^(0+128),w
  6061  0421  00A2               	movwf	___awdiv@dividend^(0+128)
  6062  0422  082D               	movf	(??_Display_MainFunction+1)^(0+128),w
  6063  0423  00A3               	movwf	(___awdiv@dividend+1)^(0+128)
  6064  0424  120A  158A  26B3  120A  118A  	fcall	___awdiv
  6065  0429  1683               	bsf	3,5	;RP0=1, select bank1
  6066  042A  1303               	bcf	3,6	;RP1=0, select bank1
  6067  042B  0820               	movf	?___awdiv^(0+128),w
  6068  042C  00FF               	movwf	btemp+1
  6069  042D  087F               	movf	btemp+1,w
  6070  042E  1283               	bcf	3,5	;RP0=0, select bank0
  6071  042F  1303               	bcf	3,6	;RP1=0, select bank0
  6072  0430  00C9               	movwf	Display_MainFunction@Digit_2
  6073  0431                     l3693:
  6074                           
  6075                           ;Display/Display.c: 54:          Enable_Digit_Selector^=1;
  6076  0431  3001               	movlw	1
  6077  0432  00FF               	movwf	btemp+1
  6078  0433  087F               	movf	btemp+1,w
  6079  0434  06D4               	xorwf	Display_MainFunction@Enable_Digit_Selector,f
  6080  0435                     l3695:
  6081                           
  6082                           ;Display/Display.c: 56:          if(Enable_Digit_Selector==0)
  6083  0435  0854               	movf	Display_MainFunction@Enable_Digit_Selector,w
  6084  0436  1D03               	btfss	3,2
  6085  0437  2C39               	goto	u5171
  6086  0438  2C3A               	goto	u5170
  6087  0439                     u5171:
  6088  0439  2C44               	goto	l3703
  6089  043A                     u5170:
  6090  043A                     l3697:
  6091                           
  6092                           ;Display/Display.c: 57:          {;Display/Display.c: 58:           Display=Digit_1;
  6093  043A  084A               	movf	Display_MainFunction@Digit_1,w
  6094  043B  00FF               	movwf	btemp+1
  6095  043C  087F               	movf	btemp+1,w
  6096  043D  00C7               	movwf	Display_MainFunction@Display
  6097  043E                     l3699:
  6098                           
  6099                           ;Display/Display.c: 59:            (PORTA &= ~(1<<4));
  6100  043E  30EF               	movlw	239
  6101  043F  00FF               	movwf	btemp+1
  6102  0440  087F               	movf	btemp+1,w
  6103  0441  0585               	andwf	5,f	;volatile
  6104  0442                     l3701:
  6105                           
  6106                           ;Display/Display.c: 60:            (PORTA|= (1<<5)) ;
  6107  0442  1685               	bsf	5,5	;volatile
  6108                           
  6109                           ;Display/Display.c: 62:          }
  6110  0443  2C85               	goto	l3733
  6111  0444                     l3703:
  6112  0444  0354               	decf	Display_MainFunction@Enable_Digit_Selector,w
  6113  0445  1D03               	btfss	3,2
  6114  0446  2C48               	goto	u5181
  6115  0447  2C49               	goto	u5180
  6116  0448                     u5181:
  6117  0448  2C85               	goto	l3733
  6118  0449                     u5180:
  6119  0449                     l3705:
  6120                           
  6121                           ;Display/Display.c: 64:          {;Display/Display.c: 65:           Display=Digit_2;
  6122  0449  0849               	movf	Display_MainFunction@Digit_2,w
  6123  044A  00FF               	movwf	btemp+1
  6124  044B  087F               	movf	btemp+1,w
  6125  044C  00C7               	movwf	Display_MainFunction@Display
  6126  044D                     l3707:
  6127                           
  6128                           ;Display/Display.c: 66:           (PORTA &= ~(1<<5));
  6129  044D  30DF               	movlw	223
  6130  044E  00FF               	movwf	btemp+1
  6131  044F  087F               	movf	btemp+1,w
  6132  0450  0585               	andwf	5,f	;volatile
  6133  0451                     l3709:
  6134                           
  6135                           ;Display/Display.c: 67:           (PORTA|= (1<<4));
  6136  0451  1605               	bsf	5,4	;volatile
  6137  0452  2C85               	goto	l3733
  6138  0453                     l3711:
  6139                           
  6140                           ;Display/Display.c: 76:              PORTD=0b00111111;
  6141  0453  303F               	movlw	63
  6142  0454  1283               	bcf	3,5	;RP0=0, select bank0
  6143  0455  1303               	bcf	3,6	;RP1=0, select bank0
  6144  0456  0088               	movwf	8	;volatile
  6145                           
  6146                           ;Display/Display.c: 77:              break;
  6147  0457  2CAF               	goto	l3735
  6148  0458                     l3713:
  6149                           
  6150                           ;Display/Display.c: 80:              PORTD=0b00000110;
  6151  0458  3006               	movlw	6
  6152  0459  1283               	bcf	3,5	;RP0=0, select bank0
  6153  045A  1303               	bcf	3,6	;RP1=0, select bank0
  6154  045B  0088               	movwf	8	;volatile
  6155                           
  6156                           ;Display/Display.c: 81:              break;
  6157  045C  2CAF               	goto	l3735
  6158  045D                     l3715:
  6159                           
  6160                           ;Display/Display.c: 84:              PORTD=0b01011011;
  6161  045D  305B               	movlw	91
  6162  045E  1283               	bcf	3,5	;RP0=0, select bank0
  6163  045F  1303               	bcf	3,6	;RP1=0, select bank0
  6164  0460  0088               	movwf	8	;volatile
  6165                           
  6166                           ;Display/Display.c: 85:              break;
  6167  0461  2CAF               	goto	l3735
  6168  0462                     l3717:
  6169                           
  6170                           ;Display/Display.c: 88:              PORTD=0b01001111;
  6171  0462  304F               	movlw	79
  6172  0463  1283               	bcf	3,5	;RP0=0, select bank0
  6173  0464  1303               	bcf	3,6	;RP1=0, select bank0
  6174  0465  0088               	movwf	8	;volatile
  6175                           
  6176                           ;Display/Display.c: 89:              break;
  6177  0466  2CAF               	goto	l3735
  6178  0467                     l3719:
  6179                           
  6180                           ;Display/Display.c: 92:              PORTD=0b01100110;
  6181  0467  3066               	movlw	102
  6182  0468  1283               	bcf	3,5	;RP0=0, select bank0
  6183  0469  1303               	bcf	3,6	;RP1=0, select bank0
  6184  046A  0088               	movwf	8	;volatile
  6185                           
  6186                           ;Display/Display.c: 93:              break;
  6187  046B  2CAF               	goto	l3735
  6188  046C                     l3721:
  6189                           
  6190                           ;Display/Display.c: 96:              PORTD=0b01101101;
  6191  046C  306D               	movlw	109
  6192  046D  1283               	bcf	3,5	;RP0=0, select bank0
  6193  046E  1303               	bcf	3,6	;RP1=0, select bank0
  6194  046F  0088               	movwf	8	;volatile
  6195                           
  6196                           ;Display/Display.c: 97:              break;
  6197  0470  2CAF               	goto	l3735
  6198  0471                     l3723:
  6199                           
  6200                           ;Display/Display.c: 100:              PORTD=0b01111101;
  6201  0471  307D               	movlw	125
  6202  0472  1283               	bcf	3,5	;RP0=0, select bank0
  6203  0473  1303               	bcf	3,6	;RP1=0, select bank0
  6204  0474  0088               	movwf	8	;volatile
  6205                           
  6206                           ;Display/Display.c: 101:              break;
  6207  0475  2CAF               	goto	l3735
  6208  0476                     l3725:
  6209                           
  6210                           ;Display/Display.c: 104:              PORTD=0b00000111;
  6211  0476  3007               	movlw	7
  6212  0477  1283               	bcf	3,5	;RP0=0, select bank0
  6213  0478  1303               	bcf	3,6	;RP1=0, select bank0
  6214  0479  0088               	movwf	8	;volatile
  6215                           
  6216                           ;Display/Display.c: 105:              break;
  6217  047A  2CAF               	goto	l3735
  6218  047B                     l3727:
  6219                           
  6220                           ;Display/Display.c: 108:              PORTD=0b01111111;
  6221  047B  307F               	movlw	127
  6222  047C  1283               	bcf	3,5	;RP0=0, select bank0
  6223  047D  1303               	bcf	3,6	;RP1=0, select bank0
  6224  047E  0088               	movwf	8	;volatile
  6225                           
  6226                           ;Display/Display.c: 109:              break;
  6227  047F  2CAF               	goto	l3735
  6228  0480                     l3729:
  6229                           
  6230                           ;Display/Display.c: 112:              PORTD=0b01101111;
  6231  0480  306F               	movlw	111
  6232  0481  1283               	bcf	3,5	;RP0=0, select bank0
  6233  0482  1303               	bcf	3,6	;RP1=0, select bank0
  6234  0483  0088               	movwf	8	;volatile
  6235                           
  6236                           ;Display/Display.c: 113:              break;
  6237  0484  2CAF               	goto	l3735
  6238  0485                     l3733:
  6239  0485  0847               	movf	Display_MainFunction@Display,w
  6240  0486  1683               	bsf	3,5	;RP0=1, select bank1
  6241  0487  1303               	bcf	3,6	;RP1=0, select bank1
  6242  0488  00AC               	movwf	??_Display_MainFunction^(0+128)
  6243  0489  01AD               	clrf	(??_Display_MainFunction^(0+128)+1)
  6244                           
  6245                           ; Switch on 2 bytes has been partitioned into a top level switch of size 1, and 1 sub-sw
      +                          itches
  6246                           ; Switch size 1, requested type "simple"
  6247                           ; Number of cases is 1, Range of values is 0 to 0
  6248                           ; switch strategies available:
  6249                           ; Name         Instructions Cycles
  6250                           ; simple_byte            4     3 (average)
  6251                           ; direct_byte           11     8 (fixed)
  6252                           ; jumptable            260     6 (fixed)
  6253                           ;	Chosen strategy is simple_byte
  6254  048A  082D               	movf	(??_Display_MainFunction+1)^(0+128),w
  6255  048B  3A00               	xorlw	0	; case 0
  6256  048C  1903               	skipnz
  6257  048D  2C8F               	goto	l3995
  6258  048E  2CAF               	goto	l3735
  6259  048F                     l3995:
  6260                           
  6261                           ; Switch size 1, requested type "simple"
  6262                           ; Number of cases is 10, Range of values is 0 to 9
  6263                           ; switch strategies available:
  6264                           ; Name         Instructions Cycles
  6265                           ; simple_byte           31    16 (average)
  6266                           ; direct_byte           38     8 (fixed)
  6267                           ; jumptable            260     6 (fixed)
  6268                           ;	Chosen strategy is simple_byte
  6269  048F  082C               	movf	??_Display_MainFunction^(0+128),w
  6270  0490  3A00               	xorlw	0	; case 0
  6271  0491  1903               	skipnz
  6272  0492  2C53               	goto	l3711
  6273  0493  3A01               	xorlw	1	; case 1
  6274  0494  1903               	skipnz
  6275  0495  2C58               	goto	l3713
  6276  0496  3A03               	xorlw	3	; case 2
  6277  0497  1903               	skipnz
  6278  0498  2C5D               	goto	l3715
  6279  0499  3A01               	xorlw	1	; case 3
  6280  049A  1903               	skipnz
  6281  049B  2C62               	goto	l3717
  6282  049C  3A07               	xorlw	7	; case 4
  6283  049D  1903               	skipnz
  6284  049E  2C67               	goto	l3719
  6285  049F  3A01               	xorlw	1	; case 5
  6286  04A0  1903               	skipnz
  6287  04A1  2C6C               	goto	l3721
  6288  04A2  3A03               	xorlw	3	; case 6
  6289  04A3  1903               	skipnz
  6290  04A4  2C71               	goto	l3723
  6291  04A5  3A01               	xorlw	1	; case 7
  6292  04A6  1903               	skipnz
  6293  04A7  2C76               	goto	l3725
  6294  04A8  3A0F               	xorlw	15	; case 8
  6295  04A9  1903               	skipnz
  6296  04AA  2C7B               	goto	l3727
  6297  04AB  3A01               	xorlw	1	; case 9
  6298  04AC  1903               	skipnz
  6299  04AD  2C80               	goto	l3729
  6300  04AE  2CAF               	goto	l3735
  6301  04AF                     l3735:
  6302                           
  6303                           ;Display/Display.c: 118:   if(Mode.Select_Mode==Setting_Mode)
  6304  04AF  3002               	movlw	2
  6305  04B0  1683               	bsf	3,5	;RP0=1, select bank1
  6306  04B1  1303               	bcf	3,6	;RP1=0, select bank1
  6307  04B2  065A               	xorwf	_Mode^(0+128),w
  6308  04B3  1D03               	btfss	3,2
  6309  04B4  2CB6               	goto	u5191
  6310  04B5  2CB7               	goto	u5190
  6311  04B6                     u5191:
  6312  04B6  2CC4               	goto	l160
  6313  04B7                     u5190:
  6314  04B7                     l3737:
  6315                           
  6316                           ;Display/Display.c: 119:   {;Display/Display.c: 120:    Display_Blink(1000,20);
  6317  04B7  30E8               	movlw	232
  6318  04B8  00A6               	movwf	Display_Blink@Times_Ms^(0+128)
  6319  04B9  3003               	movlw	3
  6320  04BA  00A7               	movwf	(Display_Blink@Times_Ms^(0+128)+1)
  6321  04BB  3014               	movlw	20
  6322  04BC  00A8               	movwf	Display_Blink@Task_Peroid^(0+128)
  6323  04BD  3000               	movlw	0
  6324  04BE  00A9               	movwf	(Display_Blink@Task_Peroid^(0+128)+1)
  6325  04BF  120A  158A  2312  120A  118A  	fcall	_Display_Blink
  6326  04C4                     l160:
  6327  04C4  0008               	return
  6328  04C5                     __end_of_Display_MainFunction:
  6329                           
  6330                           	psect	text25
  6331  0D2D                     __ptext25:	
  6332 ;; *************** function ___awmod *****************
  6333 ;; Defined at:
  6334 ;;		line 5 in file "C:\Program Files (x86)\Microchip\xc8\v2.20\pic\sources\c90\common\awmod.c"
  6335 ;; Parameters:    Size  Location     Type
  6336 ;;  divisor         2    0[BANK1 ] int 
  6337 ;;  dividend        2    2[BANK1 ] int 
  6338 ;; Auto vars:     Size  Location     Type
  6339 ;;  sign            1    5[BANK1 ] unsigned char 
  6340 ;;  counter         1    4[BANK1 ] unsigned char 
  6341 ;; Return value:  Size  Location     Type
  6342 ;;                  2    0[BANK1 ] int 
  6343 ;; Registers used:
  6344 ;;		wreg, status,2, status,0, btemp+1
  6345 ;; Tracked objects:
  6346 ;;		On entry : 0/0
  6347 ;;		On exit  : 0/0
  6348 ;;		Unchanged: 0/0
  6349 ;; Data sizes:     COMMON   BANK0   BANK1   BANK3   BANK2
  6350 ;;      Params:         0       0       4       0       0
  6351 ;;      Locals:         0       0       2       0       0
  6352 ;;      Temps:          0       0       0       0       0
  6353 ;;      Totals:         0       0       6       0       0
  6354 ;;Total ram usage:        6 bytes
  6355 ;; Hardware stack levels used:    1
  6356 ;; Hardware stack levels required when called:    4
  6357 ;; This function calls:
  6358 ;;		Nothing
  6359 ;; This function is called by:
  6360 ;;		_Display_MainFunction
  6361 ;; This function uses a non-reentrant model
  6362 ;;
  6363                           
  6364                           
  6365                           ;psect for function ___awmod
  6366  0D2D                     ___awmod:
  6367  0D2D                     l3623:	
  6368                           ;incstack = 0
  6369                           ; Regs used in ___awmod: [wreg+status,2+status,0+btemp+1]
  6370                           
  6371  0D2D  1683               	bsf	3,5	;RP0=1, select bank1
  6372  0D2E  1303               	bcf	3,6	;RP1=0, select bank1
  6373  0D2F  01A5               	clrf	___awmod@sign^(0+128)
  6374  0D30                     l3625:
  6375  0D30  1FA3               	btfss	(___awmod@dividend+1)^(0+128),7
  6376  0D31  2D33               	goto	u4991
  6377  0D32  2D34               	goto	u4990
  6378  0D33                     u4991:
  6379  0D33  2D3B               	goto	l3631
  6380  0D34                     u4990:
  6381  0D34                     l3627:
  6382  0D34  09A2               	comf	___awmod@dividend^(0+128),f
  6383  0D35  09A3               	comf	(___awmod@dividend+1)^(0+128),f
  6384  0D36  0AA2               	incf	___awmod@dividend^(0+128),f
  6385  0D37  1903               	skipnz
  6386  0D38  0AA3               	incf	(___awmod@dividend+1)^(0+128),f
  6387  0D39                     l3629:
  6388  0D39  01A5               	clrf	___awmod@sign^(0+128)
  6389  0D3A  0AA5               	incf	___awmod@sign^(0+128),f
  6390  0D3B                     l3631:
  6391  0D3B  1FA1               	btfss	(___awmod@divisor+1)^(0+128),7
  6392  0D3C  2D3E               	goto	u5001
  6393  0D3D  2D3F               	goto	u5000
  6394  0D3E                     u5001:
  6395  0D3E  2D44               	goto	l3635
  6396  0D3F                     u5000:
  6397  0D3F                     l3633:
  6398  0D3F  09A0               	comf	___awmod@divisor^(0+128),f
  6399  0D40  09A1               	comf	(___awmod@divisor+1)^(0+128),f
  6400  0D41  0AA0               	incf	___awmod@divisor^(0+128),f
  6401  0D42  1903               	skipnz
  6402  0D43  0AA1               	incf	(___awmod@divisor+1)^(0+128),f
  6403  0D44                     l3635:
  6404  0D44  0820               	movf	___awmod@divisor^(0+128),w
  6405  0D45  0421               	iorwf	(___awmod@divisor+1)^(0+128),w
  6406  0D46  1903               	btfsc	3,2
  6407  0D47  2D49               	goto	u5011
  6408  0D48  2D4A               	goto	u5010
  6409  0D49                     u5011:
  6410  0D49  2D79               	goto	l3653
  6411  0D4A                     u5010:
  6412  0D4A                     l3637:
  6413  0D4A  01A4               	clrf	___awmod@counter^(0+128)
  6414  0D4B  0AA4               	incf	___awmod@counter^(0+128),f
  6415  0D4C  2D58               	goto	l3643
  6416  0D4D                     l3639:
  6417  0D4D  3001               	movlw	1
  6418  0D4E                     u5025:
  6419  0D4E  1003               	clrc
  6420  0D4F  0DA0               	rlf	___awmod@divisor^(0+128),f
  6421  0D50  0DA1               	rlf	(___awmod@divisor+1)^(0+128),f
  6422  0D51  3EFF               	addlw	-1
  6423  0D52  1D03               	skipz
  6424  0D53  2D4E               	goto	u5025
  6425  0D54                     l3641:
  6426  0D54  3001               	movlw	1
  6427  0D55  00FF               	movwf	btemp+1
  6428  0D56  087F               	movf	btemp+1,w
  6429  0D57  07A4               	addwf	___awmod@counter^(0+128),f
  6430  0D58                     l3643:
  6431  0D58  1FA1               	btfss	(___awmod@divisor+1)^(0+128),7
  6432  0D59  2D5B               	goto	u5031
  6433  0D5A  2D5C               	goto	u5030
  6434  0D5B                     u5031:
  6435  0D5B  2D4D               	goto	l3639
  6436  0D5C                     u5030:
  6437  0D5C                     l3645:
  6438  0D5C  0821               	movf	(___awmod@divisor+1)^(0+128),w
  6439  0D5D  0223               	subwf	(___awmod@dividend+1)^(0+128),w
  6440  0D5E  1D03               	skipz
  6441  0D5F  2D62               	goto	u5045
  6442  0D60  0820               	movf	___awmod@divisor^(0+128),w
  6443  0D61  0222               	subwf	___awmod@dividend^(0+128),w
  6444  0D62                     u5045:
  6445  0D62  1C03               	skipc
  6446  0D63  2D65               	goto	u5041
  6447  0D64  2D66               	goto	u5040
  6448  0D65                     u5041:
  6449  0D65  2D6C               	goto	l3649
  6450  0D66                     u5040:
  6451  0D66                     l3647:
  6452  0D66  0820               	movf	___awmod@divisor^(0+128),w
  6453  0D67  02A2               	subwf	___awmod@dividend^(0+128),f
  6454  0D68  0821               	movf	(___awmod@divisor+1)^(0+128),w
  6455  0D69  1C03               	skipc
  6456  0D6A  03A3               	decf	(___awmod@dividend+1)^(0+128),f
  6457  0D6B  02A3               	subwf	(___awmod@dividend+1)^(0+128),f
  6458  0D6C                     l3649:
  6459  0D6C  3001               	movlw	1
  6460  0D6D                     u5055:
  6461  0D6D  1003               	clrc
  6462  0D6E  0CA1               	rrf	(___awmod@divisor+1)^(0+128),f
  6463  0D6F  0CA0               	rrf	___awmod@divisor^(0+128),f
  6464  0D70  3EFF               	addlw	-1
  6465  0D71  1D03               	skipz
  6466  0D72  2D6D               	goto	u5055
  6467  0D73                     l3651:
  6468  0D73  3001               	movlw	1
  6469  0D74  02A4               	subwf	___awmod@counter^(0+128),f
  6470  0D75  1D03               	btfss	3,2
  6471  0D76  2D78               	goto	u5061
  6472  0D77  2D79               	goto	u5060
  6473  0D78                     u5061:
  6474  0D78  2D5C               	goto	l3645
  6475  0D79                     u5060:
  6476  0D79                     l3653:
  6477  0D79  0825               	movf	___awmod@sign^(0+128),w
  6478  0D7A  1903               	btfsc	3,2
  6479  0D7B  2D7D               	goto	u5071
  6480  0D7C  2D7E               	goto	u5070
  6481  0D7D                     u5071:
  6482  0D7D  2D83               	goto	l3657
  6483  0D7E                     u5070:
  6484  0D7E                     l3655:
  6485  0D7E  09A2               	comf	___awmod@dividend^(0+128),f
  6486  0D7F  09A3               	comf	(___awmod@dividend+1)^(0+128),f
  6487  0D80  0AA2               	incf	___awmod@dividend^(0+128),f
  6488  0D81  1903               	skipnz
  6489  0D82  0AA3               	incf	(___awmod@dividend+1)^(0+128),f
  6490  0D83                     l3657:
  6491  0D83  0823               	movf	(___awmod@dividend+1)^(0+128),w
  6492  0D84  00A1               	movwf	(?___awmod+1)^(0+128)
  6493  0D85  0822               	movf	___awmod@dividend^(0+128),w
  6494  0D86  00A0               	movwf	?___awmod^(0+128)
  6495  0D87                     l731:
  6496  0D87  0008               	return
  6497  0D88                     __end_of___awmod:
  6498                           
  6499                           	psect	text26
  6500  0EB3                     __ptext26:	
  6501 ;; *************** function ___awdiv *****************
  6502 ;; Defined at:
  6503 ;;		line 5 in file "C:\Program Files (x86)\Microchip\xc8\v2.20\pic\sources\c90\common\awdiv.c"
  6504 ;; Parameters:    Size  Location     Type
  6505 ;;  divisor         2    0[BANK1 ] int 
  6506 ;;  dividend        2    2[BANK1 ] int 
  6507 ;; Auto vars:     Size  Location     Type
  6508 ;;  quotient        2    6[BANK1 ] int 
  6509 ;;  sign            1    5[BANK1 ] unsigned char 
  6510 ;;  counter         1    4[BANK1 ] unsigned char 
  6511 ;; Return value:  Size  Location     Type
  6512 ;;                  2    0[BANK1 ] int 
  6513 ;; Registers used:
  6514 ;;		wreg, status,2, status,0, btemp+1
  6515 ;; Tracked objects:
  6516 ;;		On entry : 0/0
  6517 ;;		On exit  : 0/0
  6518 ;;		Unchanged: 0/0
  6519 ;; Data sizes:     COMMON   BANK0   BANK1   BANK3   BANK2
  6520 ;;      Params:         0       0       4       0       0
  6521 ;;      Locals:         0       0       4       0       0
  6522 ;;      Temps:          0       0       0       0       0
  6523 ;;      Totals:         0       0       8       0       0
  6524 ;;Total ram usage:        8 bytes
  6525 ;; Hardware stack levels used:    1
  6526 ;; Hardware stack levels required when called:    4
  6527 ;; This function calls:
  6528 ;;		Nothing
  6529 ;; This function is called by:
  6530 ;;		_Display_MainFunction
  6531 ;; This function uses a non-reentrant model
  6532 ;;
  6533                           
  6534                           
  6535                           ;psect for function ___awdiv
  6536  0EB3                     ___awdiv:
  6537  0EB3                     l3579:	
  6538                           ;incstack = 0
  6539                           ; Regs used in ___awdiv: [wreg+status,2+status,0+btemp+1]
  6540                           
  6541  0EB3  1683               	bsf	3,5	;RP0=1, select bank1
  6542  0EB4  1303               	bcf	3,6	;RP1=0, select bank1
  6543  0EB5  01A5               	clrf	___awdiv@sign^(0+128)
  6544  0EB6                     l3581:
  6545  0EB6  1FA1               	btfss	(___awdiv@divisor+1)^(0+128),7
  6546  0EB7  2EB9               	goto	u4891
  6547  0EB8  2EBA               	goto	u4890
  6548  0EB9                     u4891:
  6549  0EB9  2EC1               	goto	l3587
  6550  0EBA                     u4890:
  6551  0EBA                     l3583:
  6552  0EBA  09A0               	comf	___awdiv@divisor^(0+128),f
  6553  0EBB  09A1               	comf	(___awdiv@divisor+1)^(0+128),f
  6554  0EBC  0AA0               	incf	___awdiv@divisor^(0+128),f
  6555  0EBD  1903               	skipnz
  6556  0EBE  0AA1               	incf	(___awdiv@divisor+1)^(0+128),f
  6557  0EBF                     l3585:
  6558  0EBF  01A5               	clrf	___awdiv@sign^(0+128)
  6559  0EC0  0AA5               	incf	___awdiv@sign^(0+128),f
  6560  0EC1                     l3587:
  6561  0EC1  1FA3               	btfss	(___awdiv@dividend+1)^(0+128),7
  6562  0EC2  2EC4               	goto	u4901
  6563  0EC3  2EC5               	goto	u4900
  6564  0EC4                     u4901:
  6565  0EC4  2ECE               	goto	l3593
  6566  0EC5                     u4900:
  6567  0EC5                     l3589:
  6568  0EC5  09A2               	comf	___awdiv@dividend^(0+128),f
  6569  0EC6  09A3               	comf	(___awdiv@dividend+1)^(0+128),f
  6570  0EC7  0AA2               	incf	___awdiv@dividend^(0+128),f
  6571  0EC8  1903               	skipnz
  6572  0EC9  0AA3               	incf	(___awdiv@dividend+1)^(0+128),f
  6573  0ECA                     l3591:
  6574  0ECA  3001               	movlw	1
  6575  0ECB  00FF               	movwf	btemp+1
  6576  0ECC  087F               	movf	btemp+1,w
  6577  0ECD  06A5               	xorwf	___awdiv@sign^(0+128),f
  6578  0ECE                     l3593:
  6579  0ECE  01A6               	clrf	___awdiv@quotient^(0+128)
  6580  0ECF  01A7               	clrf	(___awdiv@quotient+1)^(0+128)
  6581  0ED0                     l3595:
  6582  0ED0  0820               	movf	___awdiv@divisor^(0+128),w
  6583  0ED1  0421               	iorwf	(___awdiv@divisor+1)^(0+128),w
  6584  0ED2  1903               	btfsc	3,2
  6585  0ED3  2ED5               	goto	u4911
  6586  0ED4  2ED6               	goto	u4910
  6587  0ED5                     u4911:
  6588  0ED5  2F0D               	goto	l3615
  6589  0ED6                     u4910:
  6590  0ED6                     l3597:
  6591  0ED6  01A4               	clrf	___awdiv@counter^(0+128)
  6592  0ED7  0AA4               	incf	___awdiv@counter^(0+128),f
  6593  0ED8  2EE4               	goto	l3603
  6594  0ED9                     l3599:
  6595  0ED9  3001               	movlw	1
  6596  0EDA                     u4925:
  6597  0EDA  1003               	clrc
  6598  0EDB  0DA0               	rlf	___awdiv@divisor^(0+128),f
  6599  0EDC  0DA1               	rlf	(___awdiv@divisor+1)^(0+128),f
  6600  0EDD  3EFF               	addlw	-1
  6601  0EDE  1D03               	skipz
  6602  0EDF  2EDA               	goto	u4925
  6603  0EE0                     l3601:
  6604  0EE0  3001               	movlw	1
  6605  0EE1  00FF               	movwf	btemp+1
  6606  0EE2  087F               	movf	btemp+1,w
  6607  0EE3  07A4               	addwf	___awdiv@counter^(0+128),f
  6608  0EE4                     l3603:
  6609  0EE4  1FA1               	btfss	(___awdiv@divisor+1)^(0+128),7
  6610  0EE5  2EE7               	goto	u4931
  6611  0EE6  2EE8               	goto	u4930
  6612  0EE7                     u4931:
  6613  0EE7  2ED9               	goto	l3599
  6614  0EE8                     u4930:
  6615  0EE8                     l3605:
  6616  0EE8  3001               	movlw	1
  6617  0EE9                     u4945:
  6618  0EE9  1003               	clrc
  6619  0EEA  0DA6               	rlf	___awdiv@quotient^(0+128),f
  6620  0EEB  0DA7               	rlf	(___awdiv@quotient+1)^(0+128),f
  6621  0EEC  3EFF               	addlw	-1
  6622  0EED  1D03               	skipz
  6623  0EEE  2EE9               	goto	u4945
  6624  0EEF  0821               	movf	(___awdiv@divisor+1)^(0+128),w
  6625  0EF0  0223               	subwf	(___awdiv@dividend+1)^(0+128),w
  6626  0EF1  1D03               	skipz
  6627  0EF2  2EF5               	goto	u4955
  6628  0EF3  0820               	movf	___awdiv@divisor^(0+128),w
  6629  0EF4  0222               	subwf	___awdiv@dividend^(0+128),w
  6630  0EF5                     u4955:
  6631  0EF5  1C03               	skipc
  6632  0EF6  2EF8               	goto	u4951
  6633  0EF7  2EF9               	goto	u4950
  6634  0EF8                     u4951:
  6635  0EF8  2F00               	goto	l3611
  6636  0EF9                     u4950:
  6637  0EF9                     l3607:
  6638  0EF9  0820               	movf	___awdiv@divisor^(0+128),w
  6639  0EFA  02A2               	subwf	___awdiv@dividend^(0+128),f
  6640  0EFB  0821               	movf	(___awdiv@divisor+1)^(0+128),w
  6641  0EFC  1C03               	skipc
  6642  0EFD  03A3               	decf	(___awdiv@dividend+1)^(0+128),f
  6643  0EFE  02A3               	subwf	(___awdiv@dividend+1)^(0+128),f
  6644  0EFF                     l3609:
  6645  0EFF  1426               	bsf	___awdiv@quotient^(0+128),0
  6646  0F00                     l3611:
  6647  0F00  3001               	movlw	1
  6648  0F01                     u4965:
  6649  0F01  1003               	clrc
  6650  0F02  0CA1               	rrf	(___awdiv@divisor+1)^(0+128),f
  6651  0F03  0CA0               	rrf	___awdiv@divisor^(0+128),f
  6652  0F04  3EFF               	addlw	-1
  6653  0F05  1D03               	skipz
  6654  0F06  2F01               	goto	u4965
  6655  0F07                     l3613:
  6656  0F07  3001               	movlw	1
  6657  0F08  02A4               	subwf	___awdiv@counter^(0+128),f
  6658  0F09  1D03               	btfss	3,2
  6659  0F0A  2F0C               	goto	u4971
  6660  0F0B  2F0D               	goto	u4970
  6661  0F0C                     u4971:
  6662  0F0C  2EE8               	goto	l3605
  6663  0F0D                     u4970:
  6664  0F0D                     l3615:
  6665  0F0D  0825               	movf	___awdiv@sign^(0+128),w
  6666  0F0E  1903               	btfsc	3,2
  6667  0F0F  2F11               	goto	u4981
  6668  0F10  2F12               	goto	u4980
  6669  0F11                     u4981:
  6670  0F11  2F17               	goto	l3619
  6671  0F12                     u4980:
  6672  0F12                     l3617:
  6673  0F12  09A6               	comf	___awdiv@quotient^(0+128),f
  6674  0F13  09A7               	comf	(___awdiv@quotient+1)^(0+128),f
  6675  0F14  0AA6               	incf	___awdiv@quotient^(0+128),f
  6676  0F15  1903               	skipnz
  6677  0F16  0AA7               	incf	(___awdiv@quotient+1)^(0+128),f
  6678  0F17                     l3619:
  6679  0F17  0827               	movf	(___awdiv@quotient+1)^(0+128),w
  6680  0F18  00A1               	movwf	(?___awdiv+1)^(0+128)
  6681  0F19  0826               	movf	___awdiv@quotient^(0+128),w
  6682  0F1A  00A0               	movwf	?___awdiv^(0+128)
  6683  0F1B                     l718:
  6684  0F1B  0008               	return
  6685  0F1C                     __end_of___awdiv:
  6686                           
  6687                           	psect	text27
  6688  0B12                     __ptext27:	
  6689 ;; *************** function _Display_Blink *****************
  6690 ;; Defined at:
  6691 ;;		line 128 in file "Display/Display.c"
  6692 ;; Parameters:    Size  Location     Type
  6693 ;;  Times_Ms        2    6[BANK1 ] unsigned int 
  6694 ;;  Task_Peroid     2    8[BANK1 ] unsigned int 
  6695 ;; Auto vars:     Size  Location     Type
  6696 ;;		None
  6697 ;; Return value:  Size  Location     Type
  6698 ;;                  1    wreg      void 
  6699 ;; Registers used:
  6700 ;;		wreg, status,2, status,0, btemp+1, pclath, cstack
  6701 ;; Tracked objects:
  6702 ;;		On entry : 0/0
  6703 ;;		On exit  : 0/0
  6704 ;;		Unchanged: 0/0
  6705 ;; Data sizes:     COMMON   BANK0   BANK1   BANK3   BANK2
  6706 ;;      Params:         0       0       4       0       0
  6707 ;;      Locals:         0       0       0       0       0
  6708 ;;      Temps:          0       0       2       0       0
  6709 ;;      Totals:         0       0       6       0       0
  6710 ;;Total ram usage:        6 bytes
  6711 ;; Hardware stack levels used:    1
  6712 ;; Hardware stack levels required when called:    5
  6713 ;; This function calls:
  6714 ;;		___wmul
  6715 ;; This function is called by:
  6716 ;;		_Display_MainFunction
  6717 ;; This function uses a non-reentrant model
  6718 ;;
  6719                           
  6720                           
  6721                           ;psect for function _Display_Blink
  6722  0B12                     _Display_Blink:
  6723  0B12                     l3523:	
  6724                           ;incstack = 0
  6725 ;; hardware stack exceeded
  6726                           ; Regs used in _Display_Blink: [wreg+status,2+status,0+btemp+1+pclath+cstack]
  6727                           
  6728                           
  6729                           ;Display/Display.c: 128: void Display_Blink(uint16_t Times_Ms,uint16_t Task_Peroid);Disp
      +                          lay/Display.c: 129: {;Display/Display.c: 130:   uint8_t static Counter=1;;Display/Displa
      +                          y.c: 132:   if(Counter*Task_Peroid==Times_Ms)
  6730  0B12  1283               	bcf	3,5	;RP0=0, select bank0
  6731  0B13  1303               	bcf	3,6	;RP1=0, select bank0
  6732  0B14  0853               	movf	Display_Blink@Counter,w
  6733  0B15  1683               	bsf	3,5	;RP0=1, select bank1
  6734  0B16  1303               	bcf	3,6	;RP1=0, select bank1
  6735  0B17  00AA               	movwf	??_Display_Blink^(0+128)
  6736  0B18  01AB               	clrf	(??_Display_Blink^(0+128)+1)
  6737  0B19  082A               	movf	??_Display_Blink^(0+128),w
  6738  0B1A  00A0               	movwf	___wmul@multiplier^(0+128)
  6739  0B1B  082B               	movf	(??_Display_Blink+1)^(0+128),w
  6740  0B1C  00A1               	movwf	(___wmul@multiplier+1)^(0+128)
  6741  0B1D  0829               	movf	(Display_Blink@Task_Peroid+1)^(0+128),w
  6742  0B1E  00A3               	movwf	(___wmul@multiplicand+1)^(0+128)
  6743  0B1F  0828               	movf	Display_Blink@Task_Peroid^(0+128),w
  6744  0B20  00A2               	movwf	___wmul@multiplicand^(0+128)
  6745  0B21  120A  158A  21F1  120A  158A  	fcall	___wmul
  6746  0B26  1683               	bsf	3,5	;RP0=1, select bank1
  6747  0B27  1303               	bcf	3,6	;RP1=0, select bank1
  6748  0B28  0827               	movf	(Display_Blink@Times_Ms+1)^(0+128),w
  6749  0B29  0621               	xorwf	(?___wmul+1)^(0+128),w
  6750  0B2A  1D03               	skipz
  6751  0B2B  2B2E               	goto	u4825
  6752  0B2C  0826               	movf	Display_Blink@Times_Ms^(0+128),w
  6753  0B2D  0620               	xorwf	?___wmul^(0+128),w
  6754  0B2E                     u4825:
  6755  0B2E  1D03               	skipz
  6756  0B2F  2B31               	goto	u4821
  6757  0B30  2B32               	goto	u4820
  6758  0B31                     u4821:
  6759  0B31  2B4C               	goto	l3537
  6760  0B32                     u4820:
  6761  0B32                     l3525:
  6762                           
  6763                           ;Display/Display.c: 133:   {;Display/Display.c: 134:       if(Enable_Display==Enable_Dis
      +                          play_On)
  6764  0B32  1283               	bcf	3,5	;RP0=0, select bank0
  6765  0B33  1303               	bcf	3,6	;RP1=0, select bank0
  6766  0B34  034C               	decf	_Enable_Display,w
  6767  0B35  1D03               	btfss	3,2
  6768  0B36  2B38               	goto	u4831
  6769  0B37  2B39               	goto	u4830
  6770  0B38                     u4831:
  6771  0B38  2B43               	goto	l3533
  6772  0B39                     u4830:
  6773  0B39                     l3527:
  6774                           
  6775                           ;Display/Display.c: 135:       {;Display/Display.c: 136:        Enable_Display=Enable_Di
      +                          splay_Off;
  6776  0B39  01CC               	clrf	_Enable_Display
  6777  0B3A                     l3529:
  6778                           
  6779                           ;Display/Display.c: 137:         (PORTA &= ~(1<<5)) ;
  6780  0B3A  30DF               	movlw	223
  6781  0B3B  00FF               	movwf	btemp+1
  6782  0B3C  087F               	movf	btemp+1,w
  6783  0B3D  0585               	andwf	5,f	;volatile
  6784  0B3E                     l3531:
  6785                           
  6786                           ;Display/Display.c: 138:         (PORTA &= ~(1<<4)) ;
  6787  0B3E  30EF               	movlw	239
  6788  0B3F  00FF               	movwf	btemp+1
  6789  0B40  087F               	movf	btemp+1,w
  6790  0B41  0585               	andwf	5,f	;volatile
  6791                           
  6792                           ;Display/Display.c: 139:       }
  6793  0B42  2B4A               	goto	l167
  6794  0B43                     l3533:
  6795  0B43  084C               	movf	_Enable_Display,w
  6796  0B44  1D03               	btfss	3,2
  6797  0B45  2B47               	goto	u4841
  6798  0B46  2B48               	goto	u4840
  6799  0B47                     u4841:
  6800  0B47  2B4A               	goto	l167
  6801  0B48                     u4840:
  6802  0B48                     l3535:
  6803                           
  6804                           ;Display/Display.c: 141:       {;Display/Display.c: 142:        Enable_Display=Enable_Di
      +                          splay_On;
  6805  0B48  01CC               	clrf	_Enable_Display
  6806  0B49  0ACC               	incf	_Enable_Display,f
  6807  0B4A                     l167:
  6808                           
  6809                           ;Display/Display.c: 144:         Counter =1;
  6810  0B4A  01D3               	clrf	Display_Blink@Counter
  6811  0B4B  0AD3               	incf	Display_Blink@Counter,f
  6812  0B4C                     l3537:
  6813                           
  6814                           ;Display/Display.c: 146:   Counter++;
  6815  0B4C  3001               	movlw	1
  6816  0B4D  00FF               	movwf	btemp+1
  6817  0B4E  087F               	movf	btemp+1,w
  6818  0B4F  1283               	bcf	3,5	;RP0=0, select bank0
  6819  0B50  07D3               	addwf	Display_Blink@Counter,f
  6820  0B51                     l169:
  6821  0B51  0008               	return
  6822  0B52                     __end_of_Display_Blink:
  6823                           
  6824                           	psect	text28
  6825  09F1                     __ptext28:	
  6826 ;; *************** function ___wmul *****************
  6827 ;; Defined at:
  6828 ;;		line 15 in file "C:\Program Files (x86)\Microchip\xc8\v2.20\pic\sources\c90\common\Umul16.c"
  6829 ;; Parameters:    Size  Location     Type
  6830 ;;  multiplier      2    0[BANK1 ] unsigned int 
  6831 ;;  multiplicand    2    2[BANK1 ] unsigned int 
  6832 ;; Auto vars:     Size  Location     Type
  6833 ;;  product         2    4[BANK1 ] unsigned int 
  6834 ;; Return value:  Size  Location     Type
  6835 ;;                  2    0[BANK1 ] unsigned int 
  6836 ;; Registers used:
  6837 ;;		wreg, status,2, status,0
  6838 ;; Tracked objects:
  6839 ;;		On entry : 0/0
  6840 ;;		On exit  : 0/0
  6841 ;;		Unchanged: 0/0
  6842 ;; Data sizes:     COMMON   BANK0   BANK1   BANK3   BANK2
  6843 ;;      Params:         0       0       4       0       0
  6844 ;;      Locals:         0       0       2       0       0
  6845 ;;      Temps:          0       0       0       0       0
  6846 ;;      Totals:         0       0       6       0       0
  6847 ;;Total ram usage:        6 bytes
  6848 ;; Hardware stack levels used:    1
  6849 ;; Hardware stack levels required when called:    4
  6850 ;; This function calls:
  6851 ;;		Nothing
  6852 ;; This function is called by:
  6853 ;;		_Display_Blink
  6854 ;;		_LED_BLINKING
  6855 ;;		_Start_Setting_Timer
  6856 ;; This function uses a non-reentrant model
  6857 ;;
  6858                           
  6859                           
  6860                           ;psect for function ___wmul
  6861  09F1                     ___wmul:
  6862  09F1                     l3505:	
  6863                           ;incstack = 0
  6864 ;; hardware stack exceeded
  6865                           ; Regs used in ___wmul: [wreg+status,2+status,0]
  6866                           
  6867  09F1  1683               	bsf	3,5	;RP0=1, select bank1
  6868  09F2  1303               	bcf	3,6	;RP1=0, select bank1
  6869  09F3  01A4               	clrf	___wmul@product^(0+128)
  6870  09F4  01A5               	clrf	(___wmul@product+1)^(0+128)
  6871  09F5                     l3507:
  6872  09F5  1C20               	btfss	___wmul@multiplier^(0+128),0
  6873  09F6  29F8               	goto	u4781
  6874  09F7  29F9               	goto	u4780
  6875  09F8                     u4781:
  6876  09F8  29FF               	goto	l565
  6877  09F9                     u4780:
  6878  09F9                     l3509:
  6879  09F9  0822               	movf	___wmul@multiplicand^(0+128),w
  6880  09FA  07A4               	addwf	___wmul@product^(0+128),f
  6881  09FB  1803               	skipnc
  6882  09FC  0AA5               	incf	(___wmul@product+1)^(0+128),f
  6883  09FD  0823               	movf	(___wmul@multiplicand+1)^(0+128),w
  6884  09FE  07A5               	addwf	(___wmul@product+1)^(0+128),f
  6885  09FF                     l565:
  6886  09FF  3001               	movlw	1
  6887  0A00                     u4795:
  6888  0A00  1003               	clrc
  6889  0A01  0DA2               	rlf	___wmul@multiplicand^(0+128),f
  6890  0A02  0DA3               	rlf	(___wmul@multiplicand+1)^(0+128),f
  6891  0A03  3EFF               	addlw	-1
  6892  0A04  1D03               	skipz
  6893  0A05  2A00               	goto	u4795
  6894  0A06                     l3511:
  6895  0A06  3001               	movlw	1
  6896  0A07                     u4805:
  6897  0A07  1003               	clrc
  6898  0A08  0CA1               	rrf	(___wmul@multiplier+1)^(0+128),f
  6899  0A09  0CA0               	rrf	___wmul@multiplier^(0+128),f
  6900  0A0A  3EFF               	addlw	-1
  6901  0A0B  1D03               	skipz
  6902  0A0C  2A07               	goto	u4805
  6903  0A0D                     l3513:
  6904  0A0D  0820               	movf	___wmul@multiplier^(0+128),w
  6905  0A0E  0421               	iorwf	(___wmul@multiplier+1)^(0+128),w
  6906  0A0F  1D03               	btfss	3,2
  6907  0A10  2A12               	goto	u4811
  6908  0A11  2A13               	goto	u4810
  6909  0A12                     u4811:
  6910  0A12  29F5               	goto	l3507
  6911  0A13                     u4810:
  6912  0A13                     l3515:
  6913  0A13  0825               	movf	(___wmul@product+1)^(0+128),w
  6914  0A14  00A1               	movwf	(?___wmul+1)^(0+128)
  6915  0A15  0824               	movf	___wmul@product^(0+128),w
  6916  0A16  00A0               	movwf	?___wmul^(0+128)
  6917  0A17                     l567:
  6918  0A17  0008               	return
  6919  0A18                     __end_of___wmul:
  6920                           
  6921                           	psect	text29
  6922  086C                     __ptext29:	
  6923 ;; *************** function _Scheduler_Init *****************
  6924 ;; Defined at:
  6925 ;;		line 29 in file "Scheduler/Scheduler.c"
  6926 ;; Parameters:    Size  Location     Type
  6927 ;;		None
  6928 ;; Auto vars:     Size  Location     Type
  6929 ;;		None
  6930 ;; Return value:  Size  Location     Type
  6931 ;;                  1    wreg      void 
  6932 ;; Registers used:
  6933 ;;		wreg, fsr0l, fsr0h, status,2, status,0, btemp+1, pclath, cstack
  6934 ;; Tracked objects:
  6935 ;;		On entry : 0/0
  6936 ;;		On exit  : 0/0
  6937 ;;		Unchanged: 0/0
  6938 ;; Data sizes:     COMMON   BANK0   BANK1   BANK3   BANK2
  6939 ;;      Params:         0       0       0       0       0
  6940 ;;      Locals:         0       0       0       0       0
  6941 ;;      Temps:          0       0       0       0       0
  6942 ;;      Totals:         0       0       0       0       0
  6943 ;;Total ram usage:        0 bytes
  6944 ;; Hardware stack levels used:    1
  6945 ;; Hardware stack levels required when called:    5
  6946 ;; This function calls:
  6947 ;;		_memset
  6948 ;; This function is called by:
  6949 ;;		_main
  6950 ;; This function uses a non-reentrant model
  6951 ;;
  6952                           
  6953                           
  6954                           ;psect for function _Scheduler_Init
  6955  086C                     _Scheduler_Init:
  6956  086C                     l3901:	
  6957                           ;incstack = 0
  6958                           ; Regs used in _Scheduler_Init: [wreg-fsr0h+status,2+status,0+btemp+1+pclath+cstack]
  6959                           
  6960                           
  6961                           ;Scheduler/Scheduler.c: 31:   memset( Scheduler_ActivationFlags , 0 , sizeof( Scheduler_
      +                          ActivationFlags ) );
  6962  086C  3000               	movlw	0
  6963  086D  1683               	bsf	3,5	;RP0=1, select bank1
  6964  086E  1303               	bcf	3,6	;RP1=0, select bank1
  6965  086F  00A0               	movwf	memset@c^(0+128)
  6966  0870  00A1               	movwf	(memset@c+1)^(0+128)
  6967  0871  3003               	movlw	3
  6968  0872  00A2               	movwf	memset@n^(0+128)
  6969  0873  3000               	movlw	0
  6970  0874  00A3               	movwf	(memset@n^(0+128)+1)
  6971  0875  30DD               	movlw	(low (_Scheduler_ActivationFlags| 0))& (0+255)
  6972  0876  120A  158A  2185  120A  158A  	fcall	_memset
  6973  087B                     l300:
  6974  087B  0008               	return
  6975  087C                     __end_of_Scheduler_Init:
  6976                           
  6977                           	psect	text30
  6978  0985                     __ptext30:	
  6979 ;; *************** function _memset *****************
  6980 ;; Defined at:
  6981 ;;		line 8 in file "C:\Program Files (x86)\Microchip\xc8\v2.20\pic\sources\c90\common\memset.c"
  6982 ;; Parameters:    Size  Location     Type
  6983 ;;  p1              1    wreg     PTR void 
  6984 ;;		 -> Scheduler_ActivationFlags(3), 
  6985 ;;  c               2    0[BANK1 ] int 
  6986 ;;  n               2    2[BANK1 ] unsigned int 
  6987 ;; Auto vars:     Size  Location     Type
  6988 ;;  p1              1    5[BANK1 ] PTR void 
  6989 ;;		 -> Scheduler_ActivationFlags(3), 
  6990 ;;  p               1    4[BANK1 ] PTR unsigned char 
  6991 ;;		 -> Scheduler_ActivationFlags(3), 
  6992 ;; Return value:  Size  Location     Type
  6993 ;;                  1    wreg      PTR void 
  6994 ;; Registers used:
  6995 ;;		wreg, fsr0l, fsr0h, status,2, status,0, btemp+1
  6996 ;; Tracked objects:
  6997 ;;		On entry : 0/0
  6998 ;;		On exit  : 0/0
  6999 ;;		Unchanged: 0/0
  7000 ;; Data sizes:     COMMON   BANK0   BANK1   BANK3   BANK2
  7001 ;;      Params:         0       0       4       0       0
  7002 ;;      Locals:         0       0       2       0       0
  7003 ;;      Temps:          0       0       0       0       0
  7004 ;;      Totals:         0       0       6       0       0
  7005 ;;Total ram usage:        6 bytes
  7006 ;; Hardware stack levels used:    1
  7007 ;; Hardware stack levels required when called:    4
  7008 ;; This function calls:
  7009 ;;		Nothing
  7010 ;; This function is called by:
  7011 ;;		_Scheduler_Init
  7012 ;; This function uses a non-reentrant model
  7013 ;;
  7014                           
  7015                           
  7016                           ;psect for function _memset
  7017  0985                     _memset:
  7018                           
  7019                           ;incstack = 0
  7020                           ; Regs used in _memset: [wreg-fsr0h+status,2+status,0+btemp+1]
  7021                           ;memset@p1 stored from wreg
  7022  0985  1683               	bsf	3,5	;RP0=1, select bank1
  7023  0986  1303               	bcf	3,6	;RP1=0, select bank1
  7024  0987  00A5               	movwf	memset@p1^(0+128)
  7025  0988                     l3833:
  7026  0988  0825               	movf	memset@p1^(0+128),w
  7027  0989  00FF               	movwf	btemp+1
  7028  098A  087F               	movf	btemp+1,w
  7029  098B  00A4               	movwf	memset@p^(0+128)
  7030  098C  2998               	goto	l3839
  7031  098D                     l3835:
  7032  098D  0820               	movf	memset@c^(0+128),w
  7033  098E  00FF               	movwf	btemp+1
  7034  098F  0824               	movf	memset@p^(0+128),w
  7035  0990  0084               	movwf	4
  7036  0991  087F               	movf	btemp+1,w
  7037  0992  1383               	bcf	3,7	;select IRP bank0
  7038  0993  0080               	movwf	0
  7039  0994                     l3837:
  7040  0994  3001               	movlw	1
  7041  0995  00FF               	movwf	btemp+1
  7042  0996  087F               	movf	btemp+1,w
  7043  0997  07A4               	addwf	memset@p^(0+128),f
  7044  0998                     l3839:
  7045  0998  3001               	movlw	1
  7046  0999  02A2               	subwf	memset@n^(0+128),f
  7047  099A  3000               	movlw	0
  7048  099B  1C03               	skipc
  7049  099C  03A3               	decf	(memset@n+1)^(0+128),f
  7050  099D  02A3               	subwf	(memset@n+1)^(0+128),f
  7051  099E  0A22               	incf	memset@n^(0+128),w
  7052  099F  1D03               	skipz
  7053  09A0  29A5               	goto	u5451
  7054  09A1  0A23               	incf	(memset@n+1)^(0+128),w
  7055  09A2  1D03               	btfss	3,2
  7056  09A3  29A5               	goto	u5451
  7057  09A4  29A6               	goto	u5450
  7058  09A5                     u5451:
  7059  09A5  298D               	goto	l3835
  7060  09A6                     u5450:
  7061  09A6                     l1019:
  7062  09A6  0008               	return
  7063  09A7                     __end_of_memset:
  7064                           
  7065                           	psect	text31
  7066  17F4                     __ptext31:	
  7067 ;; *************** function _On_Off_Init *****************
  7068 ;; Defined at:
  7069 ;;		line 12 in file "Buttons/Buttons.c"
  7070 ;; Parameters:    Size  Location     Type
  7071 ;;		None
  7072 ;; Auto vars:     Size  Location     Type
  7073 ;;		None
  7074 ;; Return value:  Size  Location     Type
  7075 ;;                  1    wreg      void 
  7076 ;; Registers used:
  7077 ;;		None
  7078 ;; Tracked objects:
  7079 ;;		On entry : 0/0
  7080 ;;		On exit  : 0/0
  7081 ;;		Unchanged: 0/0
  7082 ;; Data sizes:     COMMON   BANK0   BANK1   BANK3   BANK2
  7083 ;;      Params:         0       0       0       0       0
  7084 ;;      Locals:         0       0       0       0       0
  7085 ;;      Temps:          0       0       0       0       0
  7086 ;;      Totals:         0       0       0       0       0
  7087 ;;Total ram usage:        0 bytes
  7088 ;; Hardware stack levels used:    1
  7089 ;; Hardware stack levels required when called:    4
  7090 ;; This function calls:
  7091 ;;		Nothing
  7092 ;; This function is called by:
  7093 ;;		_main
  7094 ;; This function uses a non-reentrant model
  7095 ;;
  7096                           
  7097                           
  7098                           ;psect for function _On_Off_Init
  7099  17F4                     _On_Off_Init:
  7100  17F4                     l2969:	
  7101                           ;incstack = 0
  7102                           ; Regs used in _On_Off_Init: []
  7103                           
  7104                           
  7105                           ;Buttons/Buttons.c: 15:     INTCONbits.INTE=1;
  7106  17F4  160B               	bsf	11,4	;volatile
  7107                           
  7108                           ;Buttons/Buttons.c: 16:     INTEDG=1;
  7109  17F5  1683               	bsf	3,5	;RP0=1, select bank1
  7110  17F6  1303               	bcf	3,6	;RP1=0, select bank1
  7111  17F7  1701               	bsf	1,6	;volatile
  7112                           
  7113                           ;Buttons/Buttons.c: 17:     INTCONbits.INTF=0;
  7114  17F8  108B               	bcf	11,1	;volatile
  7115  17F9                     l95:
  7116  17F9  0008               	return
  7117  17FA                     __end_of_On_Off_Init:
  7118                           
  7119                           	psect	text32
  7120  17EC                     __ptext32:	
  7121 ;; *************** function _Mode_Init *****************
  7122 ;; Defined at:
  7123 ;;		line 17 in file "WaterHeater_Mode/WaterHeater_Mode.c"
  7124 ;; Parameters:    Size  Location     Type
  7125 ;;		None
  7126 ;; Auto vars:     Size  Location     Type
  7127 ;;		None
  7128 ;; Return value:  Size  Location     Type
  7129 ;;                  1    wreg      void 
  7130 ;; Registers used:
  7131 ;;		status,2
  7132 ;; Tracked objects:
  7133 ;;		On entry : 0/0
  7134 ;;		On exit  : 0/0
  7135 ;;		Unchanged: 0/0
  7136 ;; Data sizes:     COMMON   BANK0   BANK1   BANK3   BANK2
  7137 ;;      Params:         0       0       0       0       0
  7138 ;;      Locals:         0       0       0       0       0
  7139 ;;      Temps:          0       0       0       0       0
  7140 ;;      Totals:         0       0       0       0       0
  7141 ;;Total ram usage:        0 bytes
  7142 ;; Hardware stack levels used:    1
  7143 ;; Hardware stack levels required when called:    4
  7144 ;; This function calls:
  7145 ;;		Nothing
  7146 ;; This function is called by:
  7147 ;;		_main
  7148 ;; This function uses a non-reentrant model
  7149 ;;
  7150                           
  7151                           
  7152                           ;psect for function _Mode_Init
  7153  17EC                     _Mode_Init:
  7154  17EC                     l2977:	
  7155                           ;incstack = 0
  7156                           ; Regs used in _Mode_Init: [status,2]
  7157                           
  7158                           
  7159                           ;WaterHeater_Mode/WaterHeater_Mode.c: 20:  Mode.Select_Mode=Off_Mode;
  7160  17EC  1683               	bsf	3,5	;RP0=1, select bank1
  7161  17ED  1303               	bcf	3,6	;RP1=0, select bank1
  7162  17EE  01DA               	clrf	_Mode^(0+128)
  7163  17EF                     l386:
  7164  17EF  0008               	return
  7165  17F0                     __end_of_Mode_Init:
  7166                           
  7167                           	psect	text33
  7168  0C7E                     __ptext33:	
  7169 ;; *************** function _Get_EEPROM_Data *****************
  7170 ;; Defined at:
  7171 ;;		line 33 in file "EEPROM/EEPROM.c"
  7172 ;; Parameters:    Size  Location     Type
  7173 ;;		None
  7174 ;; Auto vars:     Size  Location     Type
  7175 ;;  Temp            1   11[BANK1 ] unsigned char 
  7176 ;;  Flag            1   10[BANK1 ] unsigned char 
  7177 ;; Return value:  Size  Location     Type
  7178 ;;                  1    wreg      void 
  7179 ;; Registers used:
  7180 ;;		wreg, status,2, status,0, btemp+1, pclath, cstack
  7181 ;; Tracked objects:
  7182 ;;		On entry : 0/0
  7183 ;;		On exit  : 0/0
  7184 ;;		Unchanged: 0/0
  7185 ;; Data sizes:     COMMON   BANK0   BANK1   BANK3   BANK2
  7186 ;;      Params:         0       0       0       0       0
  7187 ;;      Locals:         0       0       2       0       0
  7188 ;;      Temps:          0       0       1       0       0
  7189 ;;      Totals:         0       0       3       0       0
  7190 ;;Total ram usage:        3 bytes
  7191 ;; Hardware stack levels used:    1
  7192 ;; Hardware stack levels required when called:    7
  7193 ;; This function calls:
  7194 ;;		_e2pext_r
  7195 ;; This function is called by:
  7196 ;;		_main
  7197 ;; This function uses a non-reentrant model
  7198 ;;
  7199                           
  7200                           
  7201                           ;psect for function _Get_EEPROM_Data
  7202  0C7E                     _Get_EEPROM_Data:
  7203  0C7E                     l3881:	
  7204                           ;incstack = 0
  7205                           ; Regs used in _Get_EEPROM_Data: [wreg+status,2+status,0+btemp+1+pclath+cstack]
  7206                           
  7207  0C7E                     l3883:	
  7208                           ;EEPROM/EEPROM.c: 36:  while( e2pext_r(0));
  7209                           
  7210  0C7E  3000               	movlw	0
  7211  0C7F  1683               	bsf	3,5	;RP0=1, select bank1
  7212  0C80  1303               	bcf	3,6	;RP1=0, select bank1
  7213  0C81  00A4               	movwf	e2pext_r@addr^(0+128)
  7214  0C82  00A5               	movwf	(e2pext_r@addr+1)^(0+128)
  7215  0C83  120A  158A  24D4  120A  158A  	fcall	_e2pext_r
  7216  0C88  3A00               	xorlw	0
  7217  0C89  1D03               	skipz
  7218  0C8A  2C8C               	goto	u5501
  7219  0C8B  2C8D               	goto	u5500
  7220  0C8C                     u5501:
  7221  0C8C  2C7E               	goto	l3883
  7222  0C8D                     u5500:
  7223  0C8D                     l3885:
  7224                           
  7225                           ;EEPROM/EEPROM.c: 37:  EEPROM_Data=e2pext_r(0xa);
  7226  0C8D  300A               	movlw	10
  7227  0C8E  1683               	bsf	3,5	;RP0=1, select bank1
  7228  0C8F  1303               	bcf	3,6	;RP1=0, select bank1
  7229  0C90  00A4               	movwf	e2pext_r@addr^(0+128)
  7230  0C91  3000               	movlw	0
  7231  0C92  00A5               	movwf	(e2pext_r@addr^(0+128)+1)
  7232  0C93  120A  158A  24D4  120A  158A  	fcall	_e2pext_r
  7233  0C98  00FF               	movwf	btemp+1
  7234  0C99  087F               	movf	btemp+1,w
  7235  0C9A  1283               	bcf	3,5	;RP0=0, select bank0
  7236  0C9B  1303               	bcf	3,6	;RP1=0, select bank0
  7237  0C9C  00C6               	movwf	_EEPROM_Data
  7238  0C9D                     l3887:
  7239                           
  7240                           ;EEPROM/EEPROM.c: 38:  uint8_t Flag=(EEPROM_Data>>7)&1;
  7241  0C9D  0846               	movf	_EEPROM_Data,w
  7242  0C9E  1683               	bsf	3,5	;RP0=1, select bank1
  7243  0C9F  1303               	bcf	3,6	;RP1=0, select bank1
  7244  0CA0  00A9               	movwf	??_Get_EEPROM_Data^(0+128)
  7245  0CA1  3007               	movlw	7
  7246  0CA2                     u5515:
  7247  0CA2  1003               	clrc
  7248  0CA3  0CA9               	rrf	??_Get_EEPROM_Data^(0+128),f
  7249  0CA4  3EFF               	addlw	-1
  7250  0CA5  1D03               	skipz
  7251  0CA6  2CA2               	goto	u5515
  7252  0CA7  0829               	movf	??_Get_EEPROM_Data^(0+128),w
  7253  0CA8  3901               	andlw	1
  7254  0CA9  00FF               	movwf	btemp+1
  7255  0CAA  087F               	movf	btemp+1,w
  7256  0CAB  00AA               	movwf	Get_EEPROM_Data@Flag^(0+128)
  7257  0CAC                     l3889:
  7258                           
  7259                           ;EEPROM/EEPROM.c: 39:  uint8_t Temp=(EEPROM_Data)&~(1<<7);
  7260  0CAC  1283               	bcf	3,5	;RP0=0, select bank0
  7261  0CAD  1303               	bcf	3,6	;RP1=0, select bank0
  7262  0CAE  0846               	movf	_EEPROM_Data,w
  7263  0CAF  397F               	andlw	127
  7264  0CB0  00FF               	movwf	btemp+1
  7265  0CB1  087F               	movf	btemp+1,w
  7266  0CB2  1683               	bsf	3,5	;RP0=1, select bank1
  7267  0CB3  1303               	bcf	3,6	;RP1=0, select bank1
  7268  0CB4  00AB               	movwf	Get_EEPROM_Data@Temp^(0+128)
  7269  0CB5                     l3891:
  7270                           
  7271                           ;EEPROM/EEPROM.c: 41:  if(Flag==1 && ((Temp<=(75U))||(Temp>=(35U))))
  7272  0CB5  032A               	decf	Get_EEPROM_Data@Flag^(0+128),w
  7273  0CB6  1D03               	btfss	3,2
  7274  0CB7  2CB9               	goto	u5521
  7275  0CB8  2CBA               	goto	u5520
  7276  0CB9                     u5521:
  7277  0CB9  2CCD               	goto	l3899
  7278  0CBA                     u5520:
  7279  0CBA                     l3893:
  7280  0CBA  304C               	movlw	76
  7281  0CBB  022B               	subwf	Get_EEPROM_Data@Temp^(0+128),w
  7282  0CBC  1C03               	skipc
  7283  0CBD  2CBF               	goto	u5531
  7284  0CBE  2CC0               	goto	u5530
  7285  0CBF                     u5531:
  7286  0CBF  2CC6               	goto	l3897
  7287  0CC0                     u5530:
  7288  0CC0                     l3895:
  7289  0CC0  3023               	movlw	35
  7290  0CC1  022B               	subwf	Get_EEPROM_Data@Temp^(0+128),w
  7291  0CC2  1C03               	skipc
  7292  0CC3  2CC5               	goto	u5541
  7293  0CC4  2CC6               	goto	u5540
  7294  0CC5                     u5541:
  7295  0CC5  2CCD               	goto	l3899
  7296  0CC6                     u5540:
  7297  0CC6                     l3897:
  7298                           
  7299                           ;EEPROM/EEPROM.c: 42:  {;EEPROM/EEPROM.c: 43:    Temperature.Set_Temp=Temp;
  7300  0CC6  082B               	movf	Get_EEPROM_Data@Temp^(0+128),w
  7301  0CC7  00FF               	movwf	btemp+1
  7302  0CC8  087F               	movf	btemp+1,w
  7303  0CC9  1283               	bcf	3,5	;RP0=0, select bank0
  7304  0CCA  1303               	bcf	3,6	;RP1=0, select bank0
  7305  0CCB  00CF               	movwf	_Temperature+2
  7306                           
  7307                           ;EEPROM/EEPROM.c: 44:  }
  7308  0CCC  2CD3               	goto	l447
  7309  0CCD                     l3899:
  7310                           
  7311                           ;EEPROM/EEPROM.c: 46:  {;EEPROM/EEPROM.c: 47:     Temperature.Set_Temp=(60U);
  7312  0CCD  303C               	movlw	60
  7313  0CCE  00FF               	movwf	btemp+1
  7314  0CCF  087F               	movf	btemp+1,w
  7315  0CD0  1283               	bcf	3,5	;RP0=0, select bank0
  7316  0CD1  1303               	bcf	3,6	;RP1=0, select bank0
  7317  0CD2  00CF               	movwf	_Temperature+2
  7318  0CD3                     l447:
  7319  0CD3  0008               	return
  7320  0CD4                     __end_of_Get_EEPROM_Data:
  7321                           
  7322                           	psect	text34
  7323  0CD4                     __ptext34:	
  7324 ;; *************** function _e2pext_r *****************
  7325 ;; Defined at:
  7326 ;;		line 90 in file "EEPROM/EEPROM.c"
  7327 ;; Parameters:    Size  Location     Type
  7328 ;;  addr            2    4[BANK1 ] unsigned int 
  7329 ;; Auto vars:     Size  Location     Type
  7330 ;;  ah              1    8[BANK1 ] unsigned char 
  7331 ;;  al              1    7[BANK1 ] unsigned char 
  7332 ;;  ret             1    6[BANK1 ] unsigned char 
  7333 ;; Return value:  Size  Location     Type
  7334 ;;                  1    wreg      unsigned char 
  7335 ;; Registers used:
  7336 ;;		wreg, status,2, status,0, btemp+1, pclath, cstack
  7337 ;; Tracked objects:
  7338 ;;		On entry : 0/0
  7339 ;;		On exit  : 0/0
  7340 ;;		Unchanged: 0/0
  7341 ;; Data sizes:     COMMON   BANK0   BANK1   BANK3   BANK2
  7342 ;;      Params:         0       0       2       0       0
  7343 ;;      Locals:         0       0       3       0       0
  7344 ;;      Temps:          0       0       0       0       0
  7345 ;;      Totals:         0       0       5       0       0
  7346 ;;Total ram usage:        5 bytes
  7347 ;; Hardware stack levels used:    1
  7348 ;; Hardware stack levels required when called:    6
  7349 ;; This function calls:
  7350 ;;		_i2c_rb
  7351 ;;		_i2c_start
  7352 ;;		_i2c_stop
  7353 ;;		_i2c_wb
  7354 ;; This function is called by:
  7355 ;;		_Get_EEPROM_Data
  7356 ;;		_Set_EEPROM_Data
  7357 ;;		_e2pext_w
  7358 ;; This function uses a non-reentrant model
  7359 ;;
  7360                           
  7361                           
  7362                           ;psect for function _e2pext_r
  7363  0CD4                     _e2pext_r:
  7364  0CD4                     l3553:	
  7365                           ;incstack = 0
  7366 ;; hardware stack exceeded
  7367                           ; Regs used in _e2pext_r: [wreg+status,2+status,0+btemp+1+pclath+cstack]
  7368                           
  7369                           
  7370                           ;EEPROM/EEPROM.c: 90: unsigned char e2pext_r(unsigned int addr);EEPROM/EEPROM.c: 91: {;E
      +                          EPROM/EEPROM.c: 92:   unsigned char ret;;EEPROM/EEPROM.c: 93:   unsigned char ah;;EEPROM
      +                          /EEPROM.c: 94:   unsigned char al;;EEPROM/EEPROM.c: 96:   ah=(addr&0x0100)>>8;
  7371  0CD4  1683               	bsf	3,5	;RP0=1, select bank1
  7372  0CD5  1303               	bcf	3,6	;RP1=0, select bank1
  7373  0CD6  0825               	movf	(e2pext_r@addr+1)^(0+128),w
  7374  0CD7  3901               	andlw	1
  7375  0CD8  00FF               	movwf	btemp+1
  7376  0CD9  087F               	movf	btemp+1,w
  7377  0CDA  00A8               	movwf	e2pext_r@ah^(0+128)
  7378  0CDB                     l3555:
  7379                           
  7380                           ;EEPROM/EEPROM.c: 97:   al=addr&0x00FF;
  7381  0CDB  0824               	movf	e2pext_r@addr^(0+128),w
  7382  0CDC  00FF               	movwf	btemp+1
  7383  0CDD  087F               	movf	btemp+1,w
  7384  0CDE  00A7               	movwf	e2pext_r@al^(0+128)
  7385  0CDF                     l3557:
  7386                           
  7387                           ;EEPROM/EEPROM.c: 99:   i2c_start();
  7388  0CDF  120A  158A  209C  120A  158A  	fcall	_i2c_start
  7389  0CE4                     l3559:
  7390                           
  7391                           ;EEPROM/EEPROM.c: 100:   if(ah)
  7392  0CE4  1683               	bsf	3,5	;RP0=1, select bank1
  7393  0CE5  1303               	bcf	3,6	;RP1=0, select bank1
  7394  0CE6  0828               	movf	e2pext_r@ah^(0+128),w
  7395  0CE7  1903               	btfsc	3,2
  7396  0CE8  2CEA               	goto	u4871
  7397  0CE9  2CEB               	goto	u4870
  7398  0CEA                     u4871:
  7399  0CEA  2CF2               	goto	l3563
  7400  0CEB                     u4870:
  7401  0CEB                     l3561:
  7402                           
  7403                           ;EEPROM/EEPROM.c: 101:   {;EEPROM/EEPROM.c: 102:     i2c_wb(0xA2);
  7404  0CEB  30A2               	movlw	162
  7405  0CEC  120A  158A  23DC  120A  158A  	fcall	_i2c_wb
  7406                           
  7407                           ;EEPROM/EEPROM.c: 103:   }
  7408  0CF1  2CF8               	goto	l467
  7409  0CF2                     l3563:
  7410                           
  7411                           ;EEPROM/EEPROM.c: 105:   {;EEPROM/EEPROM.c: 106:     i2c_wb(0xA0);
  7412  0CF2  30A0               	movlw	160
  7413  0CF3  120A  158A  23DC  120A  158A  	fcall	_i2c_wb
  7414  0CF8                     l467:	
  7415                           ;EEPROM/EEPROM.c: 107:   }
  7416                           
  7417                           
  7418                           ;EEPROM/EEPROM.c: 108:   i2c_wb(al);
  7419  0CF8  1683               	bsf	3,5	;RP0=1, select bank1
  7420  0CF9  1303               	bcf	3,6	;RP1=0, select bank1
  7421  0CFA  0827               	movf	e2pext_r@al^(0+128),w
  7422  0CFB  120A  158A  23DC  120A  158A  	fcall	_i2c_wb
  7423  0D00                     l3565:
  7424                           
  7425                           ;EEPROM/EEPROM.c: 110:   i2c_start();
  7426  0D00  120A  158A  209C  120A  158A  	fcall	_i2c_start
  7427  0D05                     l3567:
  7428                           
  7429                           ;EEPROM/EEPROM.c: 111:   if(ah)
  7430  0D05  1683               	bsf	3,5	;RP0=1, select bank1
  7431  0D06  1303               	bcf	3,6	;RP1=0, select bank1
  7432  0D07  0828               	movf	e2pext_r@ah^(0+128),w
  7433  0D08  1903               	btfsc	3,2
  7434  0D09  2D0B               	goto	u4881
  7435  0D0A  2D0C               	goto	u4880
  7436  0D0B                     u4881:
  7437  0D0B  2D13               	goto	l3571
  7438  0D0C                     u4880:
  7439  0D0C                     l3569:
  7440                           
  7441                           ;EEPROM/EEPROM.c: 112:   {;EEPROM/EEPROM.c: 113:     i2c_wb(0xA3);
  7442  0D0C  30A3               	movlw	163
  7443  0D0D  120A  158A  23DC  120A  158A  	fcall	_i2c_wb
  7444                           
  7445                           ;EEPROM/EEPROM.c: 114:   }
  7446  0D12  2D19               	goto	l469
  7447  0D13                     l3571:
  7448                           
  7449                           ;EEPROM/EEPROM.c: 116:   {;EEPROM/EEPROM.c: 117:     i2c_wb(0xA1);
  7450  0D13  30A1               	movlw	161
  7451  0D14  120A  158A  23DC  120A  158A  	fcall	_i2c_wb
  7452  0D19                     l469:	
  7453                           ;EEPROM/EEPROM.c: 118:   }
  7454                           
  7455                           
  7456                           ;EEPROM/EEPROM.c: 119:   ret=i2c_rb(1);
  7457  0D19  3001               	movlw	1
  7458  0D1A  120A  118A  279D  120A  158A  	fcall	_i2c_rb
  7459  0D1F  00FF               	movwf	btemp+1
  7460  0D20  087F               	movf	btemp+1,w
  7461  0D21  1683               	bsf	3,5	;RP0=1, select bank1
  7462  0D22  1303               	bcf	3,6	;RP1=0, select bank1
  7463  0D23  00A6               	movwf	e2pext_r@ret^(0+128)
  7464  0D24                     l3573:
  7465                           
  7466                           ;EEPROM/EEPROM.c: 120:   i2c_stop();
  7467  0D24  120A  158A  20AE  120A  158A  	fcall	_i2c_stop
  7468  0D29                     l3575:
  7469                           
  7470                           ;EEPROM/EEPROM.c: 122:   return ret;
  7471  0D29  1683               	bsf	3,5	;RP0=1, select bank1
  7472  0D2A  1303               	bcf	3,6	;RP1=0, select bank1
  7473  0D2B  0826               	movf	e2pext_r@ret^(0+128),w
  7474  0D2C                     l470:
  7475  0D2C  0008               	return
  7476  0D2D                     __end_of_e2pext_r:
  7477                           
  7478                           	psect	text35
  7479  0BDC                     __ptext35:	
  7480 ;; *************** function _i2c_wb *****************
  7481 ;; Defined at:
  7482 ;;		line 43 in file "I2C/I2C.c"
  7483 ;; Parameters:    Size  Location     Type
  7484 ;;  val             1    wreg     unsigned char 
  7485 ;; Auto vars:     Size  Location     Type
  7486 ;;  val             1    2[BANK1 ] unsigned char 
  7487 ;;  i               1    3[BANK1 ] unsigned char 
  7488 ;; Return value:  Size  Location     Type
  7489 ;;                  1    wreg      void 
  7490 ;; Registers used:
  7491 ;;		wreg, status,2, status,0, btemp+1, pclath, cstack
  7492 ;; Tracked objects:
  7493 ;;		On entry : 0/0
  7494 ;;		On exit  : 0/0
  7495 ;;		Unchanged: 0/0
  7496 ;; Data sizes:     COMMON   BANK0   BANK1   BANK3   BANK2
  7497 ;;      Params:         0       0       0       0       0
  7498 ;;      Locals:         0       0       2       0       0
  7499 ;;      Temps:          0       0       2       0       0
  7500 ;;      Totals:         0       0       4       0       0
  7501 ;;Total ram usage:        4 bytes
  7502 ;; Hardware stack levels used:    1
  7503 ;; Hardware stack levels required when called:    5
  7504 ;; This function calls:
  7505 ;;		_delay
  7506 ;; This function is called by:
  7507 ;;		_Set_EEPROM_Data
  7508 ;;		_e2pext_r
  7509 ;;		_e2pext_w
  7510 ;; This function uses a non-reentrant model
  7511 ;;
  7512                           
  7513                           
  7514                           ;psect for function _i2c_wb
  7515  0BDC                     _i2c_wb:
  7516                           
  7517                           ;incstack = 0
  7518 ;; hardware stack exceeded
  7519                           ; Regs used in _i2c_wb: [wreg+status,2+status,0+btemp+1+pclath+cstack]
  7520                           ;i2c_wb@val stored from wreg
  7521  0BDC  1683               	bsf	3,5	;RP0=1, select bank1
  7522  0BDD  1303               	bcf	3,6	;RP1=0, select bank1
  7523  0BDE  00A2               	movwf	i2c_wb@val^(0+128)
  7524  0BDF                     l3443:
  7525                           
  7526                           ;I2C/I2C.c: 43: void i2c_wb(unsigned char val);I2C/I2C.c: 44: {;I2C/I2C.c: 45:   unsigne
      +                          d char i;;I2C/I2C.c: 46:   PORTCbits.RC3=0;
  7527  0BDF  1283               	bcf	3,5	;RP0=0, select bank0
  7528  0BE0  1303               	bcf	3,6	;RP1=0, select bank0
  7529  0BE1  1187               	bcf	7,3	;volatile
  7530  0BE2                     l3445:
  7531                           
  7532                           ;I2C/I2C.c: 47:   for(i=0;i<8;i++)
  7533  0BE2  1683               	bsf	3,5	;RP0=1, select bank1
  7534  0BE3  1303               	bcf	3,6	;RP1=0, select bank1
  7535  0BE4  01A3               	clrf	i2c_wb@i^(0+128)
  7536  0BE5                     l3451:
  7537                           
  7538                           ;I2C/I2C.c: 48:   {;I2C/I2C.c: 49:     PORTCbits.RC4=((val>>(7-i))& 0x01);
  7539  0BE5  0822               	movf	i2c_wb@val^(0+128),w
  7540  0BE6  00A0               	movwf	??_i2c_wb^(0+128)
  7541  0BE7  0823               	movf	i2c_wb@i^(0+128),w
  7542  0BE8  3C07               	sublw	7
  7543  0BE9  3E01               	addlw	1
  7544  0BEA  2BED               	goto	u4734
  7545  0BEB                     u4735:
  7546  0BEB  1003               	clrc
  7547  0BEC  0CA0               	rrf	??_i2c_wb^(0+128),f
  7548  0BED                     u4734:
  7549  0BED  3EFF               	addlw	-1
  7550  0BEE  1D03               	skipz
  7551  0BEF  2BEB               	goto	u4735
  7552  0BF0  0820               	movf	??_i2c_wb^(0+128),w
  7553  0BF1  3901               	andlw	1
  7554  0BF2  00A1               	movwf	(??_i2c_wb+1)^(0+128)
  7555  0BF3  0EA1               	swapf	(??_i2c_wb+1)^(0+128),f
  7556  0BF4  1283               	bcf	3,5	;RP0=0, select bank0
  7557  0BF5  1303               	bcf	3,6	;RP1=0, select bank0
  7558  0BF6  0807               	movf	7,w	;volatile
  7559  0BF7  1683               	bsf	3,5	;RP0=1, select bank1
  7560  0BF8  1303               	bcf	3,6	;RP1=0, select bank1
  7561  0BF9  0621               	xorwf	(??_i2c_wb+1)^(0+128),w
  7562  0BFA  39EF               	andlw	-17
  7563  0BFB  0621               	xorwf	(??_i2c_wb+1)^(0+128),w
  7564  0BFC  1283               	bcf	3,5	;RP0=0, select bank0
  7565  0BFD  1303               	bcf	3,6	;RP1=0, select bank0
  7566  0BFE  0087               	movwf	7	;volatile
  7567  0BFF                     l3453:
  7568                           
  7569                           ;I2C/I2C.c: 50:     PORTCbits.RC3=1;
  7570  0BFF  1587               	bsf	7,3	;volatile
  7571  0C00                     l3455:
  7572                           
  7573                           ;I2C/I2C.c: 51:     delay();
  7574  0C00  120A  158A  201F  120A  158A  	fcall	_delay
  7575  0C05                     l3457:
  7576                           
  7577                           ;I2C/I2C.c: 52:     PORTCbits.RC3=0;
  7578  0C05  1283               	bcf	3,5	;RP0=0, select bank0
  7579  0C06  1303               	bcf	3,6	;RP1=0, select bank0
  7580  0C07  1187               	bcf	7,3	;volatile
  7581  0C08                     l3459:
  7582                           
  7583                           ;I2C/I2C.c: 53:   }
  7584  0C08  3001               	movlw	1
  7585  0C09  00FF               	movwf	btemp+1
  7586  0C0A  087F               	movf	btemp+1,w
  7587  0C0B  1683               	bsf	3,5	;RP0=1, select bank1
  7588  0C0C  1303               	bcf	3,6	;RP1=0, select bank1
  7589  0C0D  07A3               	addwf	i2c_wb@i^(0+128),f
  7590  0C0E                     l3461:
  7591  0C0E  3008               	movlw	8
  7592  0C0F  0223               	subwf	i2c_wb@i^(0+128),w
  7593  0C10  1C03               	skipc
  7594  0C11  2C13               	goto	u4741
  7595  0C12  2C14               	goto	u4740
  7596  0C13                     u4741:
  7597  0C13  2BE5               	goto	l3451
  7598  0C14                     u4740:
  7599  0C14                     l415:
  7600                           
  7601                           ;I2C/I2C.c: 54:   PORTCbits.RC4=1;
  7602  0C14  1283               	bcf	3,5	;RP0=0, select bank0
  7603  0C15  1303               	bcf	3,6	;RP1=0, select bank0
  7604  0C16  1607               	bsf	7,4	;volatile
  7605  0C17                     l3463:
  7606                           
  7607                           ;I2C/I2C.c: 55:   delay();
  7608  0C17  120A  158A  201F  120A  158A  	fcall	_delay
  7609  0C1C                     l3465:
  7610                           
  7611                           ;I2C/I2C.c: 56:   PORTCbits.RC3=1;
  7612  0C1C  1283               	bcf	3,5	;RP0=0, select bank0
  7613  0C1D  1303               	bcf	3,6	;RP1=0, select bank0
  7614  0C1E  1587               	bsf	7,3	;volatile
  7615                           
  7616                           ;I2C/I2C.c: 57:   delay();
  7617  0C1F  120A  158A  201F  120A  158A  	fcall	_delay
  7618  0C24                     l3467:
  7619                           
  7620                           ;I2C/I2C.c: 58:   PORTCbits.RC3=0;
  7621  0C24  1283               	bcf	3,5	;RP0=0, select bank0
  7622  0C25  1303               	bcf	3,6	;RP1=0, select bank0
  7623  0C26  1187               	bcf	7,3	;volatile
  7624  0C27                     l416:
  7625  0C27  0008               	return
  7626  0C28                     __end_of_i2c_wb:
  7627                           
  7628                           	psect	text36
  7629  08AE                     __ptext36:	
  7630 ;; *************** function _i2c_stop *****************
  7631 ;; Defined at:
  7632 ;;		line 34 in file "I2C/I2C.c"
  7633 ;; Parameters:    Size  Location     Type
  7634 ;;		None
  7635 ;; Auto vars:     Size  Location     Type
  7636 ;;		None
  7637 ;; Return value:  Size  Location     Type
  7638 ;;                  1    wreg      void 
  7639 ;; Registers used:
  7640 ;;		status,2, status,0, pclath, cstack
  7641 ;; Tracked objects:
  7642 ;;		On entry : 0/0
  7643 ;;		On exit  : 0/0
  7644 ;;		Unchanged: 0/0
  7645 ;; Data sizes:     COMMON   BANK0   BANK1   BANK3   BANK2
  7646 ;;      Params:         0       0       0       0       0
  7647 ;;      Locals:         0       0       0       0       0
  7648 ;;      Temps:          0       0       0       0       0
  7649 ;;      Totals:         0       0       0       0       0
  7650 ;;Total ram usage:        0 bytes
  7651 ;; Hardware stack levels used:    1
  7652 ;; Hardware stack levels required when called:    5
  7653 ;; This function calls:
  7654 ;;		_delay
  7655 ;; This function is called by:
  7656 ;;		_Set_EEPROM_Data
  7657 ;;		_e2pext_r
  7658 ;;		_e2pext_w
  7659 ;; This function uses a non-reentrant model
  7660 ;;
  7661                           
  7662                           
  7663                           ;psect for function _i2c_stop
  7664  08AE                     _i2c_stop:
  7665  08AE                     l3437:	
  7666                           ;incstack = 0
  7667 ;; hardware stack exceeded
  7668                           ; Regs used in _i2c_stop: [status,2+status,0+pclath+cstack]
  7669                           
  7670                           
  7671                           ;I2C/I2C.c: 36:   PORTCbits.RC3=1;
  7672  08AE  1283               	bcf	3,5	;RP0=0, select bank0
  7673  08AF  1303               	bcf	3,6	;RP1=0, select bank0
  7674  08B0  1587               	bsf	7,3	;volatile
  7675                           
  7676                           ;I2C/I2C.c: 37:   PORTCbits.RC4=0;
  7677  08B1  1207               	bcf	7,4	;volatile
  7678  08B2                     l3439:
  7679                           
  7680                           ;I2C/I2C.c: 38:   delay();
  7681  08B2  120A  158A  201F  120A  158A  	fcall	_delay
  7682  08B7                     l3441:
  7683                           
  7684                           ;I2C/I2C.c: 39:   PORTCbits.RC4=1;
  7685  08B7  1283               	bcf	3,5	;RP0=0, select bank0
  7686  08B8  1303               	bcf	3,6	;RP1=0, select bank0
  7687  08B9  1607               	bsf	7,4	;volatile
  7688                           
  7689                           ;I2C/I2C.c: 40:   delay();
  7690  08BA  120A  158A  201F  120A  158A  	fcall	_delay
  7691  08BF                     l411:
  7692  08BF  0008               	return
  7693  08C0                     __end_of_i2c_stop:
  7694                           
  7695                           	psect	text37
  7696  089C                     __ptext37:	
  7697 ;; *************** function _i2c_start *****************
  7698 ;; Defined at:
  7699 ;;		line 25 in file "I2C/I2C.c"
  7700 ;; Parameters:    Size  Location     Type
  7701 ;;		None
  7702 ;; Auto vars:     Size  Location     Type
  7703 ;;		None
  7704 ;; Return value:  Size  Location     Type
  7705 ;;                  1    wreg      void 
  7706 ;; Registers used:
  7707 ;;		status,2, status,0, pclath, cstack
  7708 ;; Tracked objects:
  7709 ;;		On entry : 0/0
  7710 ;;		On exit  : 0/0
  7711 ;;		Unchanged: 0/0
  7712 ;; Data sizes:     COMMON   BANK0   BANK1   BANK3   BANK2
  7713 ;;      Params:         0       0       0       0       0
  7714 ;;      Locals:         0       0       0       0       0
  7715 ;;      Temps:          0       0       0       0       0
  7716 ;;      Totals:         0       0       0       0       0
  7717 ;;Total ram usage:        0 bytes
  7718 ;; Hardware stack levels used:    1
  7719 ;; Hardware stack levels required when called:    5
  7720 ;; This function calls:
  7721 ;;		_delay
  7722 ;; This function is called by:
  7723 ;;		_Set_EEPROM_Data
  7724 ;;		_e2pext_r
  7725 ;;		_e2pext_w
  7726 ;; This function uses a non-reentrant model
  7727 ;;
  7728                           
  7729                           
  7730                           ;psect for function _i2c_start
  7731  089C                     _i2c_start:
  7732  089C                     l3431:	
  7733                           ;incstack = 0
  7734 ;; hardware stack exceeded
  7735                           ; Regs used in _i2c_start: [status,2+status,0+pclath+cstack]
  7736                           
  7737                           
  7738                           ;I2C/I2C.c: 27:   PORTCbits.RC3=1;
  7739  089C  1283               	bcf	3,5	;RP0=0, select bank0
  7740  089D  1303               	bcf	3,6	;RP1=0, select bank0
  7741  089E  1587               	bsf	7,3	;volatile
  7742                           
  7743                           ;I2C/I2C.c: 28:   PORTCbits.RC4=1;
  7744  089F  1607               	bsf	7,4	;volatile
  7745  08A0                     l3433:
  7746                           
  7747                           ;I2C/I2C.c: 29:   delay();
  7748  08A0  120A  158A  201F  120A  158A  	fcall	_delay
  7749  08A5                     l3435:
  7750                           
  7751                           ;I2C/I2C.c: 30:   PORTCbits.RC4=0;
  7752  08A5  1283               	bcf	3,5	;RP0=0, select bank0
  7753  08A6  1303               	bcf	3,6	;RP1=0, select bank0
  7754  08A7  1207               	bcf	7,4	;volatile
  7755                           
  7756                           ;I2C/I2C.c: 31:   delay();
  7757  08A8  120A  158A  201F  120A  158A  	fcall	_delay
  7758  08AD                     l408:
  7759  08AD  0008               	return
  7760  08AE                     __end_of_i2c_start:
  7761                           
  7762                           	psect	text38
  7763  079D                     __ptext38:	
  7764 ;; *************** function _i2c_rb *****************
  7765 ;; Defined at:
  7766 ;;		line 61 in file "I2C/I2C.c"
  7767 ;; Parameters:    Size  Location     Type
  7768 ;;  ack             1    wreg     unsigned char 
  7769 ;; Auto vars:     Size  Location     Type
  7770 ;;  ack             1    0[BANK1 ] unsigned char 
  7771 ;;  i               1    2[BANK1 ] unsigned char 
  7772 ;;  ret             1    1[BANK1 ] unsigned char 
  7773 ;; Return value:  Size  Location     Type
  7774 ;;                  1    wreg      unsigned char 
  7775 ;; Registers used:
  7776 ;;		wreg, status,2, status,0, btemp+1, pclath, cstack
  7777 ;; Tracked objects:
  7778 ;;		On entry : 0/0
  7779 ;;		On exit  : 0/0
  7780 ;;		Unchanged: 0/0
  7781 ;; Data sizes:     COMMON   BANK0   BANK1   BANK3   BANK2
  7782 ;;      Params:         0       0       0       0       0
  7783 ;;      Locals:         0       0       3       0       0
  7784 ;;      Temps:          0       1       0       0       0
  7785 ;;      Totals:         0       1       3       0       0
  7786 ;;Total ram usage:        4 bytes
  7787 ;; Hardware stack levels used:    1
  7788 ;; Hardware stack levels required when called:    5
  7789 ;; This function calls:
  7790 ;;		_delay
  7791 ;; This function is called by:
  7792 ;;		_e2pext_r
  7793 ;; This function uses a non-reentrant model
  7794 ;;
  7795                           
  7796                           
  7797                           ;psect for function _i2c_rb
  7798  079D                     _i2c_rb:
  7799                           
  7800                           ;incstack = 0
  7801 ;; hardware stack exceeded
  7802                           ; Regs used in _i2c_rb: [wreg+status,2+status,0+btemp+1+pclath+cstack]
  7803                           ;i2c_rb@ack stored from wreg
  7804  079D  1683               	bsf	3,5	;RP0=1, select bank1
  7805  079E  1303               	bcf	3,6	;RP1=0, select bank1
  7806  079F  00A0               	movwf	i2c_rb@ack^(0+128)
  7807  07A0                     l3469:
  7808                           
  7809                           ;I2C/I2C.c: 61: unsigned char i2c_rb(unsigned char ack);I2C/I2C.c: 62: {;I2C/I2C.c: 63: 
      +                            char i;;I2C/I2C.c: 64:   unsigned char ret=0;
  7810  07A0  01A1               	clrf	i2c_rb@ret^(0+128)
  7811  07A1                     l3471:
  7812                           
  7813                           ;I2C/I2C.c: 66:   PORTCbits.RC3=0;
  7814  07A1  1283               	bcf	3,5	;RP0=0, select bank0
  7815  07A2  1303               	bcf	3,6	;RP1=0, select bank0
  7816  07A3  1187               	bcf	7,3	;volatile
  7817  07A4                     l3473:
  7818                           
  7819                           ;I2C/I2C.c: 67:   TRISCbits.TRISC4=1;
  7820  07A4  1683               	bsf	3,5	;RP0=1, select bank1
  7821  07A5  1303               	bcf	3,6	;RP1=0, select bank1
  7822  07A6  1607               	bsf	7,4	;volatile
  7823  07A7                     l3475:
  7824                           
  7825                           ;I2C/I2C.c: 68:   PORTCbits.RC4=1;
  7826  07A7  1283               	bcf	3,5	;RP0=0, select bank0
  7827  07A8  1303               	bcf	3,6	;RP1=0, select bank0
  7828  07A9  1607               	bsf	7,4	;volatile
  7829                           
  7830                           ;I2C/I2C.c: 69:   for(i=0;i<8;i++)
  7831  07AA  1683               	bsf	3,5	;RP0=1, select bank1
  7832  07AB  1303               	bcf	3,6	;RP1=0, select bank1
  7833  07AC  01A2               	clrf	i2c_rb@i^(0+128)
  7834  07AD                     l419:
  7835                           
  7836                           ;I2C/I2C.c: 70:   {;I2C/I2C.c: 71:     PORTCbits.RC3=1;
  7837  07AD  1283               	bcf	3,5	;RP0=0, select bank0
  7838  07AE  1303               	bcf	3,6	;RP1=0, select bank0
  7839  07AF  1587               	bsf	7,3	;volatile
  7840  07B0                     l3481:
  7841                           
  7842                           ;I2C/I2C.c: 72:     delay();
  7843  07B0  120A  158A  201F  120A  118A  	fcall	_delay
  7844  07B5                     l3483:
  7845                           
  7846                           ;I2C/I2C.c: 73:     ret|=(PORTCbits.RC4<<(7-i));
  7847  07B5  1283               	bcf	3,5	;RP0=0, select bank0
  7848  07B6  1303               	bcf	3,6	;RP1=0, select bank0
  7849  07B7  0E07               	swapf	7,w	;volatile
  7850  07B8  3901               	andlw	1
  7851  07B9  00BA               	movwf	??_i2c_rb
  7852  07BA  1683               	bsf	3,5	;RP0=1, select bank1
  7853  07BB  1303               	bcf	3,6	;RP1=0, select bank1
  7854  07BC  0822               	movf	i2c_rb@i^(0+128),w
  7855  07BD  3C07               	sublw	7
  7856  07BE  3E01               	addlw	1
  7857  07BF  1283               	bcf	3,5	;RP0=0, select bank0
  7858  07C0  1303               	bcf	3,6	;RP1=0, select bank0
  7859  07C1  2FC4               	goto	u4754
  7860  07C2                     u4755:
  7861  07C2  1003               	clrc
  7862  07C3  0DBA               	rlf	??_i2c_rb,f
  7863  07C4                     u4754:
  7864  07C4  3EFF               	addlw	-1
  7865  07C5  1D03               	skipz
  7866  07C6  2FC2               	goto	u4755
  7867  07C7  083A               	movf	??_i2c_rb,w
  7868  07C8  00FF               	movwf	btemp+1
  7869  07C9  087F               	movf	btemp+1,w
  7870  07CA  1683               	bsf	3,5	;RP0=1, select bank1
  7871  07CB  1303               	bcf	3,6	;RP1=0, select bank1
  7872  07CC  04A1               	iorwf	i2c_rb@ret^(0+128),f
  7873  07CD                     l3485:
  7874                           
  7875                           ;I2C/I2C.c: 74:     PORTCbits.RC3=0;
  7876  07CD  1283               	bcf	3,5	;RP0=0, select bank0
  7877  07CE  1303               	bcf	3,6	;RP1=0, select bank0
  7878  07CF  1187               	bcf	7,3	;volatile
  7879  07D0                     l3487:
  7880                           
  7881                           ;I2C/I2C.c: 75:   }
  7882  07D0  3001               	movlw	1
  7883  07D1  00FF               	movwf	btemp+1
  7884  07D2  087F               	movf	btemp+1,w
  7885  07D3  1683               	bsf	3,5	;RP0=1, select bank1
  7886  07D4  1303               	bcf	3,6	;RP1=0, select bank1
  7887  07D5  07A2               	addwf	i2c_rb@i^(0+128),f
  7888  07D6                     l3489:
  7889  07D6  3008               	movlw	8
  7890  07D7  0222               	subwf	i2c_rb@i^(0+128),w
  7891  07D8  1C03               	skipc
  7892  07D9  2FDB               	goto	u4761
  7893  07DA  2FDC               	goto	u4760
  7894  07DB                     u4761:
  7895  07DB  2FAD               	goto	l419
  7896  07DC                     u4760:
  7897  07DC                     l420:
  7898                           
  7899                           ;I2C/I2C.c: 76:   TRISCbits.TRISC4=0;
  7900  07DC  1207               	bcf	7,4	;volatile
  7901  07DD                     l3491:
  7902                           
  7903                           ;I2C/I2C.c: 77:   if(ack)
  7904  07DD  0820               	movf	i2c_rb@ack^(0+128),w
  7905  07DE  1903               	btfsc	3,2
  7906  07DF  2FE1               	goto	u4771
  7907  07E0  2FE2               	goto	u4770
  7908  07E1                     u4771:
  7909  07E1  2FE6               	goto	l421
  7910  07E2                     u4770:
  7911  07E2                     l3493:
  7912                           
  7913                           ;I2C/I2C.c: 78:     PORTCbits.RC4=0;
  7914  07E2  1283               	bcf	3,5	;RP0=0, select bank0
  7915  07E3  1303               	bcf	3,6	;RP1=0, select bank0
  7916  07E4  1207               	bcf	7,4	;volatile
  7917  07E5  2FE9               	goto	l3495
  7918  07E6                     l421:	
  7919                           ;I2C/I2C.c: 79:   else
  7920                           
  7921                           
  7922                           ;I2C/I2C.c: 80:  PORTCbits.RC4=1;
  7923  07E6  1283               	bcf	3,5	;RP0=0, select bank0
  7924  07E7  1303               	bcf	3,6	;RP1=0, select bank0
  7925  07E8  1607               	bsf	7,4	;volatile
  7926  07E9                     l3495:
  7927                           
  7928                           ;I2C/I2C.c: 81:   delay();
  7929  07E9  120A  158A  201F  120A  118A  	fcall	_delay
  7930  07EE                     l3497:
  7931                           
  7932                           ;I2C/I2C.c: 82:   PORTCbits.RC3=1;
  7933  07EE  1283               	bcf	3,5	;RP0=0, select bank0
  7934  07EF  1303               	bcf	3,6	;RP1=0, select bank0
  7935  07F0  1587               	bsf	7,3	;volatile
  7936                           
  7937                           ;I2C/I2C.c: 83:   delay();
  7938  07F1  120A  158A  201F  120A  118A  	fcall	_delay
  7939  07F6                     l3499:
  7940                           
  7941                           ;I2C/I2C.c: 84:   PORTCbits.RC3=0;
  7942  07F6  1283               	bcf	3,5	;RP0=0, select bank0
  7943  07F7  1303               	bcf	3,6	;RP1=0, select bank0
  7944  07F8  1187               	bcf	7,3	;volatile
  7945  07F9                     l3501:
  7946                           
  7947                           ;I2C/I2C.c: 86:   return ret;
  7948  07F9  1683               	bsf	3,5	;RP0=1, select bank1
  7949  07FA  1303               	bcf	3,6	;RP1=0, select bank1
  7950  07FB  0821               	movf	i2c_rb@ret^(0+128),w
  7951  07FC                     l423:
  7952  07FC  0008               	return
  7953  07FD                     __end_of_i2c_rb:
  7954                           
  7955                           	psect	text39
  7956  081F                     __ptext39:	
  7957 ;; *************** function _delay *****************
  7958 ;; Defined at:
  7959 ;;		line 4 in file "I2C/I2C.c"
  7960 ;; Parameters:    Size  Location     Type
  7961 ;;		None
  7962 ;; Auto vars:     Size  Location     Type
  7963 ;;		None
  7964 ;; Return value:  Size  Location     Type
  7965 ;;                  1    wreg      void 
  7966 ;; Registers used:
  7967 ;;		None
  7968 ;; Tracked objects:
  7969 ;;		On entry : 0/0
  7970 ;;		On exit  : 0/0
  7971 ;;		Unchanged: 0/0
  7972 ;; Data sizes:     COMMON   BANK0   BANK1   BANK3   BANK2
  7973 ;;      Params:         0       0       0       0       0
  7974 ;;      Locals:         0       0       0       0       0
  7975 ;;      Temps:          0       0       0       0       0
  7976 ;;      Totals:         0       0       0       0       0
  7977 ;;Total ram usage:        0 bytes
  7978 ;; Hardware stack levels used:    1
  7979 ;; Hardware stack levels required when called:    4
  7980 ;; This function calls:
  7981 ;;		Nothing
  7982 ;; This function is called by:
  7983 ;;		_i2c_start
  7984 ;;		_i2c_stop
  7985 ;;		_i2c_wb
  7986 ;;		_i2c_rb
  7987 ;; This function uses a non-reentrant model
  7988 ;;
  7989                           
  7990                           
  7991                           ;psect for function _delay
  7992  081F                     _delay:
  7993  081F                     l3191:	
  7994                           ;incstack = 0
  7995 ;; hardware stack exceeded
  7996                           ; Regs used in _delay: []
  7997                           
  7998  081F  0000               	nop	;# 
  7999  0820  0000               	nop	;# 
  8000  0821  0000               	nop	;# 
  8001  0822  0000               	nop	;# 
  8002  0823  0000               	nop	;# 
  8003  0824  0000               	nop	;# 
  8004  0825  0000               	nop	;# 
  8005  0826  0000               	nop	;# 
  8006  0827  0000               	nop	;# 
  8007  0828                     l405:
  8008  0828  0008               	return
  8009  0829                     __end_of_delay:
  8010                           
  8011                           	psect	text40
  8012  0964                     __ptext40:	
  8013 ;; *************** function _GPIO_Init *****************
  8014 ;; Defined at:
  8015 ;;		line 12 in file "gpio/gpio.c"
  8016 ;; Parameters:    Size  Location     Type
  8017 ;;		None
  8018 ;; Auto vars:     Size  Location     Type
  8019 ;;		None
  8020 ;; Return value:  Size  Location     Type
  8021 ;;                  1    wreg      void 
  8022 ;; Registers used:
  8023 ;;		wreg, status,2, status,0, btemp+1
  8024 ;; Tracked objects:
  8025 ;;		On entry : 0/0
  8026 ;;		On exit  : 0/0
  8027 ;;		Unchanged: 0/0
  8028 ;; Data sizes:     COMMON   BANK0   BANK1   BANK3   BANK2
  8029 ;;      Params:         0       0       0       0       0
  8030 ;;      Locals:         0       0       0       0       0
  8031 ;;      Temps:          0       0       0       0       0
  8032 ;;      Totals:         0       0       0       0       0
  8033 ;;Total ram usage:        0 bytes
  8034 ;; Hardware stack levels used:    1
  8035 ;; Hardware stack levels required when called:    4
  8036 ;; This function calls:
  8037 ;;		Nothing
  8038 ;; This function is called by:
  8039 ;;		_main
  8040 ;; This function uses a non-reentrant model
  8041 ;;
  8042                           
  8043                           
  8044                           ;psect for function _GPIO_Init
  8045  0964                     _GPIO_Init:
  8046  0964                     l2943:	
  8047                           ;incstack = 0
  8048                           ; Regs used in _GPIO_Init: [wreg+status,2+status,0+btemp+1]
  8049                           
  8050  0964  30DF               	movlw	223
  8051  0965  00FF               	movwf	btemp+1
  8052  0966  087F               	movf	btemp+1,w
  8053  0967  1683               	bsf	3,5	;RP0=1, select bank1
  8054  0968  1303               	bcf	3,6	;RP1=0, select bank1
  8055  0969  0587               	andwf	7,f	;volatile
  8056  096A                     l2945:
  8057  096A  30FB               	movlw	251
  8058  096B  00FF               	movwf	btemp+1
  8059  096C  087F               	movf	btemp+1,w
  8060  096D  0587               	andwf	7,f	;volatile
  8061  096E                     l2947:
  8062  096E  30EF               	movlw	239
  8063  096F  00FF               	movwf	btemp+1
  8064  0970  087F               	movf	btemp+1,w
  8065  0971  0586               	andwf	6,f	;volatile
  8066  0972                     l2949:
  8067  0972  30DF               	movlw	223
  8068  0973  00FF               	movwf	btemp+1
  8069  0974  087F               	movf	btemp+1,w
  8070  0975  0585               	andwf	5,f	;volatile
  8071  0976                     l2951:
  8072  0976  30EF               	movlw	239
  8073  0977  00FF               	movwf	btemp+1
  8074  0978  087F               	movf	btemp+1,w
  8075  0979  0585               	andwf	5,f	;volatile
  8076  097A                     l239:
  8077  097A  1486               	bsf	6,1	;volatile
  8078  097B                     l243:
  8079  097B  1506               	bsf	6,2	;volatile
  8080  097C                     l247:
  8081  097C  1406               	bsf	6,0	;volatile
  8082  097D                     l251:
  8083  097D  1505               	bsf	5,2	;volatile
  8084  097E                     l2961:
  8085  097E  30F7               	movlw	247
  8086  097F  00FF               	movwf	btemp+1
  8087  0980  087F               	movf	btemp+1,w
  8088  0981  0587               	andwf	7,f	;volatile
  8089  0982                     l259:
  8090  0982  1607               	bsf	7,4	;volatile
  8091  0983                     l2965:
  8092  0983  0188               	clrf	8	;volatile
  8093  0984                     l266:
  8094  0984  0008               	return
  8095  0985                     __end_of_GPIO_Init:
  8096                           
  8097                           	psect	text41
  8098  084E                     __ptext41:	
  8099 ;; *************** function _Elements_Init *****************
  8100 ;; Defined at:
  8101 ;;		line 11 in file "Elements/Elements.c"
  8102 ;; Parameters:    Size  Location     Type
  8103 ;;		None
  8104 ;; Auto vars:     Size  Location     Type
  8105 ;;		None
  8106 ;; Return value:  Size  Location     Type
  8107 ;;                  1    wreg      void 
  8108 ;; Registers used:
  8109 ;;		wreg, status,2, status,0, btemp+1
  8110 ;; Tracked objects:
  8111 ;;		On entry : 0/0
  8112 ;;		On exit  : 0/0
  8113 ;;		Unchanged: 0/0
  8114 ;; Data sizes:     COMMON   BANK0   BANK1   BANK3   BANK2
  8115 ;;      Params:         0       0       0       0       0
  8116 ;;      Locals:         0       0       0       0       0
  8117 ;;      Temps:          0       0       0       0       0
  8118 ;;      Totals:         0       0       0       0       0
  8119 ;;Total ram usage:        0 bytes
  8120 ;; Hardware stack levels used:    1
  8121 ;; Hardware stack levels required when called:    4
  8122 ;; This function calls:
  8123 ;;		Nothing
  8124 ;; This function is called by:
  8125 ;;		_main
  8126 ;; This function uses a non-reentrant model
  8127 ;;
  8128                           
  8129                           
  8130                           ;psect for function _Elements_Init
  8131  084E                     _Elements_Init:
  8132  084E                     l2975:	
  8133                           ;incstack = 0
  8134                           ; Regs used in _Elements_Init: [wreg+status,2+status,0+btemp+1]
  8135                           
  8136                           
  8137                           ;Elements/Elements.c: 13:  (PORTB &= ~(1<<4));
  8138  084E  30EF               	movlw	239
  8139  084F  00FF               	movwf	btemp+1
  8140  0850  087F               	movf	btemp+1,w
  8141  0851  1283               	bcf	3,5	;RP0=0, select bank0
  8142  0852  1303               	bcf	3,6	;RP1=0, select bank0
  8143  0853  0586               	andwf	6,f	;volatile
  8144                           
  8145                           ;Elements/Elements.c: 14:  (PORTC &= ~(1<<5));
  8146  0854  30DF               	movlw	223
  8147  0855  00FF               	movwf	btemp+1
  8148  0856  087F               	movf	btemp+1,w
  8149  0857  0587               	andwf	7,f	;volatile
  8150                           
  8151                           ;Elements/Elements.c: 15:  (PORTC &= ~(1<<2));
  8152  0858  30FB               	movlw	251
  8153  0859  00FF               	movwf	btemp+1
  8154  085A  087F               	movf	btemp+1,w
  8155  085B  0587               	andwf	7,f	;volatile
  8156  085C                     l182:
  8157  085C  0008               	return
  8158  085D                     __end_of_Elements_Init:
  8159                           
  8160                           	psect	text42
  8161  0841                     __ptext42:	
  8162 ;; *************** function _Display_Init *****************
  8163 ;; Defined at:
  8164 ;;		line 15 in file "Display/Display.c"
  8165 ;; Parameters:    Size  Location     Type
  8166 ;;		None
  8167 ;; Auto vars:     Size  Location     Type
  8168 ;;		None
  8169 ;; Return value:  Size  Location     Type
  8170 ;;                  1    wreg      void 
  8171 ;; Registers used:
  8172 ;;		wreg, status,2, status,0, btemp+1
  8173 ;; Tracked objects:
  8174 ;;		On entry : 0/0
  8175 ;;		On exit  : 0/0
  8176 ;;		Unchanged: 0/0
  8177 ;; Data sizes:     COMMON   BANK0   BANK1   BANK3   BANK2
  8178 ;;      Params:         0       0       0       0       0
  8179 ;;      Locals:         0       0       0       0       0
  8180 ;;      Temps:          0       0       0       0       0
  8181 ;;      Totals:         0       0       0       0       0
  8182 ;;Total ram usage:        0 bytes
  8183 ;; Hardware stack levels used:    1
  8184 ;; Hardware stack levels required when called:    4
  8185 ;; This function calls:
  8186 ;;		Nothing
  8187 ;; This function is called by:
  8188 ;;		_main
  8189 ;; This function uses a non-reentrant model
  8190 ;;
  8191                           
  8192                           
  8193                           ;psect for function _Display_Init
  8194  0841                     _Display_Init:
  8195  0841                     l2971:	
  8196                           ;incstack = 0
  8197                           ; Regs used in _Display_Init: [wreg+status,2+status,0+btemp+1]
  8198                           
  8199                           
  8200                           ;Display/Display.c: 17:  (PORTA &= ~(1<<5)) ;
  8201  0841  30DF               	movlw	223
  8202  0842  00FF               	movwf	btemp+1
  8203  0843  087F               	movf	btemp+1,w
  8204  0844  1283               	bcf	3,5	;RP0=0, select bank0
  8205  0845  1303               	bcf	3,6	;RP1=0, select bank0
  8206  0846  0585               	andwf	5,f	;volatile
  8207                           
  8208                           ;Display/Display.c: 18:  (PORTA &= ~(1<<4)) ;
  8209  0847  30EF               	movlw	239
  8210  0848  00FF               	movwf	btemp+1
  8211  0849  087F               	movf	btemp+1,w
  8212  084A  0585               	andwf	5,f	;volatile
  8213  084B                     l2973:
  8214                           
  8215                           ;Display/Display.c: 19:  PORTD=0b00111111;
  8216  084B  303F               	movlw	63
  8217  084C  0088               	movwf	8	;volatile
  8218  084D                     l124:
  8219  084D  0008               	return
  8220  084E                     __end_of_Display_Init:
  8221                           
  8222                           	psect	text43
  8223  0834                     __ptext43:	
  8224 ;; *************** function _ADC_Start_Conv *****************
  8225 ;; Defined at:
  8226 ;;		line 38 in file "ADC/ADC.c"
  8227 ;; Parameters:    Size  Location     Type
  8228 ;;		None
  8229 ;; Auto vars:     Size  Location     Type
  8230 ;;		None
  8231 ;; Return value:  Size  Location     Type
  8232 ;;                  1    wreg      void 
  8233 ;; Registers used:
  8234 ;;		None
  8235 ;; Tracked objects:
  8236 ;;		On entry : 0/0
  8237 ;;		On exit  : 0/0
  8238 ;;		Unchanged: 0/0
  8239 ;; Data sizes:     COMMON   BANK0   BANK1   BANK3   BANK2
  8240 ;;      Params:         0       0       0       0       0
  8241 ;;      Locals:         0       0       0       0       0
  8242 ;;      Temps:          0       0       0       0       0
  8243 ;;      Totals:         0       0       0       0       0
  8244 ;;Total ram usage:        0 bytes
  8245 ;; Hardware stack levels used:    1
  8246 ;; Hardware stack levels required when called:    4
  8247 ;; This function calls:
  8248 ;;		Nothing
  8249 ;; This function is called by:
  8250 ;;		_main
  8251 ;; This function uses a non-reentrant model
  8252 ;;
  8253                           
  8254                           
  8255                           ;psect for function _ADC_Start_Conv
  8256  0834                     _ADC_Start_Conv:
  8257  0834                     l2939:	
  8258                           ;incstack = 0
  8259                           ; Regs used in _ADC_Start_Conv: []
  8260                           
  8261                           
  8262                           ;ADC/ADC.c: 40:  if (ADC_Info.ADC_INIT_FLAG==1)
  8263  0834  1683               	bsf	3,5	;RP0=1, select bank1
  8264  0835  1303               	bcf	3,6	;RP1=0, select bank1
  8265  0836  1C5C               	btfss	_ADC_Info^(0+128),0
  8266  0837  2839               	goto	u3751
  8267  0838  283A               	goto	u3750
  8268  0839                     u3751:
  8269  0839  2840               	goto	l25
  8270  083A                     u3750:
  8271  083A                     l2941:
  8272                           
  8273                           ;ADC/ADC.c: 41:  {;ADC/ADC.c: 42:      ADCON0bits.GO_DONE=1 ;
  8274  083A  1283               	bcf	3,5	;RP0=0, select bank0
  8275  083B  1303               	bcf	3,6	;RP1=0, select bank0
  8276  083C  151F               	bsf	31,2	;volatile
  8277                           
  8278                           ;ADC/ADC.c: 43:      ADC_Info.ADC_START_FLAG=1;
  8279  083D  1683               	bsf	3,5	;RP0=1, select bank1
  8280  083E  1303               	bcf	3,6	;RP1=0, select bank1
  8281  083F  14DC               	bsf	_ADC_Info^(0+128),1
  8282  0840                     l25:
  8283  0840  0008               	return
  8284  0841                     __end_of_ADC_Start_Conv:
  8285                           
  8286                           	psect	text44
  8287  08EC                     __ptext44:	
  8288 ;; *************** function _ADC_Init *****************
  8289 ;; Defined at:
  8290 ;;		line 13 in file "ADC/ADC.c"
  8291 ;; Parameters:    Size  Location     Type
  8292 ;;		None
  8293 ;; Auto vars:     Size  Location     Type
  8294 ;;		None
  8295 ;; Return value:  Size  Location     Type
  8296 ;;                  1    wreg      void 
  8297 ;; Registers used:
  8298 ;;		None
  8299 ;; Tracked objects:
  8300 ;;		On entry : 0/0
  8301 ;;		On exit  : 0/0
  8302 ;;		Unchanged: 0/0
  8303 ;; Data sizes:     COMMON   BANK0   BANK1   BANK3   BANK2
  8304 ;;      Params:         0       0       0       0       0
  8305 ;;      Locals:         0       0       0       0       0
  8306 ;;      Temps:          0       0       0       0       0
  8307 ;;      Totals:         0       0       0       0       0
  8308 ;;Total ram usage:        0 bytes
  8309 ;; Hardware stack levels used:    1
  8310 ;; Hardware stack levels required when called:    4
  8311 ;; This function calls:
  8312 ;;		Nothing
  8313 ;; This function is called by:
  8314 ;;		_main
  8315 ;; This function uses a non-reentrant model
  8316 ;;
  8317                           
  8318                           
  8319                           ;psect for function _ADC_Init
  8320  08EC                     _ADC_Init:
  8321  08EC                     l2937:	
  8322                           ;incstack = 0
  8323                           ; Regs used in _ADC_Init: []
  8324                           
  8325                           
  8326                           ;ADC/ADC.c: 16:     ADCON1bits.ADFM=1;
  8327  08EC  1683               	bsf	3,5	;RP0=1, select bank1
  8328  08ED  1303               	bcf	3,6	;RP1=0, select bank1
  8329  08EE  179F               	bsf	31,7	;volatile
  8330                           
  8331                           ;ADC/ADC.c: 18:     ADCON0bits.ADCS0=1 ;
  8332  08EF  1283               	bcf	3,5	;RP0=0, select bank0
  8333  08F0  1303               	bcf	3,6	;RP1=0, select bank0
  8334  08F1  171F               	bsf	31,6	;volatile
  8335                           
  8336                           ;ADC/ADC.c: 19:     ADCON0bits.ADCS1=0;
  8337  08F2  139F               	bcf	31,7	;volatile
  8338                           
  8339                           ;ADC/ADC.c: 20:     ADCON1bits.ADCS2=1 ;
  8340  08F3  1683               	bsf	3,5	;RP0=1, select bank1
  8341  08F4  1303               	bcf	3,6	;RP1=0, select bank1
  8342  08F5  171F               	bsf	31,6	;volatile
  8343                           
  8344                           ;ADC/ADC.c: 23:     ADCON0bits.CHS0=0;
  8345  08F6  1283               	bcf	3,5	;RP0=0, select bank0
  8346  08F7  1303               	bcf	3,6	;RP1=0, select bank0
  8347  08F8  119F               	bcf	31,3	;volatile
  8348                           
  8349                           ;ADC/ADC.c: 24:     ADCON0bits.CHS1=1;
  8350  08F9  161F               	bsf	31,4	;volatile
  8351                           
  8352                           ;ADC/ADC.c: 25:     ADCON0bits.CHS2=0;
  8353  08FA  129F               	bcf	31,5	;volatile
  8354                           
  8355                           ;ADC/ADC.c: 28:     ADCON1bits.PCFG0=0;
  8356  08FB  1683               	bsf	3,5	;RP0=1, select bank1
  8357  08FC  1303               	bcf	3,6	;RP1=0, select bank1
  8358  08FD  101F               	bcf	31,0	;volatile
  8359                           
  8360                           ;ADC/ADC.c: 29:     ADCON1bits.PCFG1=1;
  8361  08FE  149F               	bsf	31,1	;volatile
  8362                           
  8363                           ;ADC/ADC.c: 30:     ADCON1bits.PCFG2=0;
  8364  08FF  111F               	bcf	31,2	;volatile
  8365                           
  8366                           ;ADC/ADC.c: 31:     ADCON1bits.PCFG3=0;
  8367  0900  119F               	bcf	31,3	;volatile
  8368                           
  8369                           ;ADC/ADC.c: 33:     ADCON0bits.ADON=1;
  8370  0901  1283               	bcf	3,5	;RP0=0, select bank0
  8371  0902  1303               	bcf	3,6	;RP1=0, select bank0
  8372  0903  141F               	bsf	31,0	;volatile
  8373                           
  8374                           ;ADC/ADC.c: 34:     ADCON0bits.GO_DONE=0;
  8375  0904  111F               	bcf	31,2	;volatile
  8376                           
  8377                           ;ADC/ADC.c: 35:     ADC_Info.ADC_INIT_FLAG=1;
  8378  0905  1683               	bsf	3,5	;RP0=1, select bank1
  8379  0906  1303               	bcf	3,6	;RP1=0, select bank1
  8380  0907  145C               	bsf	_ADC_Info^(0+128),0
  8381  0908                     l21:
  8382  0908  0008               	return
  8383  0909                     __end_of_ADC_Init:
  8384                           
  8385                           	psect	text45
  8386  09A7                     __ptext45:	
  8387 ;; *************** function _myISR *****************
  8388 ;; Defined at:
  8389 ;;		line 11 in file "Interrupt/Interrupt.c"
  8390 ;; Parameters:    Size  Location     Type
  8391 ;;		None
  8392 ;; Auto vars:     Size  Location     Type
  8393 ;;		None
  8394 ;; Return value:  Size  Location     Type
  8395 ;;                  1    wreg      void 
  8396 ;; Registers used:
  8397 ;;		wreg, fsr0l, fsr0h, status,2, status,0, btemp+1, pclath, cstack
  8398 ;; Tracked objects:
  8399 ;;		On entry : 0/0
  8400 ;;		On exit  : 0/0
  8401 ;;		Unchanged: 0/0
  8402 ;; Data sizes:     COMMON   BANK0   BANK1   BANK3   BANK2
  8403 ;;      Params:         0       0       0       0       0
  8404 ;;      Locals:         0       0       0       0       0
  8405 ;;      Temps:          0       4       0       0       0
  8406 ;;      Totals:         0       4       0       0       0
  8407 ;;Total ram usage:        4 bytes
  8408 ;; Hardware stack levels used:    1
  8409 ;; Hardware stack levels required when called:    3
  8410 ;; This function calls:
  8411 ;;		_EXTI_On_Off_CallBack
  8412 ;;		_Timer0_CallBack
  8413 ;; This function is called by:
  8414 ;;		Interrupt level 1
  8415 ;; This function uses a non-reentrant model
  8416 ;;
  8417                           
  8418                           
  8419                           ;psect for function _myISR
  8420  09A7                     _myISR:
  8421  09A7                     i1l3939:
  8422                           
  8423                           ;Interrupt/Interrupt.c: 13:  if(INTCONbits.INTF)
  8424  09A7  1C8B               	btfss	11,1	;volatile
  8425  09A8  29AA               	goto	u557_21
  8426  09A9  29AB               	goto	u557_20
  8427  09AA                     u557_21:
  8428  09AA  29B2               	goto	i1l279
  8429  09AB                     u557_20:
  8430  09AB                     i1l3941:
  8431                           
  8432                           ;Interrupt/Interrupt.c: 14:  {;Interrupt/Interrupt.c: 15:         INTCONbits.INTF=0;
  8433  09AB  108B               	bcf	11,1	;volatile
  8434  09AC                     i1l3943:
  8435                           
  8436                           ;Interrupt/Interrupt.c: 16:   EXTI_On_Off_CallBack();
  8437  09AC  120A  158A  20D5  120A  158A  	fcall	_EXTI_On_Off_CallBack
  8438                           
  8439                           ;Interrupt/Interrupt.c: 18:  }
  8440  09B1  29BE               	goto	i1l282
  8441  09B2                     i1l279:	
  8442                           ;Interrupt/Interrupt.c: 19:  else if(INTCONbits.TMR0IF)
  8443                           
  8444  09B2  1D0B               	btfss	11,2	;volatile
  8445  09B3  29B5               	goto	u558_21
  8446  09B4  29B6               	goto	u558_20
  8447  09B5                     u558_21:
  8448  09B5  29BE               	goto	i1l282
  8449  09B6                     u558_20:
  8450  09B6                     i1l3945:
  8451                           
  8452                           ;Interrupt/Interrupt.c: 20:  {;Interrupt/Interrupt.c: 21:         INTCONbits.TMR0IF=0;
  8453  09B6  110B               	bcf	11,2	;volatile
  8454  09B7                     i1l3947:
  8455                           
  8456                           ;Interrupt/Interrupt.c: 22:         TMR0=100;
  8457  09B7  3064               	movlw	100
  8458  09B8  0081               	movwf	1	;volatile
  8459  09B9                     i1l3949:
  8460                           
  8461                           ;Interrupt/Interrupt.c: 23:   Timer0_CallBack();
  8462  09B9  120A  158A  2109  120A  158A  	fcall	_Timer0_CallBack
  8463  09BE                     i1l282:
  8464  09BE  1283               	bcf	3,5	;RP0=0, select bank0
  8465  09BF  1303               	bcf	3,6	;RP1=0, select bank0
  8466  09C0  0839               	movf	??_myISR+3,w
  8467  09C1  00FF               	movwf	btemp+1
  8468  09C2  0838               	movf	??_myISR+2,w
  8469  09C3  008A               	movwf	10
  8470  09C4  0837               	movf	??_myISR+1,w
  8471  09C5  0084               	movwf	4
  8472  09C6  0E36               	swapf	??_myISR^0,w
  8473  09C7  0083               	movwf	3
  8474  09C8  0EFE               	swapf	btemp,f
  8475  09C9  0E7E               	swapf	btemp,w
  8476  09CA  0009               	retfie
  8477  09CB                     __end_of_myISR:
  8478                           
  8479                           	psect	intentry
  8480  0004                     __pintentry:	
  8481                           ;incstack = 0
  8482 ;; hardware stack exceeded
  8483                           ; Regs used in _myISR: [wreg-fsr0h+status,2+status,0+btemp+1+pclath+cstack]
  8484                           
  8485  0004                     interrupt_function:
  8486  007E                     saved_w	set	btemp
  8487  0004  00FE               	movwf	btemp
  8488  0005  0E03               	swapf	3,w
  8489  0006  1283               	bcf	3,5	;RP0=0, select bank0
  8490  0007  1303               	bcf	3,6	;RP1=0, select bank0
  8491  0008  00B6               	movwf	??_myISR
  8492  0009  0804               	movf	4,w
  8493  000A  00B7               	movwf	??_myISR+1
  8494  000B  080A               	movf	10,w
  8495  000C  00B8               	movwf	??_myISR+2
  8496  000D  087F               	movf	btemp+1,w
  8497  000E  00B9               	movwf	??_myISR+3
  8498  000F  120A  158A  29A7   	ljmp	_myISR
  8499                           
  8500                           	psect	text46
  8501  0909                     __ptext46:	
  8502 ;; *************** function _Timer0_CallBack *****************
  8503 ;; Defined at:
  8504 ;;		line 31 in file "Timer/Timer.c"
  8505 ;; Parameters:    Size  Location     Type
  8506 ;;		None
  8507 ;; Auto vars:     Size  Location     Type
  8508 ;;		None
  8509 ;; Return value:  Size  Location     Type
  8510 ;;                  1    wreg      void 
  8511 ;; Registers used:
  8512 ;;		wreg, fsr0l, fsr0h, status,2, status,0, btemp+1, pclath, cstack
  8513 ;; Tracked objects:
  8514 ;;		On entry : 0/0
  8515 ;;		On exit  : 0/0
  8516 ;;		Unchanged: 0/0
  8517 ;; Data sizes:     COMMON   BANK0   BANK1   BANK3   BANK2
  8518 ;;      Params:         0       0       0       0       0
  8519 ;;      Locals:         0       0       0       0       0
  8520 ;;      Temps:          0       0       0       0       0
  8521 ;;      Totals:         0       0       0       0       0
  8522 ;;Total ram usage:        0 bytes
  8523 ;; Hardware stack levels used:    1
  8524 ;; Hardware stack levels required when called:    2
  8525 ;; This function calls:
  8526 ;;		_Scheduler_ActivateTask
  8527 ;; This function is called by:
  8528 ;;		_myISR
  8529 ;; This function uses a non-reentrant model
  8530 ;;
  8531                           
  8532                           
  8533                           ;psect for function _Timer0_CallBack
  8534  0909                     _Timer0_CallBack:
  8535  0909                     i1l3919:	
  8536                           ;incstack = 0
  8537 ;; hardware stack exceeded
  8538                           ; Regs used in _Timer0_CallBack: [wreg-fsr0h+status,2+status,0+btemp+1+pclath+cstack]
  8539                           
  8540                           
  8541                           ;Timer/Timer.c: 33:  Tick_Num++;
  8542  0909  3001               	movlw	1
  8543  090A  1283               	bcf	3,5	;RP0=0, select bank0
  8544  090B  1303               	bcf	3,6	;RP1=0, select bank0
  8545  090C  07BB               	addwf	_Tick_Num,f
  8546  090D  3000               	movlw	0
  8547  090E  1803               	skipnc
  8548  090F  3001               	movlw	1
  8549  0910  07BC               	addwf	_Tick_Num+1,f
  8550  0911  3000               	movlw	0
  8551  0912  1803               	skipnc
  8552  0913  3001               	movlw	1
  8553  0914  07BD               	addwf	_Tick_Num+2,f
  8554  0915  3000               	movlw	0
  8555  0916  1803               	skipnc
  8556  0917  3001               	movlw	1
  8557  0918  07BE               	addwf	_Tick_Num+3,f
  8558  0919                     i1l3921:
  8559                           
  8560                           ;Timer/Timer.c: 34:  Scheduler_ActivateTask(Tick_Num );
  8561  0919  083E               	movf	_Tick_Num+3,w
  8562  091A  00B0               	movwf	Scheduler_ActivateTask@SystemTick+3
  8563  091B  083D               	movf	_Tick_Num+2,w
  8564  091C  00AF               	movwf	Scheduler_ActivateTask@SystemTick+2
  8565  091D  083C               	movf	_Tick_Num+1,w
  8566  091E  00AE               	movwf	Scheduler_ActivateTask@SystemTick+1
  8567  091F  083B               	movf	_Tick_Num,w
  8568  0920  00AD               	movwf	Scheduler_ActivateTask@SystemTick
  8569  0921  120A  158A  271C  120A  158A  	fcall	_Scheduler_ActivateTask
  8570  0926                     i1l373:
  8571  0926  0008               	return
  8572  0927                     __end_of_Timer0_CallBack:
  8573                           
  8574                           	psect	text47
  8575  0F1C                     __ptext47:	
  8576 ;; *************** function _Scheduler_ActivateTask *****************
  8577 ;; Defined at:
  8578 ;;		line 35 in file "Scheduler/Scheduler.c"
  8579 ;; Parameters:    Size  Location     Type
  8580 ;;  SystemTick      4   13[BANK0 ] unsigned long 
  8581 ;; Auto vars:     Size  Location     Type
  8582 ;;  IntityIndex     1   21[BANK0 ] unsigned char 
  8583 ;;  SystemTick_L    4   17[BANK0 ] unsigned long 
  8584 ;; Return value:  Size  Location     Type
  8585 ;;                  1    wreg      void 
  8586 ;; Registers used:
  8587 ;;		wreg, fsr0l, fsr0h, status,2, status,0, btemp+1, pclath, cstack
  8588 ;; Tracked objects:
  8589 ;;		On entry : 0/0
  8590 ;;		On exit  : 0/0
  8591 ;;		Unchanged: 0/0
  8592 ;; Data sizes:     COMMON   BANK0   BANK1   BANK3   BANK2
  8593 ;;      Params:         0       4       0       0       0
  8594 ;;      Locals:         0       5       0       0       0
  8595 ;;      Temps:          0       0       0       0       0
  8596 ;;      Totals:         0       9       0       0       0
  8597 ;;Total ram usage:        9 bytes
  8598 ;; Hardware stack levels used:    1
  8599 ;; Hardware stack levels required when called:    1
  8600 ;; This function calls:
  8601 ;;		___llmod
  8602 ;;		i1___bmul
  8603 ;;		i1___lldiv
  8604 ;; This function is called by:
  8605 ;;		_Timer0_CallBack
  8606 ;; This function uses a non-reentrant model
  8607 ;;
  8608                           
  8609                           
  8610                           ;psect for function _Scheduler_ActivateTask
  8611  0F1C                     _Scheduler_ActivateTask:
  8612  0F1C                     i1l3841:	
  8613                           ;incstack = 0
  8614 ;; hardware stack exceeded
  8615                           ; Regs used in _Scheduler_ActivateTask: [wreg-fsr0h+status,2+status,0+btemp+1+pclath+cst
      +                          ack]
  8616                           
  8617                           
  8618                           ;Scheduler/Scheduler.c: 35: void Scheduler_ActivateTask(uint32_t SystemTick);Scheduler/S
      +                          cheduler.c: 36: {;Scheduler/Scheduler.c: 37:   uint32_t SystemTick_Loc=SystemTick;
  8619  0F1C  1283               	bcf	3,5	;RP0=0, select bank0
  8620  0F1D  1303               	bcf	3,6	;RP1=0, select bank0
  8621  0F1E  0830               	movf	Scheduler_ActivateTask@SystemTick+3,w
  8622  0F1F  00B4               	movwf	Scheduler_ActivateTask@SystemTick_Loc+3
  8623  0F20  082F               	movf	Scheduler_ActivateTask@SystemTick+2,w
  8624  0F21  00B3               	movwf	Scheduler_ActivateTask@SystemTick_Loc+2
  8625  0F22  082E               	movf	Scheduler_ActivateTask@SystemTick+1,w
  8626  0F23  00B2               	movwf	Scheduler_ActivateTask@SystemTick_Loc+1
  8627  0F24  082D               	movf	Scheduler_ActivateTask@SystemTick,w
  8628  0F25  00B1               	movwf	Scheduler_ActivateTask@SystemTick_Loc
  8629  0F26                     i1l3843:
  8630                           
  8631                           ;Scheduler/Scheduler.c: 39:   for( uint8_t IntityIndex = 0 ; IntityIndex < ( 3U ) ; Inti
      +                          tyIndex++ )
  8632  0F26  01B5               	clrf	Scheduler_ActivateTask@IntityIndex
  8633  0F27                     i1l3849:
  8634                           
  8635                           ;Scheduler/Scheduler.c: 40:   {;Scheduler/Scheduler.c: 41:     if( ( ((SystemTick_Loc)%(
      +                          Scheduler_Intitys[IntityIndex].Peroid/(20UL)))?0:1 ) )
  8636  0F27  3000               	movlw	0
  8637  0F28  00F6               	movwf	i1___lldiv@divisor+3
  8638  0F29  3000               	movlw	0
  8639  0F2A  00F5               	movwf	i1___lldiv@divisor+2
  8640  0F2B  3000               	movlw	0
  8641  0F2C  00F4               	movwf	i1___lldiv@divisor+1
  8642  0F2D  3014               	movlw	20
  8643  0F2E  00F3               	movwf	i1___lldiv@divisor
  8644  0F2F  3005               	movlw	5
  8645  0F30  00FF               	movwf	btemp+1
  8646  0F31  087F               	movf	btemp+1,w
  8647  0F32  00F0               	movwf	i1___bmul@multiplicand
  8648  0F33  0835               	movf	Scheduler_ActivateTask@IntityIndex,w
  8649  0F34  120A  158A  20C0  120A  158A  	fcall	i1___bmul
  8650  0F39  3E02               	addlw	low (((_Scheduler_Intitys-__stringbase)| (0+32768)+1))
  8651  0F3A  0084               	movwf	4
  8652  0F3B  120A  158A  2000  120A  158A  	fcall	stringdir
  8653  0F40  00F7               	movwf	i1___lldiv@dividend
  8654  0F41  120A  158A  2000  120A  158A  	fcall	stringdir
  8655  0F46  00F8               	movwf	i1___lldiv@dividend+1
  8656  0F47  120A  158A  2000  120A  158A  	fcall	stringdir
  8657  0F4C  00F9               	movwf	i1___lldiv@dividend+2
  8658  0F4D  120A  158A  2000  120A  158A  	fcall	stringdir
  8659  0F52  00FA               	movwf	i1___lldiv@dividend+3
  8660  0F53  120A  158A  264B  120A  158A  	fcall	i1___lldiv
  8661  0F58  0876               	movf	?i1___lldiv+3,w
  8662  0F59  1283               	bcf	3,5	;RP0=0, select bank0
  8663  0F5A  1303               	bcf	3,6	;RP1=0, select bank0
  8664  0F5B  00A8               	movwf	___llmod@divisor+3
  8665  0F5C  0875               	movf	?i1___lldiv+2,w
  8666  0F5D  00A7               	movwf	___llmod@divisor+2
  8667  0F5E  0874               	movf	?i1___lldiv+1,w
  8668  0F5F  00A6               	movwf	___llmod@divisor+1
  8669  0F60  0873               	movf	?i1___lldiv,w
  8670  0F61  00A5               	movwf	___llmod@divisor
  8671  0F62  0834               	movf	Scheduler_ActivateTask@SystemTick_Loc+3,w
  8672  0F63  00AC               	movwf	___llmod@dividend+3
  8673  0F64  0833               	movf	Scheduler_ActivateTask@SystemTick_Loc+2,w
  8674  0F65  00AB               	movwf	___llmod@dividend+2
  8675  0F66  0832               	movf	Scheduler_ActivateTask@SystemTick_Loc+1,w
  8676  0F67  00AA               	movwf	___llmod@dividend+1
  8677  0F68  0831               	movf	Scheduler_ActivateTask@SystemTick_Loc,w
  8678  0F69  00A9               	movwf	___llmod@dividend
  8679  0F6A  120A  158A  2428  120A  158A  	fcall	___llmod
  8680  0F6F  1283               	bcf	3,5	;RP0=0, select bank0
  8681  0F70  1303               	bcf	3,6	;RP1=0, select bank0
  8682  0F71  0828               	movf	?___llmod+3,w
  8683  0F72  0427               	iorwf	?___llmod+2,w
  8684  0F73  0426               	iorwf	?___llmod+1,w
  8685  0F74  0425               	iorwf	?___llmod,w
  8686  0F75  1D03               	skipz
  8687  0F76  2F78               	goto	u546_21
  8688  0F77  2F79               	goto	u546_20
  8689  0F78                     u546_21:
  8690  0F78  2F7F               	goto	i1l3853
  8691  0F79                     u546_20:
  8692  0F79                     i1l3851:
  8693                           
  8694                           ;Scheduler/Scheduler.c: 42:     {;Scheduler/Scheduler.c: 43:      Scheduler_ActivationFl
      +                          ags[IntityIndex] = 1 ;
  8695  0F79  0835               	movf	Scheduler_ActivateTask@IntityIndex,w
  8696  0F7A  3EDD               	addlw	(low (_Scheduler_ActivationFlags| 0))& (0+255)
  8697  0F7B  0084               	movwf	4
  8698  0F7C  1383               	bcf	3,7	;select IRP bank1
  8699  0F7D  0180               	clrf	0
  8700  0F7E  0A80               	incf	0,f
  8701  0F7F                     i1l3853:
  8702                           
  8703                           ;Scheduler/Scheduler.c: 45:   }
  8704  0F7F  3001               	movlw	1
  8705  0F80  00FF               	movwf	btemp+1
  8706  0F81  087F               	movf	btemp+1,w
  8707  0F82  07B5               	addwf	Scheduler_ActivateTask@IntityIndex,f
  8708  0F83                     i1l3855:
  8709  0F83  3003               	movlw	3
  8710  0F84  0235               	subwf	Scheduler_ActivateTask@IntityIndex,w
  8711  0F85  1C03               	skipc
  8712  0F86  2F88               	goto	u547_21
  8713  0F87  2F89               	goto	u547_20
  8714  0F88                     u547_21:
  8715  0F88  2F27               	goto	i1l3849
  8716  0F89                     u547_20:
  8717  0F89                     i1l306:
  8718  0F89  0008               	return
  8719  0F8A                     __end_of_Scheduler_ActivateTask:
  8720                           
  8721                           	psect	text48
  8722  0E4B                     __ptext48:	
  8723 ;; *************** function i1___lldiv *****************
  8724 ;; Defined at:
  8725 ;;		line 5 in file "C:\Program Files (x86)\Microchip\xc8\v2.20\pic\sources\c90\common\__lldiv.c"
  8726 ;; Parameters:    Size  Location     Type
  8727 ;;  divisor         4    3[COMMON] unsigned long 
  8728 ;;  dividend        4    7[COMMON] unsigned long 
  8729 ;; Auto vars:     Size  Location     Type
  8730 ;;  quotient        4    0[BANK0 ] unsigned long 
  8731 ;;  counter         1    4[BANK0 ] unsigned char 
  8732 ;; Return value:  Size  Location     Type
  8733 ;;                  4    3[COMMON] unsigned long 
  8734 ;; Registers used:
  8735 ;;		wreg, status,2, status,0, btemp+1
  8736 ;; Tracked objects:
  8737 ;;		On entry : 0/0
  8738 ;;		On exit  : 0/0
  8739 ;;		Unchanged: 0/0
  8740 ;; Data sizes:     COMMON   BANK0   BANK1   BANK3   BANK2
  8741 ;;      Params:         8       0       0       0       0
  8742 ;;      Locals:         0       5       0       0       0
  8743 ;;      Temps:          1       0       0       0       0
  8744 ;;      Totals:         9       5       0       0       0
  8745 ;;Total ram usage:       14 bytes
  8746 ;; Hardware stack levels used:    1
  8747 ;; This function calls:
  8748 ;;		Nothing
  8749 ;; This function is called by:
  8750 ;;		_Scheduler_ActivateTask
  8751 ;; This function uses a non-reentrant model
  8752 ;;
  8753                           
  8754                           
  8755                           ;psect for function i1___lldiv
  8756  0E4B                     i1___lldiv:
  8757  0E4B                     i1l2847:	
  8758                           ;incstack = 0
  8759 ;; hardware stack exceeded
  8760                           ; Regs used in i1___lldiv: [wreg+status,2+status,0+btemp+1]
  8761                           
  8762  0E4B  3000               	movlw	0
  8763  0E4C  1283               	bcf	3,5	;RP0=0, select bank0
  8764  0E4D  1303               	bcf	3,6	;RP1=0, select bank0
  8765  0E4E  00A3               	movwf	i1___lldiv@quotient+3
  8766  0E4F  3000               	movlw	0
  8767  0E50  00A2               	movwf	i1___lldiv@quotient+2
  8768  0E51  3000               	movlw	0
  8769  0E52  00A1               	movwf	i1___lldiv@quotient+1
  8770  0E53  3000               	movlw	0
  8771  0E54  00A0               	movwf	i1___lldiv@quotient
  8772  0E55  0876               	movf	i1___lldiv@divisor+3,w
  8773  0E56  0475               	iorwf	i1___lldiv@divisor+2,w
  8774  0E57  0474               	iorwf	i1___lldiv@divisor+1,w
  8775  0E58  0473               	iorwf	i1___lldiv@divisor,w
  8776  0E59  1903               	skipnz
  8777  0E5A  2E5C               	goto	u361_21
  8778  0E5B  2E5D               	goto	u361_20
  8779  0E5C                     u361_21:
  8780  0E5C  2EAA               	goto	i1l2869
  8781  0E5D                     u361_20:
  8782  0E5D                     i1l2849:
  8783  0E5D  01A4               	clrf	i1___lldiv@counter
  8784  0E5E  0AA4               	incf	i1___lldiv@counter,f
  8785  0E5F  2E6D               	goto	i1l2855
  8786  0E60                     i1l2851:
  8787  0E60  3001               	movlw	1
  8788  0E61  00FB               	movwf	??i1___lldiv
  8789  0E62                     u362_25:
  8790  0E62  1003               	clrc
  8791  0E63  0DF3               	rlf	i1___lldiv@divisor,f
  8792  0E64  0DF4               	rlf	i1___lldiv@divisor+1,f
  8793  0E65  0DF5               	rlf	i1___lldiv@divisor+2,f
  8794  0E66  0DF6               	rlf	i1___lldiv@divisor+3,f
  8795  0E67  0BFB               	decfsz	??i1___lldiv,f
  8796  0E68  2E62               	goto	u362_25
  8797  0E69                     i1l2853:
  8798  0E69  3001               	movlw	1
  8799  0E6A  00FF               	movwf	btemp+1
  8800  0E6B  087F               	movf	btemp+1,w
  8801  0E6C  07A4               	addwf	i1___lldiv@counter,f
  8802  0E6D                     i1l2855:
  8803  0E6D  1FF6               	btfss	i1___lldiv@divisor+3,7
  8804  0E6E  2E70               	goto	u363_21
  8805  0E6F  2E71               	goto	u363_20
  8806  0E70                     u363_21:
  8807  0E70  2E60               	goto	i1l2851
  8808  0E71                     u363_20:
  8809  0E71                     i1l2857:
  8810  0E71  3001               	movlw	1
  8811  0E72  00FB               	movwf	??i1___lldiv
  8812  0E73                     u364_25:
  8813  0E73  1003               	clrc
  8814  0E74  0DA0               	rlf	i1___lldiv@quotient,f
  8815  0E75  0DA1               	rlf	i1___lldiv@quotient+1,f
  8816  0E76  0DA2               	rlf	i1___lldiv@quotient+2,f
  8817  0E77  0DA3               	rlf	i1___lldiv@quotient+3,f
  8818  0E78  0BFB               	decfsz	??i1___lldiv,f
  8819  0E79  2E73               	goto	u364_25
  8820  0E7A                     i1l2859:
  8821  0E7A  0876               	movf	i1___lldiv@divisor+3,w
  8822  0E7B  027A               	subwf	i1___lldiv@dividend+3,w
  8823  0E7C  1D03               	skipz
  8824  0E7D  2E88               	goto	u365_25
  8825  0E7E  0875               	movf	i1___lldiv@divisor+2,w
  8826  0E7F  0279               	subwf	i1___lldiv@dividend+2,w
  8827  0E80  1D03               	skipz
  8828  0E81  2E88               	goto	u365_25
  8829  0E82  0874               	movf	i1___lldiv@divisor+1,w
  8830  0E83  0278               	subwf	i1___lldiv@dividend+1,w
  8831  0E84  1D03               	skipz
  8832  0E85  2E88               	goto	u365_25
  8833  0E86  0873               	movf	i1___lldiv@divisor,w
  8834  0E87  0277               	subwf	i1___lldiv@dividend,w
  8835  0E88                     u365_25:
  8836  0E88  1C03               	skipc
  8837  0E89  2E8B               	goto	u365_21
  8838  0E8A  2E8C               	goto	u365_20
  8839  0E8B                     u365_21:
  8840  0E8B  2E9B               	goto	i1l2865
  8841  0E8C                     u365_20:
  8842  0E8C                     i1l2861:
  8843  0E8C  0873               	movf	i1___lldiv@divisor,w
  8844  0E8D  02F7               	subwf	i1___lldiv@dividend,f
  8845  0E8E  0874               	movf	i1___lldiv@divisor+1,w
  8846  0E8F  1C03               	skipc
  8847  0E90  0F74               	incfsz	i1___lldiv@divisor+1,w
  8848  0E91  02F8               	subwf	i1___lldiv@dividend+1,f
  8849  0E92  0875               	movf	i1___lldiv@divisor+2,w
  8850  0E93  1C03               	skipc
  8851  0E94  0F75               	incfsz	i1___lldiv@divisor+2,w
  8852  0E95  02F9               	subwf	i1___lldiv@dividend+2,f
  8853  0E96  0876               	movf	i1___lldiv@divisor+3,w
  8854  0E97  1C03               	skipc
  8855  0E98  0F76               	incfsz	i1___lldiv@divisor+3,w
  8856  0E99  02FA               	subwf	i1___lldiv@dividend+3,f
  8857  0E9A                     i1l2863:
  8858  0E9A  1420               	bsf	i1___lldiv@quotient,0
  8859  0E9B                     i1l2865:
  8860  0E9B  3001               	movlw	1
  8861  0E9C                     u366_25:
  8862  0E9C  1003               	clrc
  8863  0E9D  0CF6               	rrf	i1___lldiv@divisor+3,f
  8864  0E9E  0CF5               	rrf	i1___lldiv@divisor+2,f
  8865  0E9F  0CF4               	rrf	i1___lldiv@divisor+1,f
  8866  0EA0  0CF3               	rrf	i1___lldiv@divisor,f
  8867  0EA1  3EFF               	addlw	-1
  8868  0EA2  1D03               	skipz
  8869  0EA3  2E9C               	goto	u366_25
  8870  0EA4                     i1l2867:
  8871  0EA4  3001               	movlw	1
  8872  0EA5  02A4               	subwf	i1___lldiv@counter,f
  8873  0EA6  1D03               	btfss	3,2
  8874  0EA7  2EA9               	goto	u367_21
  8875  0EA8  2EAA               	goto	u367_20
  8876  0EA9                     u367_21:
  8877  0EA9  2E71               	goto	i1l2857
  8878  0EAA                     u367_20:
  8879  0EAA                     i1l2869:
  8880  0EAA  0823               	movf	i1___lldiv@quotient+3,w
  8881  0EAB  00F6               	movwf	?i1___lldiv+3
  8882  0EAC  0822               	movf	i1___lldiv@quotient+2,w
  8883  0EAD  00F5               	movwf	?i1___lldiv+2
  8884  0EAE  0821               	movf	i1___lldiv@quotient+1,w
  8885  0EAF  00F4               	movwf	?i1___lldiv+1
  8886  0EB0  0820               	movf	i1___lldiv@quotient,w
  8887  0EB1  00F3               	movwf	?i1___lldiv
  8888  0EB2                     i1l601:
  8889  0EB2  0008               	return
  8890  0EB3                     __end_ofi1___lldiv:
  8891                           
  8892                           	psect	text49
  8893  08C0                     __ptext49:	
  8894 ;; *************** function i1___bmul *****************
  8895 ;; Defined at:
  8896 ;;		line 4 in file "C:\Program Files (x86)\Microchip\xc8\v2.20\pic\sources\c90\common\Umul8.c"
  8897 ;; Parameters:    Size  Location     Type
  8898 ;;  multiplier      1    wreg     unsigned char 
  8899 ;;  multiplicand    1    0[COMMON] unsigned char 
  8900 ;; Auto vars:     Size  Location     Type
  8901 ;;  multiplier      1    2[COMMON] unsigned char 
  8902 ;;  product         1    1[COMMON] unsigned char 
  8903 ;; Return value:  Size  Location     Type
  8904 ;;                  1    wreg      unsigned char 
  8905 ;; Registers used:
  8906 ;;		wreg, status,2, status,0, btemp+1
  8907 ;; Tracked objects:
  8908 ;;		On entry : 0/0
  8909 ;;		On exit  : 0/0
  8910 ;;		Unchanged: 0/0
  8911 ;; Data sizes:     COMMON   BANK0   BANK1   BANK3   BANK2
  8912 ;;      Params:         1       0       0       0       0
  8913 ;;      Locals:         2       0       0       0       0
  8914 ;;      Temps:          0       0       0       0       0
  8915 ;;      Totals:         3       0       0       0       0
  8916 ;;Total ram usage:        3 bytes
  8917 ;; Hardware stack levels used:    1
  8918 ;; This function calls:
  8919 ;;		Nothing
  8920 ;; This function is called by:
  8921 ;;		_Scheduler_ActivateTask
  8922 ;; This function uses a non-reentrant model
  8923 ;;
  8924                           
  8925                           
  8926                           ;psect for function i1___bmul
  8927  08C0                     i1___bmul:
  8928                           
  8929                           ;incstack = 0
  8930 ;; hardware stack exceeded
  8931                           ; Regs used in i1___bmul: [wreg+status,2+status,0+btemp+1]
  8932                           ;i1___bmul@multiplier stored from wreg
  8933  08C0  00F2               	movwf	i1___bmul@multiplier
  8934  08C1                     i1l2873:
  8935  08C1  01F1               	clrf	i1___bmul@product
  8936  08C2                     i1l2875:
  8937  08C2  1C72               	btfss	i1___bmul@multiplier,0
  8938  08C3  28C5               	goto	u368_21
  8939  08C4  28C6               	goto	u368_20
  8940  08C5                     u368_21:
  8941  08C5  28CA               	goto	i1l2879
  8942  08C6                     u368_20:
  8943  08C6                     i1l2877:
  8944  08C6  0870               	movf	i1___bmul@multiplicand,w
  8945  08C7  00FF               	movwf	btemp+1
  8946  08C8  087F               	movf	btemp+1,w
  8947  08C9  07F1               	addwf	i1___bmul@product,f
  8948  08CA                     i1l2879:
  8949  08CA  1003               	clrc
  8950  08CB  0DF0               	rlf	i1___bmul@multiplicand,f
  8951  08CC                     i1l2881:
  8952  08CC  1003               	clrc
  8953  08CD  0CF2               	rrf	i1___bmul@multiplier,f
  8954  08CE                     i1l2883:
  8955  08CE  0872               	movf	i1___bmul@multiplier,w
  8956  08CF  1D03               	btfss	3,2
  8957  08D0  28D2               	goto	u369_21
  8958  08D1  28D3               	goto	u369_20
  8959  08D2                     u369_21:
  8960  08D2  28C2               	goto	i1l2875
  8961  08D3                     u369_20:
  8962  08D3                     i1l2885:
  8963  08D3  0871               	movf	i1___bmul@product,w
  8964  08D4                     i1l591:
  8965  08D4  0008               	return
  8966  08D5                     __end_ofi1___bmul:
  8967                           
  8968                           	psect	text50
  8969  0C28                     __ptext50:	
  8970 ;; *************** function ___llmod *****************
  8971 ;; Defined at:
  8972 ;;		line 5 in file "C:\Program Files (x86)\Microchip\xc8\v2.20\pic\sources\c90\common\llmod.c"
  8973 ;; Parameters:    Size  Location     Type
  8974 ;;  divisor         4    5[BANK0 ] unsigned long 
  8975 ;;  dividend        4    9[BANK0 ] unsigned long 
  8976 ;; Auto vars:     Size  Location     Type
  8977 ;;  counter         1   13[COMMON] unsigned char 
  8978 ;; Return value:  Size  Location     Type
  8979 ;;                  4    5[BANK0 ] unsigned long 
  8980 ;; Registers used:
  8981 ;;		wreg, status,2, status,0, btemp+1
  8982 ;; Tracked objects:
  8983 ;;		On entry : 0/0
  8984 ;;		On exit  : 0/0
  8985 ;;		Unchanged: 0/0
  8986 ;; Data sizes:     COMMON   BANK0   BANK1   BANK3   BANK2
  8987 ;;      Params:         0       8       0       0       0
  8988 ;;      Locals:         1       0       0       0       0
  8989 ;;      Temps:          1       0       0       0       0
  8990 ;;      Totals:         2       8       0       0       0
  8991 ;;Total ram usage:       10 bytes
  8992 ;; Hardware stack levels used:    1
  8993 ;; This function calls:
  8994 ;;		Nothing
  8995 ;; This function is called by:
  8996 ;;		_Scheduler_ActivateTask
  8997 ;; This function uses a non-reentrant model
  8998 ;;
  8999                           
  9000                           
  9001                           ;psect for function ___llmod
  9002  0C28                     ___llmod:
  9003  0C28                     i1l2825:	
  9004                           ;incstack = 0
  9005 ;; hardware stack exceeded
  9006                           ; Regs used in ___llmod: [wreg+status,2+status,0+btemp+1]
  9007                           
  9008  0C28  1283               	bcf	3,5	;RP0=0, select bank0
  9009  0C29  1303               	bcf	3,6	;RP1=0, select bank0
  9010  0C2A  0828               	movf	___llmod@divisor+3,w
  9011  0C2B  0427               	iorwf	___llmod@divisor+2,w
  9012  0C2C  0426               	iorwf	___llmod@divisor+1,w
  9013  0C2D  0425               	iorwf	___llmod@divisor,w
  9014  0C2E  1903               	skipnz
  9015  0C2F  2C31               	goto	u355_21
  9016  0C30  2C32               	goto	u355_20
  9017  0C31                     u355_21:
  9018  0C31  2C75               	goto	i1l2843
  9019  0C32                     u355_20:
  9020  0C32                     i1l2827:
  9021  0C32  01FD               	clrf	___llmod@counter
  9022  0C33  0AFD               	incf	___llmod@counter,f
  9023  0C34  2C42               	goto	i1l2833
  9024  0C35                     i1l2829:
  9025  0C35  3001               	movlw	1
  9026  0C36  00FC               	movwf	??___llmod
  9027  0C37                     u356_25:
  9028  0C37  1003               	clrc
  9029  0C38  0DA5               	rlf	___llmod@divisor,f
  9030  0C39  0DA6               	rlf	___llmod@divisor+1,f
  9031  0C3A  0DA7               	rlf	___llmod@divisor+2,f
  9032  0C3B  0DA8               	rlf	___llmod@divisor+3,f
  9033  0C3C  0BFC               	decfsz	??___llmod,f
  9034  0C3D  2C37               	goto	u356_25
  9035  0C3E                     i1l2831:
  9036  0C3E  3001               	movlw	1
  9037  0C3F  00FF               	movwf	btemp+1
  9038  0C40  087F               	movf	btemp+1,w
  9039  0C41  07FD               	addwf	___llmod@counter,f
  9040  0C42                     i1l2833:
  9041  0C42  1FA8               	btfss	___llmod@divisor+3,7
  9042  0C43  2C45               	goto	u357_21
  9043  0C44  2C46               	goto	u357_20
  9044  0C45                     u357_21:
  9045  0C45  2C35               	goto	i1l2829
  9046  0C46                     u357_20:
  9047  0C46                     i1l2835:
  9048  0C46  0828               	movf	___llmod@divisor+3,w
  9049  0C47  022C               	subwf	___llmod@dividend+3,w
  9050  0C48  1D03               	skipz
  9051  0C49  2C54               	goto	u358_25
  9052  0C4A  0827               	movf	___llmod@divisor+2,w
  9053  0C4B  022B               	subwf	___llmod@dividend+2,w
  9054  0C4C  1D03               	skipz
  9055  0C4D  2C54               	goto	u358_25
  9056  0C4E  0826               	movf	___llmod@divisor+1,w
  9057  0C4F  022A               	subwf	___llmod@dividend+1,w
  9058  0C50  1D03               	skipz
  9059  0C51  2C54               	goto	u358_25
  9060  0C52  0825               	movf	___llmod@divisor,w
  9061  0C53  0229               	subwf	___llmod@dividend,w
  9062  0C54                     u358_25:
  9063  0C54  1C03               	skipc
  9064  0C55  2C57               	goto	u358_21
  9065  0C56  2C58               	goto	u358_20
  9066  0C57                     u358_21:
  9067  0C57  2C66               	goto	i1l2839
  9068  0C58                     u358_20:
  9069  0C58                     i1l2837:
  9070  0C58  0825               	movf	___llmod@divisor,w
  9071  0C59  02A9               	subwf	___llmod@dividend,f
  9072  0C5A  0826               	movf	___llmod@divisor+1,w
  9073  0C5B  1C03               	skipc
  9074  0C5C  0F26               	incfsz	___llmod@divisor+1,w
  9075  0C5D  02AA               	subwf	___llmod@dividend+1,f
  9076  0C5E  0827               	movf	___llmod@divisor+2,w
  9077  0C5F  1C03               	skipc
  9078  0C60  0F27               	incfsz	___llmod@divisor+2,w
  9079  0C61  02AB               	subwf	___llmod@dividend+2,f
  9080  0C62  0828               	movf	___llmod@divisor+3,w
  9081  0C63  1C03               	skipc
  9082  0C64  0F28               	incfsz	___llmod@divisor+3,w
  9083  0C65  02AC               	subwf	___llmod@dividend+3,f
  9084  0C66                     i1l2839:
  9085  0C66  3001               	movlw	1
  9086  0C67                     u359_25:
  9087  0C67  1003               	clrc
  9088  0C68  0CA8               	rrf	___llmod@divisor+3,f
  9089  0C69  0CA7               	rrf	___llmod@divisor+2,f
  9090  0C6A  0CA6               	rrf	___llmod@divisor+1,f
  9091  0C6B  0CA5               	rrf	___llmod@divisor,f
  9092  0C6C  3EFF               	addlw	-1
  9093  0C6D  1D03               	skipz
  9094  0C6E  2C67               	goto	u359_25
  9095  0C6F                     i1l2841:
  9096  0C6F  3001               	movlw	1
  9097  0C70  02FD               	subwf	___llmod@counter,f
  9098  0C71  1D03               	btfss	3,2
  9099  0C72  2C74               	goto	u360_21
  9100  0C73  2C75               	goto	u360_20
  9101  0C74                     u360_21:
  9102  0C74  2C46               	goto	i1l2835
  9103  0C75                     u360_20:
  9104  0C75                     i1l2843:
  9105  0C75  082C               	movf	___llmod@dividend+3,w
  9106  0C76  00A8               	movwf	?___llmod+3
  9107  0C77  082B               	movf	___llmod@dividend+2,w
  9108  0C78  00A7               	movwf	?___llmod+2
  9109  0C79  082A               	movf	___llmod@dividend+1,w
  9110  0C7A  00A6               	movwf	?___llmod+1
  9111  0C7B  0829               	movf	___llmod@dividend,w
  9112  0C7C  00A5               	movwf	?___llmod
  9113  0C7D                     i1l787:
  9114  0C7D  0008               	return
  9115  0C7E                     __end_of___llmod:
  9116                           
  9117                           	psect	text51
  9118  08D5                     __ptext51:	
  9119 ;; *************** function _EXTI_On_Off_CallBack *****************
  9120 ;; Defined at:
  9121 ;;		line 23 in file "Buttons/Buttons.c"
  9122 ;; Parameters:    Size  Location     Type
  9123 ;;		None
  9124 ;; Auto vars:     Size  Location     Type
  9125 ;;		None
  9126 ;; Return value:  Size  Location     Type
  9127 ;;                  1    wreg      void 
  9128 ;; Registers used:
  9129 ;;		wreg, status,2, status,0
  9130 ;; Tracked objects:
  9131 ;;		On entry : 0/0
  9132 ;;		On exit  : 0/0
  9133 ;;		Unchanged: 0/0
  9134 ;; Data sizes:     COMMON   BANK0   BANK1   BANK3   BANK2
  9135 ;;      Params:         0       0       0       0       0
  9136 ;;      Locals:         0       0       0       0       0
  9137 ;;      Temps:          0       0       0       0       0
  9138 ;;      Totals:         0       0       0       0       0
  9139 ;;Total ram usage:        0 bytes
  9140 ;; Hardware stack levels used:    1
  9141 ;; This function calls:
  9142 ;;		Nothing
  9143 ;; This function is called by:
  9144 ;;		_myISR
  9145 ;; This function uses a non-reentrant model
  9146 ;;
  9147                           
  9148                           
  9149                           ;psect for function _EXTI_On_Off_CallBack
  9150  08D5                     _EXTI_On_Off_CallBack:
  9151  08D5                     i1l3023:	
  9152                           ;incstack = 0
  9153 ;; hardware stack exceeded
  9154                           ; Regs used in _EXTI_On_Off_CallBack: [wreg+status,2+status,0]
  9155                           
  9156                           
  9157                           ;Buttons/Buttons.c: 25:  if((Mode.Select_Mode==Setting_Mode) || (Mode.Select_Mode==Norma
      +                          l_Mode))
  9158  08D5  3002               	movlw	2
  9159  08D6  1683               	bsf	3,5	;RP0=1, select bank1
  9160  08D7  1303               	bcf	3,6	;RP1=0, select bank1
  9161  08D8  065A               	xorwf	_Mode^(0+128),w
  9162  08D9  1903               	btfsc	3,2
  9163  08DA  28DC               	goto	u383_21
  9164  08DB  28DD               	goto	u383_20
  9165  08DC                     u383_21:
  9166  08DC  28E2               	goto	i1l3027
  9167  08DD                     u383_20:
  9168  08DD                     i1l3025:
  9169  08DD  035A               	decf	_Mode^(0+128),w
  9170  08DE  1D03               	btfss	3,2
  9171  08DF  28E1               	goto	u384_21
  9172  08E0  28E2               	goto	u384_20
  9173  08E1                     u384_21:
  9174  08E1  28E4               	goto	i1l3029
  9175  08E2                     u384_20:
  9176  08E2                     i1l3027:
  9177                           
  9178                           ;Buttons/Buttons.c: 26:   {;Buttons/Buttons.c: 28:     Mode.Select_Mode=Off_Mode;
  9179  08E2  01DA               	clrf	_Mode^(0+128)
  9180                           
  9181                           ;Buttons/Buttons.c: 30:   }
  9182  08E3  28EB               	goto	i1l103
  9183  08E4                     i1l3029:
  9184  08E4  085A               	movf	_Mode^(0+128),w
  9185  08E5  1D03               	btfss	3,2
  9186  08E6  28E8               	goto	u385_21
  9187  08E7  28E9               	goto	u385_20
  9188  08E8                     u385_21:
  9189  08E8  28EB               	goto	i1l103
  9190  08E9                     u385_20:
  9191  08E9                     i1l3031:
  9192                           
  9193                           ;Buttons/Buttons.c: 32:   {;Buttons/Buttons.c: 34:    Mode.Select_Mode=Normal_Mode;
  9194  08E9  01DA               	clrf	_Mode^(0+128)
  9195  08EA  0ADA               	incf	_Mode^(0+128),f
  9196  08EB                     i1l103:
  9197  08EB  0008               	return
  9198  08EC                     __end_of_EXTI_On_Off_CallBack:
  9199  0006                     
  9200                           	psect	functab
  9201  004B                     __pfunctab:
  9202  004B                     __fptable:
  9203  004B                     fptable:
  9204  004B  00FF               	movwf	(btemp+1)& (0+127)
  9205  004C  3000               	movlw	high fptable
  9206  004D  008A               	movwf	10
  9207  004E  087F               	movf	(btemp+1)& (0+127),w
  9208  004F  0782               	addwf	2,f
  9209  0050                     fpbase:
  9210  0050  2850               	goto	fpbase	; Call via a null pointer and you will get stuck here.
  9211  0051                     fp__Scheduler_Task3:
  9212  0051  120A  158A  287C   	ljmp	_Scheduler_Task3
  9213  0054                     fp__Scheduler_Task1:
  9214  0054  160A  118A  2FFA   	ljmp	_Scheduler_Task1
  9215  0057                     fp__Scheduler_Task2:
  9216  0057  120A  158A  2829   	ljmp	_Scheduler_Task2
  9217  005A                     __end_of__fptable:
  9218  007E                     btemp	set	126	;btemp
  9219  007E                     wtemp0	set	126
  9220                           
  9221                           	psect	config
  9222                           
  9223                           ;Config register CONFIG @ 0x2007
  9224                           ;	Oscillator Selection bits
  9225                           ;	FOSC = HS, HS oscillator
  9226                           ;	Watchdog Timer Enable bit
  9227                           ;	WDTE = OFF, WDT disabled
  9228                           ;	Power-up Timer Enable bit
  9229                           ;	PWRTE = OFF, PWRT disabled
  9230                           ;	Brown-out Reset Enable bit
  9231                           ;	BOREN = OFF, BOR disabled
  9232                           ;	Low-Voltage (Single-Supply) In-Circuit Serial Programming Enable bit
  9233                           ;	LVP = OFF, RB3 is digital I/O, HV on MCLR must be used for programming
  9234                           ;	Data EEPROM Memory Code Protection bit
  9235                           ;	CPD = OFF, Data EEPROM code protection off
  9236                           ;	Flash Program Memory Write Enable bits
  9237                           ;	WRT = OFF, Write protection off; all program memory may be written to by EECON control
  9238                           ;	In-Circuit Debugger Mode bit
  9239                           ;	DEBUG = 0x1, unprogrammed default
  9240                           ;	Flash Program Memory Code Protection bit
  9241                           ;	CP = OFF, Code protection off
  9242  2007                     	org	8199
  9243  2007  3F3A               	dw	16186

Data Sizes:
    Strings     0
    Constant    15
    Data        4
    BSS         69
    Persistent  0
    Stack       0

Auto Spaces:
    Space          Size  Autos    Used
    COMMON           14     14      14
    BANK0            80     27      54
    BANK1            80     58      64
    BANK3            96      0      40
    BANK2            96      0       0

Pointer List with Targets:

    Scheduler_Start$1325	const PTR FTN()void  size(1) Largest target is 1
		 -> Scheduler_Task3(), Scheduler_Task2(), Scheduler_Task1(), 

    memset@p1	PTR void  size(1) Largest target is 3
		 -> Scheduler_ActivationFlags(BANK1[3]), 

    memset@p	PTR unsigned char  size(1) Largest target is 3
		 -> Scheduler_ActivationFlags(BANK1[3]), 

    sp__memset	PTR void  size(1) Largest target is 3
		 -> Scheduler_ActivationFlags(BANK1[3]), 

    S401$fuction_ptr	PTR FTN()void  size(1) Largest target is 1
		 -> Scheduler_Task3(), Scheduler_Task2(), Scheduler_Task1(), 

    Scheduler_Intitys.fuction_ptr	PTR FTN()void  size(1) Largest target is 1
		 -> Scheduler_Task3(), Scheduler_Task2(), Scheduler_Task1(), 

    Average_Value@Avrage_Values	PTR unsigned char  size(1) Largest target is 5
		 -> Temperature(BANK0[5]), 


Critical Paths under _main in COMMON

    None.

Critical Paths under _myISR in COMMON

    _Scheduler_ActivateTask->___llmod
    i1___lldiv->i1___bmul
    ___llmod->i1___lldiv

Critical Paths under _main in BANK0

    _Scheduler_Start->___bmul
    _Mode_MainFunction->_Read_UP_DOWN_BUTTONS
    _Temperature_Calc->___lwmod
    _Average_Value->___lldiv
    _Average_Value->___lwmod
    _e2pext_r->_i2c_rb

Critical Paths under _myISR in BANK0

    _Timer0_CallBack->_Scheduler_ActivateTask
    _Scheduler_ActivateTask->___llmod
    ___llmod->i1___lldiv

Critical Paths under _main in BANK1

    _main->_Scheduler_Start
    _Scheduler_Task3->_Mode_MainFunction
    _Set_EEPROM_Data->_e2pext_r
    _Mode_MainFunction->_Start_Setting_Timer
    _Start_Setting_Timer->___wmul
    _LED_MainFunction->_LED_BLINKING
    _LED_BLINKING->___wmul
    _ADC_Conv_MainFunction->_ADC_Value_Ready_CallBack
    _ADC_Value_Ready_CallBack->_Temperature_Calc
    _Temperature_Calc->___fltol
    ___fltol->___flmul
    ___flmul->___xxtofl
    _Average_Value->___lldiv
    _Scheduler_Task1->_Display_MainFunction
    _Display_MainFunction->_Display_Blink
    _Display_Blink->___wmul
    _Scheduler_Init->_memset
    _Get_EEPROM_Data->_e2pext_r
    _e2pext_r->_i2c_wb

Critical Paths under _myISR in BANK1

    None.

Critical Paths under _main in BANK3

    None.

Critical Paths under _myISR in BANK3

    None.

Critical Paths under _main in BANK2

    None.

Critical Paths under _myISR in BANK2

    None.

Call Graph Tables:

 ---------------------------------------------------------------------------------
 (Depth) Function   	        Calls       Base Space   Used Autos Params    Refs
 ---------------------------------------------------------------------------------
 (0) _main                                                 0     0      0   13736
                           _ADC_Init
                     _ADC_Start_Conv
                       _Display_Init
                      _Elements_Init
                          _GPIO_Init
                    _Get_EEPROM_Data
                          _Mode_Init
                        _On_Off_Init
                     _Scheduler_Init
                    _Scheduler_Start
                        _Timer0_Init
 ---------------------------------------------------------------------------------
 (1) _Timer0_Init                                          0     0      0       0
 ---------------------------------------------------------------------------------
 (1) _Scheduler_Start                                      1     1      0   12351
                                             57 BANK1      1     1      0
                    _Scheduler_Task1 *
                    _Scheduler_Task2 *
                    _Scheduler_Task3 *
                             ___bmul
 ---------------------------------------------------------------------------------
 (2) ___bmul                                               3     2      1     179
                                             26 BANK0      1     0      1
                                              0 BANK1      2     2      0
 ---------------------------------------------------------------------------------
 (2) _Scheduler_Task3                                      0     0      0    2120
              _Elements_MainFunction
                  _Mode_MainFunction
                    _Set_EEPROM_Data
 ---------------------------------------------------------------------------------
 (3) _Set_EEPROM_Data                                      0     0      0     982
                           _e2pext_r
                          _i2c_start
                           _i2c_stop
                             _i2c_wb
 ---------------------------------------------------------------------------------
 (3) _Mode_MainFunction                                    1     1      0    1138
                                             12 BANK1      1     1      0
               _Read_UP_DOWN_BUTTONS
                _Start_Setting_Timer
 ---------------------------------------------------------------------------------
 (4) _Start_Setting_Timer                                  6     2      4    1138
                                              6 BANK1      6     2      4
                             ___wmul
 ---------------------------------------------------------------------------------
 (4) _Read_UP_DOWN_BUTTONS                                 1     1      0       0
                                             26 BANK0      1     1      0
 ---------------------------------------------------------------------------------
 (3) _Elements_MainFunction                                4     4      0       0
                                              0 BANK1      4     4      0
 ---------------------------------------------------------------------------------
 (2) _Scheduler_Task2                                      0     0      0    7515
              _ADC_Conv_MainFunction
                   _LED_MainFunction
 ---------------------------------------------------------------------------------
 (3) _LED_MainFunction                                     0     0      0    1138
                       _LED_BLINKING
 ---------------------------------------------------------------------------------
 (4) _LED_BLINKING                                         6     2      4    1138
                                              6 BANK1      6     2      4
                             ___wmul
 ---------------------------------------------------------------------------------
 (3) _ADC_Conv_MainFunction                                0     0      0    6377
           _ADC_Value_Ready_CallBack
 ---------------------------------------------------------------------------------
 (4) _ADC_Value_Ready_CallBack                             2     2      0    6377
                                             55 BANK1      2     2      0
                   _Temperature_Calc
 ---------------------------------------------------------------------------------
 (5) _Temperature_Calc                                     5     5      0    6343
                                             50 BANK1      5     5      0
                      _Average_Value
                            ___flmul
                            ___fltol
                            ___lwmod
                           ___xxtofl
 ---------------------------------------------------------------------------------
 (6) ___xxtofl                                            14    10      4     566
                                              0 BANK1     14    10      4
 ---------------------------------------------------------------------------------
 (6) ___fltol                                             10     6      4     427
                                             40 BANK1     10     6      4
                            ___flmul (ARG)
                           ___xxtofl (ARG)
 ---------------------------------------------------------------------------------
 (6) ___flmul                                             26    18      8    3353
                                             14 BANK1     26    18      8
                          __Umul8_16
                           ___xxtofl (ARG)
 ---------------------------------------------------------------------------------
 (7) __Umul8_16                                            9     7      2     980
                                              0 BANK1      9     7      2
 ---------------------------------------------------------------------------------
 (6) _Average_Value                                        8     7      1    1374
                                             13 BANK1      8     7      1
                            ___lldiv
                            ___lwmod
 ---------------------------------------------------------------------------------
 (6) ___lwmod                                              5     1      4     592
                                             26 BANK0      1     1      0
                                              0 BANK1      4     0      4
 ---------------------------------------------------------------------------------
 (7) ___lldiv                                             14     6      8     531
                                             26 BANK0      1     1      0
                                              0 BANK1     13     5      8
 ---------------------------------------------------------------------------------
 (2) _Scheduler_Task1                                      0     0      0    2376
               _Display_MainFunction
 ---------------------------------------------------------------------------------
 (3) _Display_MainFunction                                 2     2      0    2376
                                             12 BANK1      2     2      0
                      _Display_Blink
                            ___awdiv
                            ___awmod
 ---------------------------------------------------------------------------------
 (4) ___awmod                                              6     2      4     613
                                              0 BANK1      6     2      4
 ---------------------------------------------------------------------------------
 (4) ___awdiv                                              8     4      4     625
                                              0 BANK1      8     4      4
 ---------------------------------------------------------------------------------
 (4) _Display_Blink                                        6     2      4    1138
                                              6 BANK1      6     2      4
                             ___wmul
 ---------------------------------------------------------------------------------
 (5) ___wmul                                               6     2      4     896
                                              0 BANK1      6     2      4
 ---------------------------------------------------------------------------------
 (1) _Scheduler_Init                                       0     0      0     403
                             _memset
 ---------------------------------------------------------------------------------
 (2) _memset                                               6     2      4     403
                                              0 BANK1      6     2      4
 ---------------------------------------------------------------------------------
 (1) _On_Off_Init                                          0     0      0       0
 ---------------------------------------------------------------------------------
 (1) _Mode_Init                                            0     0      0       0
 ---------------------------------------------------------------------------------
 (1) _Get_EEPROM_Data                                      3     3      0     982
                                              9 BANK1      3     3      0
                           _e2pext_r
 ---------------------------------------------------------------------------------
 (4) _e2pext_r                                             5     3      2     852
                                              4 BANK1      5     3      2
                             _i2c_rb
                          _i2c_start
                           _i2c_stop
                             _i2c_wb
 ---------------------------------------------------------------------------------
 (4) _i2c_wb                                               4     4      0     130
                                              0 BANK1      4     4      0
                              _delay
 ---------------------------------------------------------------------------------
 (4) _i2c_stop                                             0     0      0       0
                              _delay
 ---------------------------------------------------------------------------------
 (4) _i2c_start                                            0     0      0       0
                              _delay
 ---------------------------------------------------------------------------------
 (5) _i2c_rb                                               4     4      0     167
                                             26 BANK0      1     1      0
                                              0 BANK1      3     3      0
                              _delay
 ---------------------------------------------------------------------------------
 (5) _delay                                                0     0      0       0
 ---------------------------------------------------------------------------------
 (1) _GPIO_Init                                            0     0      0       0
 ---------------------------------------------------------------------------------
 (1) _Elements_Init                                        0     0      0       0
 ---------------------------------------------------------------------------------
 (1) _Display_Init                                         0     0      0       0
 ---------------------------------------------------------------------------------
 (1) _ADC_Start_Conv                                       0     0      0       0
 ---------------------------------------------------------------------------------
 (1) _ADC_Init                                             0     0      0       0
 ---------------------------------------------------------------------------------
 Estimated maximum stack depth 7
 ---------------------------------------------------------------------------------
 (Depth) Function   	        Calls       Base Space   Used Autos Params    Refs
 ---------------------------------------------------------------------------------
 (8) _myISR                                                4     4      0     897
                                             22 BANK0      4     4      0
               _EXTI_On_Off_CallBack
                    _Timer0_CallBack
 ---------------------------------------------------------------------------------
 (9) _Timer0_CallBack                                      0     0      0     897
             _Scheduler_ActivateTask
 ---------------------------------------------------------------------------------
 (10) _Scheduler_ActivateTask                              9     5      4     897
                                             13 BANK0      9     5      4
                            ___llmod
                           i1___bmul
                          i1___lldiv
 ---------------------------------------------------------------------------------
 (11) i1___lldiv                                          14     6      8     214
                                              3 COMMON     9     1      8
                                              0 BANK0      5     5      0
                           i1___bmul (ARG)
 ---------------------------------------------------------------------------------
 (11) i1___bmul                                            3     2      1      87
                                              0 COMMON     3     2      1
 ---------------------------------------------------------------------------------
 (11) ___llmod                                            10     2      8     311
                                             12 COMMON     2     2      0
                                              5 BANK0      8     0      8
                           i1___bmul (ARG)
                          i1___lldiv (ARG)
 ---------------------------------------------------------------------------------
 (9) _EXTI_On_Off_CallBack                                 0     0      0       0
 ---------------------------------------------------------------------------------
 Estimated maximum stack depth 11
 ---------------------------------------------------------------------------------

 Call Graph Graphs:

 _main (ROOT)
   _ADC_Init
   _ADC_Start_Conv
   _Display_Init
   _Elements_Init
   _GPIO_Init
   _Get_EEPROM_Data
     _e2pext_r
       _i2c_rb
         _delay
       _i2c_start
         _delay
       _i2c_stop
         _delay
       _i2c_wb
         _delay
   _Mode_Init
   _On_Off_Init
   _Scheduler_Init
     _memset
   _Scheduler_Start
     _Scheduler_Task1 *
       _Display_MainFunction
         _Display_Blink
           ___wmul
         ___awdiv
         ___awmod
     _Scheduler_Task2 *
       _ADC_Conv_MainFunction
         _ADC_Value_Ready_CallBack
           _Temperature_Calc
             _Average_Value
               ___lldiv
               ___lwmod
             ___flmul
               __Umul8_16
               ___xxtofl (ARG)
             ___fltol
               ___flmul (ARG)
                 __Umul8_16
                 ___xxtofl (ARG)
               ___xxtofl (ARG)
             ___lwmod
             ___xxtofl
       _LED_MainFunction
         _LED_BLINKING
           ___wmul
     _Scheduler_Task3 *
       _Elements_MainFunction
       _Mode_MainFunction
         _Read_UP_DOWN_BUTTONS
         _Start_Setting_Timer
           ___wmul
       _Set_EEPROM_Data
         _e2pext_r
           _i2c_rb
             _delay
           _i2c_start
             _delay
           _i2c_stop
             _delay
           _i2c_wb
             _delay
         _i2c_start
           _delay
         _i2c_stop
           _delay
         _i2c_wb
           _delay
     ___bmul *
   _Timer0_Init

 _myISR (ROOT)
   _EXTI_On_Off_CallBack
   _Timer0_CallBack
     _Scheduler_ActivateTask
       ___llmod
         i1___bmul (ARG)
         i1___lldiv (ARG)
           i1___bmul (ARG)
       i1___bmul
       i1___lldiv
         i1___bmul (ARG)

 Address spaces:
Name               Size   Autos  Total    Cost      Usage
BANK3               60      0      28       9       41.7%
BITBANK3            60      0       0       8        0.0%
SFR3                 0      0       0       4        0.0%
BITSFR3              0      0       0       4        0.0%
BANK2               60      0       0      11        0.0%
BITBANK2            60      0       0      10        0.0%
SFR2                 0      0       0       5        0.0%
BITSFR2              0      0       0       5        0.0%
BANK1               50     3A      40       7       80.0%
BITBANK1            50      0       0       6        0.0%
SFR1                 0      0       0       2        0.0%
BITSFR1              0      0       0       2        0.0%
BANK0               50     1B      36       5       67.5%
BITBANK0            50      0       0       4        0.0%
SFR0                 0      0       0       1        0.0%
BITSFR0              0      0       0       1        0.0%
COMMON               E      E       E       1      100.0%
BITCOMMON            E      0       0       0        0.0%
CODE                 0      0       0       0        0.0%
DATA                 0      0      AC      12        0.0%
ABS                  0      0      AC       3        0.0%
NULL                 0      0       0       0        0.0%
STACK                0      0       0       2        0.0%
EEDATA             100      0       0       0        0.0%


Microchip Technology PIC Macro Assembler V2.20 build 20200408173844 
Symbol Table                                                                                   Sun Jul 12 19:05:46 2020

                                        pc 0002                             ___bmul@product 00A0  
                                       l21 0908                                         l30 0944  
                                       l25 0840                                         l33 086B  
                                       l70 0B0E                                         l71 0B0E  
                                       l84 0630                                         l95 17F9  
                             ___awdiv@sign 00A5                                         fsr 0004  
                      ___wmul@multiplicand 00A2                        __Umul8_16@word_mpld 00A6  
                         ??_ADC_Start_Conv 003A                                        l124 084D  
                                      l300 087B                                        l109 09F0  
                                      l207 0E4A                                        l160 04C4  
                                      l251 097D                                        l243 097B  
                                      l411 08BF                                        l420 07DC  
                                      l405 0828                                        l421 07E6  
                                      l341 17FF                                        l182 085C  
                                      l247 097C                                        l239 097A  
                                      l423 07FC                                        l415 0C14  
                                      l167 0B4A                                        l408 08AD  
                                      l416 0C27                                        l344 0833  
                                      l169 0B51                                        l601 079C  
                                      l266 0984                                        l370 089B  
                                      l259 0982                                        l419 07AD  
                                      l347 088B                                        l291 0A9E  
                                      l357 0724                                        l189 0A9D  
                                      l470 0D2C                                        l447 0CD3  
                                      l199 0B93                                        l463 0DE5  
                                      l393 0FFF                                        l386 17EF  
                                      l467 0CF8                                        l731 0D87  
                                      l459 0DB2                                        l469 0D19  
                                      l565 09FF                                        l718 0F1B  
                                      l398 0A6D                                        l567 0A17  
                                      l751 06AC                                        l591 0963  
                                      l761 06AC                                        l758 0697  
                                      l847 0BDB                                        l960 0326  
                                      l954 03BA                                        l973 0A2E  
                                      l966 03AE                                        l975 0A40  
                                      l998 04E9                                        fsr0 0004  
                                      indf 0000                               ___awmod@sign 00A5  
                             ___flmul@aexp 00BC                               ___flmul@bexp 00C1  
                             ___flmul@sign 00BB                               ___flmul@temp 00C6  
                             ___flmul@prod 00C2                               ___fltol@exp1 00D1  
                                     l1000 0580                                       l1011 054A  
                                     l1012 0556                                       l1019 09A6  
                                     l3001 088C                                       l3003 0896  
                                     l3005 089A                                       l3111 0737  
                                     l3121 0762                                       l3113 073A  
                                     l3201 065C                                       l3123 0776  
                                     l3115 0749                                       l3131 0794  
                                     l3203 065D                                       l3125 0784  
                                     l3117 074F                                       l3109 0725  
                                     l3141 0BA8                                       l3301 01FD  
                                     l3205 0665                                       l3127 0785  
                                     l3119 0753                                       l3151 0BCD  
                                     l3143 0BAE                                       l3135 0B94  
                                     l3311 02AA                                       l3303 021A  
                                     l3231 005A                                       l3215 0673  
                                     l3207 0667                                       l2511 09E5  
                                     l3129 078E                                       l3145 0BB4  
                                     l3137 0B9C                                       l3153 0BD5  
                                     l3161 0A24                                       l3321 02F6  
                                     l3313 02D2                                       l3305 0247  
                                     l3241 0071                                       l3233 0061  
                                     l3225 068C                                       l3217 067C  
                                     l3209 066B                                       l3401 0535  
                                     l2513 09EC                                       l3147 0BC0  
                                     l3139 0BA1                                       l3171 0584  
                                     l3163 0A28                                       l3331 030B  
                                     l3323 02F7                                       l3315 02DB  
                                     l3307 0257                                       l3251 008D  
                                     l3243 0076                                       l3235 0067  
                                     l3227 069C                                       l3219 0685  
                                     l3411 056E                                       l3403 0540  
                                     l2507 09CB                                       l3501 07F9  
                                     l3149 0BC6                                       l3173 058E  
                                     l3165 0A37                                       l3157 0A1B  
                                     l3341 0330                                       l3333 030F  
                                     l3325 0300                                       l3317 02E9  
                                     l3309 0284                                       l3261 00A2  
                                     l3253 0093                                       l3245 007E  
                                     l3237 006B                                       l3229 06A1  
                                     l3413 0573                                       l3405 0544  
                                     l3421 06B0                                       l2509 09D9  
                                     l3191 081F                                       l3431 089C  
                                     l3511 0A06                                       l3183 05D0  
                                     l3175 05B1                                       l3167 0A3C  
                                     l3159 0A1D                                       l3351 036E  
                                     l3343 033E                                       l3335 0323  
                                     l3319 02F2                                       l3327 0306  
                                     l3271 00BE                                       l3263 00AA  
                                     l3255 0097                                       l3247 0080  
                                     l3239 006C                                       l3415 0577  
                                     l3407 054E                                       l3423 06F1  
                                     l3433 08A0                                       l3441 08B7  
                                     l3513 0A0D                                       l3505 09F1  
                                     l3601 0EE0                                       l3185 05F6  
                                     l3177 05CD                                       l3361 039A  
                                     l3353 0379                                       l3345 0342  
                                     l3329 030A                                       l3281 0101  
                                     l3265 00AC                                       l3257 0098  
                                     l3249 0088                                       l3193 0631  
                                     l3417 0578                                       l3409 0558  
                                     l3425 06FF                                       l3521 0865  
                                     l3435 08A5                                       l3451 0BE5  
                                     l3443 0BDF                                       l3515 0A13  
                                     l3507 09F5                                       l3531 0B3E  
                                     l3523 0B12                                       l3611 0F00  
                                     l3603 0EE4                                       l3187 05FC  
                                     l3363 03A2                                       l3355 0388  
                                     l3347 035B                                       l3339 032B  
                                     l3291 018A                                       l3283 011D  
                                     l3275 00C7                                       l3267 00B4  
                                     l3259 009D                                       l3195 063E  
                                     l3427 071D                                       l3437 08AE  
                                     l3461 0C0E                                       l3453 0BFF  
                                     l3445 0BE2                                       l3509 09F9  
                                     l3533 0B43                                       l3525 0B32  
                                     l3613 0F07                                       l3605 0EE8  
                                     l3701 0442                                       l3189 0602  
                                     l3365 03A6                                       l3357 0392  
                                     l3349 0361                                       l3293 019A  
                                     l3285 0149                                       l3277 00D7  
                                     l3269 00B9                                       l3381 04F1  
                                     l3373 04C8                                       l3429 0723  
                                     l3541 0A8E                                       l3471 07A1  
                                     l3439 08B2                                       l3463 0C17  
                                     l3455 0C00                                       l3535 0B48  
                                     l3527 0B39                                       l3607 0EF9  
                                     l3615 0F0D                                       l3631 0D3B  
                                     l3623 0D2D                                       l3711 0453  
                                     l3703 0444                                       l3367 03A7  
                                     l3359 0394                                       l3295 01B7  
                                     l3287 0165                                       l3279 00E4  
                                     l3199 0647                                       l3391 050C  
                                     l3375 04CD                                       l3519 085D  
                                     l3543 0A94                                       l3551 0A69  
                                     l3481 07B0                                       l3473 07A4  
                                     l3465 0C1C                                       l3457 0C05  
                                     l3561 0CEB                                       l3553 0CD4  
                                     l3529 0B3A                                       l3537 0B4C  
                                     l3617 0F12                                       l3609 0EFF  
                                     l3641 0D54                                       l3633 0D3F  
                                     l3625 0D30                                       l3721 046C  
                                     l3713 0458                                       l3705 0449  
                                     l3369 03B2                                       l3297 01C7  
                                     l3289 0181                                       l3393 0513  
                                     l3385 04FA                                       l3377 04D1  
                                     l3545 0A97                                       l3801 0FE4  
                                     l3491 07DD                                       l3483 07B5  
                                     l3475 07A7                                       l3467 0C24  
                                     l3459 0C08                                       l3571 0D13  
                                     l3563 0CF2                                       l3555 0CDB  
                                     l3619 0F17                                       l3651 0D73  
                                     l3643 0D58                                       l3635 0D44  
                                     l3627 0D34                                       l3723 0471  
                                     l3715 045D                                       l3707 044D  
                                     l3299 01E4                                       l3395 0517  
                                     l3387 04FF                                       l3379 04E1  
                                     l3539 0A6E                                       l3547 0A41  
                                     l3803 0FF4                                       l3811 0D8E  
                                     l2941 083A                                       l3493 07E2  
                                     l3485 07CD                                       l3469 07A0  
                                     l3573 0D24                                       l3565 0D00  
                                     l3557 0CDF                                       l3901 086C  
                                     l3581 0EB6                                       l3645 0D5C  
                                     l3637 0D4A                                       l3653 0D79  
                                     l3629 0D39                                       l3725 0476  
                                     l3717 0462                                       l3709 0451  
                                     l3733 0485                                       l3397 0525  
                                     l3389 0503                                       l3661 0927  
                                     l3549 0A5F                                       l3805 0FFC  
                                     l3821 0DA5                                       l3813 0D93  
                                     l2951 0976                                       l2943 0964  
                                     l3495 07E9                                       l3487 07D0  
                                     l3575 0D29                                       l3567 0D05  
                                     l3559 0CE4                                       l3591 0ECA  
                                     l3583 0EBA                                       l3655 0D7E  
                                     l3647 0D66                                       l3639 0D4D  
                                     l3727 047B                                       l3719 0467  
                                     l3735 04AF                                       l3399 052E  
                                     l3671 0941                                       l3663 092D  
                                     l3751 0B75                                       l3743 0B52  
                                     l3831 0DDF                                       l3823 0DAC  
                                     l3815 0D98                                       l3911 0AAA  
                                     l3903 0A9E                                       l2937 08EC  
                                     l2961 097E                                       l2945 096A  
                                     l3497 07EE                                       l3489 07D6  
                                     l3569 0D0C                                       l3833 0988  
                                     l3593 0ECE                                       l3585 0EBF  
                                     l3657 0D83                                       l3649 0D6C  
                                     l3737 04B7                                       l3729 0480  
                                     l3681 03D1                                       l3673 03BB  
                                     l3665 0931                                       l3753 0B7C  
                                     l3745 0B5A                                       l3761 0DE6  
                                     l3825 0DC2                                       l3817 0D99  
                                     l3809 0D88                                       l3913 0AC4  
                                     l2939 0834                                       l2971 0841  
                                     l2947 096E                                       l3499 07F6  
                                     l3835 098D                                       l3595 0ED0  
                                     l3587 0EC1                                       l3579 0EB3  
                                     l3691 03F5                                       l3683 03D8  
                                     l3675 03C2                                       l3667 0936  
                                     l3755 0B80                                       l3747 0B61  
                                     l3771 0E16                                       l3763 0DEC  
                                     l3827 0DC7                                       l3819 0D9E  
                                     l3915 0ACB                                       l3931 0AF5  
                                     l3923 0AD7                                       l2973 084B  
                                     l2965 0983                                       l2949 0972  
                                     l3837 0994                                       l3597 0ED6  
                                     l3589 0EC5                                       l3693 0431  
                                     l3685 03DD                                       l3677 03C8  
                                     l3669 093C                                       l3757 0B87  
                                     l3749 0B6F                                       l3773 0E1B  
                                     l3765 0DF3                                       l3781 0E41  
                                     l3829 0DCD                                       l3861 082E  
                                     l3917 0ACF                                       l3909 0AA1  
                                     l3933 0AFF                                       l3925 0ADC  
                                     l2975 084E                                       l3839 0998  
                                     l3599 0ED9                                       l3695 0435  
                                     l3687 03E7                                       l3679 03CB  
                                     l3759 0B8D                                       l3775 0E37  
                                     l3767 0E0F                                       l3791 0FB4  
                                     l3783 0F8A                                       l3863 087C  
                                     l3871 0955                                       l3935 0B04  
                                     l3927 0AE1                                       l3881 0C7E  
                                     l2977 17EC                                       l2969 17F4  
                                     l3697 043A                                       l3689 03EE  
                                     l3777 0E3D                                       l3769 0E15  
                                     l3793 0FC4                                       l3785 0F8F  
                                     l3857 17FA                                       l3873 0959  
                                     l3865 0948                                       l3937 0B09  
                                     l3929 0AF0                                       l3891 0CB5  
                                     l3883 0C7E                                       l3699 043E  
                                     l3779 0E3E                                       l3795 0FCC  
                                     l3787 0F97                                       l3859 0829  
                                     l3875 095D                                       l3867 0949  
                                     l3893 0CBA                                       l3885 0C8D  
                                     l3797 0FD0                                       l3789 0FA4  
                                     l3877 0962                                       l3869 094D  
                                     l3895 0CC0                                       l3887 0C9D  
                                     l3799 0FD5                                       l3897 0CC6  
                                     l3889 0CAC                                       l3899 0CCD  
                                     l3995 048F                             ??_LED_BLINKING 00AA  
                                     u4000 0BB4                                       u4001 0BB3  
                                     u4010 0BC0                                       u4011 0BBF  
                                     u4100 0602                                       u4101 0601  
                                     u4030 0BD5                                       u4110 063E  
                                     u4031 0BD4                                       u4015 0BBC  
                                     u4111 063D                                       u5000 0D3F  
                                     u4040 0A28                                       u4200 06A1  
                                     u4120 0655                                       u5001 0D3E  
                                     u4025 0BC7                                       u4041 0A27  
                                     u4201 06A0                                       u5010 0D4A  
                                     u4210 006B                                       u4130 066B  
                                     u5011 0D49                                       u4211 006A  
                                     u4131 066A                                       u4060 0A3C  
                                     u4220 0071                                       u4140 0672  
                                     u5100 0936                                       u4061 0A3B  
                                     u4301 012B                                       u4221 0070  
                                     u4141 0671                                       u4125 0650  
                                     u5101 0935                                       u5030 0D5C  
                                     u4302 0132                                       u4230 0076  
                                     u5110 093C                                       u5031 0D5B  
                                     u4055 0A2F                                       u4311 0157  
                                     u4303 0139                                       u4231 0075  
                                     u5111 093B                                       u5040 0D66  
                                     u5120 03C2                                       u4400 0290  
                                     u4312 015E                                       u4240 0097  
                                     u4160 0684                                       u5200 0B5A  
                                     u5041 0D65                                       u5025 0D4E  
                                     u5121 03C1                                       u4321 0173  
                                     u4313 0165                                       u4241 0096  
                                     u4161 0683                                       u5201 0B59  
                                     u5130 03D1                                       u4322 017A  
                                     u4250 009D                                       u4170 068B  
                                     u5210 0B61                                       u5131 03D0  
                                     u4091 05E7                                       u4075 059C  
                                     u4411 029C                                       u4323 0181  
                                     u4251 009C                                       u4171 068A  
                                     u4155 0674                                       u5211 0B60  
                                     u5060 0D79                                       u5140 03DD  
                                     u4092 05E8                                       u4500 0323  
                                     u4420 02B8                                       u4412 02A3  
                                     u4260 00A2                                       u5220 0B75  
                                     u2900 09E5                                       u5300 0F97  
                                     u5061 0D78                                       u5045 0D62  
                                     u5141 03DC                                       u4093 05EE  
                                     u4085 05D3                                       u4501 0322  
                                     u4413 02AA                                       u4405 028B  
                                     u4341 01A9                                       u4261 00A1  
                                     u5221 0B74                                       u2901 09E4  
                                     u5301 0F96                                       u5070 0D7E  
                                     u5150 03EE                                       u4094 05EF  
                                     u4510 032A                                       u4342 01B0  
                                     u4270 00B9                                       u4190 069C  
                                     u5230 0B7C                                       u2910 09EC  
                                     u5071 0D7D                                       u5055 0D6D  
                                     u5151 03ED                                       u4095 05F5  
                                     u4511 0329                                       u4431 02C4  
                                     u4351 01D6                                       u4343 01B7  
                                     u4335 0183                                       u4271 00B8  
                                     u4191 069B                                       u5231 0B7B  
                                     u2911 09EB                                       u5160 03F5  
                                     u4096 05F6                                       u4520 0330  
                                     u4432 02CB                                       u4352 01DD  
                                     u4280 00BE                                       u4600 04F1  
                                     u5080 092D                                       u5240 0B87  
                                     u5400 0FFC                                       u5320 0FB4  
                                     u5161 03F4                                       u4521 032F  
                                     u4433 02D2                                       u4425 02B3  
                                     u4353 01E4                                       u4281 00BD  
                                     u4185 068E                                       u4601 04F0  
                                     u5081 092C                                       u5241 0B86  
                                     u5401 0FFB                                       u5321 0FB3  
                                     u5170 043A                                       u4530 0342  
                                     u5090 0931                                       u5250 0B8D  
                                     u5410 0D8E                                       u5171 0439  
                                     u4531 0341                                       u4371 020C  
                                     u4291 010F                                       u5091 0930  
                                     u5251 0B8C                                       u5315 0FAB  
                                     u5411 0D8D                                       u5500 0C8D  
                                     u5180 0449                                       u4540 0351  
                                     u4460 02F6                                       u4372 0213  
                                     u4292 0116                                       u4700 0573  
                                     u4620 0512                                       u5260 0DEC  
                                     u5340 0FC4                                       u5420 0DA5  
                                     u5501 0C8C                                       u5181 0448  
                                     u4461 02F5                                       u4445 02D4  
                                     u4381 0239                                       u4373 021A  
                                     u4365 01E6                                       u4293 011D  
                                     u4701 0572                                       u4621 0511  
                                     u5261 0DEB                                       u5341 0FC3  
                                     u5421 0DA4                                       u3750 083A  
                                     u5190 04B7                                       u3910 0737  
                                     u4550 036E                                       u4382 0240  
                                     u4710 0577                                       u5270 0DF3  
                                     u5350 0FCC                                       u5430 0DDF  
                                     u3751 0839                                       u5191 04B6  
                                     u3911 0736                                       u4551 036D  
                                     u4455 02EB                                       u4391 0266  
                                     u4383 0247                                       u4711 0576  
                                     u4615 0504                                       u5271 0DF2  
                                     u5351 0FCB                                       u5335 0FBB  
                                     u5431 0DDE                                       u5520 0CBA  
                                     u4560 0388                                       u4480 030A  
                                     u4392 026D                                       u4640 0534  
                                     u4720 0723                                       u5280 0E0F  
                                     u2880 09D9                                       u5440 0DE5  
                                     u5521 0CB9                                       u4561 0387  
                                     u4545 034C                                       u4481 0309  
                                     u4393 0274                                       u4641 0533  
                                     u4721 0722                                       u5281 0E0E  
                                     u2881 09D8                                       u5441 0DE4  
                                     u5530 0CC0                                       u5450 09A6  
                                     u4810 0A13                                       u3930 0753  
                                     u4570 03A6                                       u4490 030F  
                                     u5290 0E37                                       u5370 0FE4  
                                     u5531 0CBF                                       u5515 0CA2  
                                     u5451 09A5                                       u4811 0A12  
                                     u3931 0752                                       u4571 03A5  
                                     u4555 036A                                       u4491 030E  
                                     u4475 02F9                                       u4635 0526  
                                     u5291 0E36                                       u2875 09D0  
                                     u5371 0FE3                                       u4740 0C14  
                                     u5540 0CC6                                       u4820 0B32  
                                     u4900 0EC5                                       u4660 0544  
                                     u4580 04CD                                       u4741 0C13  
                                     u5541 0CC5                                       u4805 0A07  
                                     u4821 0B31                                       u4901 0EC4  
                                     u3925 073E                                       u4565 0384  
                                     u4661 0543                                       u4581 04CC  
                                     u5285 0E0B                                       u5365 0FDB  
                                     u4734 0BED                                       u4830 0B39  
                                     u4910 0ED6                                       u3950 0776  
                                     u4670 054A                                       u4590 04D1  
                                     u5390 0FF4                                       u5550 0AAA  
                                     u4735 0BEB                                       u4831 0B38  
                                     u4911 0ED5                                       u3951 0775  
                                     u4671 0549                                       u4655 0539  
                                     u4591 04D0                                       u5295 0E33  
                                     u2895 09DC                                       u5391 0FF3  
                                     u5551 0AA9                                       u4760 07DC  
                                     u4840 0B48                                       u4680 054E  
                                     u5480 094D                                       u5560 0AD5  
                                     u4761 07DB                                       u4841 0B47  
                                     u4825 0B2E                                       u3945 0757  
                                     u4681 054D                                       u5385 0FEB  
                                     u5481 094C                                       u5561 0AD4  
                                     u4770 07E2                                       u4754 07C4  
                                     u4930 0EE8                                       u3970 0794  
                                     u4690 0563                                       u4850 0A8E  
                                     u5490 0962                                       u4771 07E1  
                                     u4755 07C2                                       u4931 0EE7  
                                     u3971 0793                                       u3955 0772  
                                     u4851 0A8D                                       u5491 0961  
                                     u4780 09F9                                       u3980 0B9C  
                                     u4860 0A5F                                       u4781 09F8  
                                     u4925 0EDA                                       u3965 0786  
                                     u3981 0B9B                                       u4861 0A5E  
                                     u4870 0CEB                                       u4950 0EF9  
                                     u4871 0CEA                                       u4951 0EF8  
                                     u4695 055E                                       u4855 0A8A  
                                     u4880 0D0C                                       u4881 0D0B  
                                     u4945 0EE9                                       u4865 0A5B  
                                     u4970 0F0D                                       u4890 0EBA  
                                     u4795 0A00                                       u4971 0F0C  
                                     u4955 0EF5                                       u4891 0EB9  
                                     u3995 0BA2                                       u4980 0F12  
                                     u4981 0F11                                       u4965 0F01  
                                     u4990 0D34                                       u4991 0D33  
                                     _TMR0 0001                                       _Mode 00DA  
                __size_of_Temperature_Calc 0078                          i1___lldiv@divisor 0073  
                                     _main 0AD7                   ??_Scheduler_ActivateTask 007E  
                                     btemp 007E                          i1___lldiv@counter 0024  
                         __end_of_ADC_Init 0909                                       start 0012  
                               e2pext_r@ah 00A8                                 e2pext_r@al 00A7  
                       __size_of_GPIO_Init 0021                              ??_On_Off_Init 003A  
                        ___bmul@multiplier 00A1                           ??_Scheduler_Init 003A  
                        ??_Timer0_CallBack 007E                            _Average_Nvalues 0055  
                            ___fltol@sign1 00D0                                      ?_main 0070  
                          __end_of___awdiv 0F1C                            __end_of___awmod 0D88  
                          __end_of___flmul 03BB                            __end_of___fltol 06AD  
                          __end_of___lldiv 079D                            ___awdiv@divisor 00A0  
                          __end_of___llmod 0C7E                                      i1l103 08EB  
                                    i1l306 0F89                                      i1l601 0EB2  
                          __end_of___lwmod 0BDC                                      i1l282 09BE  
                                    i1l373 0926                                      i1l279 09B2  
                                    i1l591 08D4                                      i1l787 0C7D  
                          ___awdiv@counter 00A4                                      _PORTA 0005  
                                    _PORTB 0006                                      _PORTC 0007  
                                    _PORTD 0008                                      _TRISA 0085  
                                    _TRISB 0086                                      _TRISC 0087  
                                    _TRISD 0088                         i1___lldiv@dividend 0077  
                                    _delay 081F                                      _myISR 09A7  
                                    fpbase 0050                      Display_Blink@Times_Ms 00A6  
               Average_Value@Avrage_Values 00AD                           __end_ofi1___bmul 08D5  
                                    pclath 000A                                      status 0003  
                                    wtemp0 007E                                e2pext_r@ret 00A6  
                       __size_ofi1___lldiv 0068                            _Set_EEPROM_Data 0D88  
                         ?_Get_EEPROM_Data 0070                 ??_ADC_Value_Ready_CallBack 003B  
             __size_of_Start_Setting_Timer 002D                            __initialization 0015  
                        ??_Scheduler_Task1 003A                          ??_Scheduler_Task2 003B  
                        ??_Scheduler_Task3 003B                               __end_of_main 0B12  
                        ??_Scheduler_Start 003B                         i1___lldiv@quotient 0020  
                         __end_of_i2c_stop 08C0                           __end_of_e2pext_r 0D2D  
                  ??_Elements_MainFunction 00A0                        __end_of_On_Off_Init 17FA  
                                   ??_main 003B                          __end_of_GPIO_Init 0985  
                     __end_of_Display_Init 084E                       _Display_MainFunction 03BB  
                                   ?_delay 0070                                     ?_myISR 0070  
                         ___llmod@dividend 0029                                     _ADRESH 001E  
                                   _ADRESL 009E                           ___awdiv@dividend 00A2  
                                   i1l3031 08E9                                     i1l3023 08D5  
                                   i1l3025 08DD                                     i1l3027 08E2  
                                   i1l3029 08E4                                     i1l2831 0C3E  
                                   i1l2841 0C6F                                     i1l2833 0C42  
                                   i1l2825 0C28                                     i1l2835 0C46  
                                   i1l2827 0C32                                     i1l2843 0C75  
                                   i1l2851 0E60                                     i1l2837 0C58  
                                   i1l2829 0C35                                     i1l2861 0E8C  
                                   i1l2853 0E69                                     i1l2839 0C66  
                                   i1l2863 0E9A                                     i1l2855 0E6D  
                                   i1l2847 0E4B                                     i1l2881 08CC  
                                   i1l2873 08C1                                     i1l2865 0E9B  
                                   i1l2857 0E71                                     i1l2849 0E5D  
                                   i1l3841 0F1C                                     i1l3921 0919  
                                   i1l2883 08CE                                     i1l2875 08C2  
                                   i1l2867 0EA4                                     i1l2859 0E7A  
                                   i1l3851 0F79                                     i1l3843 0F26  
                                   i1l2885 08D3                                     i1l2877 08C6  
                                   i1l2869 0EAA                                     i1l3853 0F7F  
                                   i1l3941 09AB                                     i1l2879 08CA  
                                   i1l3855 0F83                                     i1l3919 0909  
                                   i1l3943 09AC                                     i1l3849 0F27  
                                   i1l3945 09B6                                     i1l3947 09B7  
                                   i1l3939 09A7                                     i1l3949 09B9  
                                   _INTEDG 040E                                     u360_20 0C75  
                                   u360_21 0C74                                     u361_20 0E5D  
                                   u361_21 0E5C                                     u362_25 0E62  
                                   u355_20 0C32                                     u363_20 0E71  
                                   u355_21 0C31                                     u363_21 0E70  
                                   u356_25 0C37                                     u364_25 0E73  
                                   u357_20 0C46                                     u365_20 0E8C  
                                   u357_21 0C45                                     u365_21 0E8B  
                                   u365_25 0E88                                     u358_20 0C58  
                                   u358_21 0C57                                     u358_25 0C54  
                                   u366_25 0E9C                                     u383_20 08DD  
                                   u367_20 0EAA                                     u383_21 08DC  
                                   u367_21 0EA9                                     u359_25 0C67  
                                   u384_20 08E2                                     u368_20 08C6  
                                   u384_21 08E1                                     u368_21 08C5  
                                   u385_20 08E9                                     u369_20 08D3  
                                   u385_21 08E8                                     u369_21 08D2  
                                   u546_20 0F79                                     u546_21 0F78  
                                   u547_20 0F89                                     u547_21 0F88  
                                   u557_20 09AB                                     u557_21 09AA  
                                   u558_20 09B6                                     u558_21 09B5  
                         __end_of__fptable 005A                         __size_of_i2c_start 0012  
                         __end_of___xxtofl 0581            __size_of_Scheduler_ActivateTask 006E  
                       __size_of_Mode_Init 0004                             _Enable_Display 004C  
                            ??_Timer0_Init 003A                                     _i2c_rb 079D  
                                   _i2c_wb 0BDC               __end_of_EXTI_On_Off_CallBack 08EC  
     Scheduler_ActivateTask@SystemTick_Loc 0031                                     ___bmul 0945  
                __size_of_LED_MainFunction 0042                                     ___wmul 09F1  
                                ??___awdiv 003A                                  ??___awmod 003A  
                                ??___flmul 00B6                                  ??___fltol 00CC  
                                ??___lldiv 003A                                  ??___llmod 007C  
                                ??___lwmod 003A                                     _memset 0985  
                     __end_of_LED_BLINKING 0A9E                           ___awdiv@quotient 00A6  
                          ___awmod@divisor 00A0                            ___awmod@counter 00A4  
        Scheduler_ActivateTask@IntityIndex 0035             __size_of_ADC_Conv_MainFunction 001E  
                                   fptable 004B              __end_of_ADC_Conv_MainFunction 0945  
                        __end_ofi1___lldiv 0EB3                                     fptotal 0006  
                       __size_of__Umul8_16 0029                                  ?_ADC_Init 0070  
                      Get_EEPROM_Data@Flag 00AA                                     saved_w 007E  
                      Get_EEPROM_Data@Temp 00AB               __end_of_Read_UP_DOWN_BUTTONS 09F1  
                    ?_Display_MainFunction 0070                               e2pext_r@addr 00A4  
         Scheduler_ActivateTask@SystemTick 002D                    __end_of_Set_EEPROM_Data 0DE6  
                    __end_of_Elements_Init 085D                               ___xxtofl@arg 00AA  
                             ___xxtofl@exp 00A9                               ___xxtofl@val 00A0  
                         _Temperature_Calc 06AD                    __end_of__initialization 0047  
                               ___fltol@f1 00C8                        ___bmul@multiplicand 003A  
                              _On_Off_Init 17F4                             __pcstackCOMMON 0070  
                             __pidataBANK0 17F0                              __end_of_delay 0829  
                            __end_of_myISR 09CB                        __end_of_Timer0_Init 089C  
                                ?i1___bmul 0070                     _Scheduler_ActivateTask 0F1C  
                        __end_of_i2c_start 08AE             Start_Setting_Timer@Peroid_Task 00A8  
                           _OPTION_REGbits 0081                          __end_of_Mode_Init 17F0  
                               ??_ADC_Init 003A                      __end_of_Average_Value 0631  
                                  ??_delay 003A                           i1___bmul@product 0071  
                                  ??_myISR 0036                          Set_EEPROM_Data@ah 0045  
                        Set_EEPROM_Data@al 0044                          Set_EEPROM_Data@nt 0043  
                               __pbssBANK0 003B                                 __pbssBANK1 00DA  
                               __pbssBANK3 0190                                  ?_i2c_stop 0070  
                                ?_e2pext_r 00A4                            _Timer0_CallBack 0909  
                                  ?_i2c_rb 0070                                    ?_i2c_wb 0070  
                        __end_of__Umul8_16 0A41                                 __pmaintext 0AD7  
                    __end_of_Display_Blink 0B52                                    ?___bmul 003A  
                                  ?___wmul 00A0                                 __pintentry 0004  
                                  ?_memset 00A0                                 ??i1___bmul 0071  
                    __size_of_Display_Init 000D                    LED_BLINKING@Task_Peroid 00A8  
              Display_MainFunction@Digit_1 004A                Display_MainFunction@Digit_2 0049  
                                ?___xxtofl 00A0                     ??_Display_MainFunction 00AC  
              Display_MainFunction@Display 0047                        _Start_Setting_Timer 0A41  
                     _EXTI_On_Off_CallBack 08D5             Display_MainFunction@Tempreture 0048  
                         ?_Set_EEPROM_Data 0070                                 __stringtab 0800  
                                  i2c_rb@i 00A2                                    i2c_wb@i 00A3  
                          _Scheduler_Task1 17FA                            _Scheduler_Task2 0829  
                          _Scheduler_Task3 087C                            _Scheduler_Start 0A9E  
                               ??_i2c_stop 003A                                 ??_e2pext_r 003B  
                              _Timer0_Init 088C                            __size_of_i2c_rb 0060  
                          __size_of_i2c_wb 004C                       ?_Start_Setting_Timer 00A6  
                    __size_of_LED_BLINKING 0030                               _Display_Init 0841  
                     _Read_UP_DOWN_BUTTONS 09CB                           _LED_MainFunction 0B52  
                          __size_of___bmul 001F                                    ___awdiv 0EB3  
                                  ___awmod 0D2D                                    ___flmul 005A  
                                  ___fltol 0631                                    ___lldiv 0725  
                          __size_of___wmul 0027                                    ___llmod 0C28  
                                  ___lwmod 0B94                                _Temperature 004D  
                          __size_of_memset 0022             __size_of_Elements_MainFunction 0065  
                                  __ptext1 088C                                    __ptext2 0A9E  
                                  __ptext3 0945                                    __ptext4 0829  
                                  __ptext5 17FA                                    __ptext6 087C  
                                  __ptext7 0D88                                    __ptext8 0F8A  
                                  __ptext9 0A41                Start_Setting_Timer@Timer_Ms 00A6  
            __end_of_Elements_MainFunction 0E4B          ADC_Value_Ready_CallBack@ADC_Value 00D7  
                               ??___xxtofl 00A4                           ___awmod@dividend 00A2  
                      i1___bmul@multiplier 0072                      ?_EXTI_On_Off_CallBack 0070  
                  __end_of_Timer0_CallBack 0927                                    clrloop0 0818  
                                _GPIO_Init 0964                       end_of_initialization 0047  
                  __size_of_ADC_Start_Conv 000D                               _LED_BLINKING 0A6E  
                                  memset@c 00A0                                    memset@n 00A2  
                                  memset@p 00A4                            ___lldiv@divisor 00A0  
                    ??_Start_Setting_Timer 00AA                            ___lldiv@counter 00AC  
                    ?_Read_UP_DOWN_BUTTONS 0070                   __size_of_Get_EEPROM_Data 0056  
                 __end_of_Temperature_Calc 0725                                  _PORTCbits 0007  
                  __size_of_Scheduler_Init 0010                              ___xxtofl@sign 00A8  
                  __end_of_Scheduler_Task1 1800                    __end_of_Scheduler_Task2 0834  
                  __end_of_Scheduler_Task3 088C          __size_of_ADC_Value_Ready_CallBack 000F  
                                _TRISCbits 0087                  ?_ADC_Value_Ready_CallBack 0070  
                  __end_of_Scheduler_Start 0AD7                                  i1___lldiv 0E4B  
                        __size_of_ADC_Init 001D                                 ?_GPIO_Init 0070  
                      LED_BLINKING@Counter 0052                                ___flmul@grs 00BD  
                                i2c_rb@ack 00A0                                  i2c_rb@ret 00A1  
                Temperature_Calc@ADC_VALUE 00D6                                  i2c_wb@val 00A2  
                        _Scheduler_Intitys 0806                        LED_BLINKING@Time_Ms 00A6  
                             ?_On_Off_Init 0070                             __end_of_i2c_rb 07FD  
                           __end_of_i2c_wb 0C28                    ?_Scheduler_ActivateTask 002D  
                           __end_of___bmul 0964                       Display_Blink@Counter 0053  
                           __end_of___wmul 0A18                             __end_of_memset 09A7  
                        __size_ofi1___bmul 0015                        start_initialization 0015  
                   ??_EXTI_On_Off_CallBack 0070                      _ADC_Conv_MainFunction 0927  
                        _Mode_MainFunction 0F8A                                  _i2c_start 089C  
                               ?i1___lldiv 0073                           ?_Timer0_CallBack 0070  
                                _Mode_Init 17EC                         ?_Mode_MainFunction 0070  
                __end_of_Scheduler_Intitys 0815                            ___llmod@divisor 0025  
                          ___llmod@counter 007D                        ??_Mode_MainFunction 00AC  
                        __size_of_i2c_stop 0012                          __size_of_e2pext_r 0059  
                                 ??_i2c_rb 003A                                   ??_i2c_wb 00A0  
                   ??_Read_UP_DOWN_BUTTONS 003A             __end_of_Scheduler_ActivateTask 0F8A  
                                 ??___bmul 003B                                   ??___wmul 003A  
                                __Umul8_16 0A18                                __pdataBANK0 0052  
                                 ??_memset 003A                     __size_of_Elements_Init 000F  
                __end_of_Mode_MainFunction 1000                                  ___flmul@a 00B2  
                                ___flmul@b 00AE                          ??_Get_EEPROM_Data 00A9  
                                ___latbits 0002                              __pcstackBANK0 0020  
                            __pcstackBANK1 00A0                           ?_Scheduler_Task1 0070  
                         ?_Scheduler_Task2 0070                           ?_Scheduler_Task3 0070  
                               ?_i2c_start 0070                           ?_Scheduler_Start 0070  
                        __size_of__fptable 000F                          __size_of___xxtofl 00BC  
                 __end_of_LED_MainFunction 0B94                                 ?_Mode_Init 0070  
                              ??_GPIO_Init 003A                             _ADC_Start_Conv 0834  
                              _EEPROM_Data 0046                               ?_Timer0_Init 0070  
                                __pfunctab 004B                     __size_of_Average_Value 00B0  
                                 ?___awdiv 00A0                                   ?___awmod 00A0  
                                 ?___flmul 00AE                                   ?___fltol 00C8  
                                 ?___lldiv 00A0                                   ?___llmod 0025  
                               ?__Umul8_16 00A0                                   ?___lwmod 00A0  
                                __pstrings 0800                             _Scheduler_Init 086C  
                   ?_ADC_Conv_MainFunction 0070                                   _ADC_Info 00DC  
                                 _ADC_Init 08EC                     __end_of_ADC_Start_Conv 0841  
            __size_of_Display_MainFunction 010A                                ??i1___lldiv 007B  
                           __size_of_delay 000A                     __size_of_Display_Blink 0040  
                           __size_of_myISR 0024  Display_MainFunction@Enable_Digit_Selector 0054  
                        interrupt_function 0004                              _Elements_Init 084E  
                           ___wmul@product 00A4                                  clear_ram0 0817  
                    i1___bmul@multiplicand 0070                   __size_of_Set_EEPROM_Data 005E  
         __end_of_ADC_Value_Ready_CallBack 086C                       __size_of_On_Off_Init 0006  
                   __end_of_Scheduler_Init 087C                                   i1___bmul 08C0  
                               _ADCON0bits 001F                                __stringbase 0805  
                               _ADCON1bits 009F                          ___wmul@multiplier 00A0  
                        ?_Temperature_Calc 0070                 __size_of_Mode_MainFunction 0076  
                    _Elements_MainFunction 0DE6                         ??_Temperature_Calc 00D2  
                              ??_i2c_start 003A                            ?_ADC_Start_Conv 0070  
                            _Average_Value 0581                                ??_Mode_Init 003A  
                           ?_Elements_Init 0070                __end_of_Start_Setting_Timer 0A6E  
                                 _i2c_stop 08AE                                   _e2pext_r 0CD4  
                                 _Tick_Num 003B                              _Display_Blink 0B12  
                              ??__Umul8_16 00A2                           __size_of___awdiv 0069  
                         __size_of___awmod 005B                           __size_of___flmul 0361  
                         __size_of___fltol 007C                           __size_of___lldiv 0078  
                         __size_of___llmod 0056                           __size_of___lwmod 0048  
                          ?_Scheduler_Init 0070                         __end_of__stringtab 0806  
                                 __fptable 004B                                   ___xxtofl 04C5  
                 Display_Blink@Task_Peroid 00A8                             ?_Average_Value 00AD  
                                 __ptext10 09CB                                   __ptext11 0DE6  
                                 __ptext20 0A18                                   __ptext12 0B52  
                                 __ptext21 0581                                   __ptext13 0A6E  
                                 __ptext30 0985                                   __ptext22 0B94  
                                 __ptext14 0927                                   __ptext31 17F4  
                                 __ptext23 0725                                   __ptext15 085D  
                                 __ptext40 0964                                   __ptext32 17EC  
                                 __ptext24 03BB                                   __ptext16 06AD  
                                 __ptext41 084E                                   __ptext33 0C7E  
                                 __ptext25 0D2D                                   __ptext17 04C5  
                                 __ptext50 0C28                                   __ptext42 0841  
                                 __ptext34 0CD4                                   __ptext26 0EB3  
                                 __ptext18 0631                                   __ptext51 08D5  
                                 __ptext43 0834                                   __ptext35 0BDC  
                                 __ptext27 0B12                                   __ptext19 005A  
                                 __ptext44 08EC                                   __ptext36 08AE  
                                 __ptext28 09F1                                   __ptext45 09A7  
                                 __ptext37 089C                                   __ptext29 086C  
                                 __ptext46 0909                                   __ptext38 079D  
                                 __ptext47 0F1C                                   __ptext39 081F  
                                 __ptext48 0E4B                                   __ptext49 08C0  
                            __size_of_main 003B                                   _temb_val 0190  
                           ?_Display_Blink 00A6                              _Avrage_buffer 003F  
                     __size_of_Timer0_Init 0010                            _Get_EEPROM_Data 0C7E  
                        ??_Set_EEPROM_Data 003B                   _ADC_Value_Ready_CallBack 085D  
                   ?_Elements_MainFunction 0070                                 _LED_Status 004B  
                               _INTCONbits 000B                                   memset@p1 00A5  
            __size_of_EXTI_On_Off_CallBack 0017                            ??_Elements_Init 003A  
                        ?_LED_MainFunction 0070                                   intlevel1 004B  
                       ??_LED_MainFunction 003A                           ___lwmod@dividend 00A2  
                         ___lldiv@dividend 00A4                 Scheduler_Start@IntityIndex 00D9  
                _Scheduler_ActivationFlags 00DD                   __size_of_Timer0_CallBack 001E  
                                stringcode 0800                              ?_Display_Init 0070  
            __size_of_Read_UP_DOWN_BUTTONS 0026                    ??_ADC_Conv_MainFunction 003B  
                   __Umul8_16@multiplicand 00A0                            ??_Average_Value 00AE  
                         ___lldiv@quotient 00A8                            ___lwmod@divisor 00A0  
                          ___lwmod@counter 003A                                   stringdir 0800  
                                 stringtab 0800                         Average_Value@Value 00B3  
                       Average_Value@index 00B4                              ?_LED_BLINKING 00A6  
                 __size_of_Scheduler_Task1 0006                   __size_of_Scheduler_Task2 000B  
                 __size_of_Scheduler_Task3 0010                         fp__Scheduler_Task1 0054  
                       fp__Scheduler_Task2 0057                         fp__Scheduler_Task3 0051  
                 __size_of_Scheduler_Start 0039                       __Umul8_16@multiplier 00A8  
                  __end_of_Get_EEPROM_Data 0CD4                            ??_Display_Blink 00AA  
                           ??_Display_Init 003A               __end_of_Display_MainFunction 04C5  
                        __Umul8_16@product 00A4  
