

Microchip MPLAB XC8 Assembler V2.20 build 20200408173844 
                                                                                               Sat Jul 18 18:59:49 2020

Microchip MPLAB XC8 C Compiler v2.20 (Free license) build 20200408173844 Og1 
     1                           	processor	16F877A
     2                           	pagewidth 120
     3                           	opt	flic
     4                           	psect	idataBANK0,global,class=CODE,delta=2,noexec
     5                           	psect	strings,global,class=STRING,delta=2,noexec
     6                           	psect	cinit,global,class=CODE,merge=1,delta=2
     7                           	psect	bssBANK0,global,class=BANK0,space=1,delta=1,noexec
     8                           	psect	dataBANK0,global,class=BANK0,space=1,delta=1,noexec
     9                           	psect	bssBANK1,global,class=BANK1,space=1,delta=1,noexec
    10                           	psect	bssBANK3,global,class=BANK3,space=1,delta=1,noexec
    11                           	psect	clrtext,global,class=CODE,delta=2
    12                           	psect	cstackBANK1,global,class=BANK1,space=1,delta=1,noexec
    13                           	psect	cstackCOMMON,global,class=COMMON,space=1,delta=1,noexec
    14                           	psect	cstackBANK0,global,class=BANK0,space=1,delta=1,noexec
    15                           	psect	maintext,global,class=CODE,split=1,delta=2
    16                           	psect	text1,local,class=CODE,merge=1,delta=2
    17                           	psect	text2,local,class=CODE,merge=1,delta=2
    18                           	psect	text3,local,class=CODE,merge=1,delta=2,group=1
    19                           	psect	text4,local,class=CODE,merge=1,delta=2
    20                           	psect	text5,local,class=CODE,merge=1,delta=2
    21                           	psect	text6,local,class=CODE,merge=1,delta=2
    22                           	psect	text7,local,class=CODE,merge=1,delta=2
    23                           	psect	text8,local,class=CODE,merge=1,delta=2
    24                           	psect	text9,local,class=CODE,merge=1,delta=2
    25                           	psect	text10,local,class=CODE,merge=1,delta=2
    26                           	psect	text11,local,class=CODE,merge=1,delta=2
    27                           	psect	text12,local,class=CODE,merge=1,delta=2
    28                           	psect	text13,local,class=CODE,merge=1,delta=2,group=1
    29                           	psect	text14,local,class=CODE,merge=1,delta=2,group=1
    30                           	psect	text15,local,class=CODE,merge=1,delta=2,group=1
    31                           	psect	text16,local,class=CODE,merge=1,delta=2,group=1
    32                           	psect	text17,local,class=CODE,merge=1,delta=2
    33                           	psect	text18,local,class=CODE,merge=1,delta=2,group=1
    34                           	psect	text19,local,class=CODE,merge=1,delta=2,group=1
    35                           	psect	text20,local,class=CODE,merge=1,delta=2
    36                           	psect	text21,local,class=CODE,merge=1,delta=2
    37                           	psect	text22,local,class=CODE,merge=1,delta=2
    38                           	psect	text23,local,class=CODE,merge=1,delta=2
    39                           	psect	text24,local,class=CODE,merge=1,delta=2
    40                           	psect	text25,local,class=CODE,merge=1,delta=2
    41                           	psect	text26,local,class=CODE,merge=1,delta=2
    42                           	psect	text27,local,class=CODE,merge=1,delta=2,group=1
    43                           	psect	text28,local,class=CODE,merge=1,delta=2
    44                           	psect	text29,local,class=CODE,merge=1,delta=2,group=1
    45                           	psect	text30,local,class=CODE,merge=1,delta=2
    46                           	psect	text31,local,class=CODE,merge=1,delta=2
    47                           	psect	text32,local,class=CODE,merge=1,delta=2
    48                           	psect	text33,local,class=CODE,merge=1,delta=2
    49                           	psect	text34,local,class=CODE,merge=1,delta=2
    50                           	psect	text35,local,class=CODE,merge=1,delta=2
    51                           	psect	text36,local,class=CODE,merge=1,delta=2,group=1
    52                           	psect	text37,local,class=CODE,merge=1,delta=2
    53                           	psect	text38,local,class=CODE,merge=1,delta=2
    54                           	psect	text39,local,class=CODE,merge=1,delta=2
    55                           	psect	text40,local,class=CODE,merge=1,delta=2
    56                           	psect	text41,local,class=CODE,merge=1,delta=2
    57                           	psect	text42,local,class=CODE,merge=1,delta=2
    58                           	psect	text43,local,class=CODE,merge=1,delta=2
    59                           	psect	text44,local,class=CODE,merge=1,delta=2
    60                           	psect	text45,local,class=CODE,merge=1,delta=2
    61                           	psect	text46,local,class=CODE,merge=1,delta=2
    62                           	psect	text47,local,class=CODE,merge=1,delta=2,group=2
    63                           	psect	text48,local,class=CODE,merge=1,delta=2
    64                           	psect	text49,local,class=CODE,merge=1,delta=2
    65                           	psect	text50,local,class=CODE,merge=1,delta=2
    66                           	psect	intentry,global,class=CODE,delta=2
    67                           	psect	text51,local,class=CODE,merge=1,delta=2
    68                           	psect	text52,local,class=CODE,merge=1,delta=2
    69                           	psect	text53,local,class=CODE,merge=1,delta=2
    70                           	psect	text54,local,class=CODE,merge=1,delta=2
    71                           	psect	text55,local,class=CODE,merge=1,delta=2,group=1
    72                           	psect	text56,local,class=CODE,merge=1,delta=2
    73                           	psect	functab,global,class=ENTRY,delta=2
    74                           	psect	config,global,abs,ovrld,class=CONFIG,space=4,delta=2,noexec
    75                           	dabs	1,0x7E,2
    76  0000                     
    77                           ; Version 2.20
    78                           ; Generated 12/02/2020 GMT
    79                           ; 
    80                           ; Copyright © 2020, Microchip Technology Inc. and its subsidiaries ("Microchip")
    81                           ; All rights reserved.
    82                           ; 
    83                           ; This software is developed by Microchip Technology Inc. and its subsidiaries ("Microch
      +                          ip").
    84                           ; 
    85                           ; Redistribution and use in source and binary forms, with or without modification, are
    86                           ; permitted provided that the following conditions are met:
    87                           ; 
    88                           ;     1. Redistributions of source code must retain the above copyright notice, this lis
      +                          t of
    89                           ;        conditions and the following disclaimer.
    90                           ; 
    91                           ;     2. Redistributions in binary form must reproduce the above copyright notice, this 
      +                          list
    92                           ;        of conditions and the following disclaimer in the documentation and/or other
    93                           ;        materials provided with the distribution.
    94                           ; 
    95                           ;     3. Microchip's name may not be used to endorse or promote products derived from th
      +                          is
    96                           ;        software without specific prior written permission.
    97                           ; 
    98                           ; THIS SOFTWARE IS PROVIDED BY MICROCHIP "AS IS" AND ANY EXPRESS OR IMPLIED WARRANTIES,
    99                           ; INCLUDING, BUT NOT LIMITED TO, THE IMPLIED WARRANTIES OF MERCHANTABILITY AND FITNESS F
      +                          OR
   100                           ; PURPOSE ARE DISCLAIMED.  IN NO EVENT SHALL MICROCHIP BE LIABLE FOR ANY DIRECT, INDIREC
      +                          T,
   101                           ; INCIDENTAL, SPECIAL, EXEMPLARY, OR CONSEQUENTIAL DAMAGES (INCLUDING BUT NOT LIMITED TO
   102                           ; PROCUREMENT OF SUBSTITUTE GOODS OR SERVICES; LOSS OF USE, DATA OR PROFITS; OR BUSINESS
   103                           ; INTERRUPTION) HOWSOEVER CAUSED AND ON ANY THEORY OF LIABILITY, WHETHER IN CONTRACT, ST
      +                          RICT
   104                           ; LIABILITY, OR TORT (INCLUDING NEGLIGENCE OR OTHERWISE) ARISING IN ANY WAY OUT OF THE U
      +                          SE OF
   105                           ; THIS SOFTWARE, EVEN IF ADVISED OF THE POSSIBILITY OF SUCH DAMAGE.
   106                           ; 
   107                           ; 
   108                           ; Code-generator required, PIC16F877A Definitions
   109                           ; 
   110                           ; SFR Addresses
   111  0000                     	;# 
   112  0001                     	;# 
   113  0002                     	;# 
   114  0003                     	;# 
   115  0004                     	;# 
   116  0005                     	;# 
   117  0006                     	;# 
   118  0007                     	;# 
   119  0008                     	;# 
   120  0009                     	;# 
   121  000A                     	;# 
   122  000B                     	;# 
   123  000C                     	;# 
   124  000D                     	;# 
   125  000E                     	;# 
   126  000E                     	;# 
   127  000F                     	;# 
   128  0010                     	;# 
   129  0011                     	;# 
   130  0012                     	;# 
   131  0013                     	;# 
   132  0014                     	;# 
   133  0015                     	;# 
   134  0015                     	;# 
   135  0016                     	;# 
   136  0017                     	;# 
   137  0018                     	;# 
   138  0019                     	;# 
   139  001A                     	;# 
   140  001B                     	;# 
   141  001B                     	;# 
   142  001C                     	;# 
   143  001D                     	;# 
   144  001E                     	;# 
   145  001F                     	;# 
   146  0081                     	;# 
   147  0085                     	;# 
   148  0086                     	;# 
   149  0087                     	;# 
   150  0088                     	;# 
   151  0089                     	;# 
   152  008C                     	;# 
   153  008D                     	;# 
   154  008E                     	;# 
   155  0091                     	;# 
   156  0092                     	;# 
   157  0093                     	;# 
   158  0094                     	;# 
   159  0098                     	;# 
   160  0099                     	;# 
   161  009C                     	;# 
   162  009D                     	;# 
   163  009E                     	;# 
   164  009F                     	;# 
   165  010C                     	;# 
   166  010D                     	;# 
   167  010E                     	;# 
   168  010F                     	;# 
   169  018C                     	;# 
   170  018D                     	;# 
   171  0000                     	;# 
   172  0001                     	;# 
   173  0002                     	;# 
   174  0003                     	;# 
   175  0004                     	;# 
   176  0005                     	;# 
   177  0006                     	;# 
   178  0007                     	;# 
   179  0008                     	;# 
   180  0009                     	;# 
   181  000A                     	;# 
   182  000B                     	;# 
   183  000C                     	;# 
   184  000D                     	;# 
   185  000E                     	;# 
   186  000E                     	;# 
   187  000F                     	;# 
   188  0010                     	;# 
   189  0011                     	;# 
   190  0012                     	;# 
   191  0013                     	;# 
   192  0014                     	;# 
   193  0015                     	;# 
   194  0015                     	;# 
   195  0016                     	;# 
   196  0017                     	;# 
   197  0018                     	;# 
   198  0019                     	;# 
   199  001A                     	;# 
   200  001B                     	;# 
   201  001B                     	;# 
   202  001C                     	;# 
   203  001D                     	;# 
   204  001E                     	;# 
   205  001F                     	;# 
   206  0081                     	;# 
   207  0085                     	;# 
   208  0086                     	;# 
   209  0087                     	;# 
   210  0088                     	;# 
   211  0089                     	;# 
   212  008C                     	;# 
   213  008D                     	;# 
   214  008E                     	;# 
   215  0091                     	;# 
   216  0092                     	;# 
   217  0093                     	;# 
   218  0094                     	;# 
   219  0098                     	;# 
   220  0099                     	;# 
   221  009C                     	;# 
   222  009D                     	;# 
   223  009E                     	;# 
   224  009F                     	;# 
   225  010C                     	;# 
   226  010D                     	;# 
   227  010E                     	;# 
   228  010F                     	;# 
   229  018C                     	;# 
   230  018D                     	;# 
   231  0000                     	;# 
   232  0001                     	;# 
   233  0002                     	;# 
   234  0003                     	;# 
   235  0004                     	;# 
   236  0005                     	;# 
   237  0006                     	;# 
   238  0007                     	;# 
   239  0008                     	;# 
   240  0009                     	;# 
   241  000A                     	;# 
   242  000B                     	;# 
   243  000C                     	;# 
   244  000D                     	;# 
   245  000E                     	;# 
   246  000E                     	;# 
   247  000F                     	;# 
   248  0010                     	;# 
   249  0011                     	;# 
   250  0012                     	;# 
   251  0013                     	;# 
   252  0014                     	;# 
   253  0015                     	;# 
   254  0015                     	;# 
   255  0016                     	;# 
   256  0017                     	;# 
   257  0018                     	;# 
   258  0019                     	;# 
   259  001A                     	;# 
   260  001B                     	;# 
   261  001B                     	;# 
   262  001C                     	;# 
   263  001D                     	;# 
   264  001E                     	;# 
   265  001F                     	;# 
   266  0081                     	;# 
   267  0085                     	;# 
   268  0086                     	;# 
   269  0087                     	;# 
   270  0088                     	;# 
   271  0089                     	;# 
   272  008C                     	;# 
   273  008D                     	;# 
   274  008E                     	;# 
   275  0091                     	;# 
   276  0092                     	;# 
   277  0093                     	;# 
   278  0094                     	;# 
   279  0098                     	;# 
   280  0099                     	;# 
   281  009C                     	;# 
   282  009D                     	;# 
   283  009E                     	;# 
   284  009F                     	;# 
   285  010C                     	;# 
   286  010D                     	;# 
   287  010E                     	;# 
   288  010F                     	;# 
   289  018C                     	;# 
   290  018D                     	;# 
   291  0000                     	;# 
   292  0001                     	;# 
   293  0002                     	;# 
   294  0003                     	;# 
   295  0004                     	;# 
   296  0005                     	;# 
   297  0006                     	;# 
   298  0007                     	;# 
   299  0008                     	;# 
   300  0009                     	;# 
   301  000A                     	;# 
   302  000B                     	;# 
   303  000C                     	;# 
   304  000D                     	;# 
   305  000E                     	;# 
   306  000E                     	;# 
   307  000F                     	;# 
   308  0010                     	;# 
   309  0011                     	;# 
   310  0012                     	;# 
   311  0013                     	;# 
   312  0014                     	;# 
   313  0015                     	;# 
   314  0015                     	;# 
   315  0016                     	;# 
   316  0017                     	;# 
   317  0018                     	;# 
   318  0019                     	;# 
   319  001A                     	;# 
   320  001B                     	;# 
   321  001B                     	;# 
   322  001C                     	;# 
   323  001D                     	;# 
   324  001E                     	;# 
   325  001F                     	;# 
   326  0081                     	;# 
   327  0085                     	;# 
   328  0086                     	;# 
   329  0087                     	;# 
   330  0088                     	;# 
   331  0089                     	;# 
   332  008C                     	;# 
   333  008D                     	;# 
   334  008E                     	;# 
   335  0091                     	;# 
   336  0092                     	;# 
   337  0093                     	;# 
   338  0094                     	;# 
   339  0098                     	;# 
   340  0099                     	;# 
   341  009C                     	;# 
   342  009D                     	;# 
   343  009E                     	;# 
   344  009F                     	;# 
   345  010C                     	;# 
   346  010D                     	;# 
   347  010E                     	;# 
   348  010F                     	;# 
   349  018C                     	;# 
   350  018D                     	;# 
   351  0000                     	;# 
   352  0001                     	;# 
   353  0002                     	;# 
   354  0003                     	;# 
   355  0004                     	;# 
   356  0005                     	;# 
   357  0006                     	;# 
   358  0007                     	;# 
   359  0008                     	;# 
   360  0009                     	;# 
   361  000A                     	;# 
   362  000B                     	;# 
   363  000C                     	;# 
   364  000D                     	;# 
   365  000E                     	;# 
   366  000E                     	;# 
   367  000F                     	;# 
   368  0010                     	;# 
   369  0011                     	;# 
   370  0012                     	;# 
   371  0013                     	;# 
   372  0014                     	;# 
   373  0015                     	;# 
   374  0015                     	;# 
   375  0016                     	;# 
   376  0017                     	;# 
   377  0018                     	;# 
   378  0019                     	;# 
   379  001A                     	;# 
   380  001B                     	;# 
   381  001B                     	;# 
   382  001C                     	;# 
   383  001D                     	;# 
   384  001E                     	;# 
   385  001F                     	;# 
   386  0081                     	;# 
   387  0085                     	;# 
   388  0086                     	;# 
   389  0087                     	;# 
   390  0088                     	;# 
   391  0089                     	;# 
   392  008C                     	;# 
   393  008D                     	;# 
   394  008E                     	;# 
   395  0091                     	;# 
   396  0092                     	;# 
   397  0093                     	;# 
   398  0094                     	;# 
   399  0098                     	;# 
   400  0099                     	;# 
   401  009C                     	;# 
   402  009D                     	;# 
   403  009E                     	;# 
   404  009F                     	;# 
   405  010C                     	;# 
   406  010D                     	;# 
   407  010E                     	;# 
   408  010F                     	;# 
   409  018C                     	;# 
   410  018D                     	;# 
   411  0000                     	;# 
   412  0001                     	;# 
   413  0002                     	;# 
   414  0003                     	;# 
   415  0004                     	;# 
   416  0005                     	;# 
   417  0006                     	;# 
   418  0007                     	;# 
   419  0008                     	;# 
   420  0009                     	;# 
   421  000A                     	;# 
   422  000B                     	;# 
   423  000C                     	;# 
   424  000D                     	;# 
   425  000E                     	;# 
   426  000E                     	;# 
   427  000F                     	;# 
   428  0010                     	;# 
   429  0011                     	;# 
   430  0012                     	;# 
   431  0013                     	;# 
   432  0014                     	;# 
   433  0015                     	;# 
   434  0015                     	;# 
   435  0016                     	;# 
   436  0017                     	;# 
   437  0018                     	;# 
   438  0019                     	;# 
   439  001A                     	;# 
   440  001B                     	;# 
   441  001B                     	;# 
   442  001C                     	;# 
   443  001D                     	;# 
   444  001E                     	;# 
   445  001F                     	;# 
   446  0081                     	;# 
   447  0085                     	;# 
   448  0086                     	;# 
   449  0087                     	;# 
   450  0088                     	;# 
   451  0089                     	;# 
   452  008C                     	;# 
   453  008D                     	;# 
   454  008E                     	;# 
   455  0091                     	;# 
   456  0092                     	;# 
   457  0093                     	;# 
   458  0094                     	;# 
   459  0098                     	;# 
   460  0099                     	;# 
   461  009C                     	;# 
   462  009D                     	;# 
   463  009E                     	;# 
   464  009F                     	;# 
   465  010C                     	;# 
   466  010D                     	;# 
   467  010E                     	;# 
   468  010F                     	;# 
   469  018C                     	;# 
   470  018D                     	;# 
   471  0000                     	;# 
   472  0001                     	;# 
   473  0002                     	;# 
   474  0003                     	;# 
   475  0004                     	;# 
   476  0005                     	;# 
   477  0006                     	;# 
   478  0007                     	;# 
   479  0008                     	;# 
   480  0009                     	;# 
   481  000A                     	;# 
   482  000B                     	;# 
   483  000C                     	;# 
   484  000D                     	;# 
   485  000E                     	;# 
   486  000E                     	;# 
   487  000F                     	;# 
   488  0010                     	;# 
   489  0011                     	;# 
   490  0012                     	;# 
   491  0013                     	;# 
   492  0014                     	;# 
   493  0015                     	;# 
   494  0015                     	;# 
   495  0016                     	;# 
   496  0017                     	;# 
   497  0018                     	;# 
   498  0019                     	;# 
   499  001A                     	;# 
   500  001B                     	;# 
   501  001B                     	;# 
   502  001C                     	;# 
   503  001D                     	;# 
   504  001E                     	;# 
   505  001F                     	;# 
   506  0081                     	;# 
   507  0085                     	;# 
   508  0086                     	;# 
   509  0087                     	;# 
   510  0088                     	;# 
   511  0089                     	;# 
   512  008C                     	;# 
   513  008D                     	;# 
   514  008E                     	;# 
   515  0091                     	;# 
   516  0092                     	;# 
   517  0093                     	;# 
   518  0094                     	;# 
   519  0098                     	;# 
   520  0099                     	;# 
   521  009C                     	;# 
   522  009D                     	;# 
   523  009E                     	;# 
   524  009F                     	;# 
   525  010C                     	;# 
   526  010D                     	;# 
   527  010E                     	;# 
   528  010F                     	;# 
   529  018C                     	;# 
   530  018D                     	;# 
   531  0000                     	;# 
   532  0001                     	;# 
   533  0002                     	;# 
   534  0003                     	;# 
   535  0004                     	;# 
   536  0005                     	;# 
   537  0006                     	;# 
   538  0007                     	;# 
   539  0008                     	;# 
   540  0009                     	;# 
   541  000A                     	;# 
   542  000B                     	;# 
   543  000C                     	;# 
   544  000D                     	;# 
   545  000E                     	;# 
   546  000E                     	;# 
   547  000F                     	;# 
   548  0010                     	;# 
   549  0011                     	;# 
   550  0012                     	;# 
   551  0013                     	;# 
   552  0014                     	;# 
   553  0015                     	;# 
   554  0015                     	;# 
   555  0016                     	;# 
   556  0017                     	;# 
   557  0018                     	;# 
   558  0019                     	;# 
   559  001A                     	;# 
   560  001B                     	;# 
   561  001B                     	;# 
   562  001C                     	;# 
   563  001D                     	;# 
   564  001E                     	;# 
   565  001F                     	;# 
   566  0081                     	;# 
   567  0085                     	;# 
   568  0086                     	;# 
   569  0087                     	;# 
   570  0088                     	;# 
   571  0089                     	;# 
   572  008C                     	;# 
   573  008D                     	;# 
   574  008E                     	;# 
   575  0091                     	;# 
   576  0092                     	;# 
   577  0093                     	;# 
   578  0094                     	;# 
   579  0098                     	;# 
   580  0099                     	;# 
   581  009C                     	;# 
   582  009D                     	;# 
   583  009E                     	;# 
   584  009F                     	;# 
   585  010C                     	;# 
   586  010D                     	;# 
   587  010E                     	;# 
   588  010F                     	;# 
   589  018C                     	;# 
   590  018D                     	;# 
   591  0000                     	;# 
   592  0001                     	;# 
   593  0002                     	;# 
   594  0003                     	;# 
   595  0004                     	;# 
   596  0005                     	;# 
   597  0006                     	;# 
   598  0007                     	;# 
   599  0008                     	;# 
   600  0009                     	;# 
   601  000A                     	;# 
   602  000B                     	;# 
   603  000C                     	;# 
   604  000D                     	;# 
   605  000E                     	;# 
   606  000E                     	;# 
   607  000F                     	;# 
   608  0010                     	;# 
   609  0011                     	;# 
   610  0012                     	;# 
   611  0013                     	;# 
   612  0014                     	;# 
   613  0015                     	;# 
   614  0015                     	;# 
   615  0016                     	;# 
   616  0017                     	;# 
   617  0018                     	;# 
   618  0019                     	;# 
   619  001A                     	;# 
   620  001B                     	;# 
   621  001B                     	;# 
   622  001C                     	;# 
   623  001D                     	;# 
   624  001E                     	;# 
   625  001F                     	;# 
   626  0081                     	;# 
   627  0085                     	;# 
   628  0086                     	;# 
   629  0087                     	;# 
   630  0088                     	;# 
   631  0089                     	;# 
   632  008C                     	;# 
   633  008D                     	;# 
   634  008E                     	;# 
   635  0091                     	;# 
   636  0092                     	;# 
   637  0093                     	;# 
   638  0094                     	;# 
   639  0098                     	;# 
   640  0099                     	;# 
   641  009C                     	;# 
   642  009D                     	;# 
   643  009E                     	;# 
   644  009F                     	;# 
   645  010C                     	;# 
   646  010D                     	;# 
   647  010E                     	;# 
   648  010F                     	;# 
   649  018C                     	;# 
   650  018D                     	;# 
   651  0000                     	;# 
   652  0001                     	;# 
   653  0002                     	;# 
   654  0003                     	;# 
   655  0004                     	;# 
   656  0005                     	;# 
   657  0006                     	;# 
   658  0007                     	;# 
   659  0008                     	;# 
   660  0009                     	;# 
   661  000A                     	;# 
   662  000B                     	;# 
   663  000C                     	;# 
   664  000D                     	;# 
   665  000E                     	;# 
   666  000E                     	;# 
   667  000F                     	;# 
   668  0010                     	;# 
   669  0011                     	;# 
   670  0012                     	;# 
   671  0013                     	;# 
   672  0014                     	;# 
   673  0015                     	;# 
   674  0015                     	;# 
   675  0016                     	;# 
   676  0017                     	;# 
   677  0018                     	;# 
   678  0019                     	;# 
   679  001A                     	;# 
   680  001B                     	;# 
   681  001B                     	;# 
   682  001C                     	;# 
   683  001D                     	;# 
   684  001E                     	;# 
   685  001F                     	;# 
   686  0081                     	;# 
   687  0085                     	;# 
   688  0086                     	;# 
   689  0087                     	;# 
   690  0088                     	;# 
   691  0089                     	;# 
   692  008C                     	;# 
   693  008D                     	;# 
   694  008E                     	;# 
   695  0091                     	;# 
   696  0092                     	;# 
   697  0093                     	;# 
   698  0094                     	;# 
   699  0098                     	;# 
   700  0099                     	;# 
   701  009C                     	;# 
   702  009D                     	;# 
   703  009E                     	;# 
   704  009F                     	;# 
   705  010C                     	;# 
   706  010D                     	;# 
   707  010E                     	;# 
   708  010F                     	;# 
   709  018C                     	;# 
   710  018D                     	;# 
   711  0000                     	;# 
   712  0001                     	;# 
   713  0002                     	;# 
   714  0003                     	;# 
   715  0004                     	;# 
   716  0005                     	;# 
   717  0006                     	;# 
   718  0007                     	;# 
   719  0008                     	;# 
   720  0009                     	;# 
   721  000A                     	;# 
   722  000B                     	;# 
   723  000C                     	;# 
   724  000D                     	;# 
   725  000E                     	;# 
   726  000E                     	;# 
   727  000F                     	;# 
   728  0010                     	;# 
   729  0011                     	;# 
   730  0012                     	;# 
   731  0013                     	;# 
   732  0014                     	;# 
   733  0015                     	;# 
   734  0015                     	;# 
   735  0016                     	;# 
   736  0017                     	;# 
   737  0018                     	;# 
   738  0019                     	;# 
   739  001A                     	;# 
   740  001B                     	;# 
   741  001B                     	;# 
   742  001C                     	;# 
   743  001D                     	;# 
   744  001E                     	;# 
   745  001F                     	;# 
   746  0081                     	;# 
   747  0085                     	;# 
   748  0086                     	;# 
   749  0087                     	;# 
   750  0088                     	;# 
   751  0089                     	;# 
   752  008C                     	;# 
   753  008D                     	;# 
   754  008E                     	;# 
   755  0091                     	;# 
   756  0092                     	;# 
   757  0093                     	;# 
   758  0094                     	;# 
   759  0098                     	;# 
   760  0099                     	;# 
   761  009C                     	;# 
   762  009D                     	;# 
   763  009E                     	;# 
   764  009F                     	;# 
   765  010C                     	;# 
   766  010D                     	;# 
   767  010E                     	;# 
   768  010F                     	;# 
   769  018C                     	;# 
   770  018D                     	;# 
   771  0000                     	;# 
   772  0001                     	;# 
   773  0002                     	;# 
   774  0003                     	;# 
   775  0004                     	;# 
   776  0005                     	;# 
   777  0006                     	;# 
   778  0007                     	;# 
   779  0008                     	;# 
   780  0009                     	;# 
   781  000A                     	;# 
   782  000B                     	;# 
   783  000C                     	;# 
   784  000D                     	;# 
   785  000E                     	;# 
   786  000E                     	;# 
   787  000F                     	;# 
   788  0010                     	;# 
   789  0011                     	;# 
   790  0012                     	;# 
   791  0013                     	;# 
   792  0014                     	;# 
   793  0015                     	;# 
   794  0015                     	;# 
   795  0016                     	;# 
   796  0017                     	;# 
   797  0018                     	;# 
   798  0019                     	;# 
   799  001A                     	;# 
   800  001B                     	;# 
   801  001B                     	;# 
   802  001C                     	;# 
   803  001D                     	;# 
   804  001E                     	;# 
   805  001F                     	;# 
   806  0081                     	;# 
   807  0085                     	;# 
   808  0086                     	;# 
   809  0087                     	;# 
   810  0088                     	;# 
   811  0089                     	;# 
   812  008C                     	;# 
   813  008D                     	;# 
   814  008E                     	;# 
   815  0091                     	;# 
   816  0092                     	;# 
   817  0093                     	;# 
   818  0094                     	;# 
   819  0098                     	;# 
   820  0099                     	;# 
   821  009C                     	;# 
   822  009D                     	;# 
   823  009E                     	;# 
   824  009F                     	;# 
   825  010C                     	;# 
   826  010D                     	;# 
   827  010E                     	;# 
   828  010F                     	;# 
   829  018C                     	;# 
   830  018D                     	;# 
   831  0000                     	;# 
   832  0001                     	;# 
   833  0002                     	;# 
   834  0003                     	;# 
   835  0004                     	;# 
   836  0005                     	;# 
   837  0006                     	;# 
   838  0007                     	;# 
   839  0008                     	;# 
   840  0009                     	;# 
   841  000A                     	;# 
   842  000B                     	;# 
   843  000C                     	;# 
   844  000D                     	;# 
   845  000E                     	;# 
   846  000E                     	;# 
   847  000F                     	;# 
   848  0010                     	;# 
   849  0011                     	;# 
   850  0012                     	;# 
   851  0013                     	;# 
   852  0014                     	;# 
   853  0015                     	;# 
   854  0015                     	;# 
   855  0016                     	;# 
   856  0017                     	;# 
   857  0018                     	;# 
   858  0019                     	;# 
   859  001A                     	;# 
   860  001B                     	;# 
   861  001B                     	;# 
   862  001C                     	;# 
   863  001D                     	;# 
   864  001E                     	;# 
   865  001F                     	;# 
   866  0081                     	;# 
   867  0085                     	;# 
   868  0086                     	;# 
   869  0087                     	;# 
   870  0088                     	;# 
   871  0089                     	;# 
   872  008C                     	;# 
   873  008D                     	;# 
   874  008E                     	;# 
   875  0091                     	;# 
   876  0092                     	;# 
   877  0093                     	;# 
   878  0094                     	;# 
   879  0098                     	;# 
   880  0099                     	;# 
   881  009C                     	;# 
   882  009D                     	;# 
   883  009E                     	;# 
   884  009F                     	;# 
   885  010C                     	;# 
   886  010D                     	;# 
   887  010E                     	;# 
   888  010F                     	;# 
   889  018C                     	;# 
   890  018D                     	;# 
   891  0000                     	;# 
   892  0001                     	;# 
   893  0002                     	;# 
   894  0003                     	;# 
   895  0004                     	;# 
   896  0005                     	;# 
   897  0006                     	;# 
   898  0007                     	;# 
   899  0008                     	;# 
   900  0009                     	;# 
   901  000A                     	;# 
   902  000B                     	;# 
   903  000C                     	;# 
   904  000D                     	;# 
   905  000E                     	;# 
   906  000E                     	;# 
   907  000F                     	;# 
   908  0010                     	;# 
   909  0011                     	;# 
   910  0012                     	;# 
   911  0013                     	;# 
   912  0014                     	;# 
   913  0015                     	;# 
   914  0015                     	;# 
   915  0016                     	;# 
   916  0017                     	;# 
   917  0018                     	;# 
   918  0019                     	;# 
   919  001A                     	;# 
   920  001B                     	;# 
   921  001B                     	;# 
   922  001C                     	;# 
   923  001D                     	;# 
   924  001E                     	;# 
   925  001F                     	;# 
   926  0081                     	;# 
   927  0085                     	;# 
   928  0086                     	;# 
   929  0087                     	;# 
   930  0088                     	;# 
   931  0089                     	;# 
   932  008C                     	;# 
   933  008D                     	;# 
   934  008E                     	;# 
   935  0091                     	;# 
   936  0092                     	;# 
   937  0093                     	;# 
   938  0094                     	;# 
   939  0098                     	;# 
   940  0099                     	;# 
   941  009C                     	;# 
   942  009D                     	;# 
   943  009E                     	;# 
   944  009F                     	;# 
   945  010C                     	;# 
   946  010D                     	;# 
   947  010E                     	;# 
   948  010F                     	;# 
   949  018C                     	;# 
   950  018D                     	;# 
   951  0000                     	;# 
   952  0001                     	;# 
   953  0002                     	;# 
   954  0003                     	;# 
   955  0004                     	;# 
   956  0005                     	;# 
   957  0006                     	;# 
   958  0007                     	;# 
   959  0008                     	;# 
   960  0009                     	;# 
   961  000A                     	;# 
   962  000B                     	;# 
   963  000C                     	;# 
   964  000D                     	;# 
   965  000E                     	;# 
   966  000E                     	;# 
   967  000F                     	;# 
   968  0010                     	;# 
   969  0011                     	;# 
   970  0012                     	;# 
   971  0013                     	;# 
   972  0014                     	;# 
   973  0015                     	;# 
   974  0015                     	;# 
   975  0016                     	;# 
   976  0017                     	;# 
   977  0018                     	;# 
   978  0019                     	;# 
   979  001A                     	;# 
   980  001B                     	;# 
   981  001B                     	;# 
   982  001C                     	;# 
   983  001D                     	;# 
   984  001E                     	;# 
   985  001F                     	;# 
   986  0081                     	;# 
   987  0085                     	;# 
   988  0086                     	;# 
   989  0087                     	;# 
   990  0088                     	;# 
   991  0089                     	;# 
   992  008C                     	;# 
   993  008D                     	;# 
   994  008E                     	;# 
   995  0091                     	;# 
   996  0092                     	;# 
   997  0093                     	;# 
   998  0094                     	;# 
   999  0098                     	;# 
  1000  0099                     	;# 
  1001  009C                     	;# 
  1002  009D                     	;# 
  1003  009E                     	;# 
  1004  009F                     	;# 
  1005  010C                     	;# 
  1006  010D                     	;# 
  1007  010E                     	;# 
  1008  010F                     	;# 
  1009  018C                     	;# 
  1010  018D                     	;# 
  1011  0000                     	;# 
  1012  0001                     	;# 
  1013  0002                     	;# 
  1014  0003                     	;# 
  1015  0004                     	;# 
  1016  0005                     	;# 
  1017  0006                     	;# 
  1018  0007                     	;# 
  1019  0008                     	;# 
  1020  0009                     	;# 
  1021  000A                     	;# 
  1022  000B                     	;# 
  1023  000C                     	;# 
  1024  000D                     	;# 
  1025  000E                     	;# 
  1026  000E                     	;# 
  1027  000F                     	;# 
  1028  0010                     	;# 
  1029  0011                     	;# 
  1030  0012                     	;# 
  1031  0013                     	;# 
  1032  0014                     	;# 
  1033  0015                     	;# 
  1034  0015                     	;# 
  1035  0016                     	;# 
  1036  0017                     	;# 
  1037  0018                     	;# 
  1038  0019                     	;# 
  1039  001A                     	;# 
  1040  001B                     	;# 
  1041  001B                     	;# 
  1042  001C                     	;# 
  1043  001D                     	;# 
  1044  001E                     	;# 
  1045  001F                     	;# 
  1046  0081                     	;# 
  1047  0085                     	;# 
  1048  0086                     	;# 
  1049  0087                     	;# 
  1050  0088                     	;# 
  1051  0089                     	;# 
  1052  008C                     	;# 
  1053  008D                     	;# 
  1054  008E                     	;# 
  1055  0091                     	;# 
  1056  0092                     	;# 
  1057  0093                     	;# 
  1058  0094                     	;# 
  1059  0098                     	;# 
  1060  0099                     	;# 
  1061  009C                     	;# 
  1062  009D                     	;# 
  1063  009E                     	;# 
  1064  009F                     	;# 
  1065  010C                     	;# 
  1066  010D                     	;# 
  1067  010E                     	;# 
  1068  010F                     	;# 
  1069  018C                     	;# 
  1070  018D                     	;# 
  1071                           
  1072                           	psect	idataBANK0
  1073  17B3                     __pidataBANK0:
  1074                           
  1075                           ;initializer for SSD_SelectDigit@Enable_Digit_Selector
  1076  17B3  3401               	retlw	1
  1077                           
  1078                           ;initializer for _Counter
  1079  17B4  3401               	retlw	1
  1080                           
  1081                           ;initializer for _Average_Nvalues
  1082  17B5  340A               	retlw	10
  1083                           
  1084                           ;initializer for LED_BLINKING@Counter
  1085  17B6  3401               	retlw	1
  1086                           
  1087                           	psect	strings
  1088  0800                     __pstrings:
  1089  0800                     stringtab:
  1090  0800                     __stringtab:
  1091  0800                     stringcode:	
  1092                           ;	String table - string pointers are 1 byte each
  1093                           
  1094  0800                     stringdir:
  1095  0800  3008               	movlw	high stringdir
  1096  0801  008A               	movwf	10
  1097  0802  0804               	movf	4,w
  1098  0803  0A84               	incf	4,f
  1099  0804  0782               	addwf	2,f
  1100  0805                     __stringbase:
  1101  0805  3400               	retlw	0
  1102  0806                     __end_of__stringtab:
  1103  0806                     _Scheduler_Intitys:
  1104  0806  3406               	retlw	low (fp__Scheduler_Task1-fpbase)
  1105  0807  3414               	retlw	20
  1106  0808  3400               	retlw	0
  1107  0809  3400               	retlw	0
  1108  080A  3400               	retlw	0
  1109  080B  3409               	retlw	low (fp__Scheduler_Task2-fpbase)
  1110  080C  3464               	retlw	100
  1111  080D  3400               	retlw	0
  1112  080E  3400               	retlw	0
  1113  080F  3400               	retlw	0
  1114  0810  3403               	retlw	low (fp__Scheduler_Task3-fpbase)
  1115  0811  34F4               	retlw	244
  1116  0812  3401               	retlw	1
  1117  0813  3400               	retlw	0
  1118  0814  3400               	retlw	0
  1119  0815                     __end_of_Scheduler_Intitys:
  1120  0815                     _Interrupt_CallBack:
  1121  0815  3401               	retlw	low (fp__EXTI_On_Off_CallBack-i1fpbase)
  1122  0816  3404               	retlw	low (fp__Timer0_CallBack-i1fpbase)
  1123  0817                     __end_of_Interrupt_CallBack:
  1124  0008                     _PORTD	set	8
  1125  0005                     _PORTA	set	5
  1126  0013                     _SSPBUF	set	19
  1127  0001                     _TMR0	set	1
  1128  0007                     _PORTC	set	7
  1129  0006                     _PORTB	set	6
  1130  000B                     _INTCONbits	set	11
  1131  001F                     _ADCON0bits	set	31
  1132  0063                     _SSPIF	set	99
  1133  00A5                     _SSPEN	set	165
  1134  00A3                     _SSPM3	set	163
  1135  00A2                     _SSPM2	set	162
  1136  00A1                     _SSPM1	set	161
  1137  00A0                     _SSPM0	set	160
  1138  0093                     _SSPADD	set	147
  1139  0081                     _OPTION_REGbits	set	129
  1140  0088                     _TRISD	set	136
  1141  0085                     _TRISA	set	133
  1142  0086                     _TRISB	set	134
  1143  0087                     _TRISC	set	135
  1144  009E                     _ADRESL	set	158
  1145  009F                     _ADCON1bits	set	159
  1146  048A                     _PEN	set	1162
  1147  048C                     _ACKEN	set	1164
  1148  048D                     _ACKDT	set	1165
  1149  04A0                     _BF	set	1184
  1150  048B                     _RCEN	set	1163
  1151  0488                     _SEN	set	1160
  1152  040E                     _INTEDG	set	1038
  1153                           
  1154                           	psect	cinit
  1155  0015                     start_initialization:	
  1156                           ; #config settings
  1157                           
  1158  0015                     __initialization:
  1159                           
  1160                           ; Initialize objects allocated to BANK0
  1161  0015  160A  118A  27B3  120A  118A  	fcall	__pidataBANK0	;fetch initializer
  1162  001A  00D6               	movwf	__pdataBANK0& (0+127)
  1163  001B  160A  118A  27B4  120A  118A  	fcall	__pidataBANK0+1	;fetch initializer
  1164  0020  00D7               	movwf	(__pdataBANK0+1)& (0+127)
  1165  0021  160A  118A  27B5  120A  118A  	fcall	__pidataBANK0+2	;fetch initializer
  1166  0026  00D8               	movwf	(__pdataBANK0+2)& (0+127)
  1167  0027  160A  118A  27B6  120A  118A  	fcall	__pidataBANK0+3	;fetch initializer
  1168  002C  00D9               	movwf	(__pdataBANK0+3)& (0+127)
  1169                           
  1170                           ; Clear objects allocated to BANK3
  1171  002D  1783               	bsf	3,7	;select IRP bank2
  1172  002E  3090               	movlw	low __pbssBANK3
  1173  002F  0084               	movwf	4
  1174  0030  30B8               	movlw	low (__pbssBANK3+40)
  1175  0031  160A  118A  27C5  120A  118A  	fcall	clear_ram0
  1176                           
  1177                           ; Clear objects allocated to BANK1
  1178  0036  1383               	bcf	3,7	;select IRP bank0
  1179  0037  30CB               	movlw	low __pbssBANK1
  1180  0038  0084               	movwf	4
  1181  0039  30DC               	movlw	low (__pbssBANK1+17)
  1182  003A  160A  118A  27C5  120A  118A  	fcall	clear_ram0
  1183                           
  1184                           ; Clear objects allocated to BANK0
  1185  003F  3043               	movlw	low __pbssBANK0
  1186  0040  0084               	movwf	4
  1187  0041  3056               	movlw	low (__pbssBANK0+19)
  1188  0042  160A  118A  27C5  120A  118A  	fcall	clear_ram0
  1189  0047                     end_of_initialization:	
  1190                           ;End of C runtime variable initialization code
  1191                           
  1192  0047                     __end_of__initialization:
  1193  0047  0183               	clrf	3
  1194  0048  120A  158A  2C01   	ljmp	_main	;jump to C main() function
  1195                           
  1196                           	psect	bssBANK0
  1197  0043                     __pbssBANK0:
  1198  0043                     SSD_SelectDigit@Digit_2:
  1199  0043                     	ds	1
  1200  0044                     SSD_SelectDigit@Digit_1:
  1201  0044                     	ds	1
  1202  0045                     _Tempreture:
  1203  0045                     	ds	1
  1204  0046                     _SSD:
  1205  0046                     	ds	1
  1206  0047                     EEPROM_Read@Data:
  1207  0047                     	ds	1
  1208  0048                     _EEPROM_Data:
  1209  0048                     	ds	1
  1210  0049                     Buttons_MainFunction@Counter_Debounce:
  1211  0049                     	ds	1
  1212  004A                     _Buttons:
  1213  004A                     	ds	1
  1214  004B                     _LED_Status:
  1215  004B                     	ds	1
  1216  004C                     _Enable_SSD:
  1217  004C                     	ds	1
  1218  004D                     _ADC_Info:
  1219  004D                     	ds	1
  1220  004E                     _Temperature:
  1221  004E                     	ds	6
  1222  0054                     _Mode:
  1223  0054                     	ds	2
  1224                           
  1225                           	psect	dataBANK0
  1226  0056                     __pdataBANK0:
  1227  0056                     SSD_SelectDigit@Enable_Digit_Selector:
  1228  0056                     	ds	1
  1229  0057                     _Counter:
  1230  0057                     	ds	1
  1231  0058                     _Average_Nvalues:
  1232  0058                     	ds	1
  1233  0059                     LED_BLINKING@Counter:
  1234  0059                     	ds	1
  1235                           
  1236                           	psect	bssBANK1
  1237  00CB                     __pbssBANK1:
  1238  00CB                     _Tick_Num:
  1239  00CB                     	ds	4
  1240  00CF                     _Avrage_buffer:
  1241  00CF                     	ds	4
  1242  00D3                     _Scheduler_ActivationFlags:
  1243  00D3                     	ds	3
  1244  00D6                     _Debounce_Down:
  1245  00D6                     	ds	3
  1246  00D9                     _Debounce_Up:
  1247  00D9                     	ds	3
  1248                           
  1249                           	psect	bssBANK3
  1250  0190                     __pbssBANK3:
  1251  0190                     _temb_val:
  1252  0190                     	ds	40
  1253                           
  1254                           	psect	clrtext
  1255  17C5                     clear_ram0:	
  1256                           ;	Called with FSR containing the base address, and
  1257                           ;	W with the last address+1
  1258                           
  1259  17C5  0064               	clrwdt	;clear the watchdog before getting into this loop
  1260  17C6                     clrloop0:
  1261  17C6  0180               	clrf	0	;clear RAM location pointed to by FSR
  1262  17C7  0A84               	incf	4,f	;increment pointer
  1263  17C8  0604               	xorwf	4,w	;XOR with final address
  1264  17C9  1903               	btfsc	3,2	;have we reached the end yet?
  1265  17CA  3400               	retlw	0	;all done for this memory range, return
  1266  17CB  0604               	xorwf	4,w	;XOR again to restore value
  1267  17CC  2FC6               	goto	clrloop0	;do the next byte
  1268                           
  1269                           	psect	cstackBANK1
  1270  00A0                     __pcstackBANK1:
  1271  00A0                     ??_Elements_MainFunction:
  1272  00A0                     ___xxtofl@sign:	
  1273                           ; 1 bytes @ 0x0
  1274                           
  1275  00A0                     ___lldiv@quotient:	
  1276                           ; 1 bytes @ 0x0
  1277                           
  1278                           
  1279                           ; 4 bytes @ 0x0
  1280  00A0                     	ds	1
  1281  00A1                     ___xxtofl@exp:
  1282                           
  1283                           ; 1 bytes @ 0x1
  1284  00A1                     	ds	1
  1285  00A2                     ___xxtofl@arg:
  1286                           
  1287                           ; 4 bytes @ 0x2
  1288  00A2                     	ds	2
  1289  00A4                     ___lldiv@counter:
  1290                           
  1291                           ; 1 bytes @ 0x4
  1292  00A4                     	ds	1
  1293  00A5                     ??_Average_Value:
  1294                           
  1295                           ; 1 bytes @ 0x5
  1296  00A5                     	ds	1
  1297  00A6                     ?___flmul:
  1298  00A6                     ___flmul@b:	
  1299                           ; 4 bytes @ 0x6
  1300                           
  1301                           
  1302                           ; 4 bytes @ 0x6
  1303  00A6                     	ds	4
  1304  00AA                     ___flmul@a:
  1305                           
  1306                           ; 4 bytes @ 0xA
  1307  00AA                     	ds	4
  1308  00AE                     ??___flmul:
  1309                           
  1310                           ; 1 bytes @ 0xE
  1311  00AE                     	ds	5
  1312  00B3                     ___flmul@sign:
  1313                           
  1314                           ; 1 bytes @ 0x13
  1315  00B3                     	ds	1
  1316  00B4                     ___flmul@aexp:
  1317                           
  1318                           ; 1 bytes @ 0x14
  1319  00B4                     	ds	1
  1320  00B5                     ___flmul@grs:
  1321                           
  1322                           ; 4 bytes @ 0x15
  1323  00B5                     	ds	4
  1324  00B9                     ___flmul@bexp:
  1325                           
  1326                           ; 1 bytes @ 0x19
  1327  00B9                     	ds	1
  1328  00BA                     ___flmul@prod:
  1329                           
  1330                           ; 4 bytes @ 0x1A
  1331  00BA                     	ds	4
  1332  00BE                     ___flmul@temp:
  1333                           
  1334                           ; 2 bytes @ 0x1E
  1335  00BE                     	ds	2
  1336  00C0                     ??___fltol:
  1337                           
  1338                           ; 1 bytes @ 0x20
  1339  00C0                     	ds	4
  1340  00C4                     ___fltol@sign1:
  1341                           
  1342                           ; 1 bytes @ 0x24
  1343  00C4                     	ds	1
  1344  00C5                     ___fltol@exp1:
  1345                           
  1346                           ; 1 bytes @ 0x25
  1347  00C5                     	ds	1
  1348  00C6                     ??_Temperature_Calc:
  1349                           
  1350                           ; 1 bytes @ 0x26
  1351  00C6                     	ds	4
  1352  00CA                     Scheduler_Start@IntityIndex:
  1353                           
  1354                           ; 1 bytes @ 0x2A
  1355  00CA                     	ds	1
  1356                           
  1357                           	psect	cstackCOMMON
  1358  0070                     __pcstackCOMMON:
  1359  0070                     ?_EXTI_On_Off_CallBack:
  1360  0070                     ??_EXTI_On_Off_CallBack:	
  1361                           ; 1 bytes @ 0x0
  1362                           
  1363  0070                     ?_Timer0_CallBack:	
  1364                           ; 1 bytes @ 0x0
  1365                           
  1366  0070                     ?_GPIO_Init:	
  1367                           ; 1 bytes @ 0x0
  1368                           
  1369  0070                     ?_I2c_Init:	
  1370                           ; 1 bytes @ 0x0
  1371                           
  1372  0070                     ?_Buttons_Init:	
  1373                           ; 1 bytes @ 0x0
  1374                           
  1375  0070                     ?_SSD_Init:	
  1376                           ; 1 bytes @ 0x0
  1377                           
  1378  0070                     ?_Elements_Init:	
  1379                           ; 1 bytes @ 0x0
  1380                           
  1381  0070                     ?_ModeManager_Init:	
  1382                           ; 1 bytes @ 0x0
  1383                           
  1384  0070                     ?_Get_EEPROM_Data:	
  1385                           ; 1 bytes @ 0x0
  1386                           
  1387  0070                     ?_Scheduler_Init:	
  1388                           ; 1 bytes @ 0x0
  1389                           
  1390  0070                     ?_Timer0_Init:	
  1391                           ; 1 bytes @ 0x0
  1392                           
  1393  0070                     ?_Scheduler_Start:	
  1394                           ; 1 bytes @ 0x0
  1395                           
  1396  0070                     ?_Scheduler_Task1:	
  1397                           ; 1 bytes @ 0x0
  1398                           
  1399  0070                     ?_Scheduler_Task2:	
  1400                           ; 1 bytes @ 0x0
  1401                           
  1402  0070                     ?_Scheduler_Task3:	
  1403                           ; 1 bytes @ 0x0
  1404                           
  1405  0070                     ?_SSD_MainFunction:	
  1406                           ; 1 bytes @ 0x0
  1407                           
  1408  0070                     ?_Temperature_MainFunction:	
  1409                           ; 1 bytes @ 0x0
  1410                           
  1411  0070                     ?_ModeManager_MainFunction:	
  1412                           ; 1 bytes @ 0x0
  1413                           
  1414  0070                     ?_Set_EEPROM_Data:	
  1415                           ; 1 bytes @ 0x0
  1416                           
  1417  0070                     ?_Temperature_Calc:	
  1418                           ; 1 bytes @ 0x0
  1419                           
  1420  0070                     ?_EEPROM_Read:	
  1421                           ; 1 bytes @ 0x0
  1422                           
  1423  0070                     ?_SSD_SelectDisplay:	
  1424                           ; 1 bytes @ 0x0
  1425                           
  1426  0070                     ?_SSD_SelectDigit:	
  1427                           ; 1 bytes @ 0x0
  1428                           
  1429  0070                     ?_ADC_Init:	
  1430                           ; 1 bytes @ 0x0
  1431                           
  1432  0070                     ?_ADC_Start_Conv:	
  1433                           ; 1 bytes @ 0x0
  1434                           
  1435  0070                     ?_ADC_Get_Value:	
  1436                           ; 1 bytes @ 0x0
  1437                           
  1438  0070                     ?_main:	
  1439                           ; 1 bytes @ 0x0
  1440                           
  1441  0070                     ?_Buttons_MainFunction:	
  1442                           ; 1 bytes @ 0x0
  1443                           
  1444  0070                     ?_LED_Control:	
  1445                           ; 1 bytes @ 0x0
  1446                           
  1447  0070                     ?_Elements_MainFunction:	
  1448                           ; 1 bytes @ 0x0
  1449                           
  1450  0070                     ?_myISR:	
  1451                           ; 1 bytes @ 0x0
  1452                           
  1453  0070                     ?_I2c_Start:	
  1454                           ; 1 bytes @ 0x0
  1455                           
  1456  0070                     ?_I2c_Read:	
  1457                           ; 1 bytes @ 0x0
  1458                           
  1459  0070                     ?_I2c_Send_NAck:	
  1460                           ; 1 bytes @ 0x0
  1461                           
  1462  0070                     ?_I2c_Stop:	
  1463                           ; 1 bytes @ 0x0
  1464                           
  1465  0070                     ?_I2c_Write:	
  1466                           ; 1 bytes @ 0x0
  1467                           
  1468  0070                     ?_I2c_WaitAck:	
  1469                           ; 1 bytes @ 0x0
  1470                           
  1471  0070                     ?i1___bmul:	
  1472                           ; 1 bytes @ 0x0
  1473                           
  1474  0070                     i1___bmul@multiplicand:	
  1475                           ; 1 bytes @ 0x0
  1476                           
  1477                           
  1478                           ; 1 bytes @ 0x0
  1479  0070                     	ds	1
  1480  0071                     ??i1___bmul:
  1481  0071                     i1___bmul@product:	
  1482                           ; 1 bytes @ 0x1
  1483                           
  1484                           
  1485                           ; 1 bytes @ 0x1
  1486  0071                     	ds	1
  1487  0072                     i1___bmul@multiplier:
  1488                           
  1489                           ; 1 bytes @ 0x2
  1490  0072                     	ds	1
  1491  0073                     ?i1___lldiv:
  1492  0073                     i1___lldiv@divisor:	
  1493                           ; 4 bytes @ 0x3
  1494                           
  1495                           
  1496                           ; 4 bytes @ 0x3
  1497  0073                     	ds	4
  1498  0077                     i1___lldiv@dividend:
  1499                           
  1500                           ; 4 bytes @ 0x7
  1501  0077                     	ds	4
  1502  007B                     ??i1___lldiv:
  1503                           
  1504                           ; 1 bytes @ 0xB
  1505  007B                     	ds	1
  1506  007C                     ??___llmod:
  1507                           
  1508                           ; 1 bytes @ 0xC
  1509  007C                     	ds	1
  1510  007D                     ___llmod@counter:
  1511                           
  1512                           ; 1 bytes @ 0xD
  1513  007D                     	ds	1
  1514  007E                     ??_Timer0_CallBack:
  1515  007E                     ??_Scheduler_ActivateTask:	
  1516                           ; 1 bytes @ 0xE
  1517                           
  1518                           
  1519                           	psect	cstackBANK0
  1520  0020                     __pcstackBANK0:	
  1521                           ; 1 bytes @ 0xE
  1522                           
  1523  0020                     i1___lldiv@quotient:
  1524                           
  1525                           ; 4 bytes @ 0x0
  1526  0020                     	ds	4
  1527  0024                     i1___lldiv@counter:
  1528                           
  1529                           ; 1 bytes @ 0x4
  1530  0024                     	ds	1
  1531  0025                     ?___llmod:
  1532  0025                     ___llmod@divisor:	
  1533                           ; 4 bytes @ 0x5
  1534                           
  1535                           
  1536                           ; 4 bytes @ 0x5
  1537  0025                     	ds	4
  1538  0029                     ___llmod@dividend:
  1539                           
  1540                           ; 4 bytes @ 0x9
  1541  0029                     	ds	4
  1542  002D                     ?_Scheduler_ActivateTask:
  1543  002D                     Scheduler_ActivateTask@SystemTick:	
  1544                           ; 1 bytes @ 0xD
  1545                           
  1546                           
  1547                           ; 4 bytes @ 0xD
  1548  002D                     	ds	4
  1549  0031                     Scheduler_ActivateTask@IntityIndex:
  1550                           
  1551                           ; 1 bytes @ 0x11
  1552  0031                     	ds	1
  1553  0032                     ??_myISR:
  1554                           
  1555                           ; 1 bytes @ 0x12
  1556  0032                     	ds	4
  1557  0036                     ??_GPIO_Init:
  1558  0036                     ??_I2c_Init:	
  1559                           ; 1 bytes @ 0x16
  1560                           
  1561  0036                     ??_SSD_Init:	
  1562                           ; 1 bytes @ 0x16
  1563                           
  1564  0036                     ??_Elements_Init:	
  1565                           ; 1 bytes @ 0x16
  1566                           
  1567  0036                     ??_ModeManager_Init:	
  1568                           ; 1 bytes @ 0x16
  1569                           
  1570  0036                     ??_Timer0_Init:	
  1571                           ; 1 bytes @ 0x16
  1572                           
  1573  0036                     ?_memset:	
  1574                           ; 1 bytes @ 0x16
  1575                           
  1576  0036                     ??_ADC_Init:	
  1577                           ; 1 bytes @ 0x16
  1578                           
  1579  0036                     ??_ADC_Start_Conv:	
  1580                           ; 1 bytes @ 0x16
  1581                           
  1582  0036                     ??_ADC_Get_Value:	
  1583                           ; 1 bytes @ 0x16
  1584                           
  1585  0036                     ??_Buttons_MainFunction:	
  1586                           ; 1 bytes @ 0x16
  1587                           
  1588  0036                     ??_I2c_Start:	
  1589                           ; 1 bytes @ 0x16
  1590                           
  1591  0036                     ??_I2c_Read:	
  1592                           ; 1 bytes @ 0x16
  1593                           
  1594  0036                     ??_I2c_Send_NAck:	
  1595                           ; 1 bytes @ 0x16
  1596                           
  1597  0036                     ??_I2c_Stop:	
  1598                           ; 1 bytes @ 0x16
  1599                           
  1600  0036                     ??_I2c_Write:	
  1601                           ; 1 bytes @ 0x16
  1602                           
  1603  0036                     ??_I2c_WaitAck:	
  1604                           ; 1 bytes @ 0x16
  1605                           
  1606  0036                     ?___bmul:	
  1607                           ; 1 bytes @ 0x16
  1608                           
  1609  0036                     ?__Umul8_16:	
  1610                           ; 1 bytes @ 0x16
  1611                           
  1612  0036                     ?___wmul:	
  1613                           ; 2 bytes @ 0x16
  1614                           
  1615  0036                     ?___awdiv:	
  1616                           ; 2 bytes @ 0x16
  1617                           
  1618  0036                     ?___awmod:	
  1619                           ; 2 bytes @ 0x16
  1620                           
  1621  0036                     ?___lwmod:	
  1622                           ; 2 bytes @ 0x16
  1623                           
  1624  0036                     ?___lldiv:	
  1625                           ; 2 bytes @ 0x16
  1626                           
  1627  0036                     ?___xxtofl:	
  1628                           ; 4 bytes @ 0x16
  1629                           
  1630  0036                     ADC_Get_Value@Buffer:	
  1631                           ; 4 bytes @ 0x16
  1632                           
  1633  0036                     I2c_Read@data:	
  1634                           ; 1 bytes @ 0x16
  1635                           
  1636  0036                     I2c_Write@data:	
  1637                           ; 1 bytes @ 0x16
  1638                           
  1639  0036                     ___bmul@multiplicand:	
  1640                           ; 1 bytes @ 0x16
  1641                           
  1642  0036                     __Umul8_16@multiplicand:	
  1643                           ; 1 bytes @ 0x16
  1644                           
  1645  0036                     ___wmul@multiplier:	
  1646                           ; 1 bytes @ 0x16
  1647                           
  1648  0036                     ___awdiv@divisor:	
  1649                           ; 2 bytes @ 0x16
  1650                           
  1651  0036                     ___awmod@divisor:	
  1652                           ; 2 bytes @ 0x16
  1653                           
  1654  0036                     ___lwmod@divisor:	
  1655                           ; 2 bytes @ 0x16
  1656                           
  1657  0036                     memset@c:	
  1658                           ; 2 bytes @ 0x16
  1659                           
  1660  0036                     ___lldiv@divisor:	
  1661                           ; 2 bytes @ 0x16
  1662                           
  1663  0036                     ___xxtofl@val:	
  1664                           ; 4 bytes @ 0x16
  1665                           
  1666                           
  1667                           ; 4 bytes @ 0x16
  1668  0036                     	ds	1
  1669  0037                     ??_EEPROM_Read:
  1670  0037                     ?_EEPROM_Write:	
  1671                           ; 1 bytes @ 0x17
  1672                           
  1673  0037                     ??___bmul:	
  1674                           ; 1 bytes @ 0x17
  1675                           
  1676  0037                     EEPROM_Write@Addr:	
  1677                           ; 1 bytes @ 0x17
  1678                           
  1679  0037                     EEPROM_Read@Addr:	
  1680                           ; 1 bytes @ 0x17
  1681                           
  1682  0037                     ___bmul@product:	
  1683                           ; 1 bytes @ 0x17
  1684                           
  1685                           
  1686                           ; 1 bytes @ 0x17
  1687  0037                     	ds	1
  1688  0038                     ??_EEPROM_Write:
  1689  0038                     ??__Umul8_16:	
  1690                           ; 1 bytes @ 0x18
  1691                           
  1692  0038                     EEPROM_Write@Data:	
  1693                           ; 1 bytes @ 0x18
  1694                           
  1695  0038                     ___bmul@multiplier:	
  1696                           ; 1 bytes @ 0x18
  1697                           
  1698  0038                     ___wmul@multiplicand:	
  1699                           ; 1 bytes @ 0x18
  1700                           
  1701  0038                     ___awdiv@dividend:	
  1702                           ; 2 bytes @ 0x18
  1703                           
  1704  0038                     ___awmod@dividend:	
  1705                           ; 2 bytes @ 0x18
  1706                           
  1707  0038                     ___lwmod@dividend:	
  1708                           ; 2 bytes @ 0x18
  1709                           
  1710  0038                     memset@n:	
  1711                           ; 2 bytes @ 0x18
  1712                           
  1713                           
  1714                           ; 2 bytes @ 0x18
  1715  0038                     	ds	1
  1716  0039                     ??_Set_EEPROM_Data:
  1717                           
  1718                           ; 1 bytes @ 0x19
  1719  0039                     	ds	1
  1720  003A                     ??_memset:
  1721  003A                     ??___wmul:	
  1722                           ; 1 bytes @ 0x1A
  1723                           
  1724  003A                     ??___awdiv:	
  1725                           ; 1 bytes @ 0x1A
  1726                           
  1727  003A                     ??___awmod:	
  1728                           ; 1 bytes @ 0x1A
  1729                           
  1730  003A                     ??___lwmod:	
  1731                           ; 1 bytes @ 0x1A
  1732                           
  1733  003A                     ??___xxtofl:	
  1734                           ; 1 bytes @ 0x1A
  1735                           
  1736  003A                     ___awdiv@counter:	
  1737                           ; 1 bytes @ 0x1A
  1738                           
  1739  003A                     ___awmod@counter:	
  1740                           ; 1 bytes @ 0x1A
  1741                           
  1742  003A                     ___lwmod@counter:	
  1743                           ; 1 bytes @ 0x1A
  1744                           
  1745  003A                     memset@p:	
  1746                           ; 1 bytes @ 0x1A
  1747                           
  1748  003A                     ___wmul@product:	
  1749                           ; 1 bytes @ 0x1A
  1750                           
  1751  003A                     __Umul8_16@product:	
  1752                           ; 2 bytes @ 0x1A
  1753                           
  1754  003A                     ___lldiv@dividend:	
  1755                           ; 2 bytes @ 0x1A
  1756                           
  1757                           
  1758                           ; 4 bytes @ 0x1A
  1759  003A                     	ds	1
  1760  003B                     ___awdiv@sign:
  1761  003B                     ___awmod@sign:	
  1762                           ; 1 bytes @ 0x1B
  1763                           
  1764  003B                     memset@p1:	
  1765                           ; 1 bytes @ 0x1B
  1766                           
  1767                           
  1768                           ; 1 bytes @ 0x1B
  1769  003B                     	ds	1
  1770  003C                     ??_Buttons_Init:
  1771  003C                     ??_Get_EEPROM_Data:	
  1772                           ; 1 bytes @ 0x1C
  1773                           
  1774  003C                     ??_Scheduler_Init:	
  1775                           ; 1 bytes @ 0x1C
  1776                           
  1777  003C                     ?_Mode_Setting_Timer:	
  1778                           ; 1 bytes @ 0x1C
  1779                           
  1780  003C                     ?_LED_BLINKING:	
  1781                           ; 1 bytes @ 0x1C
  1782                           
  1783  003C                     ?_SSD_Blink:	
  1784                           ; 1 bytes @ 0x1C
  1785                           
  1786  003C                     LED_BLINKING@Time_Ms:	
  1787                           ; 1 bytes @ 0x1C
  1788                           
  1789  003C                     Mode_Setting_Timer@Timer_Ms:	
  1790                           ; 2 bytes @ 0x1C
  1791                           
  1792  003C                     SSD_Blink@Times_Ms:	
  1793                           ; 2 bytes @ 0x1C
  1794                           
  1795  003C                     ___awdiv@quotient:	
  1796                           ; 2 bytes @ 0x1C
  1797                           
  1798  003C                     __Umul8_16@word_mpld:	
  1799                           ; 2 bytes @ 0x1C
  1800                           
  1801                           
  1802                           ; 2 bytes @ 0x1C
  1803  003C                     	ds	2
  1804  003E                     ??_Mode_Setting_Timer:
  1805  003E                     ??_SSD_SelectDigit:	
  1806                           ; 1 bytes @ 0x1E
  1807                           
  1808  003E                     ??_LED_BLINKING:	
  1809                           ; 1 bytes @ 0x1E
  1810                           
  1811  003E                     ??_SSD_Blink:	
  1812                           ; 1 bytes @ 0x1E
  1813                           
  1814  003E                     ??___lldiv:	
  1815                           ; 1 bytes @ 0x1E
  1816                           
  1817  003E                     __Umul8_16@multiplier:	
  1818                           ; 1 bytes @ 0x1E
  1819                           
  1820                           
  1821                           ; 1 bytes @ 0x1E
  1822  003E                     	ds	1
  1823  003F                     ?_Average_Value:
  1824  003F                     ?___fltol:	
  1825                           ; 1 bytes @ 0x1F
  1826                           
  1827  003F                     Average_Value@Avrage_Values:	
  1828                           ; 4 bytes @ 0x1F
  1829                           
  1830  003F                     ___fltol@f1:	
  1831                           ; 1 bytes @ 0x1F
  1832                           
  1833                           
  1834                           ; 4 bytes @ 0x1F
  1835  003F                     	ds	1
  1836  0040                     ??_Scheduler_Task3:
  1837  0040                     ??_SSD_MainFunction:	
  1838                           ; 1 bytes @ 0x20
  1839                           
  1840  0040                     ??_ModeManager_MainFunction:	
  1841                           ; 1 bytes @ 0x20
  1842                           
  1843  0040                     ??_SSD_SelectDisplay:	
  1844                           ; 1 bytes @ 0x20
  1845                           
  1846  0040                     ??_LED_Control:	
  1847                           ; 1 bytes @ 0x20
  1848                           
  1849  0040                     Average_Value@Value:	
  1850                           ; 1 bytes @ 0x20
  1851                           
  1852                           
  1853                           ; 1 bytes @ 0x20
  1854  0040                     	ds	1
  1855  0041                     Average_Value@index:
  1856                           
  1857                           ; 1 bytes @ 0x21
  1858  0041                     	ds	1
  1859  0042                     ??_Scheduler_Task1:
  1860                           
  1861                           ; 1 bytes @ 0x22
  1862  0042                     	ds	1
  1863  0043                     ??_Scheduler_Start:
  1864  0043                     ??_Scheduler_Task2:	
  1865                           ; 1 bytes @ 0x23
  1866                           
  1867  0043                     ??_Temperature_MainFunction:	
  1868                           ; 1 bytes @ 0x23
  1869                           
  1870  0043                     ??_main:	
  1871                           ; 1 bytes @ 0x23
  1872                           
  1873                           
  1874                           	psect	maintext
  1875  0C01                     __pmaintext:	
  1876                           ; 1 bytes @ 0x23
  1877 ;;
  1878 ;;Main: autosize = 0, tempsize = 0, incstack = 0, save=0
  1879 ;;
  1880 ;; *************** function _main *****************
  1881 ;; Defined at:
  1882 ;;		line 30 in file "main.c"
  1883 ;; Parameters:    Size  Location     Type
  1884 ;;		None
  1885 ;; Auto vars:     Size  Location     Type
  1886 ;;		None
  1887 ;; Return value:  Size  Location     Type
  1888 ;;                  1    wreg      void 
  1889 ;; Registers used:
  1890 ;;		wreg, fsr0l, fsr0h, status,2, status,0, btemp+1, pclath, cstack
  1891 ;; Tracked objects:
  1892 ;;		On entry : B00/0
  1893 ;;		On exit  : 0/0
  1894 ;;		Unchanged: 0/0
  1895 ;; Data sizes:     COMMON   BANK0   BANK1   BANK3   BANK2
  1896 ;;      Params:         0       0       0       0       0
  1897 ;;      Locals:         0       0       0       0       0
  1898 ;;      Temps:          0       0       0       0       0
  1899 ;;      Totals:         0       0       0       0       0
  1900 ;;Total ram usage:        0 bytes
  1901 ;; Hardware stack levels required when called:   10
  1902 ;; This function calls:
  1903 ;;		_ADC_Init
  1904 ;;		_ADC_Start_Conv
  1905 ;;		_Buttons_Init
  1906 ;;		_Elements_Init
  1907 ;;		_GPIO_Init
  1908 ;;		_Get_EEPROM_Data
  1909 ;;		_I2c_Init
  1910 ;;		_ModeManager_Init
  1911 ;;		_SSD_Init
  1912 ;;		_Scheduler_Init
  1913 ;;		_Scheduler_Start
  1914 ;;		_Timer0_Init
  1915 ;; This function is called by:
  1916 ;;		Startup code after reset
  1917 ;; This function uses a non-reentrant model
  1918 ;;
  1919                           
  1920                           
  1921                           ;psect for function _main
  1922  0C01                     _main:
  1923  0C01                     l3903:	
  1924                           ;incstack = 0
  1925 ;; hardware stack exceeded
  1926                           ; Regs used in _main: [wreg-fsr0h+status,2+status,0+btemp+1+pclath+cstack]
  1927                           
  1928                           
  1929                           ;main.c: 32:   GPIO_Init();
  1930  0C01  120A  158A  2124  120A  158A  	fcall	_GPIO_Init
  1931  0C06                     l3905:
  1932                           
  1933                           ;main.c: 33:   I2c_Init();
  1934  0C06  120A  158A  203C  120A  158A  	fcall	_I2c_Init
  1935  0C0B                     l3907:
  1936                           
  1937                           ;main.c: 34:   ADC_Init();
  1938  0C0B  120A  158A  2109  120A  158A  	fcall	_ADC_Init
  1939  0C10                     l3909:
  1940                           
  1941                           ;main.c: 35:   Buttons_Init();
  1942  0C10  120A  158A  2164  120A  158A  	fcall	_Buttons_Init
  1943  0C15                     l3911:
  1944                           
  1945                           ;main.c: 36:   SSD_Init();
  1946  0C15  120A  158A  2048  120A  158A  	fcall	_SSD_Init
  1947  0C1A                     l3913:
  1948                           
  1949                           ;main.c: 37:   Elements_Init();
  1950  0C1A  120A  158A  2030  120A  158A  	fcall	_Elements_Init
  1951  0C1F                     l3915:
  1952                           
  1953                           ;main.c: 38:   ModeManager_Init();
  1954  0C1F  160A  118A  27AF  120A  158A  	fcall	_ModeManager_Init
  1955  0C24                     l3917:
  1956                           
  1957                           ;main.c: 39:   Get_EEPROM_Data();
  1958  0C24  120A  158A  2318  120A  158A  	fcall	_Get_EEPROM_Data
  1959  0C29                     l3919:
  1960                           
  1961                           ;main.c: 40:   ADC_Start_Conv();
  1962  0C29  160A  118A  27CD  120A  158A  	fcall	_ADC_Start_Conv
  1963  0C2E                     l3921:
  1964                           
  1965                           ;main.c: 41:   Scheduler_Init();
  1966  0C2E  120A  158A  2063  120A  158A  	fcall	_Scheduler_Init
  1967  0C33                     l3923:
  1968                           
  1969                           ;main.c: 42:   Timer0_Init();
  1970  0C33  120A  158A  2073  120A  158A  	fcall	_Timer0_Init
  1971  0C38                     l3925:
  1972                           
  1973                           ;main.c: 43:   Scheduler_Start();
  1974  0C38  120A  158A  2351  120A  158A  	fcall	_Scheduler_Start
  1975  0C3D                     l68:
  1976  0C3D  120A  118A  2812   	ljmp	start
  1977  0C40                     __end_of_main:
  1978                           
  1979                           	psect	text1
  1980  0873                     __ptext1:	
  1981 ;; *************** function _Timer0_Init *****************
  1982 ;; Defined at:
  1983 ;;		line 22 in file "Timer/Timer.c"
  1984 ;; Parameters:    Size  Location     Type
  1985 ;;		None
  1986 ;; Auto vars:     Size  Location     Type
  1987 ;;		None
  1988 ;; Return value:  Size  Location     Type
  1989 ;;                  1    wreg      void 
  1990 ;; Registers used:
  1991 ;;		wreg
  1992 ;; Tracked objects:
  1993 ;;		On entry : 0/0
  1994 ;;		On exit  : 0/0
  1995 ;;		Unchanged: 0/0
  1996 ;; Data sizes:     COMMON   BANK0   BANK1   BANK3   BANK2
  1997 ;;      Params:         0       0       0       0       0
  1998 ;;      Locals:         0       0       0       0       0
  1999 ;;      Temps:          0       0       0       0       0
  2000 ;;      Totals:         0       0       0       0       0
  2001 ;;Total ram usage:        0 bytes
  2002 ;; Hardware stack levels used:    1
  2003 ;; Hardware stack levels required when called:    4
  2004 ;; This function calls:
  2005 ;;		Nothing
  2006 ;; This function is called by:
  2007 ;;		_main
  2008 ;; This function uses a non-reentrant model
  2009 ;;
  2010                           
  2011                           
  2012                           ;psect for function _Timer0_Init
  2013  0873                     _Timer0_Init:
  2014  0873                     l3019:	
  2015                           ;incstack = 0
  2016                           ; Regs used in _Timer0_Init: [wreg]
  2017                           
  2018                           
  2019                           ;Timer/Timer.c: 25:      OPTION_REGbits.T0CS=0;
  2020  0873  1683               	bsf	3,5	;RP0=1, select bank1
  2021  0874  1303               	bcf	3,6	;RP1=0, select bank1
  2022  0875  1281               	bcf	1,5	;volatile
  2023                           
  2024                           ;Timer/Timer.c: 26:      OPTION_REGbits.PSA=0;
  2025  0876  1181               	bcf	1,3	;volatile
  2026                           
  2027                           ;Timer/Timer.c: 29:      OPTION_REGbits.PS0=1;
  2028  0877  1401               	bsf	1,0	;volatile
  2029                           
  2030                           ;Timer/Timer.c: 30:      OPTION_REGbits.PS1=1;
  2031  0878  1481               	bsf	1,1	;volatile
  2032                           
  2033                           ;Timer/Timer.c: 31:      OPTION_REGbits.PS2=1;
  2034  0879  1501               	bsf	1,2	;volatile
  2035                           
  2036                           ;Timer/Timer.c: 34:         INTCONbits.TMR0IE=1;
  2037  087A  168B               	bsf	11,5	;volatile
  2038                           
  2039                           ;Timer/Timer.c: 35:         INTCONbits.PEIE=1;
  2040  087B  170B               	bsf	11,6	;volatile
  2041                           
  2042                           ;Timer/Timer.c: 36:         INTCONbits.GIE=1;
  2043  087C  178B               	bsf	11,7	;volatile
  2044  087D                     l3021:
  2045                           
  2046                           ;Timer/Timer.c: 38:      TMR0=100;
  2047  087D  3064               	movlw	100
  2048  087E  1283               	bcf	3,5	;RP0=0, select bank0
  2049  087F  1303               	bcf	3,6	;RP1=0, select bank0
  2050  0880  0081               	movwf	1	;volatile
  2051  0881                     l3023:
  2052                           
  2053                           ;Timer/Timer.c: 39:         INTCONbits.TMR0IF=0;
  2054  0881  110B               	bcf	11,2	;volatile
  2055  0882                     l336:
  2056  0882  0008               	return
  2057  0883                     __end_of_Timer0_Init:
  2058                           
  2059                           	psect	text2
  2060  0B51                     __ptext2:	
  2061 ;; *************** function _Scheduler_Start *****************
  2062 ;; Defined at:
  2063 ;;		line 13 in file "Scheduler/Scheduler.c"
  2064 ;; Parameters:    Size  Location     Type
  2065 ;;		None
  2066 ;; Auto vars:     Size  Location     Type
  2067 ;;  IntityIndex     1   42[BANK1 ] unsigned char 
  2068 ;; Return value:  Size  Location     Type
  2069 ;;                  1    wreg      void 
  2070 ;; Registers used:
  2071 ;;		wreg, fsr0l, fsr0h, status,2, status,0, btemp+1, pclath, cstack
  2072 ;; Tracked objects:
  2073 ;;		On entry : 0/0
  2074 ;;		On exit  : 0/0
  2075 ;;		Unchanged: 0/0
  2076 ;; Data sizes:     COMMON   BANK0   BANK1   BANK3   BANK2
  2077 ;;      Params:         0       0       0       0       0
  2078 ;;      Locals:         0       0       1       0       0
  2079 ;;      Temps:          0       0       0       0       0
  2080 ;;      Totals:         0       0       1       0       0
  2081 ;;Total ram usage:        1 bytes
  2082 ;; Hardware stack levels used:    1
  2083 ;; Hardware stack levels required when called:    9
  2084 ;; This function calls:
  2085 ;;		_Scheduler_Task1
  2086 ;;		_Scheduler_Task2
  2087 ;;		_Scheduler_Task3
  2088 ;;		___bmul
  2089 ;; This function is called by:
  2090 ;;		_main
  2091 ;; This function uses a non-reentrant model
  2092 ;;
  2093                           
  2094                           
  2095                           ;psect for function _Scheduler_Start
  2096  0B51                     _Scheduler_Start:
  2097  0B51                     l245:	
  2098                           ;incstack = 0
  2099 ;; hardware stack exceeded
  2100                           ; Regs used in _Scheduler_Start: [wreg-fsr0h+status,2+status,0+btemp+1+pclath+cstack]
  2101                           ;Scheduler/Scheduler.c: 15:   while(1)
  2102                           
  2103  0B51                     l3883:
  2104                           
  2105                           ;Scheduler/Scheduler.c: 16:   {;Scheduler/Scheduler.c: 17:  for( uint8_t IntityIndex = 0
      +                           ; IntityIndex < ( 3U ) ; IntityIndex++ )
  2106  0B51  1683               	bsf	3,5	;RP0=1, select bank1
  2107  0B52  1303               	bcf	3,6	;RP1=0, select bank1
  2108  0B53  01CA               	clrf	Scheduler_Start@IntityIndex^(0+128)
  2109  0B54                     l3889:
  2110                           
  2111                           ;Scheduler/Scheduler.c: 18:  {;Scheduler/Scheduler.c: 19:   if( Scheduler_ActivationFlag
      +                          s[IntityIndex] == 1 )
  2112  0B54  084A               	movf	Scheduler_Start@IntityIndex^(0+128),w
  2113  0B55  3ED3               	addlw	(low (_Scheduler_ActivationFlags| 0))& (0+255)
  2114  0B56  0084               	movwf	4
  2115  0B57  1383               	bcf	3,7	;select IRP bank1
  2116  0B58  0300               	decf	0,w
  2117  0B59  1D03               	btfss	3,2
  2118  0B5A  2B5C               	goto	u5301
  2119  0B5B  2B5D               	goto	u5300
  2120  0B5C                     u5301:
  2121  0B5C  2B7E               	goto	l3895
  2122  0B5D                     u5300:
  2123  0B5D                     l3891:
  2124                           
  2125                           ;Scheduler/Scheduler.c: 20:   {;Scheduler/Scheduler.c: 21:    (*Scheduler_Intitys[Intity
      +                          Index].fuction_ptr)();
  2126  0B5D  3005               	movlw	5
  2127  0B5E  00FF               	movwf	btemp+1
  2128  0B5F  087F               	movf	btemp+1,w
  2129  0B60  1283               	bcf	3,5	;RP0=0, select bank0
  2130  0B61  1303               	bcf	3,6	;RP1=0, select bank0
  2131  0B62  00B6               	movwf	___bmul@multiplicand
  2132  0B63  1683               	bsf	3,5	;RP0=1, select bank1
  2133  0B64  1303               	bcf	3,6	;RP1=0, select bank1
  2134  0B65  084A               	movf	Scheduler_Start@IntityIndex^(0+128),w
  2135  0B66  120A  158A  20C2  120A  158A  	fcall	___bmul
  2136  0B6B  3E01               	addlw	low ((_Scheduler_Intitys-__stringbase)| (0+32768))
  2137  0B6C  0084               	movwf	4
  2138  0B6D  120A  158A  2000  120A  158A  	fcall	stringdir
  2139  0B72  120A  118A  204B  120A  158A  	fcall	fptable
  2140  0B77                     l3893:
  2141                           
  2142                           ;Scheduler/Scheduler.c: 22:    Scheduler_ActivationFlags[IntityIndex] = 0 ;
  2143  0B77  1683               	bsf	3,5	;RP0=1, select bank1
  2144  0B78  1303               	bcf	3,6	;RP1=0, select bank1
  2145  0B79  084A               	movf	Scheduler_Start@IntityIndex^(0+128),w
  2146  0B7A  3ED3               	addlw	(low (_Scheduler_ActivationFlags| 0))& (0+255)
  2147  0B7B  0084               	movwf	4
  2148  0B7C  1383               	bcf	3,7	;select IRP bank1
  2149  0B7D  0180               	clrf	0
  2150  0B7E                     l3895:
  2151                           
  2152                           ;Scheduler/Scheduler.c: 24:  }
  2153  0B7E  3001               	movlw	1
  2154  0B7F  00FF               	movwf	btemp+1
  2155  0B80  087F               	movf	btemp+1,w
  2156  0B81  07CA               	addwf	Scheduler_Start@IntityIndex^(0+128),f
  2157  0B82                     l3897:
  2158  0B82  3003               	movlw	3
  2159  0B83  024A               	subwf	Scheduler_Start@IntityIndex^(0+128),w
  2160  0B84  1C03               	skipc
  2161  0B85  2B87               	goto	u5311
  2162  0B86  2B88               	goto	u5310
  2163  0B87                     u5311:
  2164  0B87  2B54               	goto	l3889
  2165  0B88                     u5310:
  2166  0B88  2B51               	goto	l245
  2167  0B89  0008               	return
  2168  0B8A                     __end_of_Scheduler_Start:
  2169                           
  2170                           	psect	text3
  2171  08C2                     __ptext3:	
  2172 ;; *************** function ___bmul *****************
  2173 ;; Defined at:
  2174 ;;		line 4 in file "C:\Program Files (x86)\Microchip\xc8\v2.20\pic\sources\c90\common\Umul8.c"
  2175 ;; Parameters:    Size  Location     Type
  2176 ;;  multiplier      1    wreg     unsigned char 
  2177 ;;  multiplicand    1   22[BANK0 ] unsigned char 
  2178 ;; Auto vars:     Size  Location     Type
  2179 ;;  multiplier      1   24[BANK0 ] unsigned char 
  2180 ;;  product         1   23[BANK0 ] unsigned char 
  2181 ;; Return value:  Size  Location     Type
  2182 ;;                  1    wreg      unsigned char 
  2183 ;; Registers used:
  2184 ;;		wreg, status,2, status,0, btemp+1
  2185 ;; Tracked objects:
  2186 ;;		On entry : 0/0
  2187 ;;		On exit  : 0/0
  2188 ;;		Unchanged: 0/0
  2189 ;; Data sizes:     COMMON   BANK0   BANK1   BANK3   BANK2
  2190 ;;      Params:         0       1       0       0       0
  2191 ;;      Locals:         0       2       0       0       0
  2192 ;;      Temps:          0       0       0       0       0
  2193 ;;      Totals:         0       3       0       0       0
  2194 ;;Total ram usage:        3 bytes
  2195 ;; Hardware stack levels used:    1
  2196 ;; Hardware stack levels required when called:    4
  2197 ;; This function calls:
  2198 ;;		Nothing
  2199 ;; This function is called by:
  2200 ;;		_Scheduler_Start
  2201 ;;		_Scheduler_ActivateTask
  2202 ;; This function uses a non-reentrant model
  2203 ;;
  2204                           
  2205                           
  2206                           ;psect for function ___bmul
  2207  08C2                     ___bmul:
  2208                           
  2209                           ;incstack = 0
  2210                           ; Regs used in ___bmul: [wreg+status,2+status,0+btemp+1]
  2211                           ;___bmul@multiplier stored from wreg
  2212  08C2  1283               	bcf	3,5	;RP0=0, select bank0
  2213  08C3  1303               	bcf	3,6	;RP1=0, select bank0
  2214  08C4  00B8               	movwf	___bmul@multiplier
  2215  08C5                     l3845:
  2216  08C5  01B7               	clrf	___bmul@product
  2217  08C6                     l3847:
  2218  08C6  1C38               	btfss	___bmul@multiplier,0
  2219  08C7  28C9               	goto	u5251
  2220  08C8  28CA               	goto	u5250
  2221  08C9                     u5251:
  2222  08C9  28CE               	goto	l3851
  2223  08CA                     u5250:
  2224  08CA                     l3849:
  2225  08CA  0836               	movf	___bmul@multiplicand,w
  2226  08CB  00FF               	movwf	btemp+1
  2227  08CC  087F               	movf	btemp+1,w
  2228  08CD  07B7               	addwf	___bmul@product,f
  2229  08CE                     l3851:
  2230  08CE  1003               	clrc
  2231  08CF  0DB6               	rlf	___bmul@multiplicand,f
  2232  08D0                     l3853:
  2233  08D0  1003               	clrc
  2234  08D1  0CB8               	rrf	___bmul@multiplier,f
  2235  08D2                     l3855:
  2236  08D2  0838               	movf	___bmul@multiplier,w
  2237  08D3  1D03               	btfss	3,2
  2238  08D4  28D6               	goto	u5261
  2239  08D5  28D7               	goto	u5260
  2240  08D6                     u5261:
  2241  08D6  28C6               	goto	l3847
  2242  08D7                     u5260:
  2243  08D7                     l3857:
  2244  08D7  0837               	movf	___bmul@product,w
  2245  08D8                     l659:
  2246  08D8  0008               	return
  2247  08D9                     __end_of___bmul:
  2248                           
  2249                           	psect	text4
  2250  0825                     __ptext4:	
  2251 ;; *************** function _Scheduler_Task2 *****************
  2252 ;; Defined at:
  2253 ;;		line 28 in file "Scheduler/Tasks.c"
  2254 ;; Parameters:    Size  Location     Type
  2255 ;;		None
  2256 ;; Auto vars:     Size  Location     Type
  2257 ;;		None
  2258 ;; Return value:  Size  Location     Type
  2259 ;;                  1    wreg      void 
  2260 ;; Registers used:
  2261 ;;		wreg, fsr0l, fsr0h, status,2, status,0, btemp+1, pclath, cstack
  2262 ;; Tracked objects:
  2263 ;;		On entry : 0/0
  2264 ;;		On exit  : 0/0
  2265 ;;		Unchanged: 0/0
  2266 ;; Data sizes:     COMMON   BANK0   BANK1   BANK3   BANK2
  2267 ;;      Params:         0       0       0       0       0
  2268 ;;      Locals:         0       0       0       0       0
  2269 ;;      Temps:          0       0       0       0       0
  2270 ;;      Totals:         0       0       0       0       0
  2271 ;;Total ram usage:        0 bytes
  2272 ;; Hardware stack levels used:    1
  2273 ;; Hardware stack levels required when called:    8
  2274 ;; This function calls:
  2275 ;;		_Elements_MainFunction
  2276 ;;		_Temperature_MainFunction
  2277 ;; This function is called by:
  2278 ;;		_Scheduler_Start
  2279 ;; This function uses a non-reentrant model
  2280 ;;
  2281                           
  2282                           
  2283                           ;psect for function _Scheduler_Task2
  2284  0825                     _Scheduler_Task2:
  2285  0825                     l3819:	
  2286                           ;incstack = 0
  2287 ;; hardware stack exceeded
  2288                           ; Regs used in _Scheduler_Task2: [wreg-fsr0h+status,2+status,0+btemp+1+pclath+cstack]
  2289                           
  2290                           
  2291                           ;Scheduler/Tasks.c: 30:  Temperature_MainFunction();
  2292  0825  120A  158A  2083  120A  158A  	fcall	_Temperature_MainFunction
  2293                           
  2294                           ;Scheduler/Tasks.c: 31:  Elements_MainFunction();
  2295  082A  120A  158A  263F  120A  158A  	fcall	_Elements_MainFunction
  2296  082F                     l300:
  2297  082F  0008               	return
  2298  0830                     __end_of_Scheduler_Task2:
  2299                           
  2300                           	psect	text5
  2301  081A                     __ptext5:	
  2302 ;; *************** function _Scheduler_Task1 *****************
  2303 ;; Defined at:
  2304 ;;		line 19 in file "Scheduler/Tasks.c"
  2305 ;; Parameters:    Size  Location     Type
  2306 ;;		None
  2307 ;; Auto vars:     Size  Location     Type
  2308 ;;		None
  2309 ;; Return value:  Size  Location     Type
  2310 ;;                  1    wreg      void 
  2311 ;; Registers used:
  2312 ;;		wreg, fsr0l, fsr0h, status,2, status,0, btemp+1, pclath, cstack
  2313 ;; Tracked objects:
  2314 ;;		On entry : 0/0
  2315 ;;		On exit  : 0/0
  2316 ;;		Unchanged: 0/0
  2317 ;; Data sizes:     COMMON   BANK0   BANK1   BANK3   BANK2
  2318 ;;      Params:         0       0       0       0       0
  2319 ;;      Locals:         0       0       0       0       0
  2320 ;;      Temps:          0       0       0       0       0
  2321 ;;      Totals:         0       0       0       0       0
  2322 ;;Total ram usage:        0 bytes
  2323 ;; Hardware stack levels used:    1
  2324 ;; Hardware stack levels required when called:    8
  2325 ;; This function calls:
  2326 ;;		_Buttons_MainFunction
  2327 ;;		_SSD_MainFunction
  2328 ;; This function is called by:
  2329 ;;		_Scheduler_Start
  2330 ;; This function uses a non-reentrant model
  2331 ;;
  2332                           
  2333                           
  2334                           ;psect for function _Scheduler_Task1
  2335  081A                     _Scheduler_Task1:
  2336  081A                     l3817:	
  2337                           ;incstack = 0
  2338 ;; hardware stack exceeded
  2339                           ; Regs used in _Scheduler_Task1: [wreg-fsr0h+status,2+status,0+btemp+1+pclath+cstack]
  2340                           
  2341                           
  2342                           ;Scheduler/Tasks.c: 22:  SSD_MainFunction();
  2343  081A  120A  158A  2525  120A  158A  	fcall	_SSD_MainFunction
  2344                           
  2345                           ;Scheduler/Tasks.c: 23:     Buttons_MainFunction();
  2346  081F  120A  118A  270F  120A  158A  	fcall	_Buttons_MainFunction
  2347  0824                     l297:
  2348  0824  0008               	return
  2349  0825                     __end_of_Scheduler_Task1:
  2350                           
  2351                           	psect	text6
  2352  17F5                     __ptext6:	
  2353 ;; *************** function _Scheduler_Task3 *****************
  2354 ;; Defined at:
  2355 ;;		line 34 in file "Scheduler/Tasks.c"
  2356 ;; Parameters:    Size  Location     Type
  2357 ;;		None
  2358 ;; Auto vars:     Size  Location     Type
  2359 ;;		None
  2360 ;; Return value:  Size  Location     Type
  2361 ;;                  1    wreg      void 
  2362 ;; Registers used:
  2363 ;;		wreg, status,2, status,0, btemp+1, pclath, cstack
  2364 ;; Tracked objects:
  2365 ;;		On entry : 0/0
  2366 ;;		On exit  : 0/0
  2367 ;;		Unchanged: 0/0
  2368 ;; Data sizes:     COMMON   BANK0   BANK1   BANK3   BANK2
  2369 ;;      Params:         0       0       0       0       0
  2370 ;;      Locals:         0       0       0       0       0
  2371 ;;      Temps:          0       0       0       0       0
  2372 ;;      Totals:         0       0       0       0       0
  2373 ;;Total ram usage:        0 bytes
  2374 ;; Hardware stack levels used:    1
  2375 ;; Hardware stack levels required when called:    7
  2376 ;; This function calls:
  2377 ;;		_ModeManager_MainFunction
  2378 ;;		_Set_EEPROM_Data
  2379 ;; This function is called by:
  2380 ;;		_Scheduler_Start
  2381 ;; This function uses a non-reentrant model
  2382 ;;
  2383                           
  2384                           
  2385                           ;psect for function _Scheduler_Task3
  2386  17F5                     _Scheduler_Task3:
  2387  17F5                     l3821:	
  2388                           ;incstack = 0
  2389 ;; hardware stack exceeded
  2390                           ; Regs used in _Scheduler_Task3: [wreg+status,2+status,0+btemp+1+pclath+cstack]
  2391                           
  2392                           
  2393                           ;Scheduler/Tasks.c: 36:     ModeManager_MainFunction();
  2394  17F5  120A  158A  2440  160A  118A  	fcall	_ModeManager_MainFunction
  2395                           
  2396                           ;Scheduler/Tasks.c: 37:     Set_EEPROM_Data();
  2397  17FA  120A  158A  20F1  160A  118A  	fcall	_Set_EEPROM_Data
  2398  17FF                     l303:
  2399  17FF  0008               	return
  2400  1800                     __end_of_Scheduler_Task3:
  2401                           
  2402                           	psect	text7
  2403  08F1                     __ptext7:	
  2404 ;; *************** function _Set_EEPROM_Data *****************
  2405 ;; Defined at:
  2406 ;;		line 56 in file "EEPROM/EEPROM.c"
  2407 ;; Parameters:    Size  Location     Type
  2408 ;;		None
  2409 ;; Auto vars:     Size  Location     Type
  2410 ;;		None
  2411 ;; Return value:  Size  Location     Type
  2412 ;;                  1    wreg      void 
  2413 ;; Registers used:
  2414 ;;		wreg, status,2, status,0, btemp+1, pclath, cstack
  2415 ;; Tracked objects:
  2416 ;;		On entry : 0/0
  2417 ;;		On exit  : 0/0
  2418 ;;		Unchanged: 0/0
  2419 ;; Data sizes:     COMMON   BANK0   BANK1   BANK3   BANK2
  2420 ;;      Params:         0       0       0       0       0
  2421 ;;      Locals:         0       0       0       0       0
  2422 ;;      Temps:          0       0       0       0       0
  2423 ;;      Totals:         0       0       0       0       0
  2424 ;;Total ram usage:        0 bytes
  2425 ;; Hardware stack levels used:    1
  2426 ;; Hardware stack levels required when called:    6
  2427 ;; This function calls:
  2428 ;;		_EEPROM_Write
  2429 ;; This function is called by:
  2430 ;;		_Scheduler_Task3
  2431 ;; This function uses a non-reentrant model
  2432 ;;
  2433                           
  2434                           
  2435                           ;psect for function _Set_EEPROM_Data
  2436  08F1                     _Set_EEPROM_Data:
  2437  08F1                     l3787:	
  2438                           ;incstack = 0
  2439 ;; hardware stack exceeded
  2440                           ; Regs used in _Set_EEPROM_Data: [wreg+status,2+status,0+btemp+1+pclath+cstack]
  2441                           
  2442                           
  2443                           ;EEPROM/EEPROM.c: 60:  if(Temperature.Store_Set_Temp_Flag==1)
  2444  08F1  1283               	bcf	3,5	;RP0=0, select bank0
  2445  08F2  1303               	bcf	3,6	;RP1=0, select bank0
  2446  08F3  1CD2               	btfss	_Temperature+4,1
  2447  08F4  28F6               	goto	u5211
  2448  08F5  28F7               	goto	u5210
  2449  08F6                     u5211:
  2450  08F6  2908               	goto	l468
  2451  08F7                     u5210:
  2452  08F7                     l3789:
  2453                           
  2454                           ;EEPROM/EEPROM.c: 61:  {;EEPROM/EEPROM.c: 62:     EEPROM_Data=Temperature.Set_Temp;
  2455  08F7  0851               	movf	_Temperature+3,w
  2456  08F8  00FF               	movwf	btemp+1
  2457  08F9  087F               	movf	btemp+1,w
  2458  08FA  00C8               	movwf	_EEPROM_Data
  2459  08FB                     l3791:
  2460                           
  2461                           ;EEPROM/EEPROM.c: 63:     EEPROM_Write(EEPROM_Data,0x0A);
  2462  08FB  300A               	movlw	10
  2463  08FC  00FF               	movwf	btemp+1
  2464  08FD  087F               	movf	btemp+1,w
  2465  08FE  00B7               	movwf	EEPROM_Write@Addr
  2466  08FF  0848               	movf	_EEPROM_Data,w
  2467  0900  120A  158A  22E5  120A  158A  	fcall	_EEPROM_Write
  2468  0905                     l3793:
  2469                           
  2470                           ;EEPROM/EEPROM.c: 64:     Temperature.Store_Set_Temp_Flag=0;
  2471  0905  1283               	bcf	3,5	;RP0=0, select bank0
  2472  0906  1303               	bcf	3,6	;RP1=0, select bank0
  2473  0907  10D2               	bcf	_Temperature+4,1
  2474  0908                     l468:
  2475  0908  0008               	return
  2476  0909                     __end_of_Set_EEPROM_Data:
  2477                           
  2478                           	psect	text8
  2479  0AE5                     __ptext8:	
  2480 ;; *************** function _EEPROM_Write *****************
  2481 ;; Defined at:
  2482 ;;		line 80 in file "EEPROM/EEPROM.c"
  2483 ;; Parameters:    Size  Location     Type
  2484 ;;  Data            1    wreg     unsigned char 
  2485 ;;  Addr            1   23[BANK0 ] unsigned char 
  2486 ;; Auto vars:     Size  Location     Type
  2487 ;;  Data            1   24[BANK0 ] unsigned char 
  2488 ;; Return value:  Size  Location     Type
  2489 ;;                  1    wreg      void 
  2490 ;; Registers used:
  2491 ;;		wreg, status,2, status,0, pclath, cstack
  2492 ;; Tracked objects:
  2493 ;;		On entry : 0/0
  2494 ;;		On exit  : 0/0
  2495 ;;		Unchanged: 0/0
  2496 ;; Data sizes:     COMMON   BANK0   BANK1   BANK3   BANK2
  2497 ;;      Params:         0       1       0       0       0
  2498 ;;      Locals:         0       1       0       0       0
  2499 ;;      Temps:          0       0       0       0       0
  2500 ;;      Totals:         0       2       0       0       0
  2501 ;;Total ram usage:        2 bytes
  2502 ;; Hardware stack levels used:    1
  2503 ;; Hardware stack levels required when called:    5
  2504 ;; This function calls:
  2505 ;;		_I2c_Start
  2506 ;;		_I2c_Stop
  2507 ;;		_I2c_WaitAck
  2508 ;;		_I2c_Write
  2509 ;; This function is called by:
  2510 ;;		_Set_EEPROM_Data
  2511 ;; This function uses a non-reentrant model
  2512 ;;
  2513                           
  2514                           
  2515                           ;psect for function _EEPROM_Write
  2516  0AE5                     _EEPROM_Write:
  2517                           
  2518                           ;incstack = 0
  2519 ;; hardware stack exceeded
  2520                           ; Regs used in _EEPROM_Write: [wreg+status,2+status,0+pclath+cstack]
  2521                           ;EEPROM_Write@Data stored from wreg
  2522  0AE5  1283               	bcf	3,5	;RP0=0, select bank0
  2523  0AE6  1303               	bcf	3,6	;RP1=0, select bank0
  2524  0AE7  00B8               	movwf	EEPROM_Write@Data
  2525  0AE8                     l3607:
  2526                           
  2527                           ;EEPROM/EEPROM.c: 80: void EEPROM_Write(uint8_t Data,uint8_t Addr);EEPROM/EEPROM.c: 81: 
      +                          {;EEPROM/EEPROM.c: 82:  I2c_Start();
  2528  0AE8  160A  118A  27DF  120A  158A  	fcall	_I2c_Start
  2529  0AED                     l3609:
  2530                           
  2531                           ;EEPROM/EEPROM.c: 83:  I2c_Write(0xA0);
  2532  0AED  30A0               	movlw	160
  2533  0AEE  160A  118A  27B7  120A  158A  	fcall	_I2c_Write
  2534  0AF3                     l3611:
  2535                           
  2536                           ;EEPROM/EEPROM.c: 84:  I2c_WaitAck();
  2537  0AF3  160A  118A  27BD  120A  158A  	fcall	_I2c_WaitAck
  2538                           
  2539                           ;EEPROM/EEPROM.c: 85:  I2c_Write(Addr);
  2540  0AF8  1283               	bcf	3,5	;RP0=0, select bank0
  2541  0AF9  1303               	bcf	3,6	;RP1=0, select bank0
  2542  0AFA  0837               	movf	EEPROM_Write@Addr,w
  2543  0AFB  160A  118A  27B7  120A  158A  	fcall	_I2c_Write
  2544  0B00                     l3613:
  2545                           
  2546                           ;EEPROM/EEPROM.c: 86:  I2c_WaitAck();
  2547  0B00  160A  118A  27BD  120A  158A  	fcall	_I2c_WaitAck
  2548  0B05                     l3615:
  2549                           
  2550                           ;EEPROM/EEPROM.c: 87:  I2c_Write(Data);
  2551  0B05  1283               	bcf	3,5	;RP0=0, select bank0
  2552  0B06  1303               	bcf	3,6	;RP1=0, select bank0
  2553  0B07  0838               	movf	EEPROM_Write@Data,w
  2554  0B08  160A  118A  27B7  120A  158A  	fcall	_I2c_Write
  2555                           
  2556                           ;EEPROM/EEPROM.c: 88:  I2c_WaitAck();
  2557  0B0D  160A  118A  27BD  120A  158A  	fcall	_I2c_WaitAck
  2558                           
  2559                           ;EEPROM/EEPROM.c: 89:  I2c_Stop();
  2560  0B12  160A  118A  27EA  120A  158A  	fcall	_I2c_Stop
  2561  0B17                     l471:
  2562  0B17  0008               	return
  2563  0B18                     __end_of_EEPROM_Write:
  2564                           
  2565                           	psect	text9
  2566  0C40                     __ptext9:	
  2567 ;; *************** function _ModeManager_MainFunction *****************
  2568 ;; Defined at:
  2569 ;;		line 48 in file "WaterHeater_Mode/WaterHeater_Mode.c"
  2570 ;; Parameters:    Size  Location     Type
  2571 ;;		None
  2572 ;; Auto vars:     Size  Location     Type
  2573 ;;		None
  2574 ;; Return value:  Size  Location     Type
  2575 ;;                  1    wreg      void 
  2576 ;; Registers used:
  2577 ;;		wreg, status,2, status,0, btemp+1, pclath, cstack
  2578 ;; Tracked objects:
  2579 ;;		On entry : 0/0
  2580 ;;		On exit  : 0/0
  2581 ;;		Unchanged: 0/0
  2582 ;; Data sizes:     COMMON   BANK0   BANK1   BANK3   BANK2
  2583 ;;      Params:         0       0       0       0       0
  2584 ;;      Locals:         0       0       0       0       0
  2585 ;;      Temps:          0       0       0       0       0
  2586 ;;      Totals:         0       0       0       0       0
  2587 ;;Total ram usage:        0 bytes
  2588 ;; Hardware stack levels used:    1
  2589 ;; Hardware stack levels required when called:    6
  2590 ;; This function calls:
  2591 ;;		_Mode_Setting_Timer
  2592 ;; This function is called by:
  2593 ;;		_Scheduler_Task3
  2594 ;; This function uses a non-reentrant model
  2595 ;;
  2596                           
  2597                           
  2598                           ;psect for function _ModeManager_MainFunction
  2599  0C40                     _ModeManager_MainFunction:
  2600  0C40                     l3765:	
  2601                           ;incstack = 0
  2602 ;; hardware stack exceeded
  2603                           ; Regs used in _ModeManager_MainFunction: [wreg+status,2+status,0+btemp+1+pclath+cstack]
  2604                           
  2605                           
  2606                           ;WaterHeater_Mode/WaterHeater_Mode.c: 50:    if(Mode.Select_Mode==Setting_Mode)
  2607  0C40  3002               	movlw	2
  2608  0C41  1283               	bcf	3,5	;RP0=0, select bank0
  2609  0C42  1303               	bcf	3,6	;RP1=0, select bank0
  2610  0C43  0654               	xorwf	_Mode,w
  2611  0C44  1D03               	btfss	3,2
  2612  0C45  2C47               	goto	u5121
  2613  0C46  2C48               	goto	u5120
  2614  0C47                     u5121:
  2615  0C47  2C84               	goto	l359
  2616  0C48                     u5120:
  2617  0C48                     l3767:
  2618                           
  2619                           ;WaterHeater_Mode/WaterHeater_Mode.c: 51:    {;WaterHeater_Mode/WaterHeater_Mode.c: 52: 
      +                              Mode_Setting_Timer(5000);
  2620  0C48  3088               	movlw	136
  2621  0C49  00BC               	movwf	Mode_Setting_Timer@Timer_Ms
  2622  0C4A  3013               	movlw	19
  2623  0C4B  00BD               	movwf	Mode_Setting_Timer@Timer_Ms+1
  2624  0C4C  120A  158A  222C  120A  158A  	fcall	_Mode_Setting_Timer
  2625  0C51                     l3769:
  2626                           
  2627                           ;WaterHeater_Mode/WaterHeater_Mode.c: 53:     if(Buttons.UpFlag &&!Buttons.DownFlag && T
      +                          emperature.Set_Temp !=(75U))
  2628  0C51  1283               	bcf	3,5	;RP0=0, select bank0
  2629  0C52  1303               	bcf	3,6	;RP1=0, select bank0
  2630  0C53  1C4A               	btfss	_Buttons,0
  2631  0C54  2C56               	goto	u5131
  2632  0C55  2C57               	goto	u5130
  2633  0C56                     u5131:
  2634  0C56  2C66               	goto	l360
  2635  0C57                     u5130:
  2636  0C57                     l3771:
  2637  0C57  18CA               	btfsc	_Buttons,1
  2638  0C58  2C5A               	goto	u5141
  2639  0C59  2C5B               	goto	u5140
  2640  0C5A                     u5141:
  2641  0C5A  2C66               	goto	l360
  2642  0C5B                     u5140:
  2643  0C5B                     l3773:
  2644  0C5B  304B               	movlw	75
  2645  0C5C  0651               	xorwf	_Temperature+3,w
  2646  0C5D  1903               	btfsc	3,2
  2647  0C5E  2C60               	goto	u5151
  2648  0C5F  2C61               	goto	u5150
  2649  0C60                     u5151:
  2650  0C60  2C66               	goto	l360
  2651  0C61                     u5150:
  2652  0C61                     l3775:
  2653                           
  2654                           ;WaterHeater_Mode/WaterHeater_Mode.c: 54:      {;WaterHeater_Mode/WaterHeater_Mode.c: 56
      +                          :       Temperature.Set_Temp += (5U);
  2655  0C61  3005               	movlw	5
  2656  0C62  00FF               	movwf	btemp+1
  2657  0C63  087F               	movf	btemp+1,w
  2658  0C64  07D1               	addwf	_Temperature+3,f
  2659                           
  2660                           ;WaterHeater_Mode/WaterHeater_Mode.c: 58:      }
  2661  0C65  2C76               	goto	l3783
  2662  0C66                     l360:	
  2663                           ;WaterHeater_Mode/WaterHeater_Mode.c: 59:      else if(Buttons.DownFlag &&!Buttons.UpFla
      +                          g&& Temperature.Set_Temp !=(35U))
  2664                           
  2665  0C66  1CCA               	btfss	_Buttons,1
  2666  0C67  2C69               	goto	u5161
  2667  0C68  2C6A               	goto	u5160
  2668  0C69                     u5161:
  2669  0C69  2C76               	goto	l3783
  2670  0C6A                     u5160:
  2671  0C6A                     l3777:
  2672  0C6A  184A               	btfsc	_Buttons,0
  2673  0C6B  2C6D               	goto	u5171
  2674  0C6C  2C6E               	goto	u5170
  2675  0C6D                     u5171:
  2676  0C6D  2C76               	goto	l3783
  2677  0C6E                     u5170:
  2678  0C6E                     l3779:
  2679  0C6E  3023               	movlw	35
  2680  0C6F  0651               	xorwf	_Temperature+3,w
  2681  0C70  1903               	btfsc	3,2
  2682  0C71  2C73               	goto	u5181
  2683  0C72  2C74               	goto	u5180
  2684  0C73                     u5181:
  2685  0C73  2C76               	goto	l3783
  2686  0C74                     u5180:
  2687  0C74                     l3781:
  2688                           
  2689                           ;WaterHeater_Mode/WaterHeater_Mode.c: 60:      {;WaterHeater_Mode/WaterHeater_Mode.c: 61
      +                          :       Temperature.Set_Temp -= (5U);
  2690  0C74  3005               	movlw	5
  2691  0C75  02D1               	subwf	_Temperature+3,f
  2692  0C76                     l3783:
  2693                           
  2694                           ;WaterHeater_Mode/WaterHeater_Mode.c: 64:        if(Buttons.DownFlag || Buttons.UpFlag)
  2695  0C76  18CA               	btfsc	_Buttons,1
  2696  0C77  2C79               	goto	u5191
  2697  0C78  2C7A               	goto	u5190
  2698  0C79                     u5191:
  2699  0C79  2C7E               	goto	l365
  2700  0C7A                     u5190:
  2701  0C7A                     l3785:
  2702  0C7A  1C4A               	btfss	_Buttons,0
  2703  0C7B  2C7D               	goto	u5201
  2704  0C7C  2C7E               	goto	u5200
  2705  0C7D                     u5201:
  2706  0C7D  2C84               	goto	l359
  2707  0C7E                     u5200:
  2708  0C7E                     l365:
  2709                           
  2710                           ;WaterHeater_Mode/WaterHeater_Mode.c: 65:        {;WaterHeater_Mode/WaterHeater_Mode.c: 
      +                          66:           Mode.Setting_Mode_Timer=1;
  2711  0C7E  01D5               	clrf	_Mode+1
  2712  0C7F  0AD5               	incf	_Mode+1,f
  2713                           
  2714                           ;WaterHeater_Mode/WaterHeater_Mode.c: 67:           Enable_SSD=Enable_SSD_On;
  2715  0C80  01CC               	clrf	_Enable_SSD
  2716  0C81  0ACC               	incf	_Enable_SSD,f
  2717                           
  2718                           ;WaterHeater_Mode/WaterHeater_Mode.c: 68:           Counter =1;
  2719  0C82  01D7               	clrf	_Counter
  2720  0C83  0AD7               	incf	_Counter,f
  2721  0C84                     l359:	
  2722                           ;WaterHeater_Mode/WaterHeater_Mode.c: 71:    }
  2723                           
  2724                           
  2725                           ;WaterHeater_Mode/WaterHeater_Mode.c: 72:       Buttons.UpFlag=0;
  2726  0C84  104A               	bcf	_Buttons,0
  2727                           
  2728                           ;WaterHeater_Mode/WaterHeater_Mode.c: 73:       Buttons.DownFlag=0;
  2729  0C85  10CA               	bcf	_Buttons,1
  2730  0C86                     l366:
  2731  0C86  0008               	return
  2732  0C87                     __end_of_ModeManager_MainFunction:
  2733                           
  2734                           	psect	text10
  2735  0A2C                     __ptext10:	
  2736 ;; *************** function _Mode_Setting_Timer *****************
  2737 ;; Defined at:
  2738 ;;		line 87 in file "WaterHeater_Mode/WaterHeater_Mode.c"
  2739 ;; Parameters:    Size  Location     Type
  2740 ;;  Timer_Ms        2   28[BANK0 ] unsigned int 
  2741 ;; Auto vars:     Size  Location     Type
  2742 ;;		None
  2743 ;; Return value:  Size  Location     Type
  2744 ;;                  1    wreg      void 
  2745 ;; Registers used:
  2746 ;;		wreg, status,2, status,0, btemp+1, pclath, cstack
  2747 ;; Tracked objects:
  2748 ;;		On entry : 0/0
  2749 ;;		On exit  : 0/0
  2750 ;;		Unchanged: 0/0
  2751 ;; Data sizes:     COMMON   BANK0   BANK1   BANK3   BANK2
  2752 ;;      Params:         0       2       0       0       0
  2753 ;;      Locals:         0       0       0       0       0
  2754 ;;      Temps:          0       2       0       0       0
  2755 ;;      Totals:         0       4       0       0       0
  2756 ;;Total ram usage:        4 bytes
  2757 ;; Hardware stack levels used:    1
  2758 ;; Hardware stack levels required when called:    5
  2759 ;; This function calls:
  2760 ;;		___wmul
  2761 ;; This function is called by:
  2762 ;;		_ModeManager_MainFunction
  2763 ;; This function uses a non-reentrant model
  2764 ;;
  2765                           
  2766                           
  2767                           ;psect for function _Mode_Setting_Timer
  2768  0A2C                     _Mode_Setting_Timer:
  2769  0A2C                     l3601:	
  2770                           ;incstack = 0
  2771 ;; hardware stack exceeded
  2772                           ; Regs used in _Mode_Setting_Timer: [wreg+status,2+status,0+btemp+1+pclath+cstack]
  2773                           
  2774                           
  2775                           ;WaterHeater_Mode/WaterHeater_Mode.c: 87: void Mode_Setting_Timer(uint16_t Timer_Ms);Wat
      +                          erHeater_Mode/WaterHeater_Mode.c: 88: {;WaterHeater_Mode/WaterHeater_Mode.c: 89:  if(Mod
      +                          e.Setting_Mode_Timer*500==Timer_Ms)
  2776  0A2C  1283               	bcf	3,5	;RP0=0, select bank0
  2777  0A2D  1303               	bcf	3,6	;RP1=0, select bank0
  2778  0A2E  0855               	movf	_Mode+1,w
  2779  0A2F  00BE               	movwf	??_Mode_Setting_Timer
  2780  0A30  01BF               	clrf	??_Mode_Setting_Timer+1
  2781  0A31  083E               	movf	??_Mode_Setting_Timer,w
  2782  0A32  00B6               	movwf	___wmul@multiplier
  2783  0A33  083F               	movf	??_Mode_Setting_Timer+1,w
  2784  0A34  00B7               	movwf	___wmul@multiplier+1
  2785  0A35  30F4               	movlw	244
  2786  0A36  00B8               	movwf	___wmul@multiplicand
  2787  0A37  3001               	movlw	1
  2788  0A38  00B9               	movwf	___wmul@multiplicand+1
  2789  0A39  120A  158A  218A  120A  158A  	fcall	___wmul
  2790  0A3E  1283               	bcf	3,5	;RP0=0, select bank0
  2791  0A3F  1303               	bcf	3,6	;RP1=0, select bank0
  2792  0A40  083D               	movf	Mode_Setting_Timer@Timer_Ms+1,w
  2793  0A41  0637               	xorwf	?___wmul+1,w
  2794  0A42  1D03               	skipz
  2795  0A43  2A46               	goto	u4845
  2796  0A44  083C               	movf	Mode_Setting_Timer@Timer_Ms,w
  2797  0A45  0636               	xorwf	?___wmul,w
  2798  0A46                     u4845:
  2799  0A46  1D03               	skipz
  2800  0A47  2A49               	goto	u4841
  2801  0A48  2A4A               	goto	u4840
  2802  0A49                     u4841:
  2803  0A49  2A52               	goto	l3605
  2804  0A4A                     u4840:
  2805  0A4A                     l3603:
  2806                           
  2807                           ;WaterHeater_Mode/WaterHeater_Mode.c: 90:  {;WaterHeater_Mode/WaterHeater_Mode.c: 91:   
      +                          Temperature.Store_Set_Temp_Flag=1;
  2808  0A4A  14D2               	bsf	_Temperature+4,1
  2809                           
  2810                           ;WaterHeater_Mode/WaterHeater_Mode.c: 92:   Mode.Select_Mode=Normal_Mode;
  2811  0A4B  01D4               	clrf	_Mode
  2812  0A4C  0AD4               	incf	_Mode,f
  2813                           
  2814                           ;WaterHeater_Mode/WaterHeater_Mode.c: 93:   Mode.Setting_Mode_Timer=1;
  2815  0A4D  01D5               	clrf	_Mode+1
  2816  0A4E  0AD5               	incf	_Mode+1,f
  2817                           
  2818                           ;WaterHeater_Mode/WaterHeater_Mode.c: 94:         Buttons.UpFlag=0;
  2819  0A4F  104A               	bcf	_Buttons,0
  2820                           
  2821                           ;WaterHeater_Mode/WaterHeater_Mode.c: 95:         Buttons.DownFlag=0;
  2822  0A50  10CA               	bcf	_Buttons,1
  2823                           
  2824                           ;WaterHeater_Mode/WaterHeater_Mode.c: 97:  }
  2825  0A51  2A56               	goto	l371
  2826  0A52                     l3605:
  2827                           
  2828                           ;WaterHeater_Mode/WaterHeater_Mode.c: 99:  {;WaterHeater_Mode/WaterHeater_Mode.c: 100:  
      +                           Mode.Setting_Mode_Timer++;
  2829  0A52  3001               	movlw	1
  2830  0A53  00FF               	movwf	btemp+1
  2831  0A54  087F               	movf	btemp+1,w
  2832  0A55  07D5               	addwf	_Mode+1,f
  2833  0A56                     l371:
  2834  0A56  0008               	return
  2835  0A57                     __end_of_Mode_Setting_Timer:
  2836                           
  2837                           	psect	text11
  2838  0883                     __ptext11:	
  2839 ;; *************** function _Temperature_MainFunction *****************
  2840 ;; Defined at:
  2841 ;;		line 24 in file "Temperature/Temperature.c"
  2842 ;; Parameters:    Size  Location     Type
  2843 ;;		None
  2844 ;; Auto vars:     Size  Location     Type
  2845 ;;		None
  2846 ;; Return value:  Size  Location     Type
  2847 ;;                  1    wreg      void 
  2848 ;; Registers used:
  2849 ;;		wreg, fsr0l, fsr0h, status,2, status,0, btemp+1, pclath, cstack
  2850 ;; Tracked objects:
  2851 ;;		On entry : 0/0
  2852 ;;		On exit  : 0/0
  2853 ;;		Unchanged: 0/0
  2854 ;; Data sizes:     COMMON   BANK0   BANK1   BANK3   BANK2
  2855 ;;      Params:         0       0       0       0       0
  2856 ;;      Locals:         0       0       0       0       0
  2857 ;;      Temps:          0       0       0       0       0
  2858 ;;      Totals:         0       0       0       0       0
  2859 ;;Total ram usage:        0 bytes
  2860 ;; Hardware stack levels used:    1
  2861 ;; Hardware stack levels required when called:    7
  2862 ;; This function calls:
  2863 ;;		_ADC_Get_Value
  2864 ;;		_Temperature_Calc
  2865 ;; This function is called by:
  2866 ;;		_Scheduler_Task2
  2867 ;; This function uses a non-reentrant model
  2868 ;;
  2869                           
  2870                           
  2871                           ;psect for function _Temperature_MainFunction
  2872  0883                     _Temperature_MainFunction:
  2873  0883                     l3761:	
  2874                           ;incstack = 0
  2875 ;; hardware stack exceeded
  2876                           ; Regs used in _Temperature_MainFunction: [wreg-fsr0h+status,2+status,0+btemp+1+pclath+c
      +                          stack]
  2877                           
  2878                           
  2879                           ;Temperature/Temperature.c: 26:   if(Mode.Select_Mode==Normal_Mode)
  2880  0883  1283               	bcf	3,5	;RP0=0, select bank0
  2881  0884  1303               	bcf	3,6	;RP1=0, select bank0
  2882  0885  0354               	decf	_Mode,w
  2883  0886  1D03               	btfss	3,2
  2884  0887  2889               	goto	u5111
  2885  0888  288A               	goto	u5110
  2886  0889                     u5111:
  2887  0889  2890               	goto	l318
  2888  088A                     u5110:
  2889  088A                     l3763:
  2890                           
  2891                           ;Temperature/Temperature.c: 27:   {;Temperature/Temperature.c: 28:    ADC_Get_Value(&Tem
      +                          perature.ADC_Value);
  2892  088A  3050               	movlw	(low ((_Temperature| 0+2)))& (0+255)
  2893  088B  120A  158A  20D9  120A  158A  	fcall	_ADC_Get_Value
  2894  0890                     l318:	
  2895                           ;Temperature/Temperature.c: 29:   }
  2896                           
  2897                           
  2898                           ;Temperature/Temperature.c: 30:   Temperature_Calc();
  2899  0890  120A  118A  2678  120A  158A  	fcall	_Temperature_Calc
  2900  0895                     l319:
  2901  0895  0008               	return
  2902  0896                     __end_of_Temperature_MainFunction:
  2903                           
  2904                           	psect	text12
  2905  0678                     __ptext12:	
  2906 ;; *************** function _Temperature_Calc *****************
  2907 ;; Defined at:
  2908 ;;		line 45 in file "Temperature/Temperature.c"
  2909 ;; Parameters:    Size  Location     Type
  2910 ;;		None
  2911 ;; Auto vars:     Size  Location     Type
  2912 ;;		None
  2913 ;; Return value:  Size  Location     Type
  2914 ;;                  1    wreg      void 
  2915 ;; Registers used:
  2916 ;;		wreg, fsr0l, fsr0h, status,2, status,0, btemp+1, pclath, cstack
  2917 ;; Tracked objects:
  2918 ;;		On entry : 0/0
  2919 ;;		On exit  : 0/0
  2920 ;;		Unchanged: 0/0
  2921 ;; Data sizes:     COMMON   BANK0   BANK1   BANK3   BANK2
  2922 ;;      Params:         0       0       0       0       0
  2923 ;;      Locals:         0       0       0       0       0
  2924 ;;      Temps:          0       0       4       0       0
  2925 ;;      Totals:         0       0       4       0       0
  2926 ;;Total ram usage:        4 bytes
  2927 ;; Hardware stack levels used:    1
  2928 ;; Hardware stack levels required when called:    6
  2929 ;; This function calls:
  2930 ;;		_Average_Value
  2931 ;;		___flmul
  2932 ;;		___fltol
  2933 ;;		___lwmod
  2934 ;;		___xxtofl
  2935 ;; This function is called by:
  2936 ;;		_Temperature_MainFunction
  2937 ;; This function uses a non-reentrant model
  2938 ;;
  2939                           
  2940                           
  2941                           ;psect for function _Temperature_Calc
  2942  0678                     _Temperature_Calc:
  2943  0678                     l3591:	
  2944                           ;incstack = 0
  2945 ;; hardware stack exceeded
  2946                           ; Regs used in _Temperature_Calc: [wreg-fsr0h+status,2+status,0+btemp+1+pclath+cstack]
  2947                           
  2948                           
  2949                           ;Temperature/Temperature.c: 47:  Temperature.Temp_Value=Temperature.ADC_Value * 0.4882;
  2950  0678  1283               	bcf	3,5	;RP0=0, select bank0
  2951  0679  1303               	bcf	3,6	;RP1=0, select bank0
  2952  067A  0850               	movf	_Temperature+2,w
  2953  067B  1683               	bsf	3,5	;RP0=1, select bank1
  2954  067C  1303               	bcf	3,6	;RP1=0, select bank1
  2955  067D  00C6               	movwf	??_Temperature_Calc^(0+128)
  2956  067E  01C7               	clrf	(??_Temperature_Calc^(0+128)+1)
  2957  067F  01C8               	clrf	(??_Temperature_Calc^(0+128)+2)
  2958  0680  01C9               	clrf	(??_Temperature_Calc^(0+128)+3)
  2959  0681  0849               	movf	(??_Temperature_Calc+3)^(0+128),w
  2960  0682  1283               	bcf	3,5	;RP0=0, select bank0
  2961  0683  1303               	bcf	3,6	;RP1=0, select bank0
  2962  0684  00B9               	movwf	___xxtofl@val+3
  2963  0685  1683               	bsf	3,5	;RP0=1, select bank1
  2964  0686  1303               	bcf	3,6	;RP1=0, select bank1
  2965  0687  0848               	movf	(??_Temperature_Calc+2)^(0+128),w
  2966  0688  1283               	bcf	3,5	;RP0=0, select bank0
  2967  0689  1303               	bcf	3,6	;RP1=0, select bank0
  2968  068A  00B8               	movwf	___xxtofl@val+2
  2969  068B  1683               	bsf	3,5	;RP0=1, select bank1
  2970  068C  1303               	bcf	3,6	;RP1=0, select bank1
  2971  068D  0847               	movf	(??_Temperature_Calc+1)^(0+128),w
  2972  068E  1283               	bcf	3,5	;RP0=0, select bank0
  2973  068F  1303               	bcf	3,6	;RP1=0, select bank0
  2974  0690  00B7               	movwf	___xxtofl@val+1
  2975  0691  1683               	bsf	3,5	;RP0=1, select bank1
  2976  0692  1303               	bcf	3,6	;RP1=0, select bank1
  2977  0693  0846               	movf	??_Temperature_Calc^(0+128),w
  2978  0694  1283               	bcf	3,5	;RP0=0, select bank0
  2979  0695  1303               	bcf	3,6	;RP1=0, select bank0
  2980  0696  00B6               	movwf	___xxtofl@val
  2981  0697  3001               	movlw	1
  2982  0698  120A  118A  2423  120A  118A  	fcall	___xxtofl
  2983  069D  1283               	bcf	3,5	;RP0=0, select bank0
  2984  069E  1303               	bcf	3,6	;RP1=0, select bank0
  2985  069F  0839               	movf	?___xxtofl+3,w
  2986  06A0  1683               	bsf	3,5	;RP0=1, select bank1
  2987  06A1  1303               	bcf	3,6	;RP1=0, select bank1
  2988  06A2  00AD               	movwf	(___flmul@a+3)^(0+128)
  2989  06A3  1283               	bcf	3,5	;RP0=0, select bank0
  2990  06A4  1303               	bcf	3,6	;RP1=0, select bank0
  2991  06A5  0838               	movf	?___xxtofl+2,w
  2992  06A6  1683               	bsf	3,5	;RP0=1, select bank1
  2993  06A7  1303               	bcf	3,6	;RP1=0, select bank1
  2994  06A8  00AC               	movwf	(___flmul@a+2)^(0+128)
  2995  06A9  1283               	bcf	3,5	;RP0=0, select bank0
  2996  06AA  1303               	bcf	3,6	;RP1=0, select bank0
  2997  06AB  0837               	movf	?___xxtofl+1,w
  2998  06AC  1683               	bsf	3,5	;RP0=1, select bank1
  2999  06AD  1303               	bcf	3,6	;RP1=0, select bank1
  3000  06AE  00AB               	movwf	(___flmul@a+1)^(0+128)
  3001  06AF  1283               	bcf	3,5	;RP0=0, select bank0
  3002  06B0  1303               	bcf	3,6	;RP1=0, select bank0
  3003  06B1  0836               	movf	?___xxtofl,w
  3004  06B2  1683               	bsf	3,5	;RP0=1, select bank1
  3005  06B3  1303               	bcf	3,6	;RP1=0, select bank1
  3006  06B4  00AA               	movwf	___flmul@a^(0+128)
  3007  06B5  303E               	movlw	62
  3008  06B6  00A9               	movwf	(___flmul@b+3)^(0+128)
  3009  06B7  30F9               	movlw	249
  3010  06B8  00A8               	movwf	(___flmul@b+2)^(0+128)
  3011  06B9  30F5               	movlw	245
  3012  06BA  00A7               	movwf	(___flmul@b+1)^(0+128)
  3013  06BB  305A               	movlw	90
  3014  06BC  00A6               	movwf	___flmul@b^(0+128)
  3015  06BD  120A  118A  2068  120A  118A  	fcall	___flmul
  3016  06C2  1683               	bsf	3,5	;RP0=1, select bank1
  3017  06C3  1303               	bcf	3,6	;RP1=0, select bank1
  3018  06C4  0829               	movf	(?___flmul+3)^(0+128),w
  3019  06C5  1283               	bcf	3,5	;RP0=0, select bank0
  3020  06C6  1303               	bcf	3,6	;RP1=0, select bank0
  3021  06C7  00C2               	movwf	___fltol@f1+3
  3022  06C8  1683               	bsf	3,5	;RP0=1, select bank1
  3023  06C9  1303               	bcf	3,6	;RP1=0, select bank1
  3024  06CA  0828               	movf	(?___flmul+2)^(0+128),w
  3025  06CB  1283               	bcf	3,5	;RP0=0, select bank0
  3026  06CC  1303               	bcf	3,6	;RP1=0, select bank0
  3027  06CD  00C1               	movwf	___fltol@f1+2
  3028  06CE  1683               	bsf	3,5	;RP0=1, select bank1
  3029  06CF  1303               	bcf	3,6	;RP1=0, select bank1
  3030  06D0  0827               	movf	(?___flmul+1)^(0+128),w
  3031  06D1  1283               	bcf	3,5	;RP0=0, select bank0
  3032  06D2  1303               	bcf	3,6	;RP1=0, select bank0
  3033  06D3  00C0               	movwf	___fltol@f1+1
  3034  06D4  1683               	bsf	3,5	;RP0=1, select bank1
  3035  06D5  1303               	bcf	3,6	;RP1=0, select bank1
  3036  06D6  0826               	movf	?___flmul^(0+128),w
  3037  06D7  1283               	bcf	3,5	;RP0=0, select bank0
  3038  06D8  1303               	bcf	3,6	;RP1=0, select bank0
  3039  06D9  00BF               	movwf	___fltol@f1
  3040  06DA  120A  118A  25DA  120A  118A  	fcall	___fltol
  3041  06DF  1283               	bcf	3,5	;RP0=0, select bank0
  3042  06E0  1303               	bcf	3,6	;RP1=0, select bank0
  3043  06E1  083F               	movf	?___fltol,w
  3044  06E2  00FF               	movwf	btemp+1
  3045  06E3  087F               	movf	btemp+1,w
  3046  06E4  00CE               	movwf	_Temperature
  3047  06E5                     l3593:
  3048                           
  3049                           ;Temperature/Temperature.c: 48:  Average_Value(Temperature.Temp_Value, &Temperature.Aver
      +                          age_Value);
  3050  06E5  304F               	movlw	(low ((_Temperature| 0+1)))& (0+255)
  3051  06E6  00FF               	movwf	btemp+1
  3052  06E7  087F               	movf	btemp+1,w
  3053  06E8  00BF               	movwf	Average_Value@Avrage_Values
  3054  06E9  084E               	movf	_Temperature,w
  3055  06EA  120A  118A  252E  120A  118A  	fcall	_Average_Value
  3056  06EF                     l3595:
  3057                           
  3058                           ;Temperature/Temperature.c: 49:  Temperature.Average_NValues=(Temperature.Average_NValue
      +                          s+1)%10U;
  3059  06EF  300A               	movlw	10
  3060  06F0  1283               	bcf	3,5	;RP0=0, select bank0
  3061  06F1  1303               	bcf	3,6	;RP1=0, select bank0
  3062  06F2  00B6               	movwf	___lwmod@divisor
  3063  06F3  3000               	movlw	0
  3064  06F4  00B7               	movwf	___lwmod@divisor+1
  3065  06F5  0853               	movf	_Temperature+5,w
  3066  06F6  3E01               	addlw	1
  3067  06F7  00B8               	movwf	___lwmod@dividend
  3068  06F8  3000               	movlw	0
  3069  06F9  1803               	skipnc
  3070  06FA  3001               	movlw	1
  3071  06FB  00B9               	movwf	___lwmod@dividend+1
  3072  06FC  120A  158A  23C5  120A  118A  	fcall	___lwmod
  3073  0701  1283               	bcf	3,5	;RP0=0, select bank0
  3074  0702  1303               	bcf	3,6	;RP1=0, select bank0
  3075  0703  0836               	movf	?___lwmod,w
  3076  0704  00FF               	movwf	btemp+1
  3077  0705  087F               	movf	btemp+1,w
  3078  0706  00D3               	movwf	_Temperature+5
  3079  0707                     l3597:
  3080                           
  3081                           ;Temperature/Temperature.c: 51:  if(Temperature.Average_NValues==9)
  3082  0707  3009               	movlw	9
  3083  0708  0653               	xorwf	_Temperature+5,w
  3084  0709  1D03               	btfss	3,2
  3085  070A  2F0C               	goto	u4831
  3086  070B  2F0D               	goto	u4830
  3087  070C                     u4831:
  3088  070C  2F0E               	goto	l323
  3089  070D                     u4830:
  3090  070D                     l3599:
  3091                           
  3092                           ;Temperature/Temperature.c: 52:  {;Temperature/Temperature.c: 53:        Temperature.Ave
      +                          rage_Value_Ready_Flag=1;
  3093  070D  1452               	bsf	_Temperature+4,0
  3094  070E                     l323:
  3095  070E  0008               	return
  3096  070F                     __end_of_Temperature_Calc:
  3097                           
  3098                           	psect	text13
  3099  0423                     __ptext13:	
  3100 ;; *************** function ___xxtofl *****************
  3101 ;; Defined at:
  3102 ;;		line 10 in file "C:\Program Files (x86)\Microchip\xc8\v2.20\pic\sources\c90\common\xxtofl.c"
  3103 ;; Parameters:    Size  Location     Type
  3104 ;;  sign            1    wreg     unsigned char 
  3105 ;;  val             4   22[BANK0 ] long 
  3106 ;; Auto vars:     Size  Location     Type
  3107 ;;  sign            1    0[BANK1 ] unsigned char 
  3108 ;;  arg             4    2[BANK1 ] unsigned long 
  3109 ;;  exp             1    1[BANK1 ] unsigned char 
  3110 ;; Return value:  Size  Location     Type
  3111 ;;                  4   22[BANK0 ] unsigned char 
  3112 ;; Registers used:
  3113 ;;		wreg, status,2, status,0, btemp+1
  3114 ;; Tracked objects:
  3115 ;;		On entry : 0/0
  3116 ;;		On exit  : 0/0
  3117 ;;		Unchanged: 0/0
  3118 ;; Data sizes:     COMMON   BANK0   BANK1   BANK3   BANK2
  3119 ;;      Params:         0       4       0       0       0
  3120 ;;      Locals:         0       0       6       0       0
  3121 ;;      Temps:          0       4       0       0       0
  3122 ;;      Totals:         0       8       6       0       0
  3123 ;;Total ram usage:       14 bytes
  3124 ;; Hardware stack levels used:    1
  3125 ;; Hardware stack levels required when called:    4
  3126 ;; This function calls:
  3127 ;;		Nothing
  3128 ;; This function is called by:
  3129 ;;		_Temperature_Calc
  3130 ;; This function uses a non-reentrant model
  3131 ;;
  3132                           
  3133                           
  3134                           ;psect for function ___xxtofl
  3135  0423                     ___xxtofl:
  3136                           
  3137                           ;incstack = 0
  3138 ;; hardware stack exceeded
  3139                           ; Regs used in ___xxtofl: [wreg+status,2+status,0+btemp+1]
  3140                           ;___xxtofl@sign stored from wreg
  3141  0423  1683               	bsf	3,5	;RP0=1, select bank1
  3142  0424  1303               	bcf	3,6	;RP1=0, select bank1
  3143  0425  00A0               	movwf	___xxtofl@sign^(0+128)
  3144  0426                     l3521:
  3145  0426  0820               	movf	___xxtofl@sign^(0+128),w
  3146  0427  1903               	btfsc	3,2
  3147  0428  2C2A               	goto	u4671
  3148  0429  2C2B               	goto	u4670
  3149  042A                     u4671:
  3150  042A  2C4F               	goto	l3527
  3151  042B                     u4670:
  3152  042B                     l3523:
  3153  042B  1283               	bcf	3,5	;RP0=0, select bank0
  3154  042C  1303               	bcf	3,6	;RP1=0, select bank0
  3155  042D  1FB9               	btfss	___xxtofl@val+3,7
  3156  042E  2C30               	goto	u4681
  3157  042F  2C31               	goto	u4680
  3158  0430                     u4681:
  3159  0430  2C4F               	goto	l3527
  3160  0431                     u4680:
  3161  0431                     l3525:
  3162  0431  0936               	comf	___xxtofl@val,w
  3163  0432  1683               	bsf	3,5	;RP0=1, select bank1
  3164  0433  1303               	bcf	3,6	;RP1=0, select bank1
  3165  0434  00A2               	movwf	___xxtofl@arg^(0+128)
  3166  0435  1283               	bcf	3,5	;RP0=0, select bank0
  3167  0436  1303               	bcf	3,6	;RP1=0, select bank0
  3168  0437  0937               	comf	___xxtofl@val+1,w
  3169  0438  1683               	bsf	3,5	;RP0=1, select bank1
  3170  0439  1303               	bcf	3,6	;RP1=0, select bank1
  3171  043A  00A3               	movwf	(___xxtofl@arg+1)^(0+128)
  3172  043B  1283               	bcf	3,5	;RP0=0, select bank0
  3173  043C  1303               	bcf	3,6	;RP1=0, select bank0
  3174  043D  0938               	comf	___xxtofl@val+2,w
  3175  043E  1683               	bsf	3,5	;RP0=1, select bank1
  3176  043F  1303               	bcf	3,6	;RP1=0, select bank1
  3177  0440  00A4               	movwf	(___xxtofl@arg+2)^(0+128)
  3178  0441  1283               	bcf	3,5	;RP0=0, select bank0
  3179  0442  1303               	bcf	3,6	;RP1=0, select bank0
  3180  0443  0939               	comf	___xxtofl@val+3,w
  3181  0444  1683               	bsf	3,5	;RP0=1, select bank1
  3182  0445  1303               	bcf	3,6	;RP1=0, select bank1
  3183  0446  00A5               	movwf	(___xxtofl@arg+3)^(0+128)
  3184  0447  0AA2               	incf	___xxtofl@arg^(0+128),f
  3185  0448  1903               	skipnz
  3186  0449  0AA3               	incf	(___xxtofl@arg+1)^(0+128),f
  3187  044A  1903               	skipnz
  3188  044B  0AA4               	incf	(___xxtofl@arg+2)^(0+128),f
  3189  044C  1903               	skipnz
  3190  044D  0AA5               	incf	(___xxtofl@arg+3)^(0+128),f
  3191  044E  2C66               	goto	l1066
  3192  044F                     l3527:
  3193  044F  1283               	bcf	3,5	;RP0=0, select bank0
  3194  0450  0839               	movf	___xxtofl@val+3,w
  3195  0451  1683               	bsf	3,5	;RP0=1, select bank1
  3196  0452  1303               	bcf	3,6	;RP1=0, select bank1
  3197  0453  00A5               	movwf	(___xxtofl@arg+3)^(0+128)
  3198  0454  1283               	bcf	3,5	;RP0=0, select bank0
  3199  0455  1303               	bcf	3,6	;RP1=0, select bank0
  3200  0456  0838               	movf	___xxtofl@val+2,w
  3201  0457  1683               	bsf	3,5	;RP0=1, select bank1
  3202  0458  1303               	bcf	3,6	;RP1=0, select bank1
  3203  0459  00A4               	movwf	(___xxtofl@arg+2)^(0+128)
  3204  045A  1283               	bcf	3,5	;RP0=0, select bank0
  3205  045B  1303               	bcf	3,6	;RP1=0, select bank0
  3206  045C  0837               	movf	___xxtofl@val+1,w
  3207  045D  1683               	bsf	3,5	;RP0=1, select bank1
  3208  045E  1303               	bcf	3,6	;RP1=0, select bank1
  3209  045F  00A3               	movwf	(___xxtofl@arg+1)^(0+128)
  3210  0460  1283               	bcf	3,5	;RP0=0, select bank0
  3211  0461  1303               	bcf	3,6	;RP1=0, select bank0
  3212  0462  0836               	movf	___xxtofl@val,w
  3213  0463  1683               	bsf	3,5	;RP0=1, select bank1
  3214  0464  1303               	bcf	3,6	;RP1=0, select bank1
  3215  0465  00A2               	movwf	___xxtofl@arg^(0+128)
  3216  0466                     l1066:
  3217  0466  1283               	bcf	3,5	;RP0=0, select bank0
  3218  0467  1303               	bcf	3,6	;RP1=0, select bank0
  3219  0468  0839               	movf	___xxtofl@val+3,w
  3220  0469  0438               	iorwf	___xxtofl@val+2,w
  3221  046A  0437               	iorwf	___xxtofl@val+1,w
  3222  046B  0436               	iorwf	___xxtofl@val,w
  3223  046C  1D03               	skipz
  3224  046D  2C6F               	goto	u4691
  3225  046E  2C70               	goto	u4690
  3226  046F                     u4691:
  3227  046F  2C79               	goto	l3533
  3228  0470                     u4690:
  3229  0470                     l3529:
  3230  0470  3000               	movlw	0
  3231  0471  00B9               	movwf	?___xxtofl+3
  3232  0472  3000               	movlw	0
  3233  0473  00B8               	movwf	?___xxtofl+2
  3234  0474  3000               	movlw	0
  3235  0475  00B7               	movwf	?___xxtofl+1
  3236  0476  3000               	movlw	0
  3237  0477  00B6               	movwf	?___xxtofl
  3238  0478  2D2D               	goto	l1068
  3239  0479                     l3533:
  3240  0479  3096               	movlw	150
  3241  047A  00FF               	movwf	btemp+1
  3242  047B  087F               	movf	btemp+1,w
  3243  047C  1683               	bsf	3,5	;RP0=1, select bank1
  3244  047D  1303               	bcf	3,6	;RP1=0, select bank1
  3245  047E  00A1               	movwf	___xxtofl@exp^(0+128)
  3246  047F  2C8D               	goto	l3539
  3247  0480                     l3535:
  3248  0480  3001               	movlw	1
  3249  0481  00FF               	movwf	btemp+1
  3250  0482  087F               	movf	btemp+1,w
  3251  0483  07A1               	addwf	___xxtofl@exp^(0+128),f
  3252  0484                     l3537:
  3253  0484  3001               	movlw	1
  3254  0485                     u4705:
  3255  0485  1003               	clrc
  3256  0486  0CA5               	rrf	(___xxtofl@arg+3)^(0+128),f
  3257  0487  0CA4               	rrf	(___xxtofl@arg+2)^(0+128),f
  3258  0488  0CA3               	rrf	(___xxtofl@arg+1)^(0+128),f
  3259  0489  0CA2               	rrf	___xxtofl@arg^(0+128),f
  3260  048A  3EFF               	addlw	-1
  3261  048B  1D03               	skipz
  3262  048C  2C85               	goto	u4705
  3263  048D                     l3539:
  3264  048D  30FE               	movlw	254
  3265  048E  0525               	andwf	(___xxtofl@arg+3)^(0+128),w
  3266  048F  1D03               	btfss	3,2
  3267  0490  2C92               	goto	u4711
  3268  0491  2C93               	goto	u4710
  3269  0492                     u4711:
  3270  0492  2C80               	goto	l3535
  3271  0493                     u4710:
  3272  0493  2CAF               	goto	l3547
  3273  0494                     l3541:
  3274  0494  3001               	movlw	1
  3275  0495  00FF               	movwf	btemp+1
  3276  0496  087F               	movf	btemp+1,w
  3277  0497  07A1               	addwf	___xxtofl@exp^(0+128),f
  3278  0498                     l3543:
  3279  0498  3001               	movlw	1
  3280  0499  07A2               	addwf	___xxtofl@arg^(0+128),f
  3281  049A  3000               	movlw	0
  3282  049B  1803               	skipnc
  3283  049C  3001               	movlw	1
  3284  049D  07A3               	addwf	(___xxtofl@arg+1)^(0+128),f
  3285  049E  3000               	movlw	0
  3286  049F  1803               	skipnc
  3287  04A0  3001               	movlw	1
  3288  04A1  07A4               	addwf	(___xxtofl@arg+2)^(0+128),f
  3289  04A2  3000               	movlw	0
  3290  04A3  1803               	skipnc
  3291  04A4  3001               	movlw	1
  3292  04A5  07A5               	addwf	(___xxtofl@arg+3)^(0+128),f
  3293  04A6                     l3545:
  3294  04A6  3001               	movlw	1
  3295  04A7                     u4725:
  3296  04A7  1003               	clrc
  3297  04A8  0CA5               	rrf	(___xxtofl@arg+3)^(0+128),f
  3298  04A9  0CA4               	rrf	(___xxtofl@arg+2)^(0+128),f
  3299  04AA  0CA3               	rrf	(___xxtofl@arg+1)^(0+128),f
  3300  04AB  0CA2               	rrf	___xxtofl@arg^(0+128),f
  3301  04AC  3EFF               	addlw	-1
  3302  04AD  1D03               	skipz
  3303  04AE  2CA7               	goto	u4725
  3304  04AF                     l3547:
  3305  04AF  30FF               	movlw	255
  3306  04B0  0525               	andwf	(___xxtofl@arg+3)^(0+128),w
  3307  04B1  1D03               	btfss	3,2
  3308  04B2  2CB4               	goto	u4731
  3309  04B3  2CB5               	goto	u4730
  3310  04B4                     u4731:
  3311  04B4  2C94               	goto	l3541
  3312  04B5                     u4730:
  3313  04B5  2CC7               	goto	l3551
  3314  04B6                     l3549:
  3315  04B6  3001               	movlw	1
  3316  04B7  02A1               	subwf	___xxtofl@exp^(0+128),f
  3317  04B8  3001               	movlw	1
  3318  04B9  1283               	bcf	3,5	;RP0=0, select bank0
  3319  04BA  1303               	bcf	3,6	;RP1=0, select bank0
  3320  04BB  00BA               	movwf	??___xxtofl
  3321  04BC                     u4745:
  3322  04BC  1003               	clrc
  3323  04BD  1683               	bsf	3,5	;RP0=1, select bank1
  3324  04BE  1303               	bcf	3,6	;RP1=0, select bank1
  3325  04BF  0DA2               	rlf	___xxtofl@arg^(0+128),f
  3326  04C0  0DA3               	rlf	(___xxtofl@arg+1)^(0+128),f
  3327  04C1  0DA4               	rlf	(___xxtofl@arg+2)^(0+128),f
  3328  04C2  0DA5               	rlf	(___xxtofl@arg+3)^(0+128),f
  3329  04C3  1283               	bcf	3,5	;RP0=0, select bank0
  3330  04C4  1303               	bcf	3,6	;RP1=0, select bank0
  3331  04C5  0BBA               	decfsz	??___xxtofl,f
  3332  04C6  2CBC               	goto	u4745
  3333  04C7                     l3551:
  3334  04C7  1683               	bsf	3,5	;RP0=1, select bank1
  3335  04C8  1303               	bcf	3,6	;RP1=0, select bank1
  3336  04C9  1BA4               	btfsc	(___xxtofl@arg+2)^(0+128),7
  3337  04CA  2CCC               	goto	u4751
  3338  04CB  2CCD               	goto	u4750
  3339  04CC                     u4751:
  3340  04CC  2CD3               	goto	l1079
  3341  04CD                     u4750:
  3342  04CD                     l3553:
  3343  04CD  3002               	movlw	2
  3344  04CE  0221               	subwf	___xxtofl@exp^(0+128),w
  3345  04CF  1803               	skipnc
  3346  04D0  2CD2               	goto	u4761
  3347  04D1  2CD3               	goto	u4760
  3348  04D2                     u4761:
  3349  04D2  2CB6               	goto	l3549
  3350  04D3                     u4760:
  3351  04D3                     l1079:
  3352  04D3  1821               	btfsc	___xxtofl@exp^(0+128),0
  3353  04D4  2CD6               	goto	u4771
  3354  04D5  2CD7               	goto	u4770
  3355  04D6                     u4771:
  3356  04D6  2CDF               	goto	l1080
  3357  04D7                     u4770:
  3358  04D7                     l3555:
  3359  04D7  30FF               	movlw	255
  3360  04D8  05A2               	andwf	___xxtofl@arg^(0+128),f
  3361  04D9  30FF               	movlw	255
  3362  04DA  05A3               	andwf	(___xxtofl@arg+1)^(0+128),f
  3363  04DB  307F               	movlw	127
  3364  04DC  05A4               	andwf	(___xxtofl@arg+2)^(0+128),f
  3365  04DD  30FF               	movlw	255
  3366  04DE  05A5               	andwf	(___xxtofl@arg+3)^(0+128),f
  3367  04DF                     l1080:
  3368  04DF  1003               	clrc
  3369  04E0  0CA1               	rrf	___xxtofl@exp^(0+128),f
  3370  04E1                     l3557:
  3371  04E1  0821               	movf	___xxtofl@exp^(0+128),w
  3372  04E2  1283               	bcf	3,5	;RP0=0, select bank0
  3373  04E3  1303               	bcf	3,6	;RP1=0, select bank0
  3374  04E4  00BA               	movwf	??___xxtofl
  3375  04E5  01BB               	clrf	??___xxtofl+1
  3376  04E6  01BC               	clrf	??___xxtofl+2
  3377  04E7  01BD               	clrf	??___xxtofl+3
  3378  04E8  3018               	movlw	24
  3379  04E9                     u4785:
  3380  04E9  1003               	clrc
  3381  04EA  0DBA               	rlf	??___xxtofl,f
  3382  04EB  0DBB               	rlf	??___xxtofl+1,f
  3383  04EC  0DBC               	rlf	??___xxtofl+2,f
  3384  04ED  0DBD               	rlf	??___xxtofl+3,f
  3385  04EE                     u4780:
  3386  04EE  3EFF               	addlw	-1
  3387  04EF  1D03               	skipz
  3388  04F0  2CE9               	goto	u4785
  3389  04F1  083A               	movf	??___xxtofl,w
  3390  04F2  1683               	bsf	3,5	;RP0=1, select bank1
  3391  04F3  1303               	bcf	3,6	;RP1=0, select bank1
  3392  04F4  04A2               	iorwf	___xxtofl@arg^(0+128),f
  3393  04F5  1283               	bcf	3,5	;RP0=0, select bank0
  3394  04F6  1303               	bcf	3,6	;RP1=0, select bank0
  3395  04F7  083B               	movf	??___xxtofl+1,w
  3396  04F8  1683               	bsf	3,5	;RP0=1, select bank1
  3397  04F9  1303               	bcf	3,6	;RP1=0, select bank1
  3398  04FA  04A3               	iorwf	(___xxtofl@arg+1)^(0+128),f
  3399  04FB  1283               	bcf	3,5	;RP0=0, select bank0
  3400  04FC  1303               	bcf	3,6	;RP1=0, select bank0
  3401  04FD  083C               	movf	??___xxtofl+2,w
  3402  04FE  1683               	bsf	3,5	;RP0=1, select bank1
  3403  04FF  1303               	bcf	3,6	;RP1=0, select bank1
  3404  0500  04A4               	iorwf	(___xxtofl@arg+2)^(0+128),f
  3405  0501  1283               	bcf	3,5	;RP0=0, select bank0
  3406  0502  1303               	bcf	3,6	;RP1=0, select bank0
  3407  0503  083D               	movf	??___xxtofl+3,w
  3408  0504  1683               	bsf	3,5	;RP0=1, select bank1
  3409  0505  1303               	bcf	3,6	;RP1=0, select bank1
  3410  0506  04A5               	iorwf	(___xxtofl@arg+3)^(0+128),f
  3411  0507                     l3559:
  3412  0507  0820               	movf	___xxtofl@sign^(0+128),w
  3413  0508  1903               	btfsc	3,2
  3414  0509  2D0B               	goto	u4791
  3415  050A  2D0C               	goto	u4790
  3416  050B                     u4791:
  3417  050B  2D15               	goto	l3565
  3418  050C                     u4790:
  3419  050C                     l3561:
  3420  050C  1283               	bcf	3,5	;RP0=0, select bank0
  3421  050D  1303               	bcf	3,6	;RP1=0, select bank0
  3422  050E  1FB9               	btfss	___xxtofl@val+3,7
  3423  050F  2D11               	goto	u4801
  3424  0510  2D12               	goto	u4800
  3425  0511                     u4801:
  3426  0511  2D15               	goto	l3565
  3427  0512                     u4800:
  3428  0512                     l3563:
  3429  0512  1683               	bsf	3,5	;RP0=1, select bank1
  3430  0513  1303               	bcf	3,6	;RP1=0, select bank1
  3431  0514  17A5               	bsf	(___xxtofl@arg^(0+128)+3),7
  3432  0515                     l3565:
  3433  0515  1683               	bsf	3,5	;RP0=1, select bank1
  3434  0516  1303               	bcf	3,6	;RP1=0, select bank1
  3435  0517  0825               	movf	(___xxtofl@arg+3)^(0+128),w
  3436  0518  1283               	bcf	3,5	;RP0=0, select bank0
  3437  0519  1303               	bcf	3,6	;RP1=0, select bank0
  3438  051A  00B9               	movwf	?___xxtofl+3
  3439  051B  1683               	bsf	3,5	;RP0=1, select bank1
  3440  051C  1303               	bcf	3,6	;RP1=0, select bank1
  3441  051D  0824               	movf	(___xxtofl@arg+2)^(0+128),w
  3442  051E  1283               	bcf	3,5	;RP0=0, select bank0
  3443  051F  1303               	bcf	3,6	;RP1=0, select bank0
  3444  0520  00B8               	movwf	?___xxtofl+2
  3445  0521  1683               	bsf	3,5	;RP0=1, select bank1
  3446  0522  1303               	bcf	3,6	;RP1=0, select bank1
  3447  0523  0823               	movf	(___xxtofl@arg+1)^(0+128),w
  3448  0524  1283               	bcf	3,5	;RP0=0, select bank0
  3449  0525  1303               	bcf	3,6	;RP1=0, select bank0
  3450  0526  00B7               	movwf	?___xxtofl+1
  3451  0527  1683               	bsf	3,5	;RP0=1, select bank1
  3452  0528  1303               	bcf	3,6	;RP1=0, select bank1
  3453  0529  0822               	movf	___xxtofl@arg^(0+128),w
  3454  052A  1283               	bcf	3,5	;RP0=0, select bank0
  3455  052B  1303               	bcf	3,6	;RP1=0, select bank0
  3456  052C  00B6               	movwf	?___xxtofl
  3457  052D                     l1068:
  3458  052D  0008               	return
  3459  052E                     __end_of___xxtofl:
  3460                           
  3461                           	psect	text14
  3462  05DA                     __ptext14:	
  3463 ;; *************** function ___fltol *****************
  3464 ;; Defined at:
  3465 ;;		line 43 in file "C:\Program Files (x86)\Microchip\xc8\v2.20\pic\sources\c90\common\fltol.c"
  3466 ;; Parameters:    Size  Location     Type
  3467 ;;  f1              4   31[BANK0 ] unsigned char 
  3468 ;; Auto vars:     Size  Location     Type
  3469 ;;  exp1            1   37[BANK1 ] unsigned char 
  3470 ;;  sign1           1   36[BANK1 ] unsigned char 
  3471 ;; Return value:  Size  Location     Type
  3472 ;;                  4   31[BANK0 ] long 
  3473 ;; Registers used:
  3474 ;;		wreg, status,2, status,0, btemp+1
  3475 ;; Tracked objects:
  3476 ;;		On entry : 0/0
  3477 ;;		On exit  : 0/0
  3478 ;;		Unchanged: 0/0
  3479 ;; Data sizes:     COMMON   BANK0   BANK1   BANK3   BANK2
  3480 ;;      Params:         0       4       0       0       0
  3481 ;;      Locals:         0       0       2       0       0
  3482 ;;      Temps:          0       0       4       0       0
  3483 ;;      Totals:         0       4       6       0       0
  3484 ;;Total ram usage:       10 bytes
  3485 ;; Hardware stack levels used:    1
  3486 ;; Hardware stack levels required when called:    4
  3487 ;; This function calls:
  3488 ;;		Nothing
  3489 ;; This function is called by:
  3490 ;;		_Temperature_Calc
  3491 ;; This function uses a non-reentrant model
  3492 ;;
  3493                           
  3494                           
  3495                           ;psect for function ___fltol
  3496  05DA                     ___fltol:
  3497  05DA                     l3341:	
  3498                           ;incstack = 0
  3499 ;; hardware stack exceeded
  3500                           ; Regs used in ___fltol: [wreg+status,2+status,0+btemp+1]
  3501                           
  3502  05DA  1003               	clrc
  3503  05DB  1283               	bcf	3,5	;RP0=0, select bank0
  3504  05DC  1303               	bcf	3,6	;RP1=0, select bank0
  3505  05DD  0D41               	rlf	___fltol@f1+2,w
  3506  05DE  0D42               	rlf	___fltol@f1+3,w
  3507  05DF  00FF               	movwf	btemp+1
  3508  05E0  087F               	movf	btemp+1,w
  3509  05E1  1683               	bsf	3,5	;RP0=1, select bank1
  3510  05E2  1303               	bcf	3,6	;RP1=0, select bank1
  3511  05E3  00C5               	movwf	___fltol@exp1^(0+128)
  3512  05E4  0845               	movf	___fltol@exp1^(0+128),w
  3513  05E5  1D03               	btfss	3,2
  3514  05E6  2DE8               	goto	u4201
  3515  05E7  2DE9               	goto	u4200
  3516  05E8                     u4201:
  3517  05E8  2DF4               	goto	l3347
  3518  05E9                     u4200:
  3519  05E9                     l3343:
  3520  05E9  3000               	movlw	0
  3521  05EA  1283               	bcf	3,5	;RP0=0, select bank0
  3522  05EB  1303               	bcf	3,6	;RP1=0, select bank0
  3523  05EC  00C2               	movwf	?___fltol+3
  3524  05ED  3000               	movlw	0
  3525  05EE  00C1               	movwf	?___fltol+2
  3526  05EF  3000               	movlw	0
  3527  05F0  00C0               	movwf	?___fltol+1
  3528  05F1  3000               	movlw	0
  3529  05F2  00BF               	movwf	?___fltol
  3530  05F3  2E77               	goto	l819
  3531  05F4                     l3347:
  3532  05F4  1283               	bcf	3,5	;RP0=0, select bank0
  3533  05F5  1303               	bcf	3,6	;RP1=0, select bank0
  3534  05F6  083F               	movf	___fltol@f1,w
  3535  05F7  1683               	bsf	3,5	;RP0=1, select bank1
  3536  05F8  1303               	bcf	3,6	;RP1=0, select bank1
  3537  05F9  00C0               	movwf	??___fltol^(0+128)
  3538  05FA  1283               	bcf	3,5	;RP0=0, select bank0
  3539  05FB  1303               	bcf	3,6	;RP1=0, select bank0
  3540  05FC  0840               	movf	___fltol@f1+1,w
  3541  05FD  1683               	bsf	3,5	;RP0=1, select bank1
  3542  05FE  1303               	bcf	3,6	;RP1=0, select bank1
  3543  05FF  00C1               	movwf	(??___fltol^(0+128)+1)
  3544  0600  1283               	bcf	3,5	;RP0=0, select bank0
  3545  0601  1303               	bcf	3,6	;RP1=0, select bank0
  3546  0602  0841               	movf	___fltol@f1+2,w
  3547  0603  1683               	bsf	3,5	;RP0=1, select bank1
  3548  0604  1303               	bcf	3,6	;RP1=0, select bank1
  3549  0605  00C2               	movwf	(??___fltol^(0+128)+2)
  3550  0606  1283               	bcf	3,5	;RP0=0, select bank0
  3551  0607  1303               	bcf	3,6	;RP1=0, select bank0
  3552  0608  0842               	movf	___fltol@f1+3,w
  3553  0609  1683               	bsf	3,5	;RP0=1, select bank1
  3554  060A  1303               	bcf	3,6	;RP1=0, select bank1
  3555  060B  00C3               	movwf	(??___fltol^(0+128)+3)
  3556  060C  301F               	movlw	31
  3557  060D                     u4215:
  3558  060D  1003               	clrc
  3559  060E  0CC3               	rrf	(??___fltol^(0+128)+3),f
  3560  060F  0CC2               	rrf	(??___fltol^(0+128)+2),f
  3561  0610  0CC1               	rrf	(??___fltol^(0+128)+1),f
  3562  0611  0CC0               	rrf	??___fltol^(0+128),f
  3563  0612                     u4210:
  3564  0612  3EFF               	addlw	-1
  3565  0613  1D03               	skipz
  3566  0614  2E0D               	goto	u4215
  3567  0615  0840               	movf	??___fltol^(0+128),w
  3568  0616  00FF               	movwf	btemp+1
  3569  0617  087F               	movf	btemp+1,w
  3570  0618  00C4               	movwf	___fltol@sign1^(0+128)
  3571  0619                     l3349:
  3572  0619  1283               	bcf	3,5	;RP0=0, select bank0
  3573  061A  1303               	bcf	3,6	;RP1=0, select bank0
  3574  061B  17C1               	bsf	___fltol@f1+2,7
  3575  061C                     l3351:
  3576  061C  30FF               	movlw	255
  3577  061D  05BF               	andwf	___fltol@f1,f
  3578  061E  30FF               	movlw	255
  3579  061F  05C0               	andwf	___fltol@f1+1,f
  3580  0620  30FF               	movlw	255
  3581  0621  05C1               	andwf	___fltol@f1+2,f
  3582  0622  3000               	movlw	0
  3583  0623  05C2               	andwf	___fltol@f1+3,f
  3584  0624                     l3353:
  3585  0624  3096               	movlw	150
  3586  0625  1683               	bsf	3,5	;RP0=1, select bank1
  3587  0626  1303               	bcf	3,6	;RP1=0, select bank1
  3588  0627  02C5               	subwf	___fltol@exp1^(0+128),f
  3589  0628                     l3355:
  3590  0628  1FC5               	btfss	___fltol@exp1^(0+128),7
  3591  0629  2E2B               	goto	u4221
  3592  062A  2E2C               	goto	u4220
  3593  062B                     u4221:
  3594  062B  2E4A               	goto	l3367
  3595  062C                     u4220:
  3596  062C                     l3357:
  3597  062C  0845               	movf	___fltol@exp1^(0+128),w
  3598  062D  3A80               	xorlw	128
  3599  062E  3E97               	addlw	151
  3600  062F  1803               	skipnc
  3601  0630  2E32               	goto	u4231
  3602  0631  2E33               	goto	u4230
  3603  0632                     u4231:
  3604  0632  2E34               	goto	l3363
  3605  0633                     u4230:
  3606  0633  2DE9               	goto	l3343
  3607  0634                     l3363:
  3608  0634  3001               	movlw	1
  3609  0635                     u4245:
  3610  0635  1003               	clrc
  3611  0636  1283               	bcf	3,5	;RP0=0, select bank0
  3612  0637  1303               	bcf	3,6	;RP1=0, select bank0
  3613  0638  0CC2               	rrf	___fltol@f1+3,f
  3614  0639  0CC1               	rrf	___fltol@f1+2,f
  3615  063A  0CC0               	rrf	___fltol@f1+1,f
  3616  063B  0CBF               	rrf	___fltol@f1,f
  3617  063C  3EFF               	addlw	-1
  3618  063D  1D03               	skipz
  3619  063E  2E35               	goto	u4245
  3620  063F                     l3365:
  3621  063F  3001               	movlw	1
  3622  0640  00FF               	movwf	btemp+1
  3623  0641  087F               	movf	btemp+1,w
  3624  0642  1683               	bsf	3,5	;RP0=1, select bank1
  3625  0643  1303               	bcf	3,6	;RP1=0, select bank1
  3626  0644  07C5               	addwf	___fltol@exp1^(0+128),f
  3627  0645  1D03               	btfss	3,2
  3628  0646  2E48               	goto	u4251
  3629  0647  2E49               	goto	u4250
  3630  0648                     u4251:
  3631  0648  2E34               	goto	l3363
  3632  0649                     u4250:
  3633  0649  2E65               	goto	l3375
  3634  064A                     l3367:
  3635  064A  3020               	movlw	32
  3636  064B  0245               	subwf	___fltol@exp1^(0+128),w
  3637  064C  1C03               	skipc
  3638  064D  2E4F               	goto	u4261
  3639  064E  2E50               	goto	u4260
  3640  064F                     u4261:
  3641  064F  2E60               	goto	l826
  3642  0650                     u4260:
  3643  0650  2DE9               	goto	l3343
  3644  0651                     l3373:
  3645  0651  3001               	movlw	1
  3646  0652  00C0               	movwf	??___fltol^(0+128)
  3647  0653                     u4275:
  3648  0653  1003               	clrc
  3649  0654  1283               	bcf	3,5	;RP0=0, select bank0
  3650  0655  1303               	bcf	3,6	;RP1=0, select bank0
  3651  0656  0DBF               	rlf	___fltol@f1,f
  3652  0657  0DC0               	rlf	___fltol@f1+1,f
  3653  0658  0DC1               	rlf	___fltol@f1+2,f
  3654  0659  0DC2               	rlf	___fltol@f1+3,f
  3655  065A  1683               	bsf	3,5	;RP0=1, select bank1
  3656  065B  1303               	bcf	3,6	;RP1=0, select bank1
  3657  065C  0BC0               	decfsz	??___fltol^(0+128),f
  3658  065D  2E53               	goto	u4275
  3659  065E  3001               	movlw	1
  3660  065F  02C5               	subwf	___fltol@exp1^(0+128),f
  3661  0660                     l826:
  3662  0660  0845               	movf	___fltol@exp1^(0+128),w
  3663  0661  1D03               	btfss	3,2
  3664  0662  2E64               	goto	u4281
  3665  0663  2E65               	goto	u4280
  3666  0664                     u4281:
  3667  0664  2E51               	goto	l3373
  3668  0665                     u4280:
  3669  0665                     l3375:
  3670  0665  0844               	movf	___fltol@sign1^(0+128),w
  3671  0666  1903               	btfsc	3,2
  3672  0667  2E69               	goto	u4291
  3673  0668  2E6A               	goto	u4290
  3674  0669                     u4291:
  3675  0669  2E77               	goto	l829
  3676  066A                     u4290:
  3677  066A                     l3377:
  3678  066A  1283               	bcf	3,5	;RP0=0, select bank0
  3679  066B  1303               	bcf	3,6	;RP1=0, select bank0
  3680  066C  09BF               	comf	___fltol@f1,f
  3681  066D  09C0               	comf	___fltol@f1+1,f
  3682  066E  09C1               	comf	___fltol@f1+2,f
  3683  066F  09C2               	comf	___fltol@f1+3,f
  3684  0670  0ABF               	incf	___fltol@f1,f
  3685  0671  1903               	skipnz
  3686  0672  0AC0               	incf	___fltol@f1+1,f
  3687  0673  1903               	skipnz
  3688  0674  0AC1               	incf	___fltol@f1+2,f
  3689  0675  1903               	skipnz
  3690  0676  0AC2               	incf	___fltol@f1+3,f
  3691  0677                     l829:
  3692  0677                     l819:
  3693  0677  0008               	return
  3694  0678                     __end_of___fltol:
  3695                           
  3696                           	psect	text15
  3697  0068                     __ptext15:	
  3698 ;; *************** function ___flmul *****************
  3699 ;; Defined at:
  3700 ;;		line 8 in file "C:\Program Files (x86)\Microchip\xc8\v2.20\pic\sources\c90\common\sprcmul.c"
  3701 ;; Parameters:    Size  Location     Type
  3702 ;;  b               4    6[BANK1 ] long 
  3703 ;;  a               4   10[BANK1 ] long 
  3704 ;; Auto vars:     Size  Location     Type
  3705 ;;  prod            4   26[BANK1 ] struct .
  3706 ;;  grs             4   21[BANK1 ] unsigned long 
  3707 ;;  temp            2   30[BANK1 ] struct .
  3708 ;;  bexp            1   25[BANK1 ] unsigned char 
  3709 ;;  aexp            1   20[BANK1 ] unsigned char 
  3710 ;;  sign            1   19[BANK1 ] unsigned char 
  3711 ;; Return value:  Size  Location     Type
  3712 ;;                  4    6[BANK1 ] unsigned char 
  3713 ;; Registers used:
  3714 ;;		wreg, status,2, status,0, btemp+1, pclath, cstack
  3715 ;; Tracked objects:
  3716 ;;		On entry : 0/0
  3717 ;;		On exit  : 0/0
  3718 ;;		Unchanged: 0/0
  3719 ;; Data sizes:     COMMON   BANK0   BANK1   BANK3   BANK2
  3720 ;;      Params:         0       0       8       0       0
  3721 ;;      Locals:         0       0      13       0       0
  3722 ;;      Temps:          0       0       5       0       0
  3723 ;;      Totals:         0       0      26       0       0
  3724 ;;Total ram usage:       26 bytes
  3725 ;; Hardware stack levels used:    1
  3726 ;; Hardware stack levels required when called:    5
  3727 ;; This function calls:
  3728 ;;		__Umul8_16
  3729 ;; This function is called by:
  3730 ;;		_Temperature_Calc
  3731 ;; This function uses a non-reentrant model
  3732 ;;
  3733                           
  3734                           
  3735                           ;psect for function ___flmul
  3736  0068                     ___flmul:
  3737  0068                     l3379:	
  3738                           ;incstack = 0
  3739 ;; hardware stack exceeded
  3740                           ; Regs used in ___flmul: [wreg+status,2+status,0+btemp+1+pclath+cstack]
  3741                           
  3742  0068  1683               	bsf	3,5	;RP0=1, select bank1
  3743  0069  1303               	bcf	3,6	;RP1=0, select bank1
  3744  006A  0829               	movf	(___flmul@b^(0+128)+3),w
  3745  006B  3980               	andlw	128
  3746  006C  00FF               	movwf	btemp+1
  3747  006D  087F               	movf	btemp+1,w
  3748  006E  00B3               	movwf	___flmul@sign^(0+128)
  3749  006F                     l3381:
  3750  006F  0829               	movf	(___flmul@b^(0+128)+3),w
  3751  0070  00AE               	movwf	??___flmul^(0+128)
  3752  0071  072E               	addwf	??___flmul^(0+128),w
  3753  0072  00FF               	movwf	btemp+1
  3754  0073  087F               	movf	btemp+1,w
  3755  0074  00B9               	movwf	___flmul@bexp^(0+128)
  3756  0075                     l3383:
  3757  0075  1FA8               	btfss	(___flmul@b^(0+128)+2),7
  3758  0076  2878               	goto	u4301
  3759  0077  2879               	goto	u4300
  3760  0078                     u4301:
  3761  0078  287A               	goto	l3387
  3762  0079                     u4300:
  3763  0079                     l3385:
  3764  0079  1439               	bsf	___flmul@bexp^(0+128),0
  3765  007A                     l3387:
  3766  007A  0839               	movf	___flmul@bexp^(0+128),w
  3767  007B  1903               	btfsc	3,2
  3768  007C  287E               	goto	u4311
  3769  007D  287F               	goto	u4310
  3770  007E                     u4311:
  3771  007E  288E               	goto	l3395
  3772  007F                     u4310:
  3773  007F                     l3389:
  3774  007F  0A39               	incf	___flmul@bexp^(0+128),w
  3775  0080  1D03               	btfss	3,2
  3776  0081  2883               	goto	u4321
  3777  0082  2884               	goto	u4320
  3778  0083                     u4321:
  3779  0083  288C               	goto	l3393
  3780  0084                     u4320:
  3781  0084                     l3391:
  3782  0084  3000               	movlw	0
  3783  0085  00A9               	movwf	(___flmul@b+3)^(0+128)
  3784  0086  3000               	movlw	0
  3785  0087  00A8               	movwf	(___flmul@b+2)^(0+128)
  3786  0088  3000               	movlw	0
  3787  0089  00A7               	movwf	(___flmul@b+1)^(0+128)
  3788  008A  3000               	movlw	0
  3789  008B  00A6               	movwf	___flmul@b^(0+128)
  3790  008C                     l3393:
  3791  008C  17A8               	bsf	(___flmul@b^(0+128)+2),7
  3792  008D  2896               	goto	l3397
  3793  008E                     l3395:
  3794  008E  3000               	movlw	0
  3795  008F  00A9               	movwf	(___flmul@b+3)^(0+128)
  3796  0090  3000               	movlw	0
  3797  0091  00A8               	movwf	(___flmul@b+2)^(0+128)
  3798  0092  3000               	movlw	0
  3799  0093  00A7               	movwf	(___flmul@b+1)^(0+128)
  3800  0094  3000               	movlw	0
  3801  0095  00A6               	movwf	___flmul@b^(0+128)
  3802  0096                     l3397:
  3803  0096  082D               	movf	(___flmul@a^(0+128)+3),w
  3804  0097  3980               	andlw	128
  3805  0098  00FF               	movwf	btemp+1
  3806  0099  087F               	movf	btemp+1,w
  3807  009A  06B3               	xorwf	___flmul@sign^(0+128),f
  3808  009B                     l3399:
  3809  009B  082D               	movf	(___flmul@a^(0+128)+3),w
  3810  009C  00AE               	movwf	??___flmul^(0+128)
  3811  009D  072E               	addwf	??___flmul^(0+128),w
  3812  009E  00FF               	movwf	btemp+1
  3813  009F  087F               	movf	btemp+1,w
  3814  00A0  00B4               	movwf	___flmul@aexp^(0+128)
  3815  00A1                     l3401:
  3816  00A1  1FAC               	btfss	(___flmul@a^(0+128)+2),7
  3817  00A2  28A4               	goto	u4331
  3818  00A3  28A5               	goto	u4330
  3819  00A4                     u4331:
  3820  00A4  28A6               	goto	l3405
  3821  00A5                     u4330:
  3822  00A5                     l3403:
  3823  00A5  1434               	bsf	___flmul@aexp^(0+128),0
  3824  00A6                     l3405:
  3825  00A6  0834               	movf	___flmul@aexp^(0+128),w
  3826  00A7  1903               	btfsc	3,2
  3827  00A8  28AA               	goto	u4341
  3828  00A9  28AB               	goto	u4340
  3829  00AA                     u4341:
  3830  00AA  28BA               	goto	l3413
  3831  00AB                     u4340:
  3832  00AB                     l3407:
  3833  00AB  0A34               	incf	___flmul@aexp^(0+128),w
  3834  00AC  1D03               	btfss	3,2
  3835  00AD  28AF               	goto	u4351
  3836  00AE  28B0               	goto	u4350
  3837  00AF                     u4351:
  3838  00AF  28B8               	goto	l3411
  3839  00B0                     u4350:
  3840  00B0                     l3409:
  3841  00B0  3000               	movlw	0
  3842  00B1  00AD               	movwf	(___flmul@a+3)^(0+128)
  3843  00B2  3000               	movlw	0
  3844  00B3  00AC               	movwf	(___flmul@a+2)^(0+128)
  3845  00B4  3000               	movlw	0
  3846  00B5  00AB               	movwf	(___flmul@a+1)^(0+128)
  3847  00B6  3000               	movlw	0
  3848  00B7  00AA               	movwf	___flmul@a^(0+128)
  3849  00B8                     l3411:
  3850  00B8  17AC               	bsf	(___flmul@a^(0+128)+2),7
  3851  00B9  28C2               	goto	l3415
  3852  00BA                     l3413:
  3853  00BA  3000               	movlw	0
  3854  00BB  00AD               	movwf	(___flmul@a+3)^(0+128)
  3855  00BC  3000               	movlw	0
  3856  00BD  00AC               	movwf	(___flmul@a+2)^(0+128)
  3857  00BE  3000               	movlw	0
  3858  00BF  00AB               	movwf	(___flmul@a+1)^(0+128)
  3859  00C0  3000               	movlw	0
  3860  00C1  00AA               	movwf	___flmul@a^(0+128)
  3861  00C2                     l3415:
  3862  00C2  0834               	movf	___flmul@aexp^(0+128),w
  3863  00C3  1903               	btfsc	3,2
  3864  00C4  28C6               	goto	u4361
  3865  00C5  28C7               	goto	u4360
  3866  00C6                     u4361:
  3867  00C6  28CC               	goto	l3419
  3868  00C7                     u4360:
  3869  00C7                     l3417:
  3870  00C7  0839               	movf	___flmul@bexp^(0+128),w
  3871  00C8  1D03               	btfss	3,2
  3872  00C9  28CB               	goto	u4371
  3873  00CA  28CC               	goto	u4370
  3874  00CB                     u4371:
  3875  00CB  28D5               	goto	l3423
  3876  00CC                     u4370:
  3877  00CC                     l3419:
  3878  00CC  3000               	movlw	0
  3879  00CD  00A9               	movwf	(?___flmul+3)^(0+128)
  3880  00CE  3000               	movlw	0
  3881  00CF  00A8               	movwf	(?___flmul+2)^(0+128)
  3882  00D0  3000               	movlw	0
  3883  00D1  00A7               	movwf	(?___flmul+1)^(0+128)
  3884  00D2  3000               	movlw	0
  3885  00D3  00A6               	movwf	?___flmul^(0+128)
  3886  00D4  2C22               	goto	l1022
  3887  00D5                     l3423:
  3888  00D5  0826               	movf	___flmul@b^(0+128),w
  3889  00D6  00FF               	movwf	btemp+1
  3890  00D7  087F               	movf	btemp+1,w
  3891  00D8  1283               	bcf	3,5	;RP0=0, select bank0
  3892  00D9  1303               	bcf	3,6	;RP1=0, select bank0
  3893  00DA  00B6               	movwf	__Umul8_16@multiplicand
  3894  00DB  1683               	bsf	3,5	;RP0=1, select bank1
  3895  00DC  1303               	bcf	3,6	;RP1=0, select bank1
  3896  00DD  082C               	movf	(___flmul@a^(0+128)+2),w
  3897  00DE  120A  158A  21D9  120A  118A  	fcall	__Umul8_16
  3898  00E3  1283               	bcf	3,5	;RP0=0, select bank0
  3899  00E4  1303               	bcf	3,6	;RP1=0, select bank0
  3900  00E5  0837               	movf	?__Umul8_16+1,w
  3901  00E6  1683               	bsf	3,5	;RP0=1, select bank1
  3902  00E7  1303               	bcf	3,6	;RP1=0, select bank1
  3903  00E8  00BF               	movwf	(___flmul@temp+1)^(0+128)
  3904  00E9  1283               	bcf	3,5	;RP0=0, select bank0
  3905  00EA  1303               	bcf	3,6	;RP1=0, select bank0
  3906  00EB  0836               	movf	?__Umul8_16,w
  3907  00EC  1683               	bsf	3,5	;RP0=1, select bank1
  3908  00ED  1303               	bcf	3,6	;RP1=0, select bank1
  3909  00EE  00BE               	movwf	___flmul@temp^(0+128)
  3910  00EF                     l3425:
  3911  00EF  083E               	movf	___flmul@temp^(0+128),w
  3912  00F0  00AE               	movwf	??___flmul^(0+128)
  3913  00F1  01AF               	clrf	(??___flmul^(0+128)+1)
  3914  00F2  01B0               	clrf	(??___flmul^(0+128)+2)
  3915  00F3  01B1               	clrf	(??___flmul^(0+128)+3)
  3916  00F4  0831               	movf	(??___flmul+3)^(0+128),w
  3917  00F5  00B8               	movwf	(___flmul@grs+3)^(0+128)
  3918  00F6  0830               	movf	(??___flmul+2)^(0+128),w
  3919  00F7  00B7               	movwf	(___flmul@grs+2)^(0+128)
  3920  00F8  082F               	movf	(??___flmul+1)^(0+128),w
  3921  00F9  00B6               	movwf	(___flmul@grs+1)^(0+128)
  3922  00FA  082E               	movf	??___flmul^(0+128),w
  3923  00FB  00B5               	movwf	___flmul@grs^(0+128)
  3924  00FC                     l3427:
  3925  00FC  083F               	movf	(___flmul@temp^(0+128)+1),w
  3926  00FD  00AE               	movwf	??___flmul^(0+128)
  3927  00FE  01AF               	clrf	(??___flmul^(0+128)+1)
  3928  00FF  01B0               	clrf	(??___flmul^(0+128)+2)
  3929  0100  01B1               	clrf	(??___flmul^(0+128)+3)
  3930  0101  0831               	movf	(??___flmul+3)^(0+128),w
  3931  0102  00BD               	movwf	(___flmul@prod+3)^(0+128)
  3932  0103  0830               	movf	(??___flmul+2)^(0+128),w
  3933  0104  00BC               	movwf	(___flmul@prod+2)^(0+128)
  3934  0105  082F               	movf	(??___flmul+1)^(0+128),w
  3935  0106  00BB               	movwf	(___flmul@prod+1)^(0+128)
  3936  0107  082E               	movf	??___flmul^(0+128),w
  3937  0108  00BA               	movwf	___flmul@prod^(0+128)
  3938  0109  0827               	movf	(___flmul@b^(0+128)+1),w
  3939  010A  00FF               	movwf	btemp+1
  3940  010B  087F               	movf	btemp+1,w
  3941  010C  1283               	bcf	3,5	;RP0=0, select bank0
  3942  010D  1303               	bcf	3,6	;RP1=0, select bank0
  3943  010E  00B6               	movwf	__Umul8_16@multiplicand
  3944  010F  1683               	bsf	3,5	;RP0=1, select bank1
  3945  0110  1303               	bcf	3,6	;RP1=0, select bank1
  3946  0111  082B               	movf	(___flmul@a^(0+128)+1),w
  3947  0112  120A  158A  21D9  120A  118A  	fcall	__Umul8_16
  3948  0117  1283               	bcf	3,5	;RP0=0, select bank0
  3949  0118  1303               	bcf	3,6	;RP1=0, select bank0
  3950  0119  0837               	movf	?__Umul8_16+1,w
  3951  011A  1683               	bsf	3,5	;RP0=1, select bank1
  3952  011B  1303               	bcf	3,6	;RP1=0, select bank1
  3953  011C  00BF               	movwf	(___flmul@temp+1)^(0+128)
  3954  011D  1283               	bcf	3,5	;RP0=0, select bank0
  3955  011E  1303               	bcf	3,6	;RP1=0, select bank0
  3956  011F  0836               	movf	?__Umul8_16,w
  3957  0120  1683               	bsf	3,5	;RP0=1, select bank1
  3958  0121  1303               	bcf	3,6	;RP1=0, select bank1
  3959  0122  00BE               	movwf	___flmul@temp^(0+128)
  3960  0123                     l3429:
  3961  0123  083E               	movf	___flmul@temp^(0+128),w
  3962  0124  00AE               	movwf	??___flmul^(0+128)
  3963  0125  01AF               	clrf	(??___flmul^(0+128)+1)
  3964  0126  01B0               	clrf	(??___flmul^(0+128)+2)
  3965  0127  01B1               	clrf	(??___flmul^(0+128)+3)
  3966  0128  082E               	movf	??___flmul^(0+128),w
  3967  0129  07B5               	addwf	___flmul@grs^(0+128),f
  3968  012A  082F               	movf	(??___flmul+1)^(0+128),w
  3969  012B  1103               	clrz
  3970  012C  1803               	skipnc
  3971  012D  3E01               	addlw	1
  3972  012E  1903               	skipnz
  3973  012F  2931               	goto	u4381
  3974  0130  07B6               	addwf	(___flmul@grs+1)^(0+128),f
  3975  0131                     u4381:
  3976  0131  0830               	movf	(??___flmul+2)^(0+128),w
  3977  0132  1103               	clrz
  3978  0133  1803               	skipnc
  3979  0134  3E01               	addlw	1
  3980  0135  1903               	skipnz
  3981  0136  2938               	goto	u4382
  3982  0137  07B7               	addwf	(___flmul@grs+2)^(0+128),f
  3983  0138                     u4382:
  3984  0138  0831               	movf	(??___flmul+3)^(0+128),w
  3985  0139  1103               	clrz
  3986  013A  1803               	skipnc
  3987  013B  3E01               	addlw	1
  3988  013C  1903               	skipnz
  3989  013D  293F               	goto	u4383
  3990  013E  07B8               	addwf	(___flmul@grs+3)^(0+128),f
  3991  013F                     u4383:
  3992  013F                     l3431:
  3993  013F  083F               	movf	(___flmul@temp^(0+128)+1),w
  3994  0140  00AE               	movwf	??___flmul^(0+128)
  3995  0141  01AF               	clrf	(??___flmul^(0+128)+1)
  3996  0142  01B0               	clrf	(??___flmul^(0+128)+2)
  3997  0143  01B1               	clrf	(??___flmul^(0+128)+3)
  3998  0144  082E               	movf	??___flmul^(0+128),w
  3999  0145  07BA               	addwf	___flmul@prod^(0+128),f
  4000  0146  082F               	movf	(??___flmul+1)^(0+128),w
  4001  0147  1103               	clrz
  4002  0148  1803               	skipnc
  4003  0149  3E01               	addlw	1
  4004  014A  1903               	skipnz
  4005  014B  294D               	goto	u4391
  4006  014C  07BB               	addwf	(___flmul@prod+1)^(0+128),f
  4007  014D                     u4391:
  4008  014D  0830               	movf	(??___flmul+2)^(0+128),w
  4009  014E  1103               	clrz
  4010  014F  1803               	skipnc
  4011  0150  3E01               	addlw	1
  4012  0151  1903               	skipnz
  4013  0152  2954               	goto	u4392
  4014  0153  07BC               	addwf	(___flmul@prod+2)^(0+128),f
  4015  0154                     u4392:
  4016  0154  0831               	movf	(??___flmul+3)^(0+128),w
  4017  0155  1103               	clrz
  4018  0156  1803               	skipnc
  4019  0157  3E01               	addlw	1
  4020  0158  1903               	skipnz
  4021  0159  295B               	goto	u4393
  4022  015A  07BD               	addwf	(___flmul@prod+3)^(0+128),f
  4023  015B                     u4393:
  4024  015B  0828               	movf	(___flmul@b^(0+128)+2),w
  4025  015C  00FF               	movwf	btemp+1
  4026  015D  087F               	movf	btemp+1,w
  4027  015E  1283               	bcf	3,5	;RP0=0, select bank0
  4028  015F  1303               	bcf	3,6	;RP1=0, select bank0
  4029  0160  00B6               	movwf	__Umul8_16@multiplicand
  4030  0161  1683               	bsf	3,5	;RP0=1, select bank1
  4031  0162  1303               	bcf	3,6	;RP1=0, select bank1
  4032  0163  082A               	movf	___flmul@a^(0+128),w
  4033  0164  120A  158A  21D9  120A  118A  	fcall	__Umul8_16
  4034  0169  1283               	bcf	3,5	;RP0=0, select bank0
  4035  016A  1303               	bcf	3,6	;RP1=0, select bank0
  4036  016B  0837               	movf	?__Umul8_16+1,w
  4037  016C  1683               	bsf	3,5	;RP0=1, select bank1
  4038  016D  1303               	bcf	3,6	;RP1=0, select bank1
  4039  016E  00BF               	movwf	(___flmul@temp+1)^(0+128)
  4040  016F  1283               	bcf	3,5	;RP0=0, select bank0
  4041  0170  1303               	bcf	3,6	;RP1=0, select bank0
  4042  0171  0836               	movf	?__Umul8_16,w
  4043  0172  1683               	bsf	3,5	;RP0=1, select bank1
  4044  0173  1303               	bcf	3,6	;RP1=0, select bank1
  4045  0174  00BE               	movwf	___flmul@temp^(0+128)
  4046  0175                     l3433:
  4047  0175  083E               	movf	___flmul@temp^(0+128),w
  4048  0176  00AE               	movwf	??___flmul^(0+128)
  4049  0177  01AF               	clrf	(??___flmul^(0+128)+1)
  4050  0178  01B0               	clrf	(??___flmul^(0+128)+2)
  4051  0179  01B1               	clrf	(??___flmul^(0+128)+3)
  4052  017A  082E               	movf	??___flmul^(0+128),w
  4053  017B  07B5               	addwf	___flmul@grs^(0+128),f
  4054  017C  082F               	movf	(??___flmul+1)^(0+128),w
  4055  017D  1103               	clrz
  4056  017E  1803               	skipnc
  4057  017F  3E01               	addlw	1
  4058  0180  1903               	skipnz
  4059  0181  2983               	goto	u4401
  4060  0182  07B6               	addwf	(___flmul@grs+1)^(0+128),f
  4061  0183                     u4401:
  4062  0183  0830               	movf	(??___flmul+2)^(0+128),w
  4063  0184  1103               	clrz
  4064  0185  1803               	skipnc
  4065  0186  3E01               	addlw	1
  4066  0187  1903               	skipnz
  4067  0188  298A               	goto	u4402
  4068  0189  07B7               	addwf	(___flmul@grs+2)^(0+128),f
  4069  018A                     u4402:
  4070  018A  0831               	movf	(??___flmul+3)^(0+128),w
  4071  018B  1103               	clrz
  4072  018C  1803               	skipnc
  4073  018D  3E01               	addlw	1
  4074  018E  1903               	skipnz
  4075  018F  2991               	goto	u4403
  4076  0190  07B8               	addwf	(___flmul@grs+3)^(0+128),f
  4077  0191                     u4403:
  4078  0191                     l3435:
  4079  0191  083F               	movf	(___flmul@temp^(0+128)+1),w
  4080  0192  00AE               	movwf	??___flmul^(0+128)
  4081  0193  01AF               	clrf	(??___flmul^(0+128)+1)
  4082  0194  01B0               	clrf	(??___flmul^(0+128)+2)
  4083  0195  01B1               	clrf	(??___flmul^(0+128)+3)
  4084  0196  082E               	movf	??___flmul^(0+128),w
  4085  0197  07BA               	addwf	___flmul@prod^(0+128),f
  4086  0198  082F               	movf	(??___flmul+1)^(0+128),w
  4087  0199  1103               	clrz
  4088  019A  1803               	skipnc
  4089  019B  3E01               	addlw	1
  4090  019C  1903               	skipnz
  4091  019D  299F               	goto	u4411
  4092  019E  07BB               	addwf	(___flmul@prod+1)^(0+128),f
  4093  019F                     u4411:
  4094  019F  0830               	movf	(??___flmul+2)^(0+128),w
  4095  01A0  1103               	clrz
  4096  01A1  1803               	skipnc
  4097  01A2  3E01               	addlw	1
  4098  01A3  1903               	skipnz
  4099  01A4  29A6               	goto	u4412
  4100  01A5  07BC               	addwf	(___flmul@prod+2)^(0+128),f
  4101  01A6                     u4412:
  4102  01A6  0831               	movf	(??___flmul+3)^(0+128),w
  4103  01A7  1103               	clrz
  4104  01A8  1803               	skipnc
  4105  01A9  3E01               	addlw	1
  4106  01AA  1903               	skipnz
  4107  01AB  29AD               	goto	u4413
  4108  01AC  07BD               	addwf	(___flmul@prod+3)^(0+128),f
  4109  01AD                     u4413:
  4110  01AD                     l3437:
  4111  01AD  3008               	movlw	8
  4112  01AE  00AE               	movwf	??___flmul^(0+128)
  4113  01AF                     u4425:
  4114  01AF  1003               	clrc
  4115  01B0  0DB5               	rlf	___flmul@grs^(0+128),f
  4116  01B1  0DB6               	rlf	(___flmul@grs+1)^(0+128),f
  4117  01B2  0DB7               	rlf	(___flmul@grs+2)^(0+128),f
  4118  01B3  0DB8               	rlf	(___flmul@grs+3)^(0+128),f
  4119  01B4  0BAE               	decfsz	??___flmul^(0+128),f
  4120  01B5  29AF               	goto	u4425
  4121  01B6                     l3439:
  4122  01B6  0827               	movf	(___flmul@b^(0+128)+1),w
  4123  01B7  00FF               	movwf	btemp+1
  4124  01B8  087F               	movf	btemp+1,w
  4125  01B9  1283               	bcf	3,5	;RP0=0, select bank0
  4126  01BA  1303               	bcf	3,6	;RP1=0, select bank0
  4127  01BB  00B6               	movwf	__Umul8_16@multiplicand
  4128  01BC  1683               	bsf	3,5	;RP0=1, select bank1
  4129  01BD  1303               	bcf	3,6	;RP1=0, select bank1
  4130  01BE  082A               	movf	___flmul@a^(0+128),w
  4131  01BF  120A  158A  21D9  120A  118A  	fcall	__Umul8_16
  4132  01C4  1283               	bcf	3,5	;RP0=0, select bank0
  4133  01C5  1303               	bcf	3,6	;RP1=0, select bank0
  4134  01C6  0837               	movf	?__Umul8_16+1,w
  4135  01C7  1683               	bsf	3,5	;RP0=1, select bank1
  4136  01C8  1303               	bcf	3,6	;RP1=0, select bank1
  4137  01C9  00BF               	movwf	(___flmul@temp+1)^(0+128)
  4138  01CA  1283               	bcf	3,5	;RP0=0, select bank0
  4139  01CB  1303               	bcf	3,6	;RP1=0, select bank0
  4140  01CC  0836               	movf	?__Umul8_16,w
  4141  01CD  1683               	bsf	3,5	;RP0=1, select bank1
  4142  01CE  1303               	bcf	3,6	;RP1=0, select bank1
  4143  01CF  00BE               	movwf	___flmul@temp^(0+128)
  4144  01D0                     l3441:
  4145  01D0  083E               	movf	___flmul@temp^(0+128),w
  4146  01D1  00AE               	movwf	??___flmul^(0+128)
  4147  01D2  083F               	movf	(___flmul@temp+1)^(0+128),w
  4148  01D3  00AF               	movwf	(??___flmul^(0+128)+1)
  4149  01D4  01B0               	clrf	(??___flmul^(0+128)+2)
  4150  01D5  01B1               	clrf	(??___flmul^(0+128)+3)
  4151  01D6  082E               	movf	??___flmul^(0+128),w
  4152  01D7  07B5               	addwf	___flmul@grs^(0+128),f
  4153  01D8  082F               	movf	(??___flmul+1)^(0+128),w
  4154  01D9  1103               	clrz
  4155  01DA  1803               	skipnc
  4156  01DB  3E01               	addlw	1
  4157  01DC  1903               	skipnz
  4158  01DD  29DF               	goto	u4431
  4159  01DE  07B6               	addwf	(___flmul@grs+1)^(0+128),f
  4160  01DF                     u4431:
  4161  01DF  0830               	movf	(??___flmul+2)^(0+128),w
  4162  01E0  1103               	clrz
  4163  01E1  1803               	skipnc
  4164  01E2  3E01               	addlw	1
  4165  01E3  1903               	skipnz
  4166  01E4  29E6               	goto	u4432
  4167  01E5  07B7               	addwf	(___flmul@grs+2)^(0+128),f
  4168  01E6                     u4432:
  4169  01E6  0831               	movf	(??___flmul+3)^(0+128),w
  4170  01E7  1103               	clrz
  4171  01E8  1803               	skipnc
  4172  01E9  3E01               	addlw	1
  4173  01EA  1903               	skipnz
  4174  01EB  29ED               	goto	u4433
  4175  01EC  07B8               	addwf	(___flmul@grs+3)^(0+128),f
  4176  01ED                     u4433:
  4177  01ED                     l3443:
  4178  01ED  0826               	movf	___flmul@b^(0+128),w
  4179  01EE  00FF               	movwf	btemp+1
  4180  01EF  087F               	movf	btemp+1,w
  4181  01F0  1283               	bcf	3,5	;RP0=0, select bank0
  4182  01F1  1303               	bcf	3,6	;RP1=0, select bank0
  4183  01F2  00B6               	movwf	__Umul8_16@multiplicand
  4184  01F3  1683               	bsf	3,5	;RP0=1, select bank1
  4185  01F4  1303               	bcf	3,6	;RP1=0, select bank1
  4186  01F5  082B               	movf	(___flmul@a^(0+128)+1),w
  4187  01F6  120A  158A  21D9  120A  118A  	fcall	__Umul8_16
  4188  01FB  1283               	bcf	3,5	;RP0=0, select bank0
  4189  01FC  1303               	bcf	3,6	;RP1=0, select bank0
  4190  01FD  0837               	movf	?__Umul8_16+1,w
  4191  01FE  1683               	bsf	3,5	;RP0=1, select bank1
  4192  01FF  1303               	bcf	3,6	;RP1=0, select bank1
  4193  0200  00BF               	movwf	(___flmul@temp+1)^(0+128)
  4194  0201  1283               	bcf	3,5	;RP0=0, select bank0
  4195  0202  1303               	bcf	3,6	;RP1=0, select bank0
  4196  0203  0836               	movf	?__Umul8_16,w
  4197  0204  1683               	bsf	3,5	;RP0=1, select bank1
  4198  0205  1303               	bcf	3,6	;RP1=0, select bank1
  4199  0206  00BE               	movwf	___flmul@temp^(0+128)
  4200  0207                     l3445:
  4201  0207  083E               	movf	___flmul@temp^(0+128),w
  4202  0208  00AE               	movwf	??___flmul^(0+128)
  4203  0209  083F               	movf	(___flmul@temp+1)^(0+128),w
  4204  020A  00AF               	movwf	(??___flmul^(0+128)+1)
  4205  020B  01B0               	clrf	(??___flmul^(0+128)+2)
  4206  020C  01B1               	clrf	(??___flmul^(0+128)+3)
  4207  020D  082E               	movf	??___flmul^(0+128),w
  4208  020E  07B5               	addwf	___flmul@grs^(0+128),f
  4209  020F  082F               	movf	(??___flmul+1)^(0+128),w
  4210  0210  1103               	clrz
  4211  0211  1803               	skipnc
  4212  0212  3E01               	addlw	1
  4213  0213  1903               	skipnz
  4214  0214  2A16               	goto	u4441
  4215  0215  07B6               	addwf	(___flmul@grs+1)^(0+128),f
  4216  0216                     u4441:
  4217  0216  0830               	movf	(??___flmul+2)^(0+128),w
  4218  0217  1103               	clrz
  4219  0218  1803               	skipnc
  4220  0219  3E01               	addlw	1
  4221  021A  1903               	skipnz
  4222  021B  2A1D               	goto	u4442
  4223  021C  07B7               	addwf	(___flmul@grs+2)^(0+128),f
  4224  021D                     u4442:
  4225  021D  0831               	movf	(??___flmul+3)^(0+128),w
  4226  021E  1103               	clrz
  4227  021F  1803               	skipnc
  4228  0220  3E01               	addlw	1
  4229  0221  1903               	skipnz
  4230  0222  2A24               	goto	u4443
  4231  0223  07B8               	addwf	(___flmul@grs+3)^(0+128),f
  4232  0224                     u4443:
  4233  0224                     l3447:
  4234  0224  3008               	movlw	8
  4235  0225  00AE               	movwf	??___flmul^(0+128)
  4236  0226                     u4455:
  4237  0226  1003               	clrc
  4238  0227  0DB5               	rlf	___flmul@grs^(0+128),f
  4239  0228  0DB6               	rlf	(___flmul@grs+1)^(0+128),f
  4240  0229  0DB7               	rlf	(___flmul@grs+2)^(0+128),f
  4241  022A  0DB8               	rlf	(___flmul@grs+3)^(0+128),f
  4242  022B  0BAE               	decfsz	??___flmul^(0+128),f
  4243  022C  2A26               	goto	u4455
  4244  022D  0826               	movf	___flmul@b^(0+128),w
  4245  022E  00FF               	movwf	btemp+1
  4246  022F  087F               	movf	btemp+1,w
  4247  0230  1283               	bcf	3,5	;RP0=0, select bank0
  4248  0231  1303               	bcf	3,6	;RP1=0, select bank0
  4249  0232  00B6               	movwf	__Umul8_16@multiplicand
  4250  0233  1683               	bsf	3,5	;RP0=1, select bank1
  4251  0234  1303               	bcf	3,6	;RP1=0, select bank1
  4252  0235  082A               	movf	___flmul@a^(0+128),w
  4253  0236  120A  158A  21D9  120A  118A  	fcall	__Umul8_16
  4254  023B  1283               	bcf	3,5	;RP0=0, select bank0
  4255  023C  1303               	bcf	3,6	;RP1=0, select bank0
  4256  023D  0837               	movf	?__Umul8_16+1,w
  4257  023E  1683               	bsf	3,5	;RP0=1, select bank1
  4258  023F  1303               	bcf	3,6	;RP1=0, select bank1
  4259  0240  00BF               	movwf	(___flmul@temp+1)^(0+128)
  4260  0241  1283               	bcf	3,5	;RP0=0, select bank0
  4261  0242  1303               	bcf	3,6	;RP1=0, select bank0
  4262  0243  0836               	movf	?__Umul8_16,w
  4263  0244  1683               	bsf	3,5	;RP0=1, select bank1
  4264  0245  1303               	bcf	3,6	;RP1=0, select bank1
  4265  0246  00BE               	movwf	___flmul@temp^(0+128)
  4266  0247                     l3449:
  4267  0247  083E               	movf	___flmul@temp^(0+128),w
  4268  0248  00AE               	movwf	??___flmul^(0+128)
  4269  0249  083F               	movf	(___flmul@temp+1)^(0+128),w
  4270  024A  00AF               	movwf	(??___flmul^(0+128)+1)
  4271  024B  01B0               	clrf	(??___flmul^(0+128)+2)
  4272  024C  01B1               	clrf	(??___flmul^(0+128)+3)
  4273  024D  082E               	movf	??___flmul^(0+128),w
  4274  024E  07B5               	addwf	___flmul@grs^(0+128),f
  4275  024F  082F               	movf	(??___flmul+1)^(0+128),w
  4276  0250  1103               	clrz
  4277  0251  1803               	skipnc
  4278  0252  3E01               	addlw	1
  4279  0253  1903               	skipnz
  4280  0254  2A56               	goto	u4461
  4281  0255  07B6               	addwf	(___flmul@grs+1)^(0+128),f
  4282  0256                     u4461:
  4283  0256  0830               	movf	(??___flmul+2)^(0+128),w
  4284  0257  1103               	clrz
  4285  0258  1803               	skipnc
  4286  0259  3E01               	addlw	1
  4287  025A  1903               	skipnz
  4288  025B  2A5D               	goto	u4462
  4289  025C  07B7               	addwf	(___flmul@grs+2)^(0+128),f
  4290  025D                     u4462:
  4291  025D  0831               	movf	(??___flmul+3)^(0+128),w
  4292  025E  1103               	clrz
  4293  025F  1803               	skipnc
  4294  0260  3E01               	addlw	1
  4295  0261  1903               	skipnz
  4296  0262  2A64               	goto	u4463
  4297  0263  07B8               	addwf	(___flmul@grs+3)^(0+128),f
  4298  0264                     u4463:
  4299  0264                     l3451:
  4300  0264  0827               	movf	(___flmul@b^(0+128)+1),w
  4301  0265  00FF               	movwf	btemp+1
  4302  0266  087F               	movf	btemp+1,w
  4303  0267  1283               	bcf	3,5	;RP0=0, select bank0
  4304  0268  1303               	bcf	3,6	;RP1=0, select bank0
  4305  0269  00B6               	movwf	__Umul8_16@multiplicand
  4306  026A  1683               	bsf	3,5	;RP0=1, select bank1
  4307  026B  1303               	bcf	3,6	;RP1=0, select bank1
  4308  026C  082C               	movf	(___flmul@a^(0+128)+2),w
  4309  026D  120A  158A  21D9  120A  118A  	fcall	__Umul8_16
  4310  0272  1283               	bcf	3,5	;RP0=0, select bank0
  4311  0273  1303               	bcf	3,6	;RP1=0, select bank0
  4312  0274  0837               	movf	?__Umul8_16+1,w
  4313  0275  1683               	bsf	3,5	;RP0=1, select bank1
  4314  0276  1303               	bcf	3,6	;RP1=0, select bank1
  4315  0277  00BF               	movwf	(___flmul@temp+1)^(0+128)
  4316  0278  1283               	bcf	3,5	;RP0=0, select bank0
  4317  0279  1303               	bcf	3,6	;RP1=0, select bank0
  4318  027A  0836               	movf	?__Umul8_16,w
  4319  027B  1683               	bsf	3,5	;RP0=1, select bank1
  4320  027C  1303               	bcf	3,6	;RP1=0, select bank1
  4321  027D  00BE               	movwf	___flmul@temp^(0+128)
  4322  027E  083E               	movf	___flmul@temp^(0+128),w
  4323  027F  00AE               	movwf	??___flmul^(0+128)
  4324  0280  083F               	movf	(___flmul@temp+1)^(0+128),w
  4325  0281  00AF               	movwf	(??___flmul^(0+128)+1)
  4326  0282  01B0               	clrf	(??___flmul^(0+128)+2)
  4327  0283  01B1               	clrf	(??___flmul^(0+128)+3)
  4328  0284  082E               	movf	??___flmul^(0+128),w
  4329  0285  07BA               	addwf	___flmul@prod^(0+128),f
  4330  0286  082F               	movf	(??___flmul+1)^(0+128),w
  4331  0287  1103               	clrz
  4332  0288  1803               	skipnc
  4333  0289  3E01               	addlw	1
  4334  028A  1903               	skipnz
  4335  028B  2A8D               	goto	u4471
  4336  028C  07BB               	addwf	(___flmul@prod+1)^(0+128),f
  4337  028D                     u4471:
  4338  028D  0830               	movf	(??___flmul+2)^(0+128),w
  4339  028E  1103               	clrz
  4340  028F  1803               	skipnc
  4341  0290  3E01               	addlw	1
  4342  0291  1903               	skipnz
  4343  0292  2A94               	goto	u4472
  4344  0293  07BC               	addwf	(___flmul@prod+2)^(0+128),f
  4345  0294                     u4472:
  4346  0294  0831               	movf	(??___flmul+3)^(0+128),w
  4347  0295  1103               	clrz
  4348  0296  1803               	skipnc
  4349  0297  3E01               	addlw	1
  4350  0298  1903               	skipnz
  4351  0299  2A9B               	goto	u4473
  4352  029A  07BD               	addwf	(___flmul@prod+3)^(0+128),f
  4353  029B                     u4473:
  4354  029B                     l3453:
  4355  029B  0828               	movf	(___flmul@b^(0+128)+2),w
  4356  029C  00FF               	movwf	btemp+1
  4357  029D  087F               	movf	btemp+1,w
  4358  029E  1283               	bcf	3,5	;RP0=0, select bank0
  4359  029F  1303               	bcf	3,6	;RP1=0, select bank0
  4360  02A0  00B6               	movwf	__Umul8_16@multiplicand
  4361  02A1  1683               	bsf	3,5	;RP0=1, select bank1
  4362  02A2  1303               	bcf	3,6	;RP1=0, select bank1
  4363  02A3  082B               	movf	(___flmul@a^(0+128)+1),w
  4364  02A4  120A  158A  21D9  120A  118A  	fcall	__Umul8_16
  4365  02A9  1283               	bcf	3,5	;RP0=0, select bank0
  4366  02AA  1303               	bcf	3,6	;RP1=0, select bank0
  4367  02AB  0837               	movf	?__Umul8_16+1,w
  4368  02AC  1683               	bsf	3,5	;RP0=1, select bank1
  4369  02AD  1303               	bcf	3,6	;RP1=0, select bank1
  4370  02AE  00BF               	movwf	(___flmul@temp+1)^(0+128)
  4371  02AF  1283               	bcf	3,5	;RP0=0, select bank0
  4372  02B0  1303               	bcf	3,6	;RP1=0, select bank0
  4373  02B1  0836               	movf	?__Umul8_16,w
  4374  02B2  1683               	bsf	3,5	;RP0=1, select bank1
  4375  02B3  1303               	bcf	3,6	;RP1=0, select bank1
  4376  02B4  00BE               	movwf	___flmul@temp^(0+128)
  4377  02B5                     l3455:
  4378  02B5  083E               	movf	___flmul@temp^(0+128),w
  4379  02B6  00AE               	movwf	??___flmul^(0+128)
  4380  02B7  083F               	movf	(___flmul@temp+1)^(0+128),w
  4381  02B8  00AF               	movwf	(??___flmul^(0+128)+1)
  4382  02B9  01B0               	clrf	(??___flmul^(0+128)+2)
  4383  02BA  01B1               	clrf	(??___flmul^(0+128)+3)
  4384  02BB  082E               	movf	??___flmul^(0+128),w
  4385  02BC  07BA               	addwf	___flmul@prod^(0+128),f
  4386  02BD  082F               	movf	(??___flmul+1)^(0+128),w
  4387  02BE  1103               	clrz
  4388  02BF  1803               	skipnc
  4389  02C0  3E01               	addlw	1
  4390  02C1  1903               	skipnz
  4391  02C2  2AC4               	goto	u4481
  4392  02C3  07BB               	addwf	(___flmul@prod+1)^(0+128),f
  4393  02C4                     u4481:
  4394  02C4  0830               	movf	(??___flmul+2)^(0+128),w
  4395  02C5  1103               	clrz
  4396  02C6  1803               	skipnc
  4397  02C7  3E01               	addlw	1
  4398  02C8  1903               	skipnz
  4399  02C9  2ACB               	goto	u4482
  4400  02CA  07BC               	addwf	(___flmul@prod+2)^(0+128),f
  4401  02CB                     u4482:
  4402  02CB  0831               	movf	(??___flmul+3)^(0+128),w
  4403  02CC  1103               	clrz
  4404  02CD  1803               	skipnc
  4405  02CE  3E01               	addlw	1
  4406  02CF  1903               	skipnz
  4407  02D0  2AD2               	goto	u4483
  4408  02D1  07BD               	addwf	(___flmul@prod+3)^(0+128),f
  4409  02D2                     u4483:
  4410  02D2  0828               	movf	(___flmul@b^(0+128)+2),w
  4411  02D3  00FF               	movwf	btemp+1
  4412  02D4  087F               	movf	btemp+1,w
  4413  02D5  1283               	bcf	3,5	;RP0=0, select bank0
  4414  02D6  1303               	bcf	3,6	;RP1=0, select bank0
  4415  02D7  00B6               	movwf	__Umul8_16@multiplicand
  4416  02D8  1683               	bsf	3,5	;RP0=1, select bank1
  4417  02D9  1303               	bcf	3,6	;RP1=0, select bank1
  4418  02DA  082C               	movf	(___flmul@a^(0+128)+2),w
  4419  02DB  120A  158A  21D9  120A  118A  	fcall	__Umul8_16
  4420  02E0  1283               	bcf	3,5	;RP0=0, select bank0
  4421  02E1  1303               	bcf	3,6	;RP1=0, select bank0
  4422  02E2  0837               	movf	?__Umul8_16+1,w
  4423  02E3  1683               	bsf	3,5	;RP0=1, select bank1
  4424  02E4  1303               	bcf	3,6	;RP1=0, select bank1
  4425  02E5  00BF               	movwf	(___flmul@temp+1)^(0+128)
  4426  02E6  1283               	bcf	3,5	;RP0=0, select bank0
  4427  02E7  1303               	bcf	3,6	;RP1=0, select bank0
  4428  02E8  0836               	movf	?__Umul8_16,w
  4429  02E9  1683               	bsf	3,5	;RP0=1, select bank1
  4430  02EA  1303               	bcf	3,6	;RP1=0, select bank1
  4431  02EB  00BE               	movwf	___flmul@temp^(0+128)
  4432  02EC                     l3457:
  4433  02EC  083E               	movf	___flmul@temp^(0+128),w
  4434  02ED  00AE               	movwf	??___flmul^(0+128)
  4435  02EE  083F               	movf	(___flmul@temp+1)^(0+128),w
  4436  02EF  00AF               	movwf	(??___flmul^(0+128)+1)
  4437  02F0  01B0               	clrf	(??___flmul^(0+128)+2)
  4438  02F1  01B1               	clrf	(??___flmul^(0+128)+3)
  4439  02F2  3008               	movlw	8
  4440  02F3                     u4495:
  4441  02F3  1003               	clrc
  4442  02F4  0DAE               	rlf	??___flmul^(0+128),f
  4443  02F5  0DAF               	rlf	(??___flmul^(0+128)+1),f
  4444  02F6  0DB0               	rlf	(??___flmul^(0+128)+2),f
  4445  02F7  0DB1               	rlf	(??___flmul^(0+128)+3),f
  4446  02F8                     u4490:
  4447  02F8  3EFF               	addlw	-1
  4448  02F9  1D03               	skipz
  4449  02FA  2AF3               	goto	u4495
  4450  02FB  082E               	movf	??___flmul^(0+128),w
  4451  02FC  07BA               	addwf	___flmul@prod^(0+128),f
  4452  02FD  082F               	movf	(??___flmul+1)^(0+128),w
  4453  02FE  1103               	clrz
  4454  02FF  1803               	skipnc
  4455  0300  3E01               	addlw	1
  4456  0301  1903               	skipnz
  4457  0302  2B04               	goto	u4501
  4458  0303  07BB               	addwf	(___flmul@prod+1)^(0+128),f
  4459  0304                     u4501:
  4460  0304  0830               	movf	(??___flmul+2)^(0+128),w
  4461  0305  1103               	clrz
  4462  0306  1803               	skipnc
  4463  0307  3E01               	addlw	1
  4464  0308  1903               	skipnz
  4465  0309  2B0B               	goto	u4502
  4466  030A  07BC               	addwf	(___flmul@prod+2)^(0+128),f
  4467  030B                     u4502:
  4468  030B  0831               	movf	(??___flmul+3)^(0+128),w
  4469  030C  1103               	clrz
  4470  030D  1803               	skipnc
  4471  030E  3E01               	addlw	1
  4472  030F  1903               	skipnz
  4473  0310  2B12               	goto	u4503
  4474  0311  07BD               	addwf	(___flmul@prod+3)^(0+128),f
  4475  0312                     u4503:
  4476  0312                     l3459:
  4477  0312  0835               	movf	___flmul@grs^(0+128),w
  4478  0313  00AE               	movwf	??___flmul^(0+128)
  4479  0314  0836               	movf	(___flmul@grs+1)^(0+128),w
  4480  0315  00AF               	movwf	(??___flmul^(0+128)+1)
  4481  0316  0837               	movf	(___flmul@grs+2)^(0+128),w
  4482  0317  00B0               	movwf	(??___flmul^(0+128)+2)
  4483  0318  0838               	movf	(___flmul@grs+3)^(0+128),w
  4484  0319  00B1               	movwf	(??___flmul^(0+128)+3)
  4485  031A  3018               	movlw	24
  4486  031B                     u4515:
  4487  031B  1003               	clrc
  4488  031C  0CB1               	rrf	(??___flmul^(0+128)+3),f
  4489  031D  0CB0               	rrf	(??___flmul^(0+128)+2),f
  4490  031E  0CAF               	rrf	(??___flmul^(0+128)+1),f
  4491  031F  0CAE               	rrf	??___flmul^(0+128),f
  4492  0320                     u4510:
  4493  0320  3EFF               	addlw	-1
  4494  0321  1D03               	skipz
  4495  0322  2B1B               	goto	u4515
  4496  0323  082E               	movf	??___flmul^(0+128),w
  4497  0324  07BA               	addwf	___flmul@prod^(0+128),f
  4498  0325  082F               	movf	(??___flmul+1)^(0+128),w
  4499  0326  1103               	clrz
  4500  0327  1803               	skipnc
  4501  0328  3E01               	addlw	1
  4502  0329  1903               	skipnz
  4503  032A  2B2C               	goto	u4521
  4504  032B  07BB               	addwf	(___flmul@prod+1)^(0+128),f
  4505  032C                     u4521:
  4506  032C  0830               	movf	(??___flmul+2)^(0+128),w
  4507  032D  1103               	clrz
  4508  032E  1803               	skipnc
  4509  032F  3E01               	addlw	1
  4510  0330  1903               	skipnz
  4511  0331  2B33               	goto	u4522
  4512  0332  07BC               	addwf	(___flmul@prod+2)^(0+128),f
  4513  0333                     u4522:
  4514  0333  0831               	movf	(??___flmul+3)^(0+128),w
  4515  0334  1103               	clrz
  4516  0335  1803               	skipnc
  4517  0336  3E01               	addlw	1
  4518  0337  1903               	skipnz
  4519  0338  2B3A               	goto	u4523
  4520  0339  07BD               	addwf	(___flmul@prod+3)^(0+128),f
  4521  033A                     u4523:
  4522  033A                     l3461:
  4523  033A  3008               	movlw	8
  4524  033B  00AE               	movwf	??___flmul^(0+128)
  4525  033C                     u4535:
  4526  033C  1003               	clrc
  4527  033D  0DB5               	rlf	___flmul@grs^(0+128),f
  4528  033E  0DB6               	rlf	(___flmul@grs+1)^(0+128),f
  4529  033F  0DB7               	rlf	(___flmul@grs+2)^(0+128),f
  4530  0340  0DB8               	rlf	(___flmul@grs+3)^(0+128),f
  4531  0341  0BAE               	decfsz	??___flmul^(0+128),f
  4532  0342  2B3C               	goto	u4535
  4533  0343                     l3463:
  4534  0343  0839               	movf	___flmul@bexp^(0+128),w
  4535  0344  0734               	addwf	___flmul@aexp^(0+128),w
  4536  0345  00AE               	movwf	??___flmul^(0+128)
  4537  0346  01AF               	clrf	(??___flmul^(0+128)+1)
  4538  0347  0DAF               	rlf	(??___flmul+1)^(0+128),f
  4539  0348  082E               	movf	??___flmul^(0+128),w
  4540  0349  3E82               	addlw	130
  4541  034A  00BE               	movwf	___flmul@temp^(0+128)
  4542  034B  082F               	movf	(??___flmul+1)^(0+128),w
  4543  034C  1803               	skipnc
  4544  034D  3E01               	addlw	1
  4545  034E  3EFF               	addlw	255
  4546  034F  00BF               	movwf	(___flmul@temp+1)^(0+128)
  4547  0350  2B6E               	goto	l3475
  4548  0351                     l3465:
  4549  0351  3001               	movlw	1
  4550  0352  00AE               	movwf	??___flmul^(0+128)
  4551  0353                     u4545:
  4552  0353  1003               	clrc
  4553  0354  0DBA               	rlf	___flmul@prod^(0+128),f
  4554  0355  0DBB               	rlf	(___flmul@prod+1)^(0+128),f
  4555  0356  0DBC               	rlf	(___flmul@prod+2)^(0+128),f
  4556  0357  0DBD               	rlf	(___flmul@prod+3)^(0+128),f
  4557  0358  0BAE               	decfsz	??___flmul^(0+128),f
  4558  0359  2B53               	goto	u4545
  4559  035A                     l3467:
  4560  035A  1FB8               	btfss	(___flmul@grs+3)^(0+128),7
  4561  035B  2B5D               	goto	u4551
  4562  035C  2B5E               	goto	u4550
  4563  035D                     u4551:
  4564  035D  2B5F               	goto	l3471
  4565  035E                     u4550:
  4566  035E                     l3469:
  4567  035E  143A               	bsf	___flmul@prod^(0+128),0
  4568  035F                     l3471:
  4569  035F  3001               	movlw	1
  4570  0360  00AE               	movwf	??___flmul^(0+128)
  4571  0361                     u4565:
  4572  0361  1003               	clrc
  4573  0362  0DB5               	rlf	___flmul@grs^(0+128),f
  4574  0363  0DB6               	rlf	(___flmul@grs+1)^(0+128),f
  4575  0364  0DB7               	rlf	(___flmul@grs+2)^(0+128),f
  4576  0365  0DB8               	rlf	(___flmul@grs+3)^(0+128),f
  4577  0366  0BAE               	decfsz	??___flmul^(0+128),f
  4578  0367  2B61               	goto	u4565
  4579  0368                     l3473:
  4580  0368  30FF               	movlw	255
  4581  0369  07BE               	addwf	___flmul@temp^(0+128),f
  4582  036A  1803               	skipnc
  4583  036B  0ABF               	incf	(___flmul@temp+1)^(0+128),f
  4584  036C  30FF               	movlw	255
  4585  036D  07BF               	addwf	(___flmul@temp+1)^(0+128),f
  4586  036E                     l3475:
  4587  036E  1FBC               	btfss	(___flmul@prod+2)^(0+128),7
  4588  036F  2B71               	goto	u4571
  4589  0370  2B72               	goto	u4570
  4590  0371                     u4571:
  4591  0371  2B51               	goto	l3465
  4592  0372                     u4570:
  4593  0372                     l3477:
  4594  0372  01B4               	clrf	___flmul@aexp^(0+128)
  4595  0373                     l3479:
  4596  0373  1FB8               	btfss	(___flmul@grs+3)^(0+128),7
  4597  0374  2B76               	goto	u4581
  4598  0375  2B77               	goto	u4580
  4599  0376                     u4581:
  4600  0376  2B93               	goto	l3487
  4601  0377                     u4580:
  4602  0377                     l3481:
  4603  0377  30FF               	movlw	255
  4604  0378  0535               	andwf	___flmul@grs^(0+128),w
  4605  0379  00AE               	movwf	??___flmul^(0+128)
  4606  037A  30FF               	movlw	255
  4607  037B  0536               	andwf	(___flmul@grs+1)^(0+128),w
  4608  037C  00AF               	movwf	(??___flmul^(0+128)+1)
  4609  037D  30FF               	movlw	255
  4610  037E  0537               	andwf	(___flmul@grs+2)^(0+128),w
  4611  037F  00B0               	movwf	(??___flmul^(0+128)+2)
  4612  0380  307F               	movlw	127
  4613  0381  0538               	andwf	(___flmul@grs+3)^(0+128),w
  4614  0382  00B1               	movwf	(??___flmul^(0+128)+3)
  4615  0383  0831               	movf	(??___flmul+3)^(0+128),w
  4616  0384  0430               	iorwf	(??___flmul+2)^(0+128),w
  4617  0385  042F               	iorwf	(??___flmul+1)^(0+128),w
  4618  0386  042E               	iorwf	??___flmul^(0+128),w
  4619  0387  1903               	skipnz
  4620  0388  2B8A               	goto	u4591
  4621  0389  2B8B               	goto	u4590
  4622  038A                     u4591:
  4623  038A  2B8E               	goto	l1028
  4624  038B                     u4590:
  4625  038B                     l3483:
  4626  038B  01B4               	clrf	___flmul@aexp^(0+128)
  4627  038C  0AB4               	incf	___flmul@aexp^(0+128),f
  4628  038D  2B93               	goto	l3487
  4629  038E                     l1028:
  4630  038E  1C3A               	btfss	___flmul@prod^(0+128),0
  4631  038F  2B91               	goto	u4601
  4632  0390  2B92               	goto	u4600
  4633  0391                     u4601:
  4634  0391  2B93               	goto	l3487
  4635  0392                     u4600:
  4636  0392  2B8B               	goto	l3483
  4637  0393                     l3487:
  4638  0393  0834               	movf	___flmul@aexp^(0+128),w
  4639  0394  1903               	btfsc	3,2
  4640  0395  2B97               	goto	u4611
  4641  0396  2B98               	goto	u4610
  4642  0397                     u4611:
  4643  0397  2BC9               	goto	l3497
  4644  0398                     u4610:
  4645  0398                     l3489:
  4646  0398  3001               	movlw	1
  4647  0399  07BA               	addwf	___flmul@prod^(0+128),f
  4648  039A  3000               	movlw	0
  4649  039B  1803               	skipnc
  4650  039C  3001               	movlw	1
  4651  039D  07BB               	addwf	(___flmul@prod+1)^(0+128),f
  4652  039E  3000               	movlw	0
  4653  039F  1803               	skipnc
  4654  03A0  3001               	movlw	1
  4655  03A1  07BC               	addwf	(___flmul@prod+2)^(0+128),f
  4656  03A2  3000               	movlw	0
  4657  03A3  1803               	skipnc
  4658  03A4  3001               	movlw	1
  4659  03A5  07BD               	addwf	(___flmul@prod+3)^(0+128),f
  4660  03A6                     l3491:
  4661  03A6  1C3D               	btfss	(___flmul@prod+3)^(0+128),0
  4662  03A7  2BA9               	goto	u4621
  4663  03A8  2BAA               	goto	u4620
  4664  03A9                     u4621:
  4665  03A9  2BC9               	goto	l3497
  4666  03AA                     u4620:
  4667  03AA                     l3493:
  4668  03AA  083A               	movf	___flmul@prod^(0+128),w
  4669  03AB  00AE               	movwf	??___flmul^(0+128)
  4670  03AC  083B               	movf	(___flmul@prod+1)^(0+128),w
  4671  03AD  00AF               	movwf	(??___flmul^(0+128)+1)
  4672  03AE  083C               	movf	(___flmul@prod+2)^(0+128),w
  4673  03AF  00B0               	movwf	(??___flmul^(0+128)+2)
  4674  03B0  083D               	movf	(___flmul@prod+3)^(0+128),w
  4675  03B1  00B1               	movwf	(??___flmul^(0+128)+3)
  4676  03B2  3001               	movlw	1
  4677  03B3  00B2               	movwf	(??___flmul+4)^(0+128)
  4678  03B4                     u4635:
  4679  03B4  0D31               	rlf	(??___flmul^(0+128)+3),w
  4680  03B5  0CB1               	rrf	(??___flmul^(0+128)+3),f
  4681  03B6  0CB0               	rrf	(??___flmul^(0+128)+2),f
  4682  03B7  0CAF               	rrf	(??___flmul^(0+128)+1),f
  4683  03B8  0CAE               	rrf	??___flmul^(0+128),f
  4684  03B9                     u4630:
  4685  03B9  0BB2               	decfsz	(??___flmul+4)^(0+128),f
  4686  03BA  2BB4               	goto	u4635
  4687  03BB  0831               	movf	(??___flmul+3)^(0+128),w
  4688  03BC  00BD               	movwf	(___flmul@prod+3)^(0+128)
  4689  03BD  0830               	movf	(??___flmul+2)^(0+128),w
  4690  03BE  00BC               	movwf	(___flmul@prod+2)^(0+128)
  4691  03BF  082F               	movf	(??___flmul+1)^(0+128),w
  4692  03C0  00BB               	movwf	(___flmul@prod+1)^(0+128)
  4693  03C1  082E               	movf	??___flmul^(0+128),w
  4694  03C2  00BA               	movwf	___flmul@prod^(0+128)
  4695  03C3                     l3495:
  4696  03C3  3001               	movlw	1
  4697  03C4  07BE               	addwf	___flmul@temp^(0+128),f
  4698  03C5  1803               	skipnc
  4699  03C6  0ABF               	incf	(___flmul@temp+1)^(0+128),f
  4700  03C7  3000               	movlw	0
  4701  03C8  07BF               	addwf	(___flmul@temp+1)^(0+128),f
  4702  03C9                     l3497:
  4703  03C9  083F               	movf	(___flmul@temp+1)^(0+128),w
  4704  03CA  3A80               	xorlw	128
  4705  03CB  00FF               	movwf	btemp+1
  4706  03CC  3080               	movlw	128
  4707  03CD  027F               	subwf	btemp+1,w
  4708  03CE  1D03               	skipz
  4709  03CF  2BD2               	goto	u4645
  4710  03D0  30FF               	movlw	255
  4711  03D1  023E               	subwf	___flmul@temp^(0+128),w
  4712  03D2                     u4645:
  4713  03D2  1C03               	skipc
  4714  03D3  2BD5               	goto	u4641
  4715  03D4  2BD6               	goto	u4640
  4716  03D5                     u4641:
  4717  03D5  2BE1               	goto	l3501
  4718  03D6                     u4640:
  4719  03D6                     l3499:
  4720  03D6  307F               	movlw	127
  4721  03D7  1683               	bsf	3,5	;RP0=1, select bank1
  4722  03D8  1303               	bcf	3,6	;RP1=0, select bank1
  4723  03D9  00BD               	movwf	(___flmul@prod+3)^(0+128)
  4724  03DA  3080               	movlw	128
  4725  03DB  00BC               	movwf	(___flmul@prod+2)^(0+128)
  4726  03DC  3000               	movlw	0
  4727  03DD  00BB               	movwf	(___flmul@prod+1)^(0+128)
  4728  03DE  3000               	movlw	0
  4729  03DF  00BA               	movwf	___flmul@prod^(0+128)
  4730  03E0  2C16               	goto	l1034
  4731  03E1                     l3501:
  4732  03E1  1683               	bsf	3,5	;RP0=1, select bank1
  4733  03E2  1303               	bcf	3,6	;RP1=0, select bank1
  4734  03E3  083F               	movf	(___flmul@temp+1)^(0+128),w
  4735  03E4  3A80               	xorlw	128
  4736  03E5  00FF               	movwf	btemp+1
  4737  03E6  3080               	movlw	128
  4738  03E7  027F               	subwf	btemp+1,w
  4739  03E8  1D03               	skipz
  4740  03E9  2BEC               	goto	u4655
  4741  03EA  3001               	movlw	1
  4742  03EB  023E               	subwf	___flmul@temp^(0+128),w
  4743  03EC                     u4655:
  4744  03EC  1803               	skipnc
  4745  03ED  2BEF               	goto	u4651
  4746  03EE  2BF0               	goto	u4650
  4747  03EF                     u4651:
  4748  03EF  2BFC               	goto	l3507
  4749  03F0                     u4650:
  4750  03F0                     l3503:
  4751  03F0  3000               	movlw	0
  4752  03F1  1683               	bsf	3,5	;RP0=1, select bank1
  4753  03F2  1303               	bcf	3,6	;RP1=0, select bank1
  4754  03F3  00BD               	movwf	(___flmul@prod+3)^(0+128)
  4755  03F4  3000               	movlw	0
  4756  03F5  00BC               	movwf	(___flmul@prod+2)^(0+128)
  4757  03F6  3000               	movlw	0
  4758  03F7  00BB               	movwf	(___flmul@prod+1)^(0+128)
  4759  03F8  3000               	movlw	0
  4760  03F9  00BA               	movwf	___flmul@prod^(0+128)
  4761  03FA                     l3505:
  4762  03FA  01B3               	clrf	___flmul@sign^(0+128)
  4763  03FB  2C16               	goto	l1034
  4764  03FC                     l3507:
  4765  03FC  1683               	bsf	3,5	;RP0=1, select bank1
  4766  03FD  1303               	bcf	3,6	;RP1=0, select bank1
  4767  03FE  083E               	movf	___flmul@temp^(0+128),w
  4768  03FF  00FF               	movwf	btemp+1
  4769  0400  087F               	movf	btemp+1,w
  4770  0401  00B9               	movwf	___flmul@bexp^(0+128)
  4771  0402                     l3509:
  4772  0402  30FF               	movlw	255
  4773  0403  05BA               	andwf	___flmul@prod^(0+128),f
  4774  0404  30FF               	movlw	255
  4775  0405  05BB               	andwf	(___flmul@prod+1)^(0+128),f
  4776  0406  307F               	movlw	127
  4777  0407  05BC               	andwf	(___flmul@prod+2)^(0+128),f
  4778  0408  3000               	movlw	0
  4779  0409  05BD               	andwf	(___flmul@prod+3)^(0+128),f
  4780  040A                     l3511:
  4781  040A  1C39               	btfss	___flmul@bexp^(0+128),0
  4782  040B  2C0D               	goto	u4661
  4783  040C  2C0E               	goto	u4660
  4784  040D                     u4661:
  4785  040D  2C0F               	goto	l3515
  4786  040E                     u4660:
  4787  040E                     l3513:
  4788  040E  17BC               	bsf	(___flmul@prod^(0+128)+2),7
  4789  040F                     l3515:
  4790  040F  0839               	movf	___flmul@bexp^(0+128),w
  4791  0410  00AE               	movwf	??___flmul^(0+128)
  4792  0411  1003               	clrc
  4793  0412  0C2E               	rrf	??___flmul^(0+128),w
  4794  0413  00FF               	movwf	btemp+1
  4795  0414  087F               	movf	btemp+1,w
  4796  0415  00BD               	movwf	(___flmul@prod^(0+128)+3)
  4797  0416                     l1034:
  4798  0416  0833               	movf	___flmul@sign^(0+128),w
  4799  0417  00FF               	movwf	btemp+1
  4800  0418  087F               	movf	btemp+1,w
  4801  0419  04BD               	iorwf	(___flmul@prod^(0+128)+3),f
  4802  041A                     l3517:
  4803  041A  083D               	movf	(___flmul@prod+3)^(0+128),w
  4804  041B  00A9               	movwf	(?___flmul+3)^(0+128)
  4805  041C  083C               	movf	(___flmul@prod+2)^(0+128),w
  4806  041D  00A8               	movwf	(?___flmul+2)^(0+128)
  4807  041E  083B               	movf	(___flmul@prod+1)^(0+128),w
  4808  041F  00A7               	movwf	(?___flmul+1)^(0+128)
  4809  0420  083A               	movf	___flmul@prod^(0+128),w
  4810  0421  00A6               	movwf	?___flmul^(0+128)
  4811  0422                     l1022:
  4812  0422  0008               	return
  4813  0423                     __end_of___flmul:
  4814                           
  4815                           	psect	text16
  4816  09D9                     __ptext16:	
  4817 ;; *************** function __Umul8_16 *****************
  4818 ;; Defined at:
  4819 ;;		line 4 in file "C:\Program Files (x86)\Microchip\xc8\v2.20\pic\sources\c90\common\Umul8_16.c"
  4820 ;; Parameters:    Size  Location     Type
  4821 ;;  multiplier      1    wreg     unsigned char 
  4822 ;;  multiplicand    1   22[BANK0 ] unsigned char 
  4823 ;; Auto vars:     Size  Location     Type
  4824 ;;  multiplier      1   30[BANK0 ] unsigned char 
  4825 ;;  word_mpld       2   28[BANK0 ] unsigned int 
  4826 ;;  product         2   26[BANK0 ] unsigned int 
  4827 ;; Return value:  Size  Location     Type
  4828 ;;                  2   22[BANK0 ] unsigned int 
  4829 ;; Registers used:
  4830 ;;		wreg, status,2, status,0
  4831 ;; Tracked objects:
  4832 ;;		On entry : 0/0
  4833 ;;		On exit  : 0/0
  4834 ;;		Unchanged: 0/0
  4835 ;; Data sizes:     COMMON   BANK0   BANK1   BANK3   BANK2
  4836 ;;      Params:         0       2       0       0       0
  4837 ;;      Locals:         0       5       0       0       0
  4838 ;;      Temps:          0       2       0       0       0
  4839 ;;      Totals:         0       9       0       0       0
  4840 ;;Total ram usage:        9 bytes
  4841 ;; Hardware stack levels used:    1
  4842 ;; Hardware stack levels required when called:    4
  4843 ;; This function calls:
  4844 ;;		Nothing
  4845 ;; This function is called by:
  4846 ;;		___flmul
  4847 ;; This function uses a non-reentrant model
  4848 ;;
  4849                           
  4850                           
  4851                           ;psect for function __Umul8_16
  4852  09D9                     __Umul8_16:
  4853                           
  4854                           ;incstack = 0
  4855 ;; hardware stack exceeded
  4856                           ; Regs used in __Umul8_16: [wreg+status,2+status,0]
  4857                           ;__Umul8_16@multiplier stored from wreg
  4858  09D9  1283               	bcf	3,5	;RP0=0, select bank0
  4859  09DA  1303               	bcf	3,6	;RP1=0, select bank0
  4860  09DB  00BE               	movwf	__Umul8_16@multiplier
  4861  09DC                     l3193:
  4862  09DC  01BA               	clrf	__Umul8_16@product
  4863  09DD  01BB               	clrf	__Umul8_16@product+1
  4864  09DE                     l3195:
  4865  09DE  0836               	movf	__Umul8_16@multiplicand,w
  4866  09DF  00B8               	movwf	??__Umul8_16
  4867  09E0  01B9               	clrf	??__Umul8_16+1
  4868  09E1  0838               	movf	??__Umul8_16,w
  4869  09E2  00BC               	movwf	__Umul8_16@word_mpld
  4870  09E3  0839               	movf	??__Umul8_16+1,w
  4871  09E4  00BD               	movwf	__Umul8_16@word_mpld+1
  4872  09E5                     l3197:
  4873  09E5  1C3E               	btfss	__Umul8_16@multiplier,0
  4874  09E6  29E8               	goto	u3871
  4875  09E7  29E9               	goto	u3870
  4876  09E8                     u3871:
  4877  09E8  29EF               	goto	l1041
  4878  09E9                     u3870:
  4879  09E9                     l3199:
  4880  09E9  083C               	movf	__Umul8_16@word_mpld,w
  4881  09EA  07BA               	addwf	__Umul8_16@product,f
  4882  09EB  1803               	skipnc
  4883  09EC  0ABB               	incf	__Umul8_16@product+1,f
  4884  09ED  083D               	movf	__Umul8_16@word_mpld+1,w
  4885  09EE  07BB               	addwf	__Umul8_16@product+1,f
  4886  09EF                     l1041:
  4887  09EF  3001               	movlw	1
  4888  09F0                     u3885:
  4889  09F0  1003               	clrc
  4890  09F1  0DBC               	rlf	__Umul8_16@word_mpld,f
  4891  09F2  0DBD               	rlf	__Umul8_16@word_mpld+1,f
  4892  09F3  3EFF               	addlw	-1
  4893  09F4  1D03               	skipz
  4894  09F5  29F0               	goto	u3885
  4895  09F6  1003               	clrc
  4896  09F7  0CBE               	rrf	__Umul8_16@multiplier,f
  4897  09F8                     l3201:
  4898  09F8  083E               	movf	__Umul8_16@multiplier,w
  4899  09F9  1D03               	btfss	3,2
  4900  09FA  29FC               	goto	u3891
  4901  09FB  29FD               	goto	u3890
  4902  09FC                     u3891:
  4903  09FC  29E5               	goto	l3197
  4904  09FD                     u3890:
  4905  09FD                     l3203:
  4906  09FD  083B               	movf	__Umul8_16@product+1,w
  4907  09FE  00B7               	movwf	?__Umul8_16+1
  4908  09FF  083A               	movf	__Umul8_16@product,w
  4909  0A00  00B6               	movwf	?__Umul8_16
  4910  0A01                     l1043:
  4911  0A01  0008               	return
  4912  0A02                     __end_of__Umul8_16:
  4913                           
  4914                           	psect	text17
  4915  052E                     __ptext17:	
  4916 ;; *************** function _Average_Value *****************
  4917 ;; Defined at:
  4918 ;;		line 24 in file "Average/Average.c"
  4919 ;; Parameters:    Size  Location     Type
  4920 ;;  Value           1    wreg     unsigned char 
  4921 ;;  Avrage_Value    1   31[BANK0 ] PTR unsigned char 
  4922 ;;		 -> Temperature(6), 
  4923 ;; Auto vars:     Size  Location     Type
  4924 ;;  Value           1   32[BANK0 ] unsigned char 
  4925 ;;  index           1   33[BANK0 ] unsigned char 
  4926 ;; Return value:  Size  Location     Type
  4927 ;;                  1    wreg      void 
  4928 ;; Registers used:
  4929 ;;		wreg, fsr0l, fsr0h, status,2, status,0, btemp+1, pclath, cstack
  4930 ;; Tracked objects:
  4931 ;;		On entry : 0/0
  4932 ;;		On exit  : 0/0
  4933 ;;		Unchanged: 0/0
  4934 ;; Data sizes:     COMMON   BANK0   BANK1   BANK3   BANK2
  4935 ;;      Params:         0       1       0       0       0
  4936 ;;      Locals:         0       2       0       0       0
  4937 ;;      Temps:          0       0       5       0       0
  4938 ;;      Totals:         0       3       5       0       0
  4939 ;;Total ram usage:        8 bytes
  4940 ;; Hardware stack levels used:    1
  4941 ;; Hardware stack levels required when called:    5
  4942 ;; This function calls:
  4943 ;;		___lldiv
  4944 ;;		___lwmod
  4945 ;; This function is called by:
  4946 ;;		_Temperature_Calc
  4947 ;; This function uses a non-reentrant model
  4948 ;;
  4949                           
  4950                           
  4951                           ;psect for function _Average_Value
  4952  052E                     _Average_Value:
  4953                           
  4954                           ;incstack = 0
  4955 ;; hardware stack exceeded
  4956                           ; Regs used in _Average_Value: [wreg-fsr0h+status,2+status,0+btemp+1+pclath+cstack]
  4957                           ;Average_Value@Value stored from wreg
  4958  052E  1283               	bcf	3,5	;RP0=0, select bank0
  4959  052F  1303               	bcf	3,6	;RP1=0, select bank0
  4960  0530  00C0               	movwf	Average_Value@Value
  4961  0531                     l3207:
  4962                           
  4963                           ;Average/Average.c: 24: void Average_Value(uint8_t Value,uint8_t *Avrage_Values);Average
      +                          /Average.c: 25: {;Average/Average.c: 27:     Avrage_buffer=0;
  4964  0531  3000               	movlw	0
  4965  0532  1683               	bsf	3,5	;RP0=1, select bank1
  4966  0533  1303               	bcf	3,6	;RP1=0, select bank1
  4967  0534  00D2               	movwf	(_Avrage_buffer+3)^(0+128)
  4968  0535  3000               	movlw	0
  4969  0536  00D1               	movwf	(_Avrage_buffer+2)^(0+128)
  4970  0537  3000               	movlw	0
  4971  0538  00D0               	movwf	(_Avrage_buffer+1)^(0+128)
  4972  0539  3000               	movlw	0
  4973  053A  00CF               	movwf	_Avrage_buffer^(0+128)
  4974  053B                     l3209:
  4975                           
  4976                           ;Average/Average.c: 28:  temb_val[Average_Nvalues]=Value;
  4977  053B  1283               	bcf	3,5	;RP0=0, select bank0
  4978  053C  1303               	bcf	3,6	;RP1=0, select bank0
  4979  053D  0840               	movf	Average_Value@Value,w
  4980  053E  1683               	bsf	3,5	;RP0=1, select bank1
  4981  053F  1303               	bcf	3,6	;RP1=0, select bank1
  4982  0540  00A5               	movwf	??_Average_Value^(0+128)
  4983  0541  01A6               	clrf	(??_Average_Value^(0+128)+1)
  4984  0542  01A7               	clrf	(??_Average_Value^(0+128)+2)
  4985  0543  01A8               	clrf	(??_Average_Value^(0+128)+3)
  4986  0544  1283               	bcf	3,5	;RP0=0, select bank0
  4987  0545  1303               	bcf	3,6	;RP1=0, select bank0
  4988  0546  0858               	movf	_Average_Nvalues,w
  4989  0547  1683               	bsf	3,5	;RP0=1, select bank1
  4990  0548  1303               	bcf	3,6	;RP1=0, select bank1
  4991  0549  00A9               	movwf	(??_Average_Value+4)^(0+128)
  4992  054A  3001               	movlw	1
  4993  054B                     u3905:
  4994  054B  1003               	clrc
  4995  054C  0DA9               	rlf	(??_Average_Value+4)^(0+128),f
  4996  054D  3EFF               	addlw	-1
  4997  054E  1D03               	skipz
  4998  054F  2D4B               	goto	u3905
  4999  0550  1003               	clrc
  5000  0551  0D29               	rlf	(??_Average_Value+4)^(0+128),w
  5001  0552  3E90               	addlw	(low (_temb_val| (0+256)))& (0+255)
  5002  0553  0084               	movwf	4
  5003  0554  0825               	movf	??_Average_Value^(0+128),w
  5004  0555  1783               	bsf	3,7	;select IRP bank3
  5005  0556  0080               	movwf	0
  5006  0557  0A84               	incf	4,f
  5007  0558  0826               	movf	(??_Average_Value+1)^(0+128),w
  5008  0559  0080               	movwf	0
  5009  055A  0A84               	incf	4,f
  5010  055B  0827               	movf	(??_Average_Value+2)^(0+128),w
  5011  055C  0080               	movwf	0
  5012  055D  0A84               	incf	4,f
  5013  055E  0828               	movf	(??_Average_Value+3)^(0+128),w
  5014  055F  0080               	movwf	0
  5015  0560                     l3211:
  5016                           
  5017                           ;Average/Average.c: 30:  Average_Nvalues= (Average_Nvalues+1)%10U;
  5018  0560  300A               	movlw	10
  5019  0561  1283               	bcf	3,5	;RP0=0, select bank0
  5020  0562  1303               	bcf	3,6	;RP1=0, select bank0
  5021  0563  00B6               	movwf	___lwmod@divisor
  5022  0564  3000               	movlw	0
  5023  0565  00B7               	movwf	___lwmod@divisor+1
  5024  0566  0858               	movf	_Average_Nvalues,w
  5025  0567  3E01               	addlw	1
  5026  0568  00B8               	movwf	___lwmod@dividend
  5027  0569  3000               	movlw	0
  5028  056A  1803               	skipnc
  5029  056B  3001               	movlw	1
  5030  056C  00B9               	movwf	___lwmod@dividend+1
  5031  056D  120A  158A  23C5  120A  118A  	fcall	___lwmod
  5032  0572  1283               	bcf	3,5	;RP0=0, select bank0
  5033  0573  1303               	bcf	3,6	;RP1=0, select bank0
  5034  0574  0836               	movf	?___lwmod,w
  5035  0575  00FF               	movwf	btemp+1
  5036  0576  087F               	movf	btemp+1,w
  5037  0577  00D8               	movwf	_Average_Nvalues
  5038  0578                     l3213:
  5039                           
  5040                           ;Average/Average.c: 32:  for(uint8_t index=0;index<10U;index++)
  5041  0578  01C1               	clrf	Average_Value@index
  5042  0579                     l3219:
  5043                           
  5044                           ;Average/Average.c: 33:  {;Average/Average.c: 34:   Avrage_buffer+=temb_val[index];
  5045  0579  0841               	movf	Average_Value@index,w
  5046  057A  1683               	bsf	3,5	;RP0=1, select bank1
  5047  057B  1303               	bcf	3,6	;RP1=0, select bank1
  5048  057C  00A5               	movwf	??_Average_Value^(0+128)
  5049  057D  3001               	movlw	1
  5050  057E                     u3915:
  5051  057E  1003               	clrc
  5052  057F  0DA5               	rlf	??_Average_Value^(0+128),f
  5053  0580  3EFF               	addlw	-1
  5054  0581  1D03               	skipz
  5055  0582  2D7E               	goto	u3915
  5056  0583  1003               	clrc
  5057  0584  0D25               	rlf	??_Average_Value^(0+128),w
  5058  0585  3E90               	addlw	(low (_temb_val| (0+256)))& (0+255)
  5059  0586  0084               	movwf	4
  5060  0587  1783               	bsf	3,7	;select IRP bank3
  5061  0588  0800               	movf	0,w
  5062  0589  07CF               	addwf	_Avrage_buffer^(0+128),f
  5063  058A  0A84               	incf	4,f
  5064  058B  0800               	movf	0,w
  5065  058C  1803               	skipnc
  5066  058D  0F00               	incfsz	0,w
  5067  058E  2D90               	goto	u3921
  5068  058F  2D91               	goto	u3922
  5069  0590                     u3921:
  5070  0590  07D0               	addwf	(_Avrage_buffer+1)^(0+128),f
  5071  0591                     u3922:
  5072  0591  0A84               	incf	4,f
  5073  0592  0800               	movf	0,w
  5074  0593  1803               	skipnc
  5075  0594  0F00               	incfsz	0,w
  5076  0595  2D97               	goto	u3923
  5077  0596  2D98               	goto	u3924
  5078  0597                     u3923:
  5079  0597  07D1               	addwf	(_Avrage_buffer+2)^(0+128),f
  5080  0598                     u3924:
  5081  0598  0A84               	incf	4,f
  5082  0599  0800               	movf	0,w
  5083  059A  1803               	skipnc
  5084  059B  0F00               	incfsz	0,w
  5085  059C  2D9E               	goto	u3925
  5086  059D  2D9F               	goto	u3926
  5087  059E                     u3925:
  5088  059E  07D2               	addwf	(_Avrage_buffer+3)^(0+128),f
  5089  059F                     u3926:
  5090  059F                     l3221:
  5091                           
  5092                           ;Average/Average.c: 35:  }
  5093  059F  3001               	movlw	1
  5094  05A0  00FF               	movwf	btemp+1
  5095  05A1  087F               	movf	btemp+1,w
  5096  05A2  1283               	bcf	3,5	;RP0=0, select bank0
  5097  05A3  1303               	bcf	3,6	;RP1=0, select bank0
  5098  05A4  07C1               	addwf	Average_Value@index,f
  5099  05A5                     l3223:
  5100  05A5  300A               	movlw	10
  5101  05A6  0241               	subwf	Average_Value@index,w
  5102  05A7  1C03               	skipc
  5103  05A8  2DAA               	goto	u3931
  5104  05A9  2DAB               	goto	u3930
  5105  05AA                     u3931:
  5106  05AA  2D79               	goto	l3219
  5107  05AB                     u3930:
  5108  05AB                     l3225:
  5109                           
  5110                           ;Average/Average.c: 38:    *Avrage_Values=Avrage_buffer/10U;
  5111  05AB  3000               	movlw	0
  5112  05AC  00B9               	movwf	___lldiv@divisor+3
  5113  05AD  3000               	movlw	0
  5114  05AE  00B8               	movwf	___lldiv@divisor+2
  5115  05AF  3000               	movlw	0
  5116  05B0  00B7               	movwf	___lldiv@divisor+1
  5117  05B1  300A               	movlw	10
  5118  05B2  00B6               	movwf	___lldiv@divisor
  5119  05B3  1683               	bsf	3,5	;RP0=1, select bank1
  5120  05B4  1303               	bcf	3,6	;RP1=0, select bank1
  5121  05B5  0852               	movf	(_Avrage_buffer+3)^(0+128),w
  5122  05B6  1283               	bcf	3,5	;RP0=0, select bank0
  5123  05B7  1303               	bcf	3,6	;RP1=0, select bank0
  5124  05B8  00BD               	movwf	___lldiv@dividend+3
  5125  05B9  1683               	bsf	3,5	;RP0=1, select bank1
  5126  05BA  1303               	bcf	3,6	;RP1=0, select bank1
  5127  05BB  0851               	movf	(_Avrage_buffer+2)^(0+128),w
  5128  05BC  1283               	bcf	3,5	;RP0=0, select bank0
  5129  05BD  1303               	bcf	3,6	;RP1=0, select bank0
  5130  05BE  00BC               	movwf	___lldiv@dividend+2
  5131  05BF  1683               	bsf	3,5	;RP0=1, select bank1
  5132  05C0  1303               	bcf	3,6	;RP1=0, select bank1
  5133  05C1  0850               	movf	(_Avrage_buffer+1)^(0+128),w
  5134  05C2  1283               	bcf	3,5	;RP0=0, select bank0
  5135  05C3  1303               	bcf	3,6	;RP1=0, select bank0
  5136  05C4  00BB               	movwf	___lldiv@dividend+1
  5137  05C5  1683               	bsf	3,5	;RP0=1, select bank1
  5138  05C6  1303               	bcf	3,6	;RP1=0, select bank1
  5139  05C7  084F               	movf	_Avrage_buffer^(0+128),w
  5140  05C8  1283               	bcf	3,5	;RP0=0, select bank0
  5141  05C9  1303               	bcf	3,6	;RP1=0, select bank0
  5142  05CA  00BA               	movwf	___lldiv@dividend
  5143  05CB  120A  158A  2776  120A  118A  	fcall	___lldiv
  5144  05D0  1283               	bcf	3,5	;RP0=0, select bank0
  5145  05D1  1303               	bcf	3,6	;RP1=0, select bank0
  5146  05D2  0836               	movf	?___lldiv,w
  5147  05D3  00FF               	movwf	btemp+1
  5148  05D4  083F               	movf	Average_Value@Avrage_Values,w
  5149  05D5  0084               	movwf	4
  5150  05D6  087F               	movf	btemp+1,w
  5151  05D7  1383               	bcf	3,7	;select IRP bank0
  5152  05D8  0080               	movwf	0
  5153  05D9                     l79:
  5154  05D9  0008               	return
  5155  05DA                     __end_of_Average_Value:
  5156                           
  5157                           	psect	text18
  5158  0BC5                     __ptext18:	
  5159 ;; *************** function ___lwmod *****************
  5160 ;; Defined at:
  5161 ;;		line 5 in file "C:\Program Files (x86)\Microchip\xc8\v2.20\pic\sources\c90\common\lwmod.c"
  5162 ;; Parameters:    Size  Location     Type
  5163 ;;  divisor         2   22[BANK0 ] unsigned int 
  5164 ;;  dividend        2   24[BANK0 ] unsigned int 
  5165 ;; Auto vars:     Size  Location     Type
  5166 ;;  counter         1   26[BANK0 ] unsigned char 
  5167 ;; Return value:  Size  Location     Type
  5168 ;;                  2   22[BANK0 ] unsigned int 
  5169 ;; Registers used:
  5170 ;;		wreg, status,2, status,0, btemp+1
  5171 ;; Tracked objects:
  5172 ;;		On entry : 0/0
  5173 ;;		On exit  : 0/0
  5174 ;;		Unchanged: 0/0
  5175 ;; Data sizes:     COMMON   BANK0   BANK1   BANK3   BANK2
  5176 ;;      Params:         0       4       0       0       0
  5177 ;;      Locals:         0       1       0       0       0
  5178 ;;      Temps:          0       0       0       0       0
  5179 ;;      Totals:         0       5       0       0       0
  5180 ;;Total ram usage:        5 bytes
  5181 ;; Hardware stack levels used:    1
  5182 ;; Hardware stack levels required when called:    4
  5183 ;; This function calls:
  5184 ;;		Nothing
  5185 ;; This function is called by:
  5186 ;;		_Average_Value
  5187 ;;		_Temperature_Calc
  5188 ;; This function uses a non-reentrant model
  5189 ;;
  5190                           
  5191                           
  5192                           ;psect for function ___lwmod
  5193  0BC5                     ___lwmod:
  5194  0BC5                     l3171:	
  5195                           ;incstack = 0
  5196 ;; hardware stack exceeded
  5197                           ; Regs used in ___lwmod: [wreg+status,2+status,0+btemp+1]
  5198                           
  5199  0BC5  1283               	bcf	3,5	;RP0=0, select bank0
  5200  0BC6  1303               	bcf	3,6	;RP1=0, select bank0
  5201  0BC7  0836               	movf	___lwmod@divisor,w
  5202  0BC8  0437               	iorwf	___lwmod@divisor+1,w
  5203  0BC9  1903               	btfsc	3,2
  5204  0BCA  2BCC               	goto	u3811
  5205  0BCB  2BCD               	goto	u3810
  5206  0BCC                     u3811:
  5207  0BCC  2BFC               	goto	l3189
  5208  0BCD                     u3810:
  5209  0BCD                     l3173:
  5210  0BCD  01BA               	clrf	___lwmod@counter
  5211  0BCE  0ABA               	incf	___lwmod@counter,f
  5212  0BCF  2BDB               	goto	l3179
  5213  0BD0                     l3175:
  5214  0BD0  3001               	movlw	1
  5215  0BD1                     u3825:
  5216  0BD1  1003               	clrc
  5217  0BD2  0DB6               	rlf	___lwmod@divisor,f
  5218  0BD3  0DB7               	rlf	___lwmod@divisor+1,f
  5219  0BD4  3EFF               	addlw	-1
  5220  0BD5  1D03               	skipz
  5221  0BD6  2BD1               	goto	u3825
  5222  0BD7                     l3177:
  5223  0BD7  3001               	movlw	1
  5224  0BD8  00FF               	movwf	btemp+1
  5225  0BD9  087F               	movf	btemp+1,w
  5226  0BDA  07BA               	addwf	___lwmod@counter,f
  5227  0BDB                     l3179:
  5228  0BDB  1FB7               	btfss	___lwmod@divisor+1,7
  5229  0BDC  2BDE               	goto	u3831
  5230  0BDD  2BDF               	goto	u3830
  5231  0BDE                     u3831:
  5232  0BDE  2BD0               	goto	l3175
  5233  0BDF                     u3830:
  5234  0BDF                     l3181:
  5235  0BDF  0837               	movf	___lwmod@divisor+1,w
  5236  0BE0  0239               	subwf	___lwmod@dividend+1,w
  5237  0BE1  1D03               	skipz
  5238  0BE2  2BE5               	goto	u3845
  5239  0BE3  0836               	movf	___lwmod@divisor,w
  5240  0BE4  0238               	subwf	___lwmod@dividend,w
  5241  0BE5                     u3845:
  5242  0BE5  1C03               	skipc
  5243  0BE6  2BE8               	goto	u3841
  5244  0BE7  2BE9               	goto	u3840
  5245  0BE8                     u3841:
  5246  0BE8  2BEF               	goto	l3185
  5247  0BE9                     u3840:
  5248  0BE9                     l3183:
  5249  0BE9  0836               	movf	___lwmod@divisor,w
  5250  0BEA  02B8               	subwf	___lwmod@dividend,f
  5251  0BEB  0837               	movf	___lwmod@divisor+1,w
  5252  0BEC  1C03               	skipc
  5253  0BED  03B9               	decf	___lwmod@dividend+1,f
  5254  0BEE  02B9               	subwf	___lwmod@dividend+1,f
  5255  0BEF                     l3185:
  5256  0BEF  3001               	movlw	1
  5257  0BF0                     u3855:
  5258  0BF0  1003               	clrc
  5259  0BF1  0CB7               	rrf	___lwmod@divisor+1,f
  5260  0BF2  0CB6               	rrf	___lwmod@divisor,f
  5261  0BF3  3EFF               	addlw	-1
  5262  0BF4  1D03               	skipz
  5263  0BF5  2BF0               	goto	u3855
  5264  0BF6                     l3187:
  5265  0BF6  3001               	movlw	1
  5266  0BF7  02BA               	subwf	___lwmod@counter,f
  5267  0BF8  1D03               	btfss	3,2
  5268  0BF9  2BFB               	goto	u3861
  5269  0BFA  2BFC               	goto	u3860
  5270  0BFB                     u3861:
  5271  0BFB  2BDF               	goto	l3181
  5272  0BFC                     u3860:
  5273  0BFC                     l3189:
  5274  0BFC  0839               	movf	___lwmod@dividend+1,w
  5275  0BFD  00B7               	movwf	?___lwmod+1
  5276  0BFE  0838               	movf	___lwmod@dividend,w
  5277  0BFF  00B6               	movwf	?___lwmod
  5278  0C00                     l915:
  5279  0C00  0008               	return
  5280  0C01                     __end_of___lwmod:
  5281                           
  5282                           	psect	text19
  5283  0F76                     __ptext19:	
  5284 ;; *************** function ___lldiv *****************
  5285 ;; Defined at:
  5286 ;;		line 5 in file "C:\Program Files (x86)\Microchip\xc8\v2.20\pic\sources\c90\common\__lldiv.c"
  5287 ;; Parameters:    Size  Location     Type
  5288 ;;  divisor         4   22[BANK0 ] unsigned long 
  5289 ;;  dividend        4   26[BANK0 ] unsigned long 
  5290 ;; Auto vars:     Size  Location     Type
  5291 ;;  quotient        4    0[BANK1 ] unsigned long 
  5292 ;;  counter         1    4[BANK1 ] unsigned char 
  5293 ;; Return value:  Size  Location     Type
  5294 ;;                  4   22[BANK0 ] unsigned long 
  5295 ;; Registers used:
  5296 ;;		wreg, status,2, status,0, btemp+1
  5297 ;; Tracked objects:
  5298 ;;		On entry : 0/0
  5299 ;;		On exit  : 0/0
  5300 ;;		Unchanged: 0/0
  5301 ;; Data sizes:     COMMON   BANK0   BANK1   BANK3   BANK2
  5302 ;;      Params:         0       8       0       0       0
  5303 ;;      Locals:         0       0       5       0       0
  5304 ;;      Temps:          0       1       0       0       0
  5305 ;;      Totals:         0       9       5       0       0
  5306 ;;Total ram usage:       14 bytes
  5307 ;; Hardware stack levels used:    1
  5308 ;; Hardware stack levels required when called:    4
  5309 ;; This function calls:
  5310 ;;		Nothing
  5311 ;; This function is called by:
  5312 ;;		_Average_Value
  5313 ;; This function uses a non-reentrant model
  5314 ;;
  5315                           
  5316                           
  5317                           ;psect for function ___lldiv
  5318  0F76                     ___lldiv:
  5319  0F76                     l3145:	
  5320                           ;incstack = 0
  5321 ;; hardware stack exceeded
  5322                           ; Regs used in ___lldiv: [wreg+status,2+status,0+btemp+1]
  5323                           
  5324  0F76  3000               	movlw	0
  5325  0F77  1683               	bsf	3,5	;RP0=1, select bank1
  5326  0F78  1303               	bcf	3,6	;RP1=0, select bank1
  5327  0F79  00A3               	movwf	(___lldiv@quotient+3)^(0+128)
  5328  0F7A  3000               	movlw	0
  5329  0F7B  00A2               	movwf	(___lldiv@quotient+2)^(0+128)
  5330  0F7C  3000               	movlw	0
  5331  0F7D  00A1               	movwf	(___lldiv@quotient+1)^(0+128)
  5332  0F7E  3000               	movlw	0
  5333  0F7F  00A0               	movwf	___lldiv@quotient^(0+128)
  5334  0F80  1283               	bcf	3,5	;RP0=0, select bank0
  5335  0F81  1303               	bcf	3,6	;RP1=0, select bank0
  5336  0F82  0839               	movf	___lldiv@divisor+3,w
  5337  0F83  0438               	iorwf	___lldiv@divisor+2,w
  5338  0F84  0437               	iorwf	___lldiv@divisor+1,w
  5339  0F85  0436               	iorwf	___lldiv@divisor,w
  5340  0F86  1903               	skipnz
  5341  0F87  2F89               	goto	u3741
  5342  0F88  2F8A               	goto	u3740
  5343  0F89                     u3741:
  5344  0F89  2FE7               	goto	l3167
  5345  0F8A                     u3740:
  5346  0F8A                     l3147:
  5347  0F8A  1683               	bsf	3,5	;RP0=1, select bank1
  5348  0F8B  1303               	bcf	3,6	;RP1=0, select bank1
  5349  0F8C  01A4               	clrf	___lldiv@counter^(0+128)
  5350  0F8D  0AA4               	incf	___lldiv@counter^(0+128),f
  5351  0F8E  2F9E               	goto	l3153
  5352  0F8F                     l3149:
  5353  0F8F  3001               	movlw	1
  5354  0F90  00BE               	movwf	??___lldiv
  5355  0F91                     u3755:
  5356  0F91  1003               	clrc
  5357  0F92  0DB6               	rlf	___lldiv@divisor,f
  5358  0F93  0DB7               	rlf	___lldiv@divisor+1,f
  5359  0F94  0DB8               	rlf	___lldiv@divisor+2,f
  5360  0F95  0DB9               	rlf	___lldiv@divisor+3,f
  5361  0F96  0BBE               	decfsz	??___lldiv,f
  5362  0F97  2F91               	goto	u3755
  5363  0F98                     l3151:
  5364  0F98  3001               	movlw	1
  5365  0F99  00FF               	movwf	btemp+1
  5366  0F9A  087F               	movf	btemp+1,w
  5367  0F9B  1683               	bsf	3,5	;RP0=1, select bank1
  5368  0F9C  1303               	bcf	3,6	;RP1=0, select bank1
  5369  0F9D  07A4               	addwf	___lldiv@counter^(0+128),f
  5370  0F9E                     l3153:
  5371  0F9E  1283               	bcf	3,5	;RP0=0, select bank0
  5372  0F9F  1303               	bcf	3,6	;RP1=0, select bank0
  5373  0FA0  1FB9               	btfss	___lldiv@divisor+3,7
  5374  0FA1  2FA3               	goto	u3761
  5375  0FA2  2FA4               	goto	u3760
  5376  0FA3                     u3761:
  5377  0FA3  2F8F               	goto	l3149
  5378  0FA4                     u3760:
  5379  0FA4                     l3155:
  5380  0FA4  3001               	movlw	1
  5381  0FA5  1283               	bcf	3,5	;RP0=0, select bank0
  5382  0FA6  00BE               	movwf	??___lldiv
  5383  0FA7                     u3775:
  5384  0FA7  1003               	clrc
  5385  0FA8  1683               	bsf	3,5	;RP0=1, select bank1
  5386  0FA9  1303               	bcf	3,6	;RP1=0, select bank1
  5387  0FAA  0DA0               	rlf	___lldiv@quotient^(0+128),f
  5388  0FAB  0DA1               	rlf	(___lldiv@quotient+1)^(0+128),f
  5389  0FAC  0DA2               	rlf	(___lldiv@quotient+2)^(0+128),f
  5390  0FAD  0DA3               	rlf	(___lldiv@quotient+3)^(0+128),f
  5391  0FAE  1283               	bcf	3,5	;RP0=0, select bank0
  5392  0FAF  1303               	bcf	3,6	;RP1=0, select bank0
  5393  0FB0  0BBE               	decfsz	??___lldiv,f
  5394  0FB1  2FA7               	goto	u3775
  5395  0FB2                     l3157:
  5396  0FB2  0839               	movf	___lldiv@divisor+3,w
  5397  0FB3  023D               	subwf	___lldiv@dividend+3,w
  5398  0FB4  1D03               	skipz
  5399  0FB5  2FC0               	goto	u3785
  5400  0FB6  0838               	movf	___lldiv@divisor+2,w
  5401  0FB7  023C               	subwf	___lldiv@dividend+2,w
  5402  0FB8  1D03               	skipz
  5403  0FB9  2FC0               	goto	u3785
  5404  0FBA  0837               	movf	___lldiv@divisor+1,w
  5405  0FBB  023B               	subwf	___lldiv@dividend+1,w
  5406  0FBC  1D03               	skipz
  5407  0FBD  2FC0               	goto	u3785
  5408  0FBE  0836               	movf	___lldiv@divisor,w
  5409  0FBF  023A               	subwf	___lldiv@dividend,w
  5410  0FC0                     u3785:
  5411  0FC0  1C03               	skipc
  5412  0FC1  2FC3               	goto	u3781
  5413  0FC2  2FC4               	goto	u3780
  5414  0FC3                     u3781:
  5415  0FC3  2FD5               	goto	l3163
  5416  0FC4                     u3780:
  5417  0FC4                     l3159:
  5418  0FC4  0836               	movf	___lldiv@divisor,w
  5419  0FC5  02BA               	subwf	___lldiv@dividend,f
  5420  0FC6  0837               	movf	___lldiv@divisor+1,w
  5421  0FC7  1C03               	skipc
  5422  0FC8  0F37               	incfsz	___lldiv@divisor+1,w
  5423  0FC9  02BB               	subwf	___lldiv@dividend+1,f
  5424  0FCA  0838               	movf	___lldiv@divisor+2,w
  5425  0FCB  1C03               	skipc
  5426  0FCC  0F38               	incfsz	___lldiv@divisor+2,w
  5427  0FCD  02BC               	subwf	___lldiv@dividend+2,f
  5428  0FCE  0839               	movf	___lldiv@divisor+3,w
  5429  0FCF  1C03               	skipc
  5430  0FD0  0F39               	incfsz	___lldiv@divisor+3,w
  5431  0FD1  02BD               	subwf	___lldiv@dividend+3,f
  5432  0FD2                     l3161:
  5433  0FD2  1683               	bsf	3,5	;RP0=1, select bank1
  5434  0FD3  1303               	bcf	3,6	;RP1=0, select bank1
  5435  0FD4  1420               	bsf	___lldiv@quotient^(0+128),0
  5436  0FD5                     l3163:
  5437  0FD5  3001               	movlw	1
  5438  0FD6                     u3795:
  5439  0FD6  1003               	clrc
  5440  0FD7  1283               	bcf	3,5	;RP0=0, select bank0
  5441  0FD8  0CB9               	rrf	___lldiv@divisor+3,f
  5442  0FD9  0CB8               	rrf	___lldiv@divisor+2,f
  5443  0FDA  0CB7               	rrf	___lldiv@divisor+1,f
  5444  0FDB  0CB6               	rrf	___lldiv@divisor,f
  5445  0FDC  3EFF               	addlw	-1
  5446  0FDD  1D03               	skipz
  5447  0FDE  2FD6               	goto	u3795
  5448  0FDF                     l3165:
  5449  0FDF  3001               	movlw	1
  5450  0FE0  1683               	bsf	3,5	;RP0=1, select bank1
  5451  0FE1  1303               	bcf	3,6	;RP1=0, select bank1
  5452  0FE2  02A4               	subwf	___lldiv@counter^(0+128),f
  5453  0FE3  1D03               	btfss	3,2
  5454  0FE4  2FE6               	goto	u3801
  5455  0FE5  2FE7               	goto	u3800
  5456  0FE6                     u3801:
  5457  0FE6  2FA4               	goto	l3155
  5458  0FE7                     u3800:
  5459  0FE7                     l3167:
  5460  0FE7  1683               	bsf	3,5	;RP0=1, select bank1
  5461  0FE8  1303               	bcf	3,6	;RP1=0, select bank1
  5462  0FE9  0823               	movf	(___lldiv@quotient+3)^(0+128),w
  5463  0FEA  1283               	bcf	3,5	;RP0=0, select bank0
  5464  0FEB  1303               	bcf	3,6	;RP1=0, select bank0
  5465  0FEC  00B9               	movwf	?___lldiv+3
  5466  0FED  1683               	bsf	3,5	;RP0=1, select bank1
  5467  0FEE  1303               	bcf	3,6	;RP1=0, select bank1
  5468  0FEF  0822               	movf	(___lldiv@quotient+2)^(0+128),w
  5469  0FF0  1283               	bcf	3,5	;RP0=0, select bank0
  5470  0FF1  1303               	bcf	3,6	;RP1=0, select bank0
  5471  0FF2  00B8               	movwf	?___lldiv+2
  5472  0FF3  1683               	bsf	3,5	;RP0=1, select bank1
  5473  0FF4  1303               	bcf	3,6	;RP1=0, select bank1
  5474  0FF5  0821               	movf	(___lldiv@quotient+1)^(0+128),w
  5475  0FF6  1283               	bcf	3,5	;RP0=0, select bank0
  5476  0FF7  1303               	bcf	3,6	;RP1=0, select bank0
  5477  0FF8  00B7               	movwf	?___lldiv+1
  5478  0FF9  1683               	bsf	3,5	;RP0=1, select bank1
  5479  0FFA  1303               	bcf	3,6	;RP1=0, select bank1
  5480  0FFB  0820               	movf	___lldiv@quotient^(0+128),w
  5481  0FFC  1283               	bcf	3,5	;RP0=0, select bank0
  5482  0FFD  1303               	bcf	3,6	;RP1=0, select bank0
  5483  0FFE  00B6               	movwf	?___lldiv
  5484  0FFF                     l669:
  5485  0FFF  0008               	return
  5486  1000                     __end_of___lldiv:
  5487                           
  5488                           	psect	text20
  5489  08D9                     __ptext20:	
  5490 ;; *************** function _ADC_Get_Value *****************
  5491 ;; Defined at:
  5492 ;;		line 78 in file "ADC/ADC.c"
  5493 ;; Parameters:    Size  Location     Type
  5494 ;;  Buffer          1    wreg     PTR unsigned char 
  5495 ;;		 -> Temperature(6), 
  5496 ;; Auto vars:     Size  Location     Type
  5497 ;;  Buffer          1   22[BANK0 ] PTR unsigned char 
  5498 ;;		 -> Temperature(6), 
  5499 ;; Return value:  Size  Location     Type
  5500 ;;                  1    wreg      void 
  5501 ;; Registers used:
  5502 ;;		wreg, fsr0l, fsr0h, btemp+1
  5503 ;; Tracked objects:
  5504 ;;		On entry : 0/0
  5505 ;;		On exit  : 0/0
  5506 ;;		Unchanged: 0/0
  5507 ;; Data sizes:     COMMON   BANK0   BANK1   BANK3   BANK2
  5508 ;;      Params:         0       0       0       0       0
  5509 ;;      Locals:         0       1       0       0       0
  5510 ;;      Temps:          0       0       0       0       0
  5511 ;;      Totals:         0       1       0       0       0
  5512 ;;Total ram usage:        1 bytes
  5513 ;; Hardware stack levels used:    1
  5514 ;; Hardware stack levels required when called:    4
  5515 ;; This function calls:
  5516 ;;		Nothing
  5517 ;; This function is called by:
  5518 ;;		_Temperature_MainFunction
  5519 ;; This function uses a non-reentrant model
  5520 ;;
  5521                           
  5522                           
  5523                           ;psect for function _ADC_Get_Value
  5524  08D9                     _ADC_Get_Value:
  5525                           
  5526                           ;incstack = 0
  5527                           ; Regs used in _ADC_Get_Value: [wreg-fsr0h+btemp+1]
  5528                           ;ADC_Get_Value@Buffer stored from wreg
  5529  08D9  1283               	bcf	3,5	;RP0=0, select bank0
  5530  08DA  1303               	bcf	3,6	;RP1=0, select bank0
  5531  08DB  00B6               	movwf	ADC_Get_Value@Buffer
  5532  08DC                     l3569:
  5533                           
  5534                           ;ADC/ADC.c: 78: void ADC_Get_Value(uint8_t *Buffer);ADC/ADC.c: 79: {;ADC/ADC.c: 80:  if(
      +                          ADC_Info.ADC_START_FLAG==1&&ADCON0bits.GO_DONE==0)
  5535  08DC  1CCD               	btfss	_ADC_Info,1
  5536  08DD  28DF               	goto	u4811
  5537  08DE  28E0               	goto	u4810
  5538  08DF                     u4811:
  5539  08DF  28F0               	goto	l21
  5540  08E0                     u4810:
  5541  08E0                     l3571:
  5542  08E0  191F               	btfsc	31,2	;volatile
  5543  08E1  28E3               	goto	u4821
  5544  08E2  28E4               	goto	u4820
  5545  08E3                     u4821:
  5546  08E3  28F0               	goto	l21
  5547  08E4                     u4820:
  5548  08E4                     l3573:
  5549                           
  5550                           ;ADC/ADC.c: 81:  {;ADC/ADC.c: 82:         *Buffer=(ADRESH<<8)|(ADRESL);
  5551  08E4  1683               	bsf	3,5	;RP0=1, select bank1
  5552  08E5  1303               	bcf	3,6	;RP1=0, select bank1
  5553  08E6  081E               	movf	30,w	;volatile
  5554  08E7  00FF               	movwf	btemp+1
  5555  08E8  1283               	bcf	3,5	;RP0=0, select bank0
  5556  08E9  1303               	bcf	3,6	;RP1=0, select bank0
  5557  08EA  0836               	movf	ADC_Get_Value@Buffer,w
  5558  08EB  0084               	movwf	4
  5559  08EC  087F               	movf	btemp+1,w
  5560  08ED  1383               	bcf	3,7	;select IRP bank0
  5561  08EE  0080               	movwf	0
  5562  08EF                     l3575:
  5563                           
  5564                           ;ADC/ADC.c: 83:      ADCON0bits.GO_DONE=1;
  5565  08EF  151F               	bsf	31,2	;volatile
  5566  08F0                     l21:
  5567  08F0  0008               	return
  5568  08F1                     __end_of_ADC_Get_Value:
  5569                           
  5570                           	psect	text21
  5571  0E3F                     __ptext21:	
  5572 ;; *************** function _Elements_MainFunction *****************
  5573 ;; Defined at:
  5574 ;;		line 94 in file "Elements/Elements.c"
  5575 ;; Parameters:    Size  Location     Type
  5576 ;;		None
  5577 ;; Auto vars:     Size  Location     Type
  5578 ;;		None
  5579 ;; Return value:  Size  Location     Type
  5580 ;;                  1    wreg      void 
  5581 ;; Registers used:
  5582 ;;		wreg, fsr0l, fsr0h, status,2, status,0, btemp+1, pclath, cstack
  5583 ;; Tracked objects:
  5584 ;;		On entry : 0/0
  5585 ;;		On exit  : 0/0
  5586 ;;		Unchanged: 0/0
  5587 ;; Data sizes:     COMMON   BANK0   BANK1   BANK3   BANK2
  5588 ;;      Params:         0       0       0       0       0
  5589 ;;      Locals:         0       0       0       0       0
  5590 ;;      Temps:          0       0       4       0       0
  5591 ;;      Totals:         0       0       4       0       0
  5592 ;;Total ram usage:        4 bytes
  5593 ;; Hardware stack levels used:    1
  5594 ;; Hardware stack levels required when called:    7
  5595 ;; This function calls:
  5596 ;;		_LED_Control
  5597 ;; This function is called by:
  5598 ;;		_Scheduler_Task2
  5599 ;; This function uses a non-reentrant model
  5600 ;;
  5601                           
  5602                           
  5603                           ;psect for function _Elements_MainFunction
  5604  0E3F                     _Elements_MainFunction:
  5605  0E3F                     l3703:	
  5606                           ;incstack = 0
  5607 ;; hardware stack exceeded
  5608                           ; Regs used in _Elements_MainFunction: [wreg-fsr0h+status,2+status,0+btemp+1+pclath+csta
      +                          ck]
  5609                           
  5610                           
  5611                           ;Elements/Elements.c: 96:   if(Temperature.Average_Value_Ready_Flag==1 && Mode.Select_Mo
      +                          de==Normal_Mode)
  5612  0E3F  1283               	bcf	3,5	;RP0=0, select bank0
  5613  0E40  1303               	bcf	3,6	;RP1=0, select bank0
  5614  0E41  1C52               	btfss	_Temperature+4,0
  5615  0E42  2E44               	goto	u5071
  5616  0E43  2E45               	goto	u5070
  5617  0E44                     u5071:
  5618  0E44  2E96               	goto	l3723
  5619  0E45                     u5070:
  5620  0E45                     l3705:
  5621  0E45  0354               	decf	_Mode,w
  5622  0E46  1D03               	btfss	3,2
  5623  0E47  2E49               	goto	u5081
  5624  0E48  2E4A               	goto	u5080
  5625  0E49                     u5081:
  5626  0E49  2E96               	goto	l3723
  5627  0E4A                     u5080:
  5628  0E4A                     l3707:
  5629                           
  5630                           ;Elements/Elements.c: 97:   {;Elements/Elements.c: 99:         if(Temperature.Average_Va
      +                          lue < (Temperature.Set_Temp - (5U)))
  5631  0E4A  0851               	movf	_Temperature+3,w
  5632  0E4B  3EFB               	addlw	251
  5633  0E4C  1683               	bsf	3,5	;RP0=1, select bank1
  5634  0E4D  1303               	bcf	3,6	;RP1=0, select bank1
  5635  0E4E  00A0               	movwf	??_Elements_MainFunction^(0+128)
  5636  0E4F  30FF               	movlw	255
  5637  0E50  1803               	skipnc
  5638  0E51  3000               	movlw	0
  5639  0E52  00A1               	movwf	(??_Elements_MainFunction^(0+128)+1)
  5640  0E53  1283               	bcf	3,5	;RP0=0, select bank0
  5641  0E54  1303               	bcf	3,6	;RP1=0, select bank0
  5642  0E55  084F               	movf	_Temperature+1,w
  5643  0E56  1683               	bsf	3,5	;RP0=1, select bank1
  5644  0E57  1303               	bcf	3,6	;RP1=0, select bank1
  5645  0E58  00A2               	movwf	(??_Elements_MainFunction+2)^(0+128)
  5646  0E59  01A3               	clrf	((??_Elements_MainFunction+2)^(0+128)+1)
  5647  0E5A  0821               	movf	(??_Elements_MainFunction+1)^(0+128),w
  5648  0E5B  0223               	subwf	(??_Elements_MainFunction+3)^(0+128),w
  5649  0E5C  1D03               	skipz
  5650  0E5D  2E60               	goto	u5095
  5651  0E5E  0820               	movf	??_Elements_MainFunction^(0+128),w
  5652  0E5F  0222               	subwf	(??_Elements_MainFunction+2)^(0+128),w
  5653  0E60                     u5095:
  5654  0E60  1803               	skipnc
  5655  0E61  2E63               	goto	u5091
  5656  0E62  2E64               	goto	u5090
  5657  0E63                     u5091:
  5658  0E63  2E70               	goto	l3715
  5659  0E64                     u5090:
  5660  0E64                     l3709:
  5661                           
  5662                           ;Elements/Elements.c: 100:          {;Elements/Elements.c: 101:          (PORTC &= ~(1<<
      +                          2));
  5663  0E64  30FB               	movlw	251
  5664  0E65  00FF               	movwf	btemp+1
  5665  0E66  087F               	movf	btemp+1,w
  5666  0E67  1283               	bcf	3,5	;RP0=0, select bank0
  5667  0E68  1303               	bcf	3,6	;RP1=0, select bank0
  5668  0E69  0587               	andwf	7,f	;volatile
  5669  0E6A                     l3711:
  5670                           
  5671                           ;Elements/Elements.c: 102:          (PORTC|= (1<<5));
  5672  0E6A  1687               	bsf	7,5	;volatile
  5673  0E6B                     l3713:
  5674                           
  5675                           ;Elements/Elements.c: 103:             LED_Status=_LED_BLINK;
  5676  0E6B  3002               	movlw	2
  5677  0E6C  00FF               	movwf	btemp+1
  5678  0E6D  087F               	movf	btemp+1,w
  5679  0E6E  00CB               	movwf	_LED_Status
  5680                           
  5681                           ;Elements/Elements.c: 105:          }else if(Temperature.Average_Value > (Temperature.Se
      +                          t_Temp + (5U)))
  5682  0E6F  2E9F               	goto	l3727
  5683  0E70                     l3715:
  5684  0E70  1283               	bcf	3,5	;RP0=0, select bank0
  5685  0E71  1303               	bcf	3,6	;RP1=0, select bank0
  5686  0E72  084F               	movf	_Temperature+1,w
  5687  0E73  1683               	bsf	3,5	;RP0=1, select bank1
  5688  0E74  1303               	bcf	3,6	;RP1=0, select bank1
  5689  0E75  00A0               	movwf	??_Elements_MainFunction^(0+128)
  5690  0E76  01A1               	clrf	(??_Elements_MainFunction^(0+128)+1)
  5691  0E77  1283               	bcf	3,5	;RP0=0, select bank0
  5692  0E78  1303               	bcf	3,6	;RP1=0, select bank0
  5693  0E79  0851               	movf	_Temperature+3,w
  5694  0E7A  3E05               	addlw	5
  5695  0E7B  1683               	bsf	3,5	;RP0=1, select bank1
  5696  0E7C  1303               	bcf	3,6	;RP1=0, select bank1
  5697  0E7D  00A2               	movwf	(??_Elements_MainFunction+2)^(0+128)
  5698  0E7E  3000               	movlw	0
  5699  0E7F  1803               	skipnc
  5700  0E80  3001               	movlw	1
  5701  0E81  00A3               	movwf	((??_Elements_MainFunction+2)^(0+128)+1)
  5702  0E82  0821               	movf	(??_Elements_MainFunction+1)^(0+128),w
  5703  0E83  0223               	subwf	(??_Elements_MainFunction+3)^(0+128),w
  5704  0E84  1D03               	skipz
  5705  0E85  2E88               	goto	u5105
  5706  0E86  0820               	movf	??_Elements_MainFunction^(0+128),w
  5707  0E87  0222               	subwf	(??_Elements_MainFunction+2)^(0+128),w
  5708  0E88                     u5105:
  5709  0E88  1803               	skipnc
  5710  0E89  2E8B               	goto	u5101
  5711  0E8A  2E8C               	goto	u5100
  5712  0E8B                     u5101:
  5713  0E8B  2E9F               	goto	l3727
  5714  0E8C                     u5100:
  5715  0E8C                     l3717:
  5716                           
  5717                           ;Elements/Elements.c: 106:          {;Elements/Elements.c: 107:           (PORTC &= ~(1<
      +                          <5));
  5718  0E8C  30DF               	movlw	223
  5719  0E8D  00FF               	movwf	btemp+1
  5720  0E8E  087F               	movf	btemp+1,w
  5721  0E8F  1283               	bcf	3,5	;RP0=0, select bank0
  5722  0E90  1303               	bcf	3,6	;RP1=0, select bank0
  5723  0E91  0587               	andwf	7,f	;volatile
  5724  0E92                     l3719:
  5725                           
  5726                           ;Elements/Elements.c: 108:           (PORTC|= (1<<2));
  5727  0E92  1507               	bsf	7,2	;volatile
  5728  0E93                     l3721:
  5729                           
  5730                           ;Elements/Elements.c: 109:              LED_Status=_LED_ON;
  5731  0E93  01CB               	clrf	_LED_Status
  5732  0E94  0ACB               	incf	_LED_Status,f
  5733  0E95  2E9F               	goto	l3727
  5734  0E96                     l3723:
  5735                           
  5736                           ;Elements/Elements.c: 114:   {;Elements/Elements.c: 115:    (PORTC &= ~(1<<2));
  5737  0E96  30FB               	movlw	251
  5738  0E97  00FF               	movwf	btemp+1
  5739  0E98  087F               	movf	btemp+1,w
  5740  0E99  0587               	andwf	7,f	;volatile
  5741                           
  5742                           ;Elements/Elements.c: 116:    (PORTC &= ~(1<<5));
  5743  0E9A  30DF               	movlw	223
  5744  0E9B  00FF               	movwf	btemp+1
  5745  0E9C  087F               	movf	btemp+1,w
  5746  0E9D  0587               	andwf	7,f	;volatile
  5747  0E9E                     l3725:
  5748                           
  5749                           ;Elements/Elements.c: 117:       LED_Status=_LED_OFF;
  5750  0E9E  01CB               	clrf	_LED_Status
  5751  0E9F                     l3727:
  5752                           
  5753                           ;Elements/Elements.c: 119:   LED_Control();
  5754  0E9F  120A  158A  21B1  120A  158A  	fcall	_LED_Control
  5755  0EA4                     l157:
  5756  0EA4  0008               	return
  5757  0EA5                     __end_of_Elements_MainFunction:
  5758                           
  5759                           	psect	text22
  5760  09B1                     __ptext22:	
  5761 ;; *************** function _LED_Control *****************
  5762 ;; Defined at:
  5763 ;;		line 67 in file "Elements/Elements.c"
  5764 ;; Parameters:    Size  Location     Type
  5765 ;;		None
  5766 ;; Auto vars:     Size  Location     Type
  5767 ;;		None
  5768 ;; Return value:  Size  Location     Type
  5769 ;;                  1    wreg      void 
  5770 ;; Registers used:
  5771 ;;		wreg, fsr0l, fsr0h, status,2, status,0, btemp+1, pclath, cstack
  5772 ;; Tracked objects:
  5773 ;;		On entry : 0/0
  5774 ;;		On exit  : 0/0
  5775 ;;		Unchanged: 0/0
  5776 ;; Data sizes:     COMMON   BANK0   BANK1   BANK3   BANK2
  5777 ;;      Params:         0       0       0       0       0
  5778 ;;      Locals:         0       0       0       0       0
  5779 ;;      Temps:          0       2       0       0       0
  5780 ;;      Totals:         0       2       0       0       0
  5781 ;;Total ram usage:        2 bytes
  5782 ;; Hardware stack levels used:    1
  5783 ;; Hardware stack levels required when called:    6
  5784 ;; This function calls:
  5785 ;;		_LED_BLINKING
  5786 ;; This function is called by:
  5787 ;;		_Elements_MainFunction
  5788 ;; This function uses a non-reentrant model
  5789 ;;
  5790                           
  5791                           
  5792                           ;psect for function _LED_Control
  5793  09B1                     _LED_Control:
  5794  09B1                     l3577:	
  5795                           ;incstack = 0
  5796 ;; hardware stack exceeded
  5797                           ; Regs used in _LED_Control: [wreg-fsr0h+status,2+status,0+btemp+1+pclath+cstack]
  5798                           
  5799                           
  5800                           ;Elements/Elements.c: 69:     switch(LED_Status)
  5801  09B1  29C3               	goto	l3585
  5802  09B2                     l3579:
  5803  09B2  30E8               	movlw	232
  5804  09B3  00BC               	movwf	LED_BLINKING@Time_Ms
  5805  09B4  3003               	movlw	3
  5806  09B5  00BD               	movwf	LED_BLINKING@Time_Ms+1
  5807  09B6  120A  158A  2202  120A  158A  	fcall	_LED_BLINKING
  5808                           
  5809                           ;Elements/Elements.c: 72:                           break;
  5810  09BB  29D8               	goto	l149
  5811  09BC                     l147:	
  5812                           ;Elements/Elements.c: 74:         case _LED_ON : (PORTB|= (1<<4));;
  5813                           
  5814  09BC  1606               	bsf	6,4	;volatile
  5815                           
  5816                           ;Elements/Elements.c: 75:                           break;
  5817  09BD  29D8               	goto	l149
  5818  09BE                     l3581:
  5819  09BE  30EF               	movlw	239
  5820  09BF  00FF               	movwf	btemp+1
  5821  09C0  087F               	movf	btemp+1,w
  5822  09C1  0586               	andwf	6,f	;volatile
  5823                           
  5824                           ;Elements/Elements.c: 78:                           break;
  5825  09C2  29D8               	goto	l149
  5826  09C3                     l3585:
  5827  09C3  1283               	bcf	3,5	;RP0=0, select bank0
  5828  09C4  1303               	bcf	3,6	;RP1=0, select bank0
  5829  09C5  084B               	movf	_LED_Status,w
  5830  09C6  00C0               	movwf	??_LED_Control
  5831  09C7  01C1               	clrf	??_LED_Control+1
  5832                           
  5833                           ; Switch on 2 bytes has been partitioned into a top level switch of size 1, and 1 sub-sw
      +                          itches
  5834                           ; Switch size 1, requested type "simple"
  5835                           ; Number of cases is 1, Range of values is 0 to 0
  5836                           ; switch strategies available:
  5837                           ; Name         Instructions Cycles
  5838                           ; simple_byte            4     3 (average)
  5839                           ; direct_byte           11     8 (fixed)
  5840                           ; jumptable            260     6 (fixed)
  5841                           ;	Chosen strategy is simple_byte
  5842  09C8  0841               	movf	??_LED_Control+1,w
  5843  09C9  3A00               	xorlw	0	; case 0
  5844  09CA  1903               	skipnz
  5845  09CB  29CD               	goto	l3979
  5846  09CC  29D8               	goto	l149
  5847  09CD                     l3979:
  5848                           
  5849                           ; Switch size 1, requested type "simple"
  5850                           ; Number of cases is 3, Range of values is 0 to 2
  5851                           ; switch strategies available:
  5852                           ; Name         Instructions Cycles
  5853                           ; simple_byte           10     6 (average)
  5854                           ; direct_byte           17     8 (fixed)
  5855                           ; jumptable            260     6 (fixed)
  5856                           ;	Chosen strategy is simple_byte
  5857  09CD  0840               	movf	??_LED_Control,w
  5858  09CE  3A00               	xorlw	0	; case 0
  5859  09CF  1903               	skipnz
  5860  09D0  29BE               	goto	l3581
  5861  09D1  3A01               	xorlw	1	; case 1
  5862  09D2  1903               	skipnz
  5863  09D3  29BC               	goto	l147
  5864  09D4  3A03               	xorlw	3	; case 2
  5865  09D5  1903               	skipnz
  5866  09D6  29B2               	goto	l3579
  5867  09D7  29D8               	goto	l149
  5868  09D8                     l149:
  5869  09D8  0008               	return
  5870  09D9                     __end_of_LED_Control:
  5871                           
  5872                           	psect	text23
  5873  0A02                     __ptext23:	
  5874 ;; *************** function _LED_BLINKING *****************
  5875 ;; Defined at:
  5876 ;;		line 42 in file "Elements/Elements.c"
  5877 ;; Parameters:    Size  Location     Type
  5878 ;;  Time_Ms         2   28[BANK0 ] unsigned int 
  5879 ;; Auto vars:     Size  Location     Type
  5880 ;;		None
  5881 ;; Return value:  Size  Location     Type
  5882 ;;                  1    wreg      void 
  5883 ;; Registers used:
  5884 ;;		wreg, status,2, status,0, btemp+1, pclath, cstack
  5885 ;; Tracked objects:
  5886 ;;		On entry : 0/0
  5887 ;;		On exit  : 0/0
  5888 ;;		Unchanged: 0/0
  5889 ;; Data sizes:     COMMON   BANK0   BANK1   BANK3   BANK2
  5890 ;;      Params:         0       2       0       0       0
  5891 ;;      Locals:         0       0       0       0       0
  5892 ;;      Temps:          0       2       0       0       0
  5893 ;;      Totals:         0       4       0       0       0
  5894 ;;Total ram usage:        4 bytes
  5895 ;; Hardware stack levels used:    1
  5896 ;; Hardware stack levels required when called:    5
  5897 ;; This function calls:
  5898 ;;		___wmul
  5899 ;; This function is called by:
  5900 ;;		_LED_Control
  5901 ;; This function uses a non-reentrant model
  5902 ;;
  5903                           
  5904                           
  5905                           ;psect for function _LED_BLINKING
  5906  0A02                     _LED_BLINKING:
  5907  0A02                     l3227:	
  5908                           ;incstack = 0
  5909 ;; hardware stack exceeded
  5910                           ; Regs used in _LED_BLINKING: [wreg+status,2+status,0+btemp+1+pclath+cstack]
  5911                           
  5912                           
  5913                           ;Elements/Elements.c: 42: void LED_BLINKING(uint16_t Time_Ms);Elements/Elements.c: 43: {
      +                          ;Elements/Elements.c: 44:  static uint8_t Counter=1;;Elements/Elements.c: 46:    if(Coun
      +                          ter*100==Time_Ms)
  5914  0A02  1283               	bcf	3,5	;RP0=0, select bank0
  5915  0A03  1303               	bcf	3,6	;RP1=0, select bank0
  5916  0A04  0859               	movf	LED_BLINKING@Counter,w
  5917  0A05  00BE               	movwf	??_LED_BLINKING
  5918  0A06  01BF               	clrf	??_LED_BLINKING+1
  5919  0A07  083E               	movf	??_LED_BLINKING,w
  5920  0A08  00B6               	movwf	___wmul@multiplier
  5921  0A09  083F               	movf	??_LED_BLINKING+1,w
  5922  0A0A  00B7               	movwf	___wmul@multiplier+1
  5923  0A0B  3064               	movlw	100
  5924  0A0C  00B8               	movwf	___wmul@multiplicand
  5925  0A0D  3000               	movlw	0
  5926  0A0E  00B9               	movwf	___wmul@multiplicand+1
  5927  0A0F  120A  158A  218A  120A  158A  	fcall	___wmul
  5928  0A14  1283               	bcf	3,5	;RP0=0, select bank0
  5929  0A15  1303               	bcf	3,6	;RP1=0, select bank0
  5930  0A16  083D               	movf	LED_BLINKING@Time_Ms+1,w
  5931  0A17  0637               	xorwf	?___wmul+1,w
  5932  0A18  1D03               	skipz
  5933  0A19  2A1C               	goto	u3945
  5934  0A1A  083C               	movf	LED_BLINKING@Time_Ms,w
  5935  0A1B  0636               	xorwf	?___wmul,w
  5936  0A1C                     u3945:
  5937  0A1C  1D03               	skipz
  5938  0A1D  2A1F               	goto	u3941
  5939  0A1E  2A20               	goto	u3940
  5940  0A1F                     u3941:
  5941  0A1F  2A27               	goto	l3233
  5942  0A20                     u3940:
  5943  0A20                     l3229:
  5944                           
  5945                           ;Elements/Elements.c: 47:    {;Elements/Elements.c: 48:     (PORTB^= (1<<4));
  5946  0A20  3010               	movlw	16
  5947  0A21  00FF               	movwf	btemp+1
  5948  0A22  087F               	movf	btemp+1,w
  5949  0A23  0686               	xorwf	6,f	;volatile
  5950  0A24                     l3231:
  5951                           
  5952                           ;Elements/Elements.c: 49:        Counter=1;
  5953  0A24  01D9               	clrf	LED_BLINKING@Counter
  5954  0A25  0AD9               	incf	LED_BLINKING@Counter,f
  5955                           
  5956                           ;Elements/Elements.c: 50:    }
  5957  0A26  2A2B               	goto	l141
  5958  0A27                     l3233:
  5959                           
  5960                           ;Elements/Elements.c: 52:    {;Elements/Elements.c: 53:     Counter++;
  5961  0A27  3001               	movlw	1
  5962  0A28  00FF               	movwf	btemp+1
  5963  0A29  087F               	movf	btemp+1,w
  5964  0A2A  07D9               	addwf	LED_BLINKING@Counter,f
  5965  0A2B                     l141:
  5966  0A2B  0008               	return
  5967  0A2C                     __end_of_LED_BLINKING:
  5968                           
  5969                           	psect	text24
  5970  0D25                     __ptext24:	
  5971 ;; *************** function _SSD_MainFunction *****************
  5972 ;; Defined at:
  5973 ;;		line 44 in file "SSD/SSD.c"
  5974 ;; Parameters:    Size  Location     Type
  5975 ;;		None
  5976 ;; Auto vars:     Size  Location     Type
  5977 ;;		None
  5978 ;; Return value:  Size  Location     Type
  5979 ;;                  1    wreg      void 
  5980 ;; Registers used:
  5981 ;;		wreg, fsr0l, fsr0h, status,2, status,0, btemp+1, pclath, cstack
  5982 ;; Tracked objects:
  5983 ;;		On entry : 0/0
  5984 ;;		On exit  : 0/0
  5985 ;;		Unchanged: 0/0
  5986 ;; Data sizes:     COMMON   BANK0   BANK1   BANK3   BANK2
  5987 ;;      Params:         0       0       0       0       0
  5988 ;;      Locals:         0       0       0       0       0
  5989 ;;      Temps:          0       2       0       0       0
  5990 ;;      Totals:         0       2       0       0       0
  5991 ;;Total ram usage:        2 bytes
  5992 ;; Hardware stack levels used:    1
  5993 ;; Hardware stack levels required when called:    7
  5994 ;; This function calls:
  5995 ;;		_SSD_SelectDigit
  5996 ;;		_SSD_SelectDisplay
  5997 ;; This function is called by:
  5998 ;;		_Scheduler_Task1
  5999 ;; This function uses a non-reentrant model
  6000 ;;
  6001                           
  6002                           
  6003                           ;psect for function _SSD_MainFunction
  6004  0D25                     _SSD_MainFunction:
  6005  0D25                     l3729:	
  6006                           ;incstack = 0
  6007 ;; hardware stack exceeded
  6008                           ; Regs used in _SSD_MainFunction: [wreg-fsr0h+status,2+status,0+btemp+1+pclath+cstack]
  6009                           
  6010                           
  6011                           ;SSD/SSD.c: 47:     SSD_SelectDisplay();
  6012  0D25  120A  158A  2283  120A  158A  	fcall	_SSD_SelectDisplay
  6013                           
  6014                           ;SSD/SSD.c: 48:     SSD_SelectDigit();
  6015  0D2A  120A  118A  279E  120A  158A  	fcall	_SSD_SelectDigit
  6016                           
  6017                           ;SSD/SSD.c: 50:     switch(SSD)
  6018  0D2F  2D50               	goto	l3755
  6019  0D30                     l3731:
  6020                           
  6021                           ;SSD/SSD.c: 53:         PORTD=0b00111111;
  6022  0D30  303F               	movlw	63
  6023  0D31  0088               	movwf	8	;volatile
  6024                           
  6025                           ;SSD/SSD.c: 54:         break;
  6026  0D32  2D7D               	goto	l517
  6027  0D33                     l3733:
  6028                           
  6029                           ;SSD/SSD.c: 57:         PORTD=0b00000110;
  6030  0D33  3006               	movlw	6
  6031  0D34  0088               	movwf	8	;volatile
  6032                           
  6033                           ;SSD/SSD.c: 58:         break;
  6034  0D35  2D7D               	goto	l517
  6035  0D36                     l3735:
  6036                           
  6037                           ;SSD/SSD.c: 61:         PORTD=0b01011011;
  6038  0D36  305B               	movlw	91
  6039  0D37  0088               	movwf	8	;volatile
  6040                           
  6041                           ;SSD/SSD.c: 62:         break;
  6042  0D38  2D7D               	goto	l517
  6043  0D39                     l3737:
  6044                           
  6045                           ;SSD/SSD.c: 65:         PORTD=0b01001111;
  6046  0D39  304F               	movlw	79
  6047  0D3A  0088               	movwf	8	;volatile
  6048                           
  6049                           ;SSD/SSD.c: 66:         break;
  6050  0D3B  2D7D               	goto	l517
  6051  0D3C                     l3739:
  6052                           
  6053                           ;SSD/SSD.c: 69:         PORTD=0b01100110;
  6054  0D3C  3066               	movlw	102
  6055  0D3D  0088               	movwf	8	;volatile
  6056                           
  6057                           ;SSD/SSD.c: 70:         break;
  6058  0D3E  2D7D               	goto	l517
  6059  0D3F                     l3741:
  6060                           
  6061                           ;SSD/SSD.c: 73:         PORTD=0b01101101;
  6062  0D3F  306D               	movlw	109
  6063  0D40  0088               	movwf	8	;volatile
  6064                           
  6065                           ;SSD/SSD.c: 74:         break;
  6066  0D41  2D7D               	goto	l517
  6067  0D42                     l3743:
  6068                           
  6069                           ;SSD/SSD.c: 77:         PORTD=0b01111101;
  6070  0D42  307D               	movlw	125
  6071  0D43  0088               	movwf	8	;volatile
  6072                           
  6073                           ;SSD/SSD.c: 78:         break;
  6074  0D44  2D7D               	goto	l517
  6075  0D45                     l3745:
  6076                           
  6077                           ;SSD/SSD.c: 81:         PORTD=0b00000111;
  6078  0D45  3007               	movlw	7
  6079  0D46  0088               	movwf	8	;volatile
  6080                           
  6081                           ;SSD/SSD.c: 82:         break;
  6082  0D47  2D7D               	goto	l517
  6083  0D48                     l3747:
  6084                           
  6085                           ;SSD/SSD.c: 85:         PORTD=0b01111111;
  6086  0D48  307F               	movlw	127
  6087  0D49  0088               	movwf	8	;volatile
  6088                           
  6089                           ;SSD/SSD.c: 86:         break;
  6090  0D4A  2D7D               	goto	l517
  6091  0D4B                     l3749:
  6092                           
  6093                           ;SSD/SSD.c: 89:         PORTD=0b01101111;
  6094  0D4B  306F               	movlw	111
  6095  0D4C  0088               	movwf	8	;volatile
  6096                           
  6097                           ;SSD/SSD.c: 90:         break;
  6098  0D4D  2D7D               	goto	l517
  6099  0D4E                     l3751:
  6100                           
  6101                           ;SSD/SSD.c: 93:         PORTD=0;
  6102  0D4E  0188               	clrf	8	;volatile
  6103                           
  6104                           ;SSD/SSD.c: 94:         break;
  6105  0D4F  2D7D               	goto	l517
  6106  0D50                     l3755:
  6107  0D50  1283               	bcf	3,5	;RP0=0, select bank0
  6108  0D51  1303               	bcf	3,6	;RP1=0, select bank0
  6109  0D52  0846               	movf	_SSD,w
  6110  0D53  00C0               	movwf	??_SSD_MainFunction
  6111  0D54  01C1               	clrf	??_SSD_MainFunction+1
  6112                           
  6113                           ; Switch on 2 bytes has been partitioned into a top level switch of size 1, and 1 sub-sw
      +                          itches
  6114                           ; Switch size 1, requested type "simple"
  6115                           ; Number of cases is 1, Range of values is 0 to 0
  6116                           ; switch strategies available:
  6117                           ; Name         Instructions Cycles
  6118                           ; simple_byte            4     3 (average)
  6119                           ; direct_byte           11     8 (fixed)
  6120                           ; jumptable            260     6 (fixed)
  6121                           ;	Chosen strategy is simple_byte
  6122  0D55  0841               	movf	??_SSD_MainFunction+1,w
  6123  0D56  3A00               	xorlw	0	; case 0
  6124  0D57  1903               	skipnz
  6125  0D58  2D5A               	goto	l3981
  6126  0D59  2D7D               	goto	l517
  6127  0D5A                     l3981:
  6128                           
  6129                           ; Switch size 1, requested type "simple"
  6130                           ; Number of cases is 11, Range of values is 0 to 10
  6131                           ; switch strategies available:
  6132                           ; Name         Instructions Cycles
  6133                           ; simple_byte           34    18 (average)
  6134                           ; direct_byte           41     8 (fixed)
  6135                           ; jumptable            260     6 (fixed)
  6136                           ;	Chosen strategy is simple_byte
  6137  0D5A  0840               	movf	??_SSD_MainFunction,w
  6138  0D5B  3A00               	xorlw	0	; case 0
  6139  0D5C  1903               	skipnz
  6140  0D5D  2D30               	goto	l3731
  6141  0D5E  3A01               	xorlw	1	; case 1
  6142  0D5F  1903               	skipnz
  6143  0D60  2D33               	goto	l3733
  6144  0D61  3A03               	xorlw	3	; case 2
  6145  0D62  1903               	skipnz
  6146  0D63  2D36               	goto	l3735
  6147  0D64  3A01               	xorlw	1	; case 3
  6148  0D65  1903               	skipnz
  6149  0D66  2D39               	goto	l3737
  6150  0D67  3A07               	xorlw	7	; case 4
  6151  0D68  1903               	skipnz
  6152  0D69  2D3C               	goto	l3739
  6153  0D6A  3A01               	xorlw	1	; case 5
  6154  0D6B  1903               	skipnz
  6155  0D6C  2D3F               	goto	l3741
  6156  0D6D  3A03               	xorlw	3	; case 6
  6157  0D6E  1903               	skipnz
  6158  0D6F  2D42               	goto	l3743
  6159  0D70  3A01               	xorlw	1	; case 7
  6160  0D71  1903               	skipnz
  6161  0D72  2D45               	goto	l3745
  6162  0D73  3A0F               	xorlw	15	; case 8
  6163  0D74  1903               	skipnz
  6164  0D75  2D48               	goto	l3747
  6165  0D76  3A01               	xorlw	1	; case 9
  6166  0D77  1903               	skipnz
  6167  0D78  2D4B               	goto	l3749
  6168  0D79  3A03               	xorlw	3	; case 10
  6169  0D7A  1903               	skipnz
  6170  0D7B  2D4E               	goto	l3751
  6171  0D7C  2D7D               	goto	l517
  6172  0D7D                     l517:
  6173  0D7D  0008               	return
  6174  0D7E                     __end_of_SSD_MainFunction:
  6175                           
  6176                           	psect	text25
  6177  0A83                     __ptext25:	
  6178 ;; *************** function _SSD_SelectDisplay *****************
  6179 ;; Defined at:
  6180 ;;		line 141 in file "SSD/SSD.c"
  6181 ;; Parameters:    Size  Location     Type
  6182 ;;		None
  6183 ;; Auto vars:     Size  Location     Type
  6184 ;;		None
  6185 ;; Return value:  Size  Location     Type
  6186 ;;                  1    wreg      void 
  6187 ;; Registers used:
  6188 ;;		wreg, status,2, status,0, btemp+1, pclath, cstack
  6189 ;; Tracked objects:
  6190 ;;		On entry : 0/0
  6191 ;;		On exit  : 0/0
  6192 ;;		Unchanged: 0/0
  6193 ;; Data sizes:     COMMON   BANK0   BANK1   BANK3   BANK2
  6194 ;;      Params:         0       0       0       0       0
  6195 ;;      Locals:         0       0       0       0       0
  6196 ;;      Temps:          0       0       0       0       0
  6197 ;;      Totals:         0       0       0       0       0
  6198 ;;Total ram usage:        0 bytes
  6199 ;; Hardware stack levels used:    1
  6200 ;; Hardware stack levels required when called:    6
  6201 ;; This function calls:
  6202 ;;		_SSD_Blink
  6203 ;; This function is called by:
  6204 ;;		_SSD_MainFunction
  6205 ;; This function uses a non-reentrant model
  6206 ;;
  6207                           
  6208                           
  6209                           ;psect for function _SSD_SelectDisplay
  6210  0A83                     _SSD_SelectDisplay:
  6211  0A83                     l3617:	
  6212                           ;incstack = 0
  6213 ;; hardware stack exceeded
  6214                           ; Regs used in _SSD_SelectDisplay: [wreg+status,2+status,0+btemp+1+pclath+cstack]
  6215                           
  6216                           
  6217                           ;SSD/SSD.c: 145:   if(Mode.Select_Mode==Normal_Mode)
  6218  0A83  1283               	bcf	3,5	;RP0=0, select bank0
  6219  0A84  1303               	bcf	3,6	;RP1=0, select bank0
  6220  0A85  0354               	decf	_Mode,w
  6221  0A86  1D03               	btfss	3,2
  6222  0A87  2A89               	goto	u4851
  6223  0A88  2A8A               	goto	u4850
  6224  0A89                     u4851:
  6225  0A89  2A91               	goto	l3623
  6226  0A8A                     u4850:
  6227  0A8A                     l3619:
  6228                           
  6229                           ;SSD/SSD.c: 146:   {;SSD/SSD.c: 147:    Tempreture=Temperature.Temp_Value;
  6230  0A8A  084E               	movf	_Temperature,w
  6231  0A8B  00FF               	movwf	btemp+1
  6232  0A8C  087F               	movf	btemp+1,w
  6233  0A8D  00C5               	movwf	_Tempreture
  6234  0A8E                     l3621:
  6235                           
  6236                           ;SSD/SSD.c: 148:    Enable_SSD=Enable_SSD_On;
  6237  0A8E  01CC               	clrf	_Enable_SSD
  6238  0A8F  0ACC               	incf	_Enable_SSD,f
  6239                           
  6240                           ;SSD/SSD.c: 149:   }
  6241  0A90  2AB2               	goto	l532
  6242  0A91                     l3623:
  6243  0A91  3002               	movlw	2
  6244  0A92  0654               	xorwf	_Mode,w
  6245  0A93  1D03               	btfss	3,2
  6246  0A94  2A96               	goto	u4861
  6247  0A95  2A97               	goto	u4860
  6248  0A96                     u4861:
  6249  0A96  2AA5               	goto	l3629
  6250  0A97                     u4860:
  6251  0A97                     l3625:
  6252                           
  6253                           ;SSD/SSD.c: 151:   {;SSD/SSD.c: 152:    Tempreture=Temperature.Set_Temp;
  6254  0A97  0851               	movf	_Temperature+3,w
  6255  0A98  00FF               	movwf	btemp+1
  6256  0A99  087F               	movf	btemp+1,w
  6257  0A9A  00C5               	movwf	_Tempreture
  6258  0A9B                     l3627:
  6259                           
  6260                           ;SSD/SSD.c: 153:       SSD_Blink(1000);
  6261  0A9B  30E8               	movlw	232
  6262  0A9C  00BC               	movwf	SSD_Blink@Times_Ms
  6263  0A9D  3003               	movlw	3
  6264  0A9E  00BD               	movwf	SSD_Blink@Times_Ms+1
  6265  0A9F  120A  158A  238A  120A  158A  	fcall	_SSD_Blink
  6266                           
  6267                           ;SSD/SSD.c: 154:   }
  6268  0AA4  2AB2               	goto	l532
  6269  0AA5                     l3629:
  6270  0AA5  0854               	movf	_Mode,w
  6271  0AA6  1D03               	btfss	3,2
  6272  0AA7  2AA9               	goto	u4871
  6273  0AA8  2AAA               	goto	u4870
  6274  0AA9                     u4871:
  6275  0AA9  2AB2               	goto	l532
  6276  0AAA                     u4870:
  6277  0AAA                     l3631:
  6278                           
  6279                           ;SSD/SSD.c: 156:   {;SSD/SSD.c: 157:   (PORTA &= ~(1<<5)) ;
  6280  0AAA  30DF               	movlw	223
  6281  0AAB  00FF               	movwf	btemp+1
  6282  0AAC  087F               	movf	btemp+1,w
  6283  0AAD  0585               	andwf	5,f	;volatile
  6284                           
  6285                           ;SSD/SSD.c: 158:   (PORTA &= ~(1<<4)) ;
  6286  0AAE  30EF               	movlw	239
  6287  0AAF  00FF               	movwf	btemp+1
  6288  0AB0  087F               	movf	btemp+1,w
  6289  0AB1  0585               	andwf	5,f	;volatile
  6290  0AB2                     l532:
  6291  0AB2  0008               	return
  6292  0AB3                     __end_of_SSD_SelectDisplay:
  6293                           
  6294                           	psect	text26
  6295  0B8A                     __ptext26:	
  6296 ;; *************** function _SSD_Blink *****************
  6297 ;; Defined at:
  6298 ;;		line 109 in file "SSD/SSD.c"
  6299 ;; Parameters:    Size  Location     Type
  6300 ;;  Times_Ms        2   28[BANK0 ] unsigned int 
  6301 ;; Auto vars:     Size  Location     Type
  6302 ;;		None
  6303 ;; Return value:  Size  Location     Type
  6304 ;;                  1    wreg      void 
  6305 ;; Registers used:
  6306 ;;		wreg, status,2, status,0, btemp+1, pclath, cstack
  6307 ;; Tracked objects:
  6308 ;;		On entry : 0/0
  6309 ;;		On exit  : 0/0
  6310 ;;		Unchanged: 0/0
  6311 ;; Data sizes:     COMMON   BANK0   BANK1   BANK3   BANK2
  6312 ;;      Params:         0       2       0       0       0
  6313 ;;      Locals:         0       0       0       0       0
  6314 ;;      Temps:          0       2       0       0       0
  6315 ;;      Totals:         0       4       0       0       0
  6316 ;;Total ram usage:        4 bytes
  6317 ;; Hardware stack levels used:    1
  6318 ;; Hardware stack levels required when called:    5
  6319 ;; This function calls:
  6320 ;;		___wmul
  6321 ;; This function is called by:
  6322 ;;		_SSD_SelectDisplay
  6323 ;; This function uses a non-reentrant model
  6324 ;;
  6325                           
  6326                           
  6327                           ;psect for function _SSD_Blink
  6328  0B8A                     _SSD_Blink:
  6329  0B8A                     l3243:	
  6330                           ;incstack = 0
  6331 ;; hardware stack exceeded
  6332                           ; Regs used in _SSD_Blink: [wreg+status,2+status,0+btemp+1+pclath+cstack]
  6333                           
  6334                           
  6335                           ;SSD/SSD.c: 109: void SSD_Blink(uint16_t Times_Ms);SSD/SSD.c: 110: {;SSD/SSD.c: 113:   i
      +                          f(Counter*20==Times_Ms)
  6336  0B8A  1283               	bcf	3,5	;RP0=0, select bank0
  6337  0B8B  1303               	bcf	3,6	;RP1=0, select bank0
  6338  0B8C  0857               	movf	_Counter,w
  6339  0B8D  00BE               	movwf	??_SSD_Blink
  6340  0B8E  01BF               	clrf	??_SSD_Blink+1
  6341  0B8F  083E               	movf	??_SSD_Blink,w
  6342  0B90  00B6               	movwf	___wmul@multiplier
  6343  0B91  083F               	movf	??_SSD_Blink+1,w
  6344  0B92  00B7               	movwf	___wmul@multiplier+1
  6345  0B93  3014               	movlw	20
  6346  0B94  00B8               	movwf	___wmul@multiplicand
  6347  0B95  3000               	movlw	0
  6348  0B96  00B9               	movwf	___wmul@multiplicand+1
  6349  0B97  120A  158A  218A  120A  158A  	fcall	___wmul
  6350  0B9C  1283               	bcf	3,5	;RP0=0, select bank0
  6351  0B9D  1303               	bcf	3,6	;RP1=0, select bank0
  6352  0B9E  083D               	movf	SSD_Blink@Times_Ms+1,w
  6353  0B9F  0637               	xorwf	?___wmul+1,w
  6354  0BA0  1D03               	skipz
  6355  0BA1  2BA4               	goto	u3985
  6356  0BA2  083C               	movf	SSD_Blink@Times_Ms,w
  6357  0BA3  0636               	xorwf	?___wmul,w
  6358  0BA4                     u3985:
  6359  0BA4  1D03               	skipz
  6360  0BA5  2BA7               	goto	u3981
  6361  0BA6  2BA8               	goto	u3980
  6362  0BA7                     u3981:
  6363  0BA7  2BC0               	goto	l3257
  6364  0BA8                     u3980:
  6365  0BA8                     l3245:
  6366                           
  6367                           ;SSD/SSD.c: 114:   {;SSD/SSD.c: 115:       if(Enable_SSD==Enable_SSD_On)
  6368  0BA8  034C               	decf	_Enable_SSD,w
  6369  0BA9  1D03               	btfss	3,2
  6370  0BAA  2BAC               	goto	u3991
  6371  0BAB  2BAD               	goto	u3990
  6372  0BAC                     u3991:
  6373  0BAC  2BB7               	goto	l3253
  6374  0BAD                     u3990:
  6375  0BAD                     l3247:
  6376                           
  6377                           ;SSD/SSD.c: 116:       {;SSD/SSD.c: 117:        Enable_SSD=Enable_SSD_Off;
  6378  0BAD  01CC               	clrf	_Enable_SSD
  6379  0BAE                     l3249:
  6380                           
  6381                           ;SSD/SSD.c: 118:         (PORTA &= ~(1<<5)) ;
  6382  0BAE  30DF               	movlw	223
  6383  0BAF  00FF               	movwf	btemp+1
  6384  0BB0  087F               	movf	btemp+1,w
  6385  0BB1  0585               	andwf	5,f	;volatile
  6386  0BB2                     l3251:
  6387                           
  6388                           ;SSD/SSD.c: 119:         (PORTA &= ~(1<<4)) ;
  6389  0BB2  30EF               	movlw	239
  6390  0BB3  00FF               	movwf	btemp+1
  6391  0BB4  087F               	movf	btemp+1,w
  6392  0BB5  0585               	andwf	5,f	;volatile
  6393                           
  6394                           ;SSD/SSD.c: 120:       }
  6395  0BB6  2BBE               	goto	l522
  6396  0BB7                     l3253:
  6397  0BB7  084C               	movf	_Enable_SSD,w
  6398  0BB8  1D03               	btfss	3,2
  6399  0BB9  2BBB               	goto	u4001
  6400  0BBA  2BBC               	goto	u4000
  6401  0BBB                     u4001:
  6402  0BBB  2BBE               	goto	l522
  6403  0BBC                     u4000:
  6404  0BBC                     l3255:
  6405                           
  6406                           ;SSD/SSD.c: 122:       {;SSD/SSD.c: 123:        Enable_SSD=Enable_SSD_On;
  6407  0BBC  01CC               	clrf	_Enable_SSD
  6408  0BBD  0ACC               	incf	_Enable_SSD,f
  6409  0BBE                     l522:
  6410                           
  6411                           ;SSD/SSD.c: 125:         Counter =1;
  6412  0BBE  01D7               	clrf	_Counter
  6413  0BBF  0AD7               	incf	_Counter,f
  6414  0BC0                     l3257:
  6415                           
  6416                           ;SSD/SSD.c: 127:   Counter++;
  6417  0BC0  3001               	movlw	1
  6418  0BC1  00FF               	movwf	btemp+1
  6419  0BC2  087F               	movf	btemp+1,w
  6420  0BC3  07D7               	addwf	_Counter,f
  6421  0BC4                     l524:
  6422  0BC4  0008               	return
  6423  0BC5                     __end_of_SSD_Blink:
  6424                           
  6425                           	psect	text27
  6426  098A                     __ptext27:	
  6427 ;; *************** function ___wmul *****************
  6428 ;; Defined at:
  6429 ;;		line 15 in file "C:\Program Files (x86)\Microchip\xc8\v2.20\pic\sources\c90\common\Umul16.c"
  6430 ;; Parameters:    Size  Location     Type
  6431 ;;  multiplier      2   22[BANK0 ] unsigned int 
  6432 ;;  multiplicand    2   24[BANK0 ] unsigned int 
  6433 ;; Auto vars:     Size  Location     Type
  6434 ;;  product         2   26[BANK0 ] unsigned int 
  6435 ;; Return value:  Size  Location     Type
  6436 ;;                  2   22[BANK0 ] unsigned int 
  6437 ;; Registers used:
  6438 ;;		wreg, status,2, status,0
  6439 ;; Tracked objects:
  6440 ;;		On entry : 0/0
  6441 ;;		On exit  : 0/0
  6442 ;;		Unchanged: 0/0
  6443 ;; Data sizes:     COMMON   BANK0   BANK1   BANK3   BANK2
  6444 ;;      Params:         0       4       0       0       0
  6445 ;;      Locals:         0       2       0       0       0
  6446 ;;      Temps:          0       0       0       0       0
  6447 ;;      Totals:         0       6       0       0       0
  6448 ;;Total ram usage:        6 bytes
  6449 ;; Hardware stack levels used:    1
  6450 ;; Hardware stack levels required when called:    4
  6451 ;; This function calls:
  6452 ;;		Nothing
  6453 ;; This function is called by:
  6454 ;;		_LED_BLINKING
  6455 ;;		_Mode_Setting_Timer
  6456 ;;		_SSD_Blink
  6457 ;; This function uses a non-reentrant model
  6458 ;;
  6459                           
  6460                           
  6461                           ;psect for function ___wmul
  6462  098A                     ___wmul:
  6463  098A                     l3131:	
  6464                           ;incstack = 0
  6465 ;; hardware stack exceeded
  6466                           ; Regs used in ___wmul: [wreg+status,2+status,0]
  6467                           
  6468  098A  1283               	bcf	3,5	;RP0=0, select bank0
  6469  098B  1303               	bcf	3,6	;RP1=0, select bank0
  6470  098C  01BA               	clrf	___wmul@product
  6471  098D  01BB               	clrf	___wmul@product+1
  6472  098E                     l3133:
  6473  098E  1C36               	btfss	___wmul@multiplier,0
  6474  098F  2991               	goto	u3701
  6475  0990  2992               	goto	u3700
  6476  0991                     u3701:
  6477  0991  2998               	goto	l633
  6478  0992                     u3700:
  6479  0992                     l3135:
  6480  0992  0838               	movf	___wmul@multiplicand,w
  6481  0993  07BA               	addwf	___wmul@product,f
  6482  0994  1803               	skipnc
  6483  0995  0ABB               	incf	___wmul@product+1,f
  6484  0996  0839               	movf	___wmul@multiplicand+1,w
  6485  0997  07BB               	addwf	___wmul@product+1,f
  6486  0998                     l633:
  6487  0998  3001               	movlw	1
  6488  0999                     u3715:
  6489  0999  1003               	clrc
  6490  099A  0DB8               	rlf	___wmul@multiplicand,f
  6491  099B  0DB9               	rlf	___wmul@multiplicand+1,f
  6492  099C  3EFF               	addlw	-1
  6493  099D  1D03               	skipz
  6494  099E  2999               	goto	u3715
  6495  099F                     l3137:
  6496  099F  3001               	movlw	1
  6497  09A0                     u3725:
  6498  09A0  1003               	clrc
  6499  09A1  0CB7               	rrf	___wmul@multiplier+1,f
  6500  09A2  0CB6               	rrf	___wmul@multiplier,f
  6501  09A3  3EFF               	addlw	-1
  6502  09A4  1D03               	skipz
  6503  09A5  29A0               	goto	u3725
  6504  09A6                     l3139:
  6505  09A6  0836               	movf	___wmul@multiplier,w
  6506  09A7  0437               	iorwf	___wmul@multiplier+1,w
  6507  09A8  1D03               	btfss	3,2
  6508  09A9  29AB               	goto	u3731
  6509  09AA  29AC               	goto	u3730
  6510  09AB                     u3731:
  6511  09AB  298E               	goto	l3133
  6512  09AC                     u3730:
  6513  09AC                     l3141:
  6514  09AC  083B               	movf	___wmul@product+1,w
  6515  09AD  00B7               	movwf	?___wmul+1
  6516  09AE  083A               	movf	___wmul@product,w
  6517  09AF  00B6               	movwf	?___wmul
  6518  09B0                     l635:
  6519  09B0  0008               	return
  6520  09B1                     __end_of___wmul:
  6521                           
  6522                           	psect	text28
  6523  079E                     __ptext28:	
  6524 ;; *************** function _SSD_SelectDigit *****************
  6525 ;; Defined at:
  6526 ;;		line 174 in file "SSD/SSD.c"
  6527 ;; Parameters:    Size  Location     Type
  6528 ;;		None
  6529 ;; Auto vars:     Size  Location     Type
  6530 ;;		None
  6531 ;; Return value:  Size  Location     Type
  6532 ;;                  1    wreg      void 
  6533 ;; Registers used:
  6534 ;;		wreg, status,2, status,0, btemp+1, pclath, cstack
  6535 ;; Tracked objects:
  6536 ;;		On entry : 0/0
  6537 ;;		On exit  : 0/0
  6538 ;;		Unchanged: 0/0
  6539 ;; Data sizes:     COMMON   BANK0   BANK1   BANK3   BANK2
  6540 ;;      Params:         0       0       0       0       0
  6541 ;;      Locals:         0       0       0       0       0
  6542 ;;      Temps:          0       2       0       0       0
  6543 ;;      Totals:         0       2       0       0       0
  6544 ;;Total ram usage:        2 bytes
  6545 ;; Hardware stack levels used:    1
  6546 ;; Hardware stack levels required when called:    5
  6547 ;; This function calls:
  6548 ;;		___awdiv
  6549 ;;		___awmod
  6550 ;; This function is called by:
  6551 ;;		_SSD_MainFunction
  6552 ;; This function uses a non-reentrant model
  6553 ;;
  6554                           
  6555                           
  6556                           ;psect for function _SSD_SelectDigit
  6557  079E                     _SSD_SelectDigit:
  6558  079E                     l3633:	
  6559                           ;incstack = 0
  6560 ;; hardware stack exceeded
  6561                           ; Regs used in _SSD_SelectDigit: [wreg+status,2+status,0+btemp+1+pclath+cstack]
  6562                           
  6563                           
  6564                           ;SSD/SSD.c: 176:     static uint8_t Enable_Digit_Selector=1;;SSD/SSD.c: 177:     static 
      +                          uint8_t Digit_1=0;;SSD/SSD.c: 178:     static uint8_t Digit_2=0;;SSD/SSD.c: 180:     if(
      +                          Mode.Select_Mode!=Off_Mode)
  6565  079E  1283               	bcf	3,5	;RP0=0, select bank0
  6566  079F  1303               	bcf	3,6	;RP1=0, select bank0
  6567  07A0  0854               	movf	_Mode,w
  6568  07A1  1903               	btfsc	3,2
  6569  07A2  2FA4               	goto	u4881
  6570  07A3  2FA5               	goto	u4880
  6571  07A4                     u4881:
  6572  07A4  2FF9               	goto	l3657
  6573  07A5                     u4880:
  6574  07A5                     l3635:
  6575                           
  6576                           ;SSD/SSD.c: 181:     {;SSD/SSD.c: 182:         if(Enable_SSD==Enable_SSD_On)
  6577  07A5  034C               	decf	_Enable_SSD,w
  6578  07A6  1D03               	btfss	3,2
  6579  07A7  2FA9               	goto	u4891
  6580  07A8  2FAA               	goto	u4890
  6581  07A9                     u4891:
  6582  07A9  2FFD               	goto	l547
  6583  07AA                     u4890:
  6584  07AA                     l3637:
  6585                           
  6586                           ;SSD/SSD.c: 183:      {;SSD/SSD.c: 184:             Digit_1=Tempreture%10;
  6587  07AA  300A               	movlw	10
  6588  07AB  00B6               	movwf	___awmod@divisor
  6589  07AC  3000               	movlw	0
  6590  07AD  00B7               	movwf	___awmod@divisor+1
  6591  07AE  0845               	movf	_Tempreture,w
  6592  07AF  00BE               	movwf	??_SSD_SelectDigit
  6593  07B0  01BF               	clrf	??_SSD_SelectDigit+1
  6594  07B1  083E               	movf	??_SSD_SelectDigit,w
  6595  07B2  00B8               	movwf	___awmod@dividend
  6596  07B3  083F               	movf	??_SSD_SelectDigit+1,w
  6597  07B4  00B9               	movwf	___awmod@dividend+1
  6598  07B5  120A  158A  257E  120A  118A  	fcall	___awmod
  6599  07BA  1283               	bcf	3,5	;RP0=0, select bank0
  6600  07BB  1303               	bcf	3,6	;RP1=0, select bank0
  6601  07BC  0836               	movf	?___awmod,w
  6602  07BD  00FF               	movwf	btemp+1
  6603  07BE  087F               	movf	btemp+1,w
  6604  07BF  00C4               	movwf	SSD_SelectDigit@Digit_1
  6605                           
  6606                           ;SSD/SSD.c: 185:             Digit_2=Tempreture/10;
  6607  07C0  300A               	movlw	10
  6608  07C1  00B6               	movwf	___awdiv@divisor
  6609  07C2  3000               	movlw	0
  6610  07C3  00B7               	movwf	___awdiv@divisor+1
  6611  07C4  0845               	movf	_Tempreture,w
  6612  07C5  00BE               	movwf	??_SSD_SelectDigit
  6613  07C6  01BF               	clrf	??_SSD_SelectDigit+1
  6614  07C7  083E               	movf	??_SSD_SelectDigit,w
  6615  07C8  00B8               	movwf	___awdiv@dividend
  6616  07C9  083F               	movf	??_SSD_SelectDigit+1,w
  6617  07CA  00B9               	movwf	___awdiv@dividend+1
  6618  07CB  120A  158A  270D  120A  118A  	fcall	___awdiv
  6619  07D0  1283               	bcf	3,5	;RP0=0, select bank0
  6620  07D1  1303               	bcf	3,6	;RP1=0, select bank0
  6621  07D2  0836               	movf	?___awdiv,w
  6622  07D3  00FF               	movwf	btemp+1
  6623  07D4  087F               	movf	btemp+1,w
  6624  07D5  00C3               	movwf	SSD_SelectDigit@Digit_2
  6625  07D6                     l3639:
  6626                           
  6627                           ;SSD/SSD.c: 187:             Enable_Digit_Selector^=1;
  6628  07D6  3001               	movlw	1
  6629  07D7  00FF               	movwf	btemp+1
  6630  07D8  087F               	movf	btemp+1,w
  6631  07D9  06D6               	xorwf	SSD_SelectDigit@Enable_Digit_Selector,f
  6632  07DA                     l3641:
  6633                           
  6634                           ;SSD/SSD.c: 189:             if(Enable_Digit_Selector==0)
  6635  07DA  0856               	movf	SSD_SelectDigit@Enable_Digit_Selector,w
  6636  07DB  1D03               	btfss	3,2
  6637  07DC  2FDE               	goto	u4901
  6638  07DD  2FDF               	goto	u4900
  6639  07DE                     u4901:
  6640  07DE  2FE9               	goto	l3649
  6641  07DF                     u4900:
  6642  07DF                     l3643:
  6643                           
  6644                           ;SSD/SSD.c: 190:             {;SSD/SSD.c: 191:               SSD=Digit_1;
  6645  07DF  0844               	movf	SSD_SelectDigit@Digit_1,w
  6646  07E0  00FF               	movwf	btemp+1
  6647  07E1  087F               	movf	btemp+1,w
  6648  07E2  00C6               	movwf	_SSD
  6649  07E3                     l3645:
  6650                           
  6651                           ;SSD/SSD.c: 192:                (PORTA &= ~(1<<4));
  6652  07E3  30EF               	movlw	239
  6653  07E4  00FF               	movwf	btemp+1
  6654  07E5  087F               	movf	btemp+1,w
  6655  07E6  0585               	andwf	5,f	;volatile
  6656  07E7                     l3647:
  6657                           
  6658                           ;SSD/SSD.c: 193:                (PORTA|= (1<<5)) ;
  6659  07E7  1685               	bsf	5,5	;volatile
  6660                           
  6661                           ;SSD/SSD.c: 195:             }
  6662  07E8  2FFD               	goto	l547
  6663  07E9                     l3649:
  6664  07E9  0356               	decf	SSD_SelectDigit@Enable_Digit_Selector,w
  6665  07EA  1D03               	btfss	3,2
  6666  07EB  2FED               	goto	u4911
  6667  07EC  2FEE               	goto	u4910
  6668  07ED                     u4911:
  6669  07ED  2FF8               	goto	l542
  6670  07EE                     u4910:
  6671  07EE                     l3651:
  6672                           
  6673                           ;SSD/SSD.c: 197:             {;SSD/SSD.c: 198:               SSD=Digit_2;
  6674  07EE  0843               	movf	SSD_SelectDigit@Digit_2,w
  6675  07EF  00FF               	movwf	btemp+1
  6676  07F0  087F               	movf	btemp+1,w
  6677  07F1  00C6               	movwf	_SSD
  6678  07F2                     l3653:
  6679                           
  6680                           ;SSD/SSD.c: 199:               (PORTA &= ~(1<<5));
  6681  07F2  30DF               	movlw	223
  6682  07F3  00FF               	movwf	btemp+1
  6683  07F4  087F               	movf	btemp+1,w
  6684  07F5  0585               	andwf	5,f	;volatile
  6685  07F6                     l3655:
  6686                           
  6687                           ;SSD/SSD.c: 200:               (PORTA|= (1<<4));
  6688  07F6  1605               	bsf	5,4	;volatile
  6689  07F7  2FFD               	goto	l547
  6690  07F8                     l542:	
  6691                           ;SSD/SSD.c: 203:         }
  6692                           
  6693                           
  6694                           ;SSD/SSD.c: 204:     }
  6695  07F8  2FFD               	goto	l547
  6696  07F9                     l3657:
  6697                           
  6698                           ;SSD/SSD.c: 206:     {;SSD/SSD.c: 207:      SSD=10;
  6699  07F9  300A               	movlw	10
  6700  07FA  00FF               	movwf	btemp+1
  6701  07FB  087F               	movf	btemp+1,w
  6702  07FC  00C6               	movwf	_SSD
  6703  07FD                     l547:
  6704  07FD  0008               	return
  6705  07FE                     __end_of_SSD_SelectDigit:
  6706                           
  6707                           	psect	text29
  6708  0F0D                     __ptext29:	
  6709 ;; *************** function ___awdiv *****************
  6710 ;; Defined at:
  6711 ;;		line 5 in file "C:\Program Files (x86)\Microchip\xc8\v2.20\pic\sources\c90\common\awdiv.c"
  6712 ;; Parameters:    Size  Location     Type
  6713 ;;  divisor         2   22[BANK0 ] int 
  6714 ;;  dividend        2   24[BANK0 ] int 
  6715 ;; Auto vars:     Size  Location     Type
  6716 ;;  quotient        2   28[BANK0 ] int 
  6717 ;;  sign            1   27[BANK0 ] unsigned char 
  6718 ;;  counter         1   26[BANK0 ] unsigned char 
  6719 ;; Return value:  Size  Location     Type
  6720 ;;                  2   22[BANK0 ] int 
  6721 ;; Registers used:
  6722 ;;		wreg, status,2, status,0, btemp+1
  6723 ;; Tracked objects:
  6724 ;;		On entry : 0/0
  6725 ;;		On exit  : 0/0
  6726 ;;		Unchanged: 0/0
  6727 ;; Data sizes:     COMMON   BANK0   BANK1   BANK3   BANK2
  6728 ;;      Params:         0       4       0       0       0
  6729 ;;      Locals:         0       4       0       0       0
  6730 ;;      Temps:          0       0       0       0       0
  6731 ;;      Totals:         0       8       0       0       0
  6732 ;;Total ram usage:        8 bytes
  6733 ;; Hardware stack levels used:    1
  6734 ;; Hardware stack levels required when called:    4
  6735 ;; This function calls:
  6736 ;;		Nothing
  6737 ;; This function is called by:
  6738 ;;		_SSD_SelectDigit
  6739 ;; This function uses a non-reentrant model
  6740 ;;
  6741                           
  6742                           
  6743                           ;psect for function ___awdiv
  6744  0F0D                     ___awdiv:
  6745  0F0D                     l3259:	
  6746                           ;incstack = 0
  6747 ;; hardware stack exceeded
  6748                           ; Regs used in ___awdiv: [wreg+status,2+status,0+btemp+1]
  6749                           
  6750  0F0D  1283               	bcf	3,5	;RP0=0, select bank0
  6751  0F0E  1303               	bcf	3,6	;RP1=0, select bank0
  6752  0F0F  01BB               	clrf	___awdiv@sign
  6753  0F10                     l3261:
  6754  0F10  1FB7               	btfss	___awdiv@divisor+1,7
  6755  0F11  2F13               	goto	u4011
  6756  0F12  2F14               	goto	u4010
  6757  0F13                     u4011:
  6758  0F13  2F1B               	goto	l3267
  6759  0F14                     u4010:
  6760  0F14                     l3263:
  6761  0F14  09B6               	comf	___awdiv@divisor,f
  6762  0F15  09B7               	comf	___awdiv@divisor+1,f
  6763  0F16  0AB6               	incf	___awdiv@divisor,f
  6764  0F17  1903               	skipnz
  6765  0F18  0AB7               	incf	___awdiv@divisor+1,f
  6766  0F19                     l3265:
  6767  0F19  01BB               	clrf	___awdiv@sign
  6768  0F1A  0ABB               	incf	___awdiv@sign,f
  6769  0F1B                     l3267:
  6770  0F1B  1FB9               	btfss	___awdiv@dividend+1,7
  6771  0F1C  2F1E               	goto	u4021
  6772  0F1D  2F1F               	goto	u4020
  6773  0F1E                     u4021:
  6774  0F1E  2F28               	goto	l3273
  6775  0F1F                     u4020:
  6776  0F1F                     l3269:
  6777  0F1F  09B8               	comf	___awdiv@dividend,f
  6778  0F20  09B9               	comf	___awdiv@dividend+1,f
  6779  0F21  0AB8               	incf	___awdiv@dividend,f
  6780  0F22  1903               	skipnz
  6781  0F23  0AB9               	incf	___awdiv@dividend+1,f
  6782  0F24                     l3271:
  6783  0F24  3001               	movlw	1
  6784  0F25  00FF               	movwf	btemp+1
  6785  0F26  087F               	movf	btemp+1,w
  6786  0F27  06BB               	xorwf	___awdiv@sign,f
  6787  0F28                     l3273:
  6788  0F28  01BC               	clrf	___awdiv@quotient
  6789  0F29  01BD               	clrf	___awdiv@quotient+1
  6790  0F2A                     l3275:
  6791  0F2A  0836               	movf	___awdiv@divisor,w
  6792  0F2B  0437               	iorwf	___awdiv@divisor+1,w
  6793  0F2C  1903               	btfsc	3,2
  6794  0F2D  2F2F               	goto	u4031
  6795  0F2E  2F30               	goto	u4030
  6796  0F2F                     u4031:
  6797  0F2F  2F67               	goto	l3295
  6798  0F30                     u4030:
  6799  0F30                     l3277:
  6800  0F30  01BA               	clrf	___awdiv@counter
  6801  0F31  0ABA               	incf	___awdiv@counter,f
  6802  0F32  2F3E               	goto	l3283
  6803  0F33                     l3279:
  6804  0F33  3001               	movlw	1
  6805  0F34                     u4045:
  6806  0F34  1003               	clrc
  6807  0F35  0DB6               	rlf	___awdiv@divisor,f
  6808  0F36  0DB7               	rlf	___awdiv@divisor+1,f
  6809  0F37  3EFF               	addlw	-1
  6810  0F38  1D03               	skipz
  6811  0F39  2F34               	goto	u4045
  6812  0F3A                     l3281:
  6813  0F3A  3001               	movlw	1
  6814  0F3B  00FF               	movwf	btemp+1
  6815  0F3C  087F               	movf	btemp+1,w
  6816  0F3D  07BA               	addwf	___awdiv@counter,f
  6817  0F3E                     l3283:
  6818  0F3E  1FB7               	btfss	___awdiv@divisor+1,7
  6819  0F3F  2F41               	goto	u4051
  6820  0F40  2F42               	goto	u4050
  6821  0F41                     u4051:
  6822  0F41  2F33               	goto	l3279
  6823  0F42                     u4050:
  6824  0F42                     l3285:
  6825  0F42  3001               	movlw	1
  6826  0F43                     u4065:
  6827  0F43  1003               	clrc
  6828  0F44  0DBC               	rlf	___awdiv@quotient,f
  6829  0F45  0DBD               	rlf	___awdiv@quotient+1,f
  6830  0F46  3EFF               	addlw	-1
  6831  0F47  1D03               	skipz
  6832  0F48  2F43               	goto	u4065
  6833  0F49  0837               	movf	___awdiv@divisor+1,w
  6834  0F4A  0239               	subwf	___awdiv@dividend+1,w
  6835  0F4B  1D03               	skipz
  6836  0F4C  2F4F               	goto	u4075
  6837  0F4D  0836               	movf	___awdiv@divisor,w
  6838  0F4E  0238               	subwf	___awdiv@dividend,w
  6839  0F4F                     u4075:
  6840  0F4F  1C03               	skipc
  6841  0F50  2F52               	goto	u4071
  6842  0F51  2F53               	goto	u4070
  6843  0F52                     u4071:
  6844  0F52  2F5A               	goto	l3291
  6845  0F53                     u4070:
  6846  0F53                     l3287:
  6847  0F53  0836               	movf	___awdiv@divisor,w
  6848  0F54  02B8               	subwf	___awdiv@dividend,f
  6849  0F55  0837               	movf	___awdiv@divisor+1,w
  6850  0F56  1C03               	skipc
  6851  0F57  03B9               	decf	___awdiv@dividend+1,f
  6852  0F58  02B9               	subwf	___awdiv@dividend+1,f
  6853  0F59                     l3289:
  6854  0F59  143C               	bsf	___awdiv@quotient,0
  6855  0F5A                     l3291:
  6856  0F5A  3001               	movlw	1
  6857  0F5B                     u4085:
  6858  0F5B  1003               	clrc
  6859  0F5C  0CB7               	rrf	___awdiv@divisor+1,f
  6860  0F5D  0CB6               	rrf	___awdiv@divisor,f
  6861  0F5E  3EFF               	addlw	-1
  6862  0F5F  1D03               	skipz
  6863  0F60  2F5B               	goto	u4085
  6864  0F61                     l3293:
  6865  0F61  3001               	movlw	1
  6866  0F62  02BA               	subwf	___awdiv@counter,f
  6867  0F63  1D03               	btfss	3,2
  6868  0F64  2F66               	goto	u4091
  6869  0F65  2F67               	goto	u4090
  6870  0F66                     u4091:
  6871  0F66  2F42               	goto	l3285
  6872  0F67                     u4090:
  6873  0F67                     l3295:
  6874  0F67  083B               	movf	___awdiv@sign,w
  6875  0F68  1903               	btfsc	3,2
  6876  0F69  2F6B               	goto	u4101
  6877  0F6A  2F6C               	goto	u4100
  6878  0F6B                     u4101:
  6879  0F6B  2F71               	goto	l3299
  6880  0F6C                     u4100:
  6881  0F6C                     l3297:
  6882  0F6C  09BC               	comf	___awdiv@quotient,f
  6883  0F6D  09BD               	comf	___awdiv@quotient+1,f
  6884  0F6E  0ABC               	incf	___awdiv@quotient,f
  6885  0F6F  1903               	skipnz
  6886  0F70  0ABD               	incf	___awdiv@quotient+1,f
  6887  0F71                     l3299:
  6888  0F71  083D               	movf	___awdiv@quotient+1,w
  6889  0F72  00B7               	movwf	?___awdiv+1
  6890  0F73  083C               	movf	___awdiv@quotient,w
  6891  0F74  00B6               	movwf	?___awdiv
  6892  0F75                     l786:
  6893  0F75  0008               	return
  6894  0F76                     __end_of___awdiv:
  6895                           
  6896                           	psect	text30
  6897  070F                     __ptext30:	
  6898 ;; *************** function _Buttons_MainFunction *****************
  6899 ;; Defined at:
  6900 ;;		line 77 in file "Buttons/Buttons.c"
  6901 ;; Parameters:    Size  Location     Type
  6902 ;;		None
  6903 ;; Auto vars:     Size  Location     Type
  6904 ;;		None
  6905 ;; Return value:  Size  Location     Type
  6906 ;;                  1    wreg      void 
  6907 ;; Registers used:
  6908 ;;		wreg, fsr0l, fsr0h, status,2, status,0, btemp+1
  6909 ;; Tracked objects:
  6910 ;;		On entry : 0/0
  6911 ;;		On exit  : 0/0
  6912 ;;		Unchanged: 0/0
  6913 ;; Data sizes:     COMMON   BANK0   BANK1   BANK3   BANK2
  6914 ;;      Params:         0       0       0       0       0
  6915 ;;      Locals:         0       0       0       0       0
  6916 ;;      Temps:          0       1       0       0       0
  6917 ;;      Totals:         0       1       0       0       0
  6918 ;;Total ram usage:        1 bytes
  6919 ;; Hardware stack levels used:    1
  6920 ;; Hardware stack levels required when called:    4
  6921 ;; This function calls:
  6922 ;;		Nothing
  6923 ;; This function is called by:
  6924 ;;		_Scheduler_Task1
  6925 ;; This function uses a non-reentrant model
  6926 ;;
  6927                           
  6928                           
  6929                           ;psect for function _Buttons_MainFunction
  6930  070F                     _Buttons_MainFunction:
  6931  070F                     l3659:	
  6932                           ;incstack = 0
  6933                           ; Regs used in _Buttons_MainFunction: [wreg-fsr0h+status,2+status,0+btemp+1]
  6934                           
  6935                           
  6936                           ;Buttons/Buttons.c: 79:     static uint8_t Counter_Debounce=0;;Buttons/Buttons.c: 80:   
      +                            Debounce_Down[Counter_Debounce]=((PORTB>>1)&1);
  6937  070F  1283               	bcf	3,5	;RP0=0, select bank0
  6938  0710  1303               	bcf	3,6	;RP1=0, select bank0
  6939  0711  0806               	movf	6,w	;volatile
  6940  0712  00B6               	movwf	??_Buttons_MainFunction
  6941  0713  1003               	clrc
  6942  0714  0C36               	rrf	??_Buttons_MainFunction,w
  6943  0715  3901               	andlw	1
  6944  0716  00FF               	movwf	btemp+1
  6945  0717  0849               	movf	Buttons_MainFunction@Counter_Debounce,w
  6946  0718  3ED6               	addlw	(low (_Debounce_Down| 0))& (0+255)
  6947  0719  0084               	movwf	4
  6948  071A  087F               	movf	btemp+1,w
  6949  071B  1383               	bcf	3,7	;select IRP bank1
  6950  071C  0080               	movwf	0
  6951                           
  6952                           ;Buttons/Buttons.c: 81:     Debounce_Up[Counter_Debounce]=((PORTB>>2)&1);
  6953  071D  0806               	movf	6,w	;volatile
  6954  071E  00B6               	movwf	??_Buttons_MainFunction
  6955  071F  3002               	movlw	2
  6956  0720                     u4925:
  6957  0720  1003               	clrc
  6958  0721  0CB6               	rrf	??_Buttons_MainFunction,f
  6959  0722  3EFF               	addlw	-1
  6960  0723  1D03               	skipz
  6961  0724  2F20               	goto	u4925
  6962  0725  0836               	movf	??_Buttons_MainFunction,w
  6963  0726  3901               	andlw	1
  6964  0727  00FF               	movwf	btemp+1
  6965  0728  0849               	movf	Buttons_MainFunction@Counter_Debounce,w
  6966  0729  3ED9               	addlw	(low (_Debounce_Up| 0))& (0+255)
  6967  072A  0084               	movwf	4
  6968  072B  087F               	movf	btemp+1,w
  6969  072C  0080               	movwf	0
  6970  072D                     l3661:
  6971                           
  6972                           ;Buttons/Buttons.c: 82:     Counter_Debounce=(Counter_Debounce+1)%(3 +1);
  6973  072D  0849               	movf	Buttons_MainFunction@Counter_Debounce,w
  6974  072E  3E01               	addlw	1
  6975  072F  3903               	andlw	3
  6976  0730  00FF               	movwf	btemp+1
  6977  0731  087F               	movf	btemp+1,w
  6978  0732  00C9               	movwf	Buttons_MainFunction@Counter_Debounce
  6979  0733                     l3663:
  6980                           
  6981                           ;Buttons/Buttons.c: 84:     if(Debounce_Up[0]==0 && Debounce_Up[1]==0 &&Debounce_Up[2]==
      +                          0)
  6982  0733  1683               	bsf	3,5	;RP0=1, select bank1
  6983  0734  1303               	bcf	3,6	;RP1=0, select bank1
  6984  0735  0859               	movf	_Debounce_Up^(0+128),w
  6985  0736  1D03               	btfss	3,2
  6986  0737  2F39               	goto	u4931
  6987  0738  2F3A               	goto	u4930
  6988  0739                     u4931:
  6989  0739  2F69               	goto	l3683
  6990  073A                     u4930:
  6991  073A                     l3665:
  6992  073A  085A               	movf	(_Debounce_Up^(0+128)+1),w
  6993  073B  1D03               	btfss	3,2
  6994  073C  2F3E               	goto	u4941
  6995  073D  2F3F               	goto	u4940
  6996  073E                     u4941:
  6997  073E  2F69               	goto	l3683
  6998  073F                     u4940:
  6999  073F                     l3667:
  7000  073F  085B               	movf	(_Debounce_Up^(0+128)+2),w
  7001  0740  1D03               	btfss	3,2
  7002  0741  2F43               	goto	u4951
  7003  0742  2F44               	goto	u4950
  7004  0743                     u4951:
  7005  0743  2F69               	goto	l3683
  7006  0744                     u4950:
  7007  0744                     l3669:
  7008                           
  7009                           ;Buttons/Buttons.c: 85:     {;Buttons/Buttons.c: 86:         if(Mode.Select_Mode==Settin
      +                          g_Mode)
  7010  0744  3002               	movlw	2
  7011  0745  1283               	bcf	3,5	;RP0=0, select bank0
  7012  0746  1303               	bcf	3,6	;RP1=0, select bank0
  7013  0747  0654               	xorwf	_Mode,w
  7014  0748  1D03               	btfss	3,2
  7015  0749  2F4B               	goto	u4961
  7016  074A  2F4C               	goto	u4960
  7017  074B                     u4961:
  7018  074B  2F58               	goto	l3673
  7019  074C                     u4960:
  7020  074C                     l3671:
  7021                           
  7022                           ;Buttons/Buttons.c: 87:         {;Buttons/Buttons.c: 88:          Buttons.UpFlag=Buttons
      +                          .UpFlag=1;
  7023  074C  144A               	bsf	_Buttons,0
  7024  074D  184A               	btfsc	_Buttons,0
  7025  074E  2F50               	goto	u4971
  7026  074F  2F54               	goto	u4970
  7027  0750                     u4971:
  7028  0750  1283               	bcf	3,5	;RP0=0, select bank0
  7029  0751  1303               	bcf	3,6	;RP1=0, select bank0
  7030  0752  144A               	bsf	_Buttons,0
  7031  0753  2F57               	goto	u4984
  7032  0754                     u4970:
  7033  0754  1283               	bcf	3,5	;RP0=0, select bank0
  7034  0755  1303               	bcf	3,6	;RP1=0, select bank0
  7035  0756  104A               	bcf	_Buttons,0
  7036  0757                     u4984:
  7037                           
  7038                           ;Buttons/Buttons.c: 89:         }
  7039  0757  2F61               	goto	l3677
  7040  0758                     l3673:
  7041  0758  0354               	decf	_Mode,w
  7042  0759  1D03               	btfss	3,2
  7043  075A  2F5C               	goto	u4991
  7044  075B  2F5D               	goto	u4990
  7045  075C                     u4991:
  7046  075C  2F61               	goto	l3677
  7047  075D                     u4990:
  7048  075D                     l3675:
  7049                           
  7050                           ;Buttons/Buttons.c: 91:         {;Buttons/Buttons.c: 92:          Mode.Select_Mode=Setti
      +                          ng_Mode;
  7051  075D  3002               	movlw	2
  7052  075E  00FF               	movwf	btemp+1
  7053  075F  087F               	movf	btemp+1,w
  7054  0760  00D4               	movwf	_Mode
  7055  0761                     l3677:
  7056                           
  7057                           ;Buttons/Buttons.c: 94:         Debounce_Up[0]=1;Debounce_Up[1]=1; Debounce_Up[2]=1;
  7058  0761  1683               	bsf	3,5	;RP0=1, select bank1
  7059  0762  1303               	bcf	3,6	;RP1=0, select bank1
  7060  0763  01D9               	clrf	_Debounce_Up^(0+128)
  7061  0764  0AD9               	incf	_Debounce_Up^(0+128),f
  7062  0765                     l3679:
  7063  0765  01DA               	clrf	(_Debounce_Up^(0+128)+1)
  7064  0766  0ADA               	incf	(_Debounce_Up^(0+128)+1),f
  7065  0767                     l3681:
  7066  0767  01DB               	clrf	(_Debounce_Up^(0+128)+2)
  7067  0768  0ADB               	incf	(_Debounce_Up^(0+128)+2),f
  7068  0769                     l3683:
  7069                           
  7070                           ;Buttons/Buttons.c: 97:     if(Debounce_Down[0]==0 && Debounce_Down[1]==0 &&Debounce_Dow
      +                          n[2]==0)
  7071  0769  0856               	movf	_Debounce_Down^(0+128),w
  7072  076A  1D03               	btfss	3,2
  7073  076B  2F6D               	goto	u5001
  7074  076C  2F6E               	goto	u5000
  7075  076D                     u5001:
  7076  076D  2F9D               	goto	l119
  7077  076E                     u5000:
  7078  076E                     l3685:
  7079  076E  0857               	movf	(_Debounce_Down^(0+128)+1),w
  7080  076F  1D03               	btfss	3,2
  7081  0770  2F72               	goto	u5011
  7082  0771  2F73               	goto	u5010
  7083  0772                     u5011:
  7084  0772  2F9D               	goto	l119
  7085  0773                     u5010:
  7086  0773                     l3687:
  7087  0773  0858               	movf	(_Debounce_Down^(0+128)+2),w
  7088  0774  1D03               	btfss	3,2
  7089  0775  2F77               	goto	u5021
  7090  0776  2F78               	goto	u5020
  7091  0777                     u5021:
  7092  0777  2F9D               	goto	l119
  7093  0778                     u5020:
  7094  0778                     l3689:
  7095                           
  7096                           ;Buttons/Buttons.c: 98:     {;Buttons/Buttons.c: 100:         if(Mode.Select_Mode==Setti
      +                          ng_Mode)
  7097  0778  3002               	movlw	2
  7098  0779  1283               	bcf	3,5	;RP0=0, select bank0
  7099  077A  1303               	bcf	3,6	;RP1=0, select bank0
  7100  077B  0654               	xorwf	_Mode,w
  7101  077C  1D03               	btfss	3,2
  7102  077D  2F7F               	goto	u5031
  7103  077E  2F80               	goto	u5030
  7104  077F                     u5031:
  7105  077F  2F8C               	goto	l3693
  7106  0780                     u5030:
  7107  0780                     l3691:
  7108                           
  7109                           ;Buttons/Buttons.c: 101:         {;Buttons/Buttons.c: 102:          Buttons.DownFlag=But
      +                          tons.DownFlag=1;
  7110  0780  14CA               	bsf	_Buttons,1
  7111  0781  18CA               	btfsc	_Buttons,1
  7112  0782  2F84               	goto	u5041
  7113  0783  2F88               	goto	u5040
  7114  0784                     u5041:
  7115  0784  1283               	bcf	3,5	;RP0=0, select bank0
  7116  0785  1303               	bcf	3,6	;RP1=0, select bank0
  7117  0786  14CA               	bsf	_Buttons,1
  7118  0787  2F8B               	goto	u5054
  7119  0788                     u5040:
  7120  0788  1283               	bcf	3,5	;RP0=0, select bank0
  7121  0789  1303               	bcf	3,6	;RP1=0, select bank0
  7122  078A  10CA               	bcf	_Buttons,1
  7123  078B                     u5054:
  7124                           
  7125                           ;Buttons/Buttons.c: 104:         }
  7126  078B  2F95               	goto	l3697
  7127  078C                     l3693:
  7128  078C  0354               	decf	_Mode,w
  7129  078D  1D03               	btfss	3,2
  7130  078E  2F90               	goto	u5061
  7131  078F  2F91               	goto	u5060
  7132  0790                     u5061:
  7133  0790  2F95               	goto	l3697
  7134  0791                     u5060:
  7135  0791                     l3695:
  7136                           
  7137                           ;Buttons/Buttons.c: 106:         {;Buttons/Buttons.c: 107:           Mode.Select_Mode=Se
      +                          tting_Mode;
  7138  0791  3002               	movlw	2
  7139  0792  00FF               	movwf	btemp+1
  7140  0793  087F               	movf	btemp+1,w
  7141  0794  00D4               	movwf	_Mode
  7142  0795                     l3697:
  7143                           
  7144                           ;Buttons/Buttons.c: 109:         Debounce_Down[0]=1;Debounce_Down[1]=1; Debounce_Down[2]
      +                          =1;
  7145  0795  1683               	bsf	3,5	;RP0=1, select bank1
  7146  0796  1303               	bcf	3,6	;RP1=0, select bank1
  7147  0797  01D6               	clrf	_Debounce_Down^(0+128)
  7148  0798  0AD6               	incf	_Debounce_Down^(0+128),f
  7149  0799                     l3699:
  7150  0799  01D7               	clrf	(_Debounce_Down^(0+128)+1)
  7151  079A  0AD7               	incf	(_Debounce_Down^(0+128)+1),f
  7152  079B                     l3701:
  7153  079B  01D8               	clrf	(_Debounce_Down^(0+128)+2)
  7154  079C  0AD8               	incf	(_Debounce_Down^(0+128)+2),f
  7155  079D                     l119:
  7156  079D  0008               	return
  7157  079E                     __end_of_Buttons_MainFunction:
  7158                           
  7159                           	psect	text31
  7160  0863                     __ptext31:	
  7161 ;; *************** function _Scheduler_Init *****************
  7162 ;; Defined at:
  7163 ;;		line 29 in file "Scheduler/Scheduler.c"
  7164 ;; Parameters:    Size  Location     Type
  7165 ;;		None
  7166 ;; Auto vars:     Size  Location     Type
  7167 ;;		None
  7168 ;; Return value:  Size  Location     Type
  7169 ;;                  1    wreg      void 
  7170 ;; Registers used:
  7171 ;;		wreg, fsr0l, fsr0h, status,2, status,0, btemp+1, pclath, cstack
  7172 ;; Tracked objects:
  7173 ;;		On entry : 0/0
  7174 ;;		On exit  : 0/0
  7175 ;;		Unchanged: 0/0
  7176 ;; Data sizes:     COMMON   BANK0   BANK1   BANK3   BANK2
  7177 ;;      Params:         0       0       0       0       0
  7178 ;;      Locals:         0       0       0       0       0
  7179 ;;      Temps:          0       0       0       0       0
  7180 ;;      Totals:         0       0       0       0       0
  7181 ;;Total ram usage:        0 bytes
  7182 ;; Hardware stack levels used:    1
  7183 ;; Hardware stack levels required when called:    5
  7184 ;; This function calls:
  7185 ;;		_memset
  7186 ;; This function is called by:
  7187 ;;		_main
  7188 ;; This function uses a non-reentrant model
  7189 ;;
  7190                           
  7191                           
  7192                           ;psect for function _Scheduler_Init
  7193  0863                     _Scheduler_Init:
  7194  0863                     l3881:	
  7195                           ;incstack = 0
  7196                           ; Regs used in _Scheduler_Init: [wreg-fsr0h+status,2+status,0+btemp+1+pclath+cstack]
  7197                           
  7198                           
  7199                           ;Scheduler/Scheduler.c: 31:   memset( Scheduler_ActivationFlags , 0 , sizeof( Scheduler_
      +                          ActivationFlags ) );
  7200  0863  3000               	movlw	0
  7201  0864  1283               	bcf	3,5	;RP0=0, select bank0
  7202  0865  1303               	bcf	3,6	;RP1=0, select bank0
  7203  0866  00B6               	movwf	memset@c
  7204  0867  00B7               	movwf	memset@c+1
  7205  0868  3003               	movlw	3
  7206  0869  00B8               	movwf	memset@n
  7207  086A  3000               	movlw	0
  7208  086B  00B9               	movwf	memset@n+1
  7209  086C  30D3               	movlw	(low (_Scheduler_ActivationFlags| 0))& (0+255)
  7210  086D  120A  158A  2142  120A  158A  	fcall	_memset
  7211  0872                     l254:
  7212  0872  0008               	return
  7213  0873                     __end_of_Scheduler_Init:
  7214                           
  7215                           	psect	text32
  7216  0848                     __ptext32:	
  7217 ;; *************** function _SSD_Init *****************
  7218 ;; Defined at:
  7219 ;;		line 27 in file "SSD/SSD.c"
  7220 ;; Parameters:    Size  Location     Type
  7221 ;;		None
  7222 ;; Auto vars:     Size  Location     Type
  7223 ;;		None
  7224 ;; Return value:  Size  Location     Type
  7225 ;;                  1    wreg      void 
  7226 ;; Registers used:
  7227 ;;		wreg, status,2, status,0, btemp+1
  7228 ;; Tracked objects:
  7229 ;;		On entry : 0/0
  7230 ;;		On exit  : 0/0
  7231 ;;		Unchanged: 0/0
  7232 ;; Data sizes:     COMMON   BANK0   BANK1   BANK3   BANK2
  7233 ;;      Params:         0       0       0       0       0
  7234 ;;      Locals:         0       0       0       0       0
  7235 ;;      Temps:          0       0       0       0       0
  7236 ;;      Totals:         0       0       0       0       0
  7237 ;;Total ram usage:        0 bytes
  7238 ;; Hardware stack levels used:    1
  7239 ;; Hardware stack levels required when called:    4
  7240 ;; This function calls:
  7241 ;;		Nothing
  7242 ;; This function is called by:
  7243 ;;		_main
  7244 ;; This function uses a non-reentrant model
  7245 ;;
  7246                           
  7247                           
  7248                           ;psect for function _SSD_Init
  7249  0848                     _SSD_Init:
  7250  0848                     l2993:	
  7251                           ;incstack = 0
  7252                           ; Regs used in _SSD_Init: [wreg+status,2+status,0+btemp+1]
  7253                           
  7254                           
  7255                           ;SSD/SSD.c: 29:  (PORTA &= ~(1<<5)) ;
  7256  0848  30DF               	movlw	223
  7257  0849  00FF               	movwf	btemp+1
  7258  084A  087F               	movf	btemp+1,w
  7259  084B  1283               	bcf	3,5	;RP0=0, select bank0
  7260  084C  1303               	bcf	3,6	;RP1=0, select bank0
  7261  084D  0585               	andwf	5,f	;volatile
  7262                           
  7263                           ;SSD/SSD.c: 30:  (PORTA &= ~(1<<4)) ;
  7264  084E  30EF               	movlw	239
  7265  084F  00FF               	movwf	btemp+1
  7266  0850  087F               	movf	btemp+1,w
  7267  0851  0585               	andwf	5,f	;volatile
  7268  0852                     l2995:
  7269                           
  7270                           ;SSD/SSD.c: 31:  PORTD=0;
  7271  0852  0188               	clrf	8	;volatile
  7272  0853                     l501:
  7273  0853  0008               	return
  7274  0854                     __end_of_SSD_Init:
  7275                           
  7276                           	psect	text33
  7277  17AF                     __ptext33:	
  7278 ;; *************** function _ModeManager_Init *****************
  7279 ;; Defined at:
  7280 ;;		line 28 in file "WaterHeater_Mode/WaterHeater_Mode.c"
  7281 ;; Parameters:    Size  Location     Type
  7282 ;;		None
  7283 ;; Auto vars:     Size  Location     Type
  7284 ;;		None
  7285 ;; Return value:  Size  Location     Type
  7286 ;;                  1    wreg      void 
  7287 ;; Registers used:
  7288 ;;		status,2
  7289 ;; Tracked objects:
  7290 ;;		On entry : 0/0
  7291 ;;		On exit  : 0/0
  7292 ;;		Unchanged: 0/0
  7293 ;; Data sizes:     COMMON   BANK0   BANK1   BANK3   BANK2
  7294 ;;      Params:         0       0       0       0       0
  7295 ;;      Locals:         0       0       0       0       0
  7296 ;;      Temps:          0       0       0       0       0
  7297 ;;      Totals:         0       0       0       0       0
  7298 ;;Total ram usage:        0 bytes
  7299 ;; Hardware stack levels used:    1
  7300 ;; Hardware stack levels required when called:    4
  7301 ;; This function calls:
  7302 ;;		Nothing
  7303 ;; This function is called by:
  7304 ;;		_main
  7305 ;; This function uses a non-reentrant model
  7306 ;;
  7307                           
  7308                           
  7309                           ;psect for function _ModeManager_Init
  7310  17AF                     _ModeManager_Init:
  7311  17AF                     l3003:	
  7312                           ;incstack = 0
  7313                           ; Regs used in _ModeManager_Init: [status,2]
  7314                           
  7315                           
  7316                           ;WaterHeater_Mode/WaterHeater_Mode.c: 30:  Mode.Select_Mode=Off_Mode;
  7317  17AF  1283               	bcf	3,5	;RP0=0, select bank0
  7318  17B0  1303               	bcf	3,6	;RP1=0, select bank0
  7319  17B1  01D4               	clrf	_Mode
  7320  17B2                     l356:
  7321  17B2  0008               	return
  7322  17B3                     __end_of_ModeManager_Init:
  7323                           
  7324                           	psect	text34
  7325  083C                     __ptext34:	
  7326 ;; *************** function _I2c_Init *****************
  7327 ;; Defined at:
  7328 ;;		line 10 in file "I2C/I2C.c"
  7329 ;; Parameters:    Size  Location     Type
  7330 ;;		None
  7331 ;; Auto vars:     Size  Location     Type
  7332 ;;		None
  7333 ;; Return value:  Size  Location     Type
  7334 ;;                  1    wreg      void 
  7335 ;; Registers used:
  7336 ;;		wreg
  7337 ;; Tracked objects:
  7338 ;;		On entry : 0/0
  7339 ;;		On exit  : 0/0
  7340 ;;		Unchanged: 0/0
  7341 ;; Data sizes:     COMMON   BANK0   BANK1   BANK3   BANK2
  7342 ;;      Params:         0       0       0       0       0
  7343 ;;      Locals:         0       0       0       0       0
  7344 ;;      Temps:          0       0       0       0       0
  7345 ;;      Totals:         0       0       0       0       0
  7346 ;;Total ram usage:        0 bytes
  7347 ;; Hardware stack levels used:    1
  7348 ;; Hardware stack levels required when called:    4
  7349 ;; This function calls:
  7350 ;;		Nothing
  7351 ;; This function is called by:
  7352 ;;		_main
  7353 ;; This function uses a non-reentrant model
  7354 ;;
  7355                           
  7356                           
  7357                           ;psect for function _I2c_Init
  7358  083C                     _I2c_Init:
  7359  083C                     l2973:	
  7360                           ;incstack = 0
  7361                           ; Regs used in _I2c_Init: [wreg]
  7362                           
  7363                           
  7364                           ;I2C/I2C.c: 12:     SSPADD = (8000000/(4*100000))-1;
  7365  083C  3013               	movlw	19
  7366  083D  1683               	bsf	3,5	;RP0=1, select bank1
  7367  083E  1303               	bcf	3,6	;RP1=0, select bank1
  7368  083F  0093               	movwf	19	;volatile
  7369  0840                     l2975:
  7370                           
  7371                           ;I2C/I2C.c: 14:     SSPM0=0;
  7372  0840  1283               	bcf	3,5	;RP0=0, select bank0
  7373  0841  1303               	bcf	3,6	;RP1=0, select bank0
  7374  0842  1014               	bcf	20,0	;volatile
  7375  0843                     l2977:
  7376                           
  7377                           ;I2C/I2C.c: 15:     SSPM1=0;
  7378  0843  1094               	bcf	20,1	;volatile
  7379  0844                     l2979:
  7380                           
  7381                           ;I2C/I2C.c: 16:     SSPM2=0;
  7382  0844  1114               	bcf	20,2	;volatile
  7383  0845                     l2981:
  7384                           
  7385                           ;I2C/I2C.c: 17:     SSPM3=1;
  7386  0845  1594               	bsf	20,3	;volatile
  7387  0846                     l2983:
  7388                           
  7389                           ;I2C/I2C.c: 19:     SSPEN=1;
  7390  0846  1694               	bsf	20,5	;volatile
  7391  0847                     l402:
  7392  0847  0008               	return
  7393  0848                     __end_of_I2c_Init:
  7394                           
  7395                           	psect	text35
  7396  0B18                     __ptext35:	
  7397 ;; *************** function _Get_EEPROM_Data *****************
  7398 ;; Defined at:
  7399 ;;		line 27 in file "EEPROM/EEPROM.c"
  7400 ;; Parameters:    Size  Location     Type
  7401 ;;		None
  7402 ;; Auto vars:     Size  Location     Type
  7403 ;;		None
  7404 ;; Return value:  Size  Location     Type
  7405 ;;                  1    wreg      void 
  7406 ;; Registers used:
  7407 ;;		wreg, status,2, status,0, btemp+1, pclath, cstack
  7408 ;; Tracked objects:
  7409 ;;		On entry : 0/0
  7410 ;;		On exit  : 0/0
  7411 ;;		Unchanged: 0/0
  7412 ;; Data sizes:     COMMON   BANK0   BANK1   BANK3   BANK2
  7413 ;;      Params:         0       0       0       0       0
  7414 ;;      Locals:         0       0       0       0       0
  7415 ;;      Temps:          0       2       0       0       0
  7416 ;;      Totals:         0       2       0       0       0
  7417 ;;Total ram usage:        2 bytes
  7418 ;; Hardware stack levels used:    1
  7419 ;; Hardware stack levels required when called:    6
  7420 ;; This function calls:
  7421 ;;		_EEPROM_Read
  7422 ;;		___awmod
  7423 ;; This function is called by:
  7424 ;;		_main
  7425 ;; This function uses a non-reentrant model
  7426 ;;
  7427                           
  7428                           
  7429                           ;psect for function _Get_EEPROM_Data
  7430  0B18                     _Get_EEPROM_Data:
  7431  0B18                     l3869:	
  7432                           ;incstack = 0
  7433                           ; Regs used in _Get_EEPROM_Data: [wreg+status,2+status,0+btemp+1+pclath+cstack]
  7434                           
  7435                           
  7436                           ;EEPROM/EEPROM.c: 31:  EEPROM_Data=EEPROM_Read(0x0A);
  7437  0B18  300A               	movlw	10
  7438  0B19  120A  158A  2487  120A  158A  	fcall	_EEPROM_Read
  7439  0B1E  00FF               	movwf	btemp+1
  7440  0B1F  087F               	movf	btemp+1,w
  7441  0B20  1283               	bcf	3,5	;RP0=0, select bank0
  7442  0B21  1303               	bcf	3,6	;RP1=0, select bank0
  7443  0B22  00C8               	movwf	_EEPROM_Data
  7444  0B23                     l3871:
  7445                           
  7446                           ;EEPROM/EEPROM.c: 33:  if((EEPROM_Data<=(75U))&&(EEPROM_Data>=(35U) )&& ((EEPROM_Data%5)
      +                          ==0) )
  7447  0B23  304C               	movlw	76
  7448  0B24  0248               	subwf	_EEPROM_Data,w
  7449  0B25  1803               	skipnc
  7450  0B26  2B28               	goto	u5271
  7451  0B27  2B29               	goto	u5270
  7452  0B28                     u5271:
  7453  0B28  2B4C               	goto	l3879
  7454  0B29                     u5270:
  7455  0B29                     l3873:
  7456  0B29  3023               	movlw	35
  7457  0B2A  0248               	subwf	_EEPROM_Data,w
  7458  0B2B  1C03               	skipc
  7459  0B2C  2B2E               	goto	u5281
  7460  0B2D  2B2F               	goto	u5280
  7461  0B2E                     u5281:
  7462  0B2E  2B4C               	goto	l3879
  7463  0B2F                     u5280:
  7464  0B2F                     l3875:
  7465  0B2F  3005               	movlw	5
  7466  0B30  00B6               	movwf	___awmod@divisor
  7467  0B31  3000               	movlw	0
  7468  0B32  00B7               	movwf	___awmod@divisor+1
  7469  0B33  0848               	movf	_EEPROM_Data,w
  7470  0B34  00BC               	movwf	??_Get_EEPROM_Data
  7471  0B35  01BD               	clrf	??_Get_EEPROM_Data+1
  7472  0B36  083C               	movf	??_Get_EEPROM_Data,w
  7473  0B37  00B8               	movwf	___awmod@dividend
  7474  0B38  083D               	movf	??_Get_EEPROM_Data+1,w
  7475  0B39  00B9               	movwf	___awmod@dividend+1
  7476  0B3A  120A  158A  257E  120A  158A  	fcall	___awmod
  7477  0B3F  1283               	bcf	3,5	;RP0=0, select bank0
  7478  0B40  1303               	bcf	3,6	;RP1=0, select bank0
  7479  0B41  0836               	movf	?___awmod,w
  7480  0B42  0437               	iorwf	?___awmod+1,w
  7481  0B43  1D03               	btfss	3,2
  7482  0B44  2B46               	goto	u5291
  7483  0B45  2B47               	goto	u5290
  7484  0B46                     u5291:
  7485  0B46  2B4C               	goto	l3879
  7486  0B47                     u5290:
  7487  0B47                     l3877:
  7488                           
  7489                           ;EEPROM/EEPROM.c: 34:  {;EEPROM/EEPROM.c: 35:    Temperature.Set_Temp=EEPROM_Data;
  7490  0B47  0848               	movf	_EEPROM_Data,w
  7491  0B48  00FF               	movwf	btemp+1
  7492  0B49  087F               	movf	btemp+1,w
  7493  0B4A  00D1               	movwf	_Temperature+3
  7494                           
  7495                           ;EEPROM/EEPROM.c: 36:  }
  7496  0B4B  2B50               	goto	l464
  7497  0B4C                     l3879:
  7498                           
  7499                           ;EEPROM/EEPROM.c: 38:  {;EEPROM/EEPROM.c: 39:    Temperature.Set_Temp=(60U);
  7500  0B4C  303C               	movlw	60
  7501  0B4D  00FF               	movwf	btemp+1
  7502  0B4E  087F               	movf	btemp+1,w
  7503  0B4F  00D1               	movwf	_Temperature+3
  7504  0B50                     l464:
  7505  0B50  0008               	return
  7506  0B51                     __end_of_Get_EEPROM_Data:
  7507                           
  7508                           	psect	text36
  7509  0D7E                     __ptext36:	
  7510 ;; *************** function ___awmod *****************
  7511 ;; Defined at:
  7512 ;;		line 5 in file "C:\Program Files (x86)\Microchip\xc8\v2.20\pic\sources\c90\common\awmod.c"
  7513 ;; Parameters:    Size  Location     Type
  7514 ;;  divisor         2   22[BANK0 ] int 
  7515 ;;  dividend        2   24[BANK0 ] int 
  7516 ;; Auto vars:     Size  Location     Type
  7517 ;;  sign            1   27[BANK0 ] unsigned char 
  7518 ;;  counter         1   26[BANK0 ] unsigned char 
  7519 ;; Return value:  Size  Location     Type
  7520 ;;                  2   22[BANK0 ] int 
  7521 ;; Registers used:
  7522 ;;		wreg, status,2, status,0, btemp+1
  7523 ;; Tracked objects:
  7524 ;;		On entry : 0/0
  7525 ;;		On exit  : 0/0
  7526 ;;		Unchanged: 0/0
  7527 ;; Data sizes:     COMMON   BANK0   BANK1   BANK3   BANK2
  7528 ;;      Params:         0       4       0       0       0
  7529 ;;      Locals:         0       2       0       0       0
  7530 ;;      Temps:          0       0       0       0       0
  7531 ;;      Totals:         0       6       0       0       0
  7532 ;;Total ram usage:        6 bytes
  7533 ;; Hardware stack levels used:    1
  7534 ;; Hardware stack levels required when called:    4
  7535 ;; This function calls:
  7536 ;;		Nothing
  7537 ;; This function is called by:
  7538 ;;		_Get_EEPROM_Data
  7539 ;;		_SSD_SelectDigit
  7540 ;; This function uses a non-reentrant model
  7541 ;;
  7542                           
  7543                           
  7544                           ;psect for function ___awmod
  7545  0D7E                     ___awmod:
  7546  0D7E                     l3303:	
  7547                           ;incstack = 0
  7548 ;; hardware stack exceeded
  7549                           ; Regs used in ___awmod: [wreg+status,2+status,0+btemp+1]
  7550                           
  7551  0D7E  1283               	bcf	3,5	;RP0=0, select bank0
  7552  0D7F  1303               	bcf	3,6	;RP1=0, select bank0
  7553  0D80  01BB               	clrf	___awmod@sign
  7554  0D81                     l3305:
  7555  0D81  1FB9               	btfss	___awmod@dividend+1,7
  7556  0D82  2D84               	goto	u4111
  7557  0D83  2D85               	goto	u4110
  7558  0D84                     u4111:
  7559  0D84  2D8C               	goto	l3311
  7560  0D85                     u4110:
  7561  0D85                     l3307:
  7562  0D85  09B8               	comf	___awmod@dividend,f
  7563  0D86  09B9               	comf	___awmod@dividend+1,f
  7564  0D87  0AB8               	incf	___awmod@dividend,f
  7565  0D88  1903               	skipnz
  7566  0D89  0AB9               	incf	___awmod@dividend+1,f
  7567  0D8A                     l3309:
  7568  0D8A  01BB               	clrf	___awmod@sign
  7569  0D8B  0ABB               	incf	___awmod@sign,f
  7570  0D8C                     l3311:
  7571  0D8C  1FB7               	btfss	___awmod@divisor+1,7
  7572  0D8D  2D8F               	goto	u4121
  7573  0D8E  2D90               	goto	u4120
  7574  0D8F                     u4121:
  7575  0D8F  2D95               	goto	l3315
  7576  0D90                     u4120:
  7577  0D90                     l3313:
  7578  0D90  09B6               	comf	___awmod@divisor,f
  7579  0D91  09B7               	comf	___awmod@divisor+1,f
  7580  0D92  0AB6               	incf	___awmod@divisor,f
  7581  0D93  1903               	skipnz
  7582  0D94  0AB7               	incf	___awmod@divisor+1,f
  7583  0D95                     l3315:
  7584  0D95  0836               	movf	___awmod@divisor,w
  7585  0D96  0437               	iorwf	___awmod@divisor+1,w
  7586  0D97  1903               	btfsc	3,2
  7587  0D98  2D9A               	goto	u4131
  7588  0D99  2D9B               	goto	u4130
  7589  0D9A                     u4131:
  7590  0D9A  2DCA               	goto	l3333
  7591  0D9B                     u4130:
  7592  0D9B                     l3317:
  7593  0D9B  01BA               	clrf	___awmod@counter
  7594  0D9C  0ABA               	incf	___awmod@counter,f
  7595  0D9D  2DA9               	goto	l3323
  7596  0D9E                     l3319:
  7597  0D9E  3001               	movlw	1
  7598  0D9F                     u4145:
  7599  0D9F  1003               	clrc
  7600  0DA0  0DB6               	rlf	___awmod@divisor,f
  7601  0DA1  0DB7               	rlf	___awmod@divisor+1,f
  7602  0DA2  3EFF               	addlw	-1
  7603  0DA3  1D03               	skipz
  7604  0DA4  2D9F               	goto	u4145
  7605  0DA5                     l3321:
  7606  0DA5  3001               	movlw	1
  7607  0DA6  00FF               	movwf	btemp+1
  7608  0DA7  087F               	movf	btemp+1,w
  7609  0DA8  07BA               	addwf	___awmod@counter,f
  7610  0DA9                     l3323:
  7611  0DA9  1FB7               	btfss	___awmod@divisor+1,7
  7612  0DAA  2DAC               	goto	u4151
  7613  0DAB  2DAD               	goto	u4150
  7614  0DAC                     u4151:
  7615  0DAC  2D9E               	goto	l3319
  7616  0DAD                     u4150:
  7617  0DAD                     l3325:
  7618  0DAD  0837               	movf	___awmod@divisor+1,w
  7619  0DAE  0239               	subwf	___awmod@dividend+1,w
  7620  0DAF  1D03               	skipz
  7621  0DB0  2DB3               	goto	u4165
  7622  0DB1  0836               	movf	___awmod@divisor,w
  7623  0DB2  0238               	subwf	___awmod@dividend,w
  7624  0DB3                     u4165:
  7625  0DB3  1C03               	skipc
  7626  0DB4  2DB6               	goto	u4161
  7627  0DB5  2DB7               	goto	u4160
  7628  0DB6                     u4161:
  7629  0DB6  2DBD               	goto	l3329
  7630  0DB7                     u4160:
  7631  0DB7                     l3327:
  7632  0DB7  0836               	movf	___awmod@divisor,w
  7633  0DB8  02B8               	subwf	___awmod@dividend,f
  7634  0DB9  0837               	movf	___awmod@divisor+1,w
  7635  0DBA  1C03               	skipc
  7636  0DBB  03B9               	decf	___awmod@dividend+1,f
  7637  0DBC  02B9               	subwf	___awmod@dividend+1,f
  7638  0DBD                     l3329:
  7639  0DBD  3001               	movlw	1
  7640  0DBE                     u4175:
  7641  0DBE  1003               	clrc
  7642  0DBF  0CB7               	rrf	___awmod@divisor+1,f
  7643  0DC0  0CB6               	rrf	___awmod@divisor,f
  7644  0DC1  3EFF               	addlw	-1
  7645  0DC2  1D03               	skipz
  7646  0DC3  2DBE               	goto	u4175
  7647  0DC4                     l3331:
  7648  0DC4  3001               	movlw	1
  7649  0DC5  02BA               	subwf	___awmod@counter,f
  7650  0DC6  1D03               	btfss	3,2
  7651  0DC7  2DC9               	goto	u4181
  7652  0DC8  2DCA               	goto	u4180
  7653  0DC9                     u4181:
  7654  0DC9  2DAD               	goto	l3325
  7655  0DCA                     u4180:
  7656  0DCA                     l3333:
  7657  0DCA  083B               	movf	___awmod@sign,w
  7658  0DCB  1903               	btfsc	3,2
  7659  0DCC  2DCE               	goto	u4191
  7660  0DCD  2DCF               	goto	u4190
  7661  0DCE                     u4191:
  7662  0DCE  2DD4               	goto	l3337
  7663  0DCF                     u4190:
  7664  0DCF                     l3335:
  7665  0DCF  09B8               	comf	___awmod@dividend,f
  7666  0DD0  09B9               	comf	___awmod@dividend+1,f
  7667  0DD1  0AB8               	incf	___awmod@dividend,f
  7668  0DD2  1903               	skipnz
  7669  0DD3  0AB9               	incf	___awmod@dividend+1,f
  7670  0DD4                     l3337:
  7671  0DD4  0839               	movf	___awmod@dividend+1,w
  7672  0DD5  00B7               	movwf	?___awmod+1
  7673  0DD6  0838               	movf	___awmod@dividend,w
  7674  0DD7  00B6               	movwf	?___awmod
  7675  0DD8                     l799:
  7676  0DD8  0008               	return
  7677  0DD9                     __end_of___awmod:
  7678                           
  7679                           	psect	text37
  7680  0C87                     __ptext37:	
  7681 ;; *************** function _EEPROM_Read *****************
  7682 ;; Defined at:
  7683 ;;		line 104 in file "EEPROM/EEPROM.c"
  7684 ;; Parameters:    Size  Location     Type
  7685 ;;  Addr            1    wreg     unsigned char 
  7686 ;; Auto vars:     Size  Location     Type
  7687 ;;  Addr            1   23[BANK0 ] unsigned char 
  7688 ;; Return value:  Size  Location     Type
  7689 ;;                  1    wreg      unsigned char 
  7690 ;; Registers used:
  7691 ;;		wreg, status,2, status,0, btemp+1, pclath, cstack
  7692 ;; Tracked objects:
  7693 ;;		On entry : 0/0
  7694 ;;		On exit  : 0/0
  7695 ;;		Unchanged: 0/0
  7696 ;; Data sizes:     COMMON   BANK0   BANK1   BANK3   BANK2
  7697 ;;      Params:         0       0       0       0       0
  7698 ;;      Locals:         0       1       0       0       0
  7699 ;;      Temps:          0       0       0       0       0
  7700 ;;      Totals:         0       1       0       0       0
  7701 ;;Total ram usage:        1 bytes
  7702 ;; Hardware stack levels used:    1
  7703 ;; Hardware stack levels required when called:    5
  7704 ;; This function calls:
  7705 ;;		_I2c_Read
  7706 ;;		_I2c_Send_NAck
  7707 ;;		_I2c_Start
  7708 ;;		_I2c_Stop
  7709 ;;		_I2c_WaitAck
  7710 ;;		_I2c_Write
  7711 ;; This function is called by:
  7712 ;;		_Get_EEPROM_Data
  7713 ;; This function uses a non-reentrant model
  7714 ;;
  7715                           
  7716                           
  7717                           ;psect for function _EEPROM_Read
  7718  0C87                     _EEPROM_Read:
  7719                           
  7720                           ;incstack = 0
  7721                           ; Regs used in _EEPROM_Read: [wreg+status,2+status,0+btemp+1+pclath+cstack]
  7722                           ;EEPROM_Read@Addr stored from wreg
  7723  0C87  1283               	bcf	3,5	;RP0=0, select bank0
  7724  0C88  1303               	bcf	3,6	;RP1=0, select bank0
  7725  0C89  00B7               	movwf	EEPROM_Read@Addr
  7726  0C8A                     l3823:
  7727                           
  7728                           ;EEPROM/EEPROM.c: 104: uint8_t EEPROM_Read(uint8_t Addr);EEPROM/EEPROM.c: 105: {;EEPROM/
      +                          EEPROM.c: 106:   static uint8_t Data;;EEPROM/EEPROM.c: 107:   I2c_Start();
  7729  0C8A  160A  118A  27DF  120A  158A  	fcall	_I2c_Start
  7730  0C8F                     l3825:
  7731                           
  7732                           ;EEPROM/EEPROM.c: 108:   I2c_Write(0xA0);
  7733  0C8F  30A0               	movlw	160
  7734  0C90  160A  118A  27B7  120A  158A  	fcall	_I2c_Write
  7735  0C95                     l3827:
  7736                           
  7737                           ;EEPROM/EEPROM.c: 109:   I2c_WaitAck();
  7738  0C95  160A  118A  27BD  120A  158A  	fcall	_I2c_WaitAck
  7739                           
  7740                           ;EEPROM/EEPROM.c: 110:   I2c_Write(Addr);
  7741  0C9A  1283               	bcf	3,5	;RP0=0, select bank0
  7742  0C9B  1303               	bcf	3,6	;RP1=0, select bank0
  7743  0C9C  0837               	movf	EEPROM_Read@Addr,w
  7744  0C9D  160A  118A  27B7  120A  158A  	fcall	_I2c_Write
  7745  0CA2                     l3829:
  7746                           
  7747                           ;EEPROM/EEPROM.c: 111:   I2c_WaitAck();
  7748  0CA2  160A  118A  27BD  120A  158A  	fcall	_I2c_WaitAck
  7749  0CA7                     l3831:
  7750                           
  7751                           ;EEPROM/EEPROM.c: 112:   I2c_Start();
  7752  0CA7  160A  118A  27DF  120A  158A  	fcall	_I2c_Start
  7753                           
  7754                           ;EEPROM/EEPROM.c: 113:   I2c_Write(0xA0 +1);
  7755  0CAC  30A1               	movlw	161
  7756  0CAD  160A  118A  27B7  120A  158A  	fcall	_I2c_Write
  7757  0CB2                     l3833:
  7758                           
  7759                           ;EEPROM/EEPROM.c: 114:   I2c_WaitAck();
  7760  0CB2  160A  118A  27BD  120A  158A  	fcall	_I2c_WaitAck
  7761  0CB7                     l3835:
  7762                           
  7763                           ;EEPROM/EEPROM.c: 115:   Data=I2c_Read();
  7764  0CB7  120A  158A  2054  120A  158A  	fcall	_I2c_Read
  7765  0CBC  00FF               	movwf	btemp+1
  7766  0CBD  087F               	movf	btemp+1,w
  7767  0CBE  1283               	bcf	3,5	;RP0=0, select bank0
  7768  0CBF  1303               	bcf	3,6	;RP1=0, select bank0
  7769  0CC0  00C7               	movwf	EEPROM_Read@Data
  7770  0CC1                     l3837:
  7771                           
  7772                           ;EEPROM/EEPROM.c: 116:   I2c_Send_NAck();
  7773  0CC1  160A  118A  27D6  120A  158A  	fcall	_I2c_Send_NAck
  7774  0CC6                     l3839:
  7775                           
  7776                           ;EEPROM/EEPROM.c: 117:   I2c_Stop();
  7777  0CC6  160A  118A  27EA  120A  158A  	fcall	_I2c_Stop
  7778  0CCB                     l3841:
  7779                           
  7780                           ;EEPROM/EEPROM.c: 118:   return Data;
  7781  0CCB  1283               	bcf	3,5	;RP0=0, select bank0
  7782  0CCC  1303               	bcf	3,6	;RP1=0, select bank0
  7783  0CCD  0847               	movf	EEPROM_Read@Data,w
  7784  0CCE                     l476:
  7785  0CCE  0008               	return
  7786  0CCF                     __end_of_EEPROM_Read:
  7787                           
  7788                           	psect	text38
  7789  17B7                     __ptext38:	
  7790 ;; *************** function _I2c_Write *****************
  7791 ;; Defined at:
  7792 ;;		line 55 in file "I2C/I2C.c"
  7793 ;; Parameters:    Size  Location     Type
  7794 ;;  data            1    wreg     unsigned char 
  7795 ;; Auto vars:     Size  Location     Type
  7796 ;;  data            1   22[BANK0 ] unsigned char 
  7797 ;; Return value:  Size  Location     Type
  7798 ;;                  1    wreg      void 
  7799 ;; Registers used:
  7800 ;;		wreg
  7801 ;; Tracked objects:
  7802 ;;		On entry : 0/0
  7803 ;;		On exit  : 0/0
  7804 ;;		Unchanged: 0/0
  7805 ;; Data sizes:     COMMON   BANK0   BANK1   BANK3   BANK2
  7806 ;;      Params:         0       0       0       0       0
  7807 ;;      Locals:         0       1       0       0       0
  7808 ;;      Temps:          0       0       0       0       0
  7809 ;;      Totals:         0       1       0       0       0
  7810 ;;Total ram usage:        1 bytes
  7811 ;; Hardware stack levels used:    1
  7812 ;; Hardware stack levels required when called:    4
  7813 ;; This function calls:
  7814 ;;		Nothing
  7815 ;; This function is called by:
  7816 ;;		_EEPROM_Write
  7817 ;;		_EEPROM_Read
  7818 ;; This function uses a non-reentrant model
  7819 ;;
  7820                           
  7821                           
  7822                           ;psect for function _I2c_Write
  7823  17B7                     _I2c_Write:
  7824                           
  7825                           ;incstack = 0
  7826 ;; hardware stack exceeded
  7827                           ; Regs used in _I2c_Write: [wreg]
  7828                           ;I2c_Write@data stored from wreg
  7829  17B7  1283               	bcf	3,5	;RP0=0, select bank0
  7830  17B8  1303               	bcf	3,6	;RP1=0, select bank0
  7831  17B9  00B6               	movwf	I2c_Write@data
  7832  17BA                     l3239:
  7833                           
  7834                           ;I2C/I2C.c: 55: void I2c_Write(uint8_t data);I2C/I2C.c: 56: {;I2C/I2C.c: 57:     SSPBUF=
      +                          data;
  7835  17BA  0836               	movf	I2c_Write@data,w
  7836  17BB  0093               	movwf	19	;volatile
  7837  17BC                     l429:
  7838  17BC  0008               	return
  7839  17BD                     __end_of_I2c_Write:
  7840                           
  7841                           	psect	text39
  7842  17BD                     __ptext39:	
  7843 ;; *************** function _I2c_WaitAck *****************
  7844 ;; Defined at:
  7845 ;;		line 61 in file "I2C/I2C.c"
  7846 ;; Parameters:    Size  Location     Type
  7847 ;;		None
  7848 ;; Auto vars:     Size  Location     Type
  7849 ;;		None
  7850 ;; Return value:  Size  Location     Type
  7851 ;;                  1    wreg      void 
  7852 ;; Registers used:
  7853 ;;		None
  7854 ;; Tracked objects:
  7855 ;;		On entry : 0/0
  7856 ;;		On exit  : 0/0
  7857 ;;		Unchanged: 0/0
  7858 ;; Data sizes:     COMMON   BANK0   BANK1   BANK3   BANK2
  7859 ;;      Params:         0       0       0       0       0
  7860 ;;      Locals:         0       0       0       0       0
  7861 ;;      Temps:          0       0       0       0       0
  7862 ;;      Totals:         0       0       0       0       0
  7863 ;;Total ram usage:        0 bytes
  7864 ;; Hardware stack levels used:    1
  7865 ;; Hardware stack levels required when called:    4
  7866 ;; This function calls:
  7867 ;;		Nothing
  7868 ;; This function is called by:
  7869 ;;		_EEPROM_Write
  7870 ;;		_EEPROM_Read
  7871 ;; This function uses a non-reentrant model
  7872 ;;
  7873                           
  7874                           
  7875                           ;psect for function _I2c_WaitAck
  7876  17BD                     _I2c_WaitAck:
  7877  17BD                     l3241:	
  7878                           ;incstack = 0
  7879 ;; hardware stack exceeded
  7880                           ; Regs used in _I2c_WaitAck: []
  7881                           
  7882  17BD                     l432:	
  7883                           ;I2C/I2C.c: 63:     while(!SSPIF);
  7884                           
  7885  17BD  1283               	bcf	3,5	;RP0=0, select bank0
  7886  17BE  1303               	bcf	3,6	;RP1=0, select bank0
  7887  17BF  1D8C               	btfss	12,3	;volatile
  7888  17C0  2FC2               	goto	u3971
  7889  17C1  2FC3               	goto	u3970
  7890  17C2                     u3971:
  7891  17C2  2FBD               	goto	l432
  7892  17C3                     u3970:
  7893  17C3                     l434:
  7894                           
  7895                           ;I2C/I2C.c: 64:     SSPIF=0;
  7896  17C3  118C               	bcf	12,3	;volatile
  7897  17C4                     l435:
  7898  17C4  0008               	return
  7899  17C5                     __end_of_I2c_WaitAck:
  7900                           
  7901                           	psect	text40
  7902  17EA                     __ptext40:	
  7903 ;; *************** function _I2c_Stop *****************
  7904 ;; Defined at:
  7905 ;;		line 48 in file "I2C/I2C.c"
  7906 ;; Parameters:    Size  Location     Type
  7907 ;;		None
  7908 ;; Auto vars:     Size  Location     Type
  7909 ;;		None
  7910 ;; Return value:  Size  Location     Type
  7911 ;;                  1    wreg      void 
  7912 ;; Registers used:
  7913 ;;		None
  7914 ;; Tracked objects:
  7915 ;;		On entry : 0/0
  7916 ;;		On exit  : 0/0
  7917 ;;		Unchanged: 0/0
  7918 ;; Data sizes:     COMMON   BANK0   BANK1   BANK3   BANK2
  7919 ;;      Params:         0       0       0       0       0
  7920 ;;      Locals:         0       0       0       0       0
  7921 ;;      Temps:          0       0       0       0       0
  7922 ;;      Totals:         0       0       0       0       0
  7923 ;;Total ram usage:        0 bytes
  7924 ;; Hardware stack levels used:    1
  7925 ;; Hardware stack levels required when called:    4
  7926 ;; This function calls:
  7927 ;;		Nothing
  7928 ;; This function is called by:
  7929 ;;		_EEPROM_Write
  7930 ;;		_EEPROM_Read
  7931 ;; This function uses a non-reentrant model
  7932 ;;
  7933                           
  7934                           
  7935                           ;psect for function _I2c_Stop
  7936  17EA                     _I2c_Stop:
  7937  17EA                     l3237:	
  7938                           ;incstack = 0
  7939 ;; hardware stack exceeded
  7940                           ; Regs used in _I2c_Stop: []
  7941                           
  7942                           
  7943                           ;I2C/I2C.c: 50:     PEN=1;
  7944  17EA  1683               	bsf	3,5	;RP0=1, select bank1
  7945  17EB  1303               	bcf	3,6	;RP1=0, select bank1
  7946  17EC  1511               	bsf	17,2	;volatile
  7947  17ED                     l423:	
  7948                           ;I2C/I2C.c: 51:     while(PEN);
  7949                           
  7950  17ED  1911               	btfsc	17,2	;volatile
  7951  17EE  2FF0               	goto	u3961
  7952  17EF  2FF1               	goto	u3960
  7953  17F0                     u3961:
  7954  17F0  2FED               	goto	l423
  7955  17F1                     u3960:
  7956  17F1                     l425:
  7957                           
  7958                           ;I2C/I2C.c: 52:     SSPIF=0;
  7959  17F1  1283               	bcf	3,5	;RP0=0, select bank0
  7960  17F2  1303               	bcf	3,6	;RP1=0, select bank0
  7961  17F3  118C               	bcf	12,3	;volatile
  7962  17F4                     l426:
  7963  17F4  0008               	return
  7964  17F5                     __end_of_I2c_Stop:
  7965                           
  7966                           	psect	text41
  7967  17DF                     __ptext41:	
  7968 ;; *************** function _I2c_Start *****************
  7969 ;; Defined at:
  7970 ;;		line 23 in file "I2C/I2C.c"
  7971 ;; Parameters:    Size  Location     Type
  7972 ;;		None
  7973 ;; Auto vars:     Size  Location     Type
  7974 ;;		None
  7975 ;; Return value:  Size  Location     Type
  7976 ;;                  1    wreg      void 
  7977 ;; Registers used:
  7978 ;;		None
  7979 ;; Tracked objects:
  7980 ;;		On entry : 0/0
  7981 ;;		On exit  : 0/0
  7982 ;;		Unchanged: 0/0
  7983 ;; Data sizes:     COMMON   BANK0   BANK1   BANK3   BANK2
  7984 ;;      Params:         0       0       0       0       0
  7985 ;;      Locals:         0       0       0       0       0
  7986 ;;      Temps:          0       0       0       0       0
  7987 ;;      Totals:         0       0       0       0       0
  7988 ;;Total ram usage:        0 bytes
  7989 ;; Hardware stack levels used:    1
  7990 ;; Hardware stack levels required when called:    4
  7991 ;; This function calls:
  7992 ;;		Nothing
  7993 ;; This function is called by:
  7994 ;;		_EEPROM_Write
  7995 ;;		_EEPROM_Read
  7996 ;; This function uses a non-reentrant model
  7997 ;;
  7998                           
  7999                           
  8000                           ;psect for function _I2c_Start
  8001  17DF                     _I2c_Start:
  8002  17DF                     l3235:	
  8003                           ;incstack = 0
  8004 ;; hardware stack exceeded
  8005                           ; Regs used in _I2c_Start: []
  8006                           
  8007                           
  8008                           ;I2C/I2C.c: 25:     SEN=1;
  8009  17DF  1683               	bsf	3,5	;RP0=1, select bank1
  8010  17E0  1303               	bcf	3,6	;RP1=0, select bank1
  8011  17E1  1411               	bsf	17,0	;volatile
  8012  17E2                     l405:	
  8013                           ;I2C/I2C.c: 26:     while(SEN);
  8014                           
  8015  17E2  1811               	btfsc	17,0	;volatile
  8016  17E3  2FE5               	goto	u3951
  8017  17E4  2FE6               	goto	u3950
  8018  17E5                     u3951:
  8019  17E5  2FE2               	goto	l405
  8020  17E6                     u3950:
  8021  17E6                     l407:
  8022                           
  8023                           ;I2C/I2C.c: 27:     SSPIF=0;
  8024  17E6  1283               	bcf	3,5	;RP0=0, select bank0
  8025  17E7  1303               	bcf	3,6	;RP1=0, select bank0
  8026  17E8  118C               	bcf	12,3	;volatile
  8027  17E9                     l408:
  8028  17E9  0008               	return
  8029  17EA                     __end_of_I2c_Start:
  8030                           
  8031                           	psect	text42
  8032  17D6                     __ptext42:	
  8033 ;; *************** function _I2c_Send_NAck *****************
  8034 ;; Defined at:
  8035 ;;		line 40 in file "I2C/I2C.c"
  8036 ;; Parameters:    Size  Location     Type
  8037 ;;		None
  8038 ;; Auto vars:     Size  Location     Type
  8039 ;;		None
  8040 ;; Return value:  Size  Location     Type
  8041 ;;                  1    wreg      void 
  8042 ;; Registers used:
  8043 ;;		None
  8044 ;; Tracked objects:
  8045 ;;		On entry : 0/0
  8046 ;;		On exit  : 0/0
  8047 ;;		Unchanged: 0/0
  8048 ;; Data sizes:     COMMON   BANK0   BANK1   BANK3   BANK2
  8049 ;;      Params:         0       0       0       0       0
  8050 ;;      Locals:         0       0       0       0       0
  8051 ;;      Temps:          0       0       0       0       0
  8052 ;;      Totals:         0       0       0       0       0
  8053 ;;Total ram usage:        0 bytes
  8054 ;; Hardware stack levels used:    1
  8055 ;; Hardware stack levels required when called:    4
  8056 ;; This function calls:
  8057 ;;		Nothing
  8058 ;; This function is called by:
  8059 ;;		_EEPROM_Read
  8060 ;; This function uses a non-reentrant model
  8061 ;;
  8062                           
  8063                           
  8064                           ;psect for function _I2c_Send_NAck
  8065  17D6                     _I2c_Send_NAck:
  8066  17D6                     l2809:	
  8067                           ;incstack = 0
  8068                           ; Regs used in _I2c_Send_NAck: []
  8069                           
  8070                           
  8071                           ;I2C/I2C.c: 42:     ACKDT=1;
  8072  17D6  1683               	bsf	3,5	;RP0=1, select bank1
  8073  17D7  1303               	bcf	3,6	;RP1=0, select bank1
  8074  17D8  1691               	bsf	17,5	;volatile
  8075                           
  8076                           ;I2C/I2C.c: 43:     ACKEN=1;
  8077  17D9  1611               	bsf	17,4	;volatile
  8078  17DA                     l417:	
  8079                           ;I2C/I2C.c: 44:     while(ACKEN);
  8080                           
  8081  17DA  1A11               	btfsc	17,4	;volatile
  8082  17DB  2FDD               	goto	u3381
  8083  17DC  2FDE               	goto	u3380
  8084  17DD                     u3381:
  8085  17DD  2FDA               	goto	l417
  8086  17DE                     u3380:
  8087  17DE                     l420:
  8088  17DE  0008               	return
  8089  17DF                     __end_of_I2c_Send_NAck:
  8090                           
  8091                           	psect	text43
  8092  0854                     __ptext43:	
  8093 ;; *************** function _I2c_Read *****************
  8094 ;; Defined at:
  8095 ;;		line 31 in file "I2C/I2C.c"
  8096 ;; Parameters:    Size  Location     Type
  8097 ;;		None
  8098 ;; Auto vars:     Size  Location     Type
  8099 ;;  data            1   22[BANK0 ] unsigned char 
  8100 ;; Return value:  Size  Location     Type
  8101 ;;                  1    wreg      unsigned char 
  8102 ;; Registers used:
  8103 ;;		wreg, btemp+1
  8104 ;; Tracked objects:
  8105 ;;		On entry : 0/0
  8106 ;;		On exit  : 0/0
  8107 ;;		Unchanged: 0/0
  8108 ;; Data sizes:     COMMON   BANK0   BANK1   BANK3   BANK2
  8109 ;;      Params:         0       0       0       0       0
  8110 ;;      Locals:         0       1       0       0       0
  8111 ;;      Temps:          0       0       0       0       0
  8112 ;;      Totals:         0       1       0       0       0
  8113 ;;Total ram usage:        1 bytes
  8114 ;; Hardware stack levels used:    1
  8115 ;; Hardware stack levels required when called:    4
  8116 ;; This function calls:
  8117 ;;		Nothing
  8118 ;; This function is called by:
  8119 ;;		_EEPROM_Read
  8120 ;; This function uses a non-reentrant model
  8121 ;;
  8122                           
  8123                           
  8124                           ;psect for function _I2c_Read
  8125  0854                     _I2c_Read:
  8126  0854                     l2801:	
  8127                           ;incstack = 0
  8128                           ; Regs used in _I2c_Read: [wreg+btemp+1]
  8129                           
  8130                           
  8131                           ;I2C/I2C.c: 33:     uint8_t data;;I2C/I2C.c: 34:     RCEN=1;
  8132  0854  1683               	bsf	3,5	;RP0=1, select bank1
  8133  0855  1303               	bcf	3,6	;RP1=0, select bank1
  8134  0856  1591               	bsf	17,3	;volatile
  8135  0857                     l411:	
  8136                           ;I2C/I2C.c: 35:     while(!BF);
  8137                           
  8138  0857  1C14               	btfss	20,0	;volatile
  8139  0858  285A               	goto	u3371
  8140  0859  285B               	goto	u3370
  8141  085A                     u3371:
  8142  085A  2857               	goto	l411
  8143  085B                     u3370:
  8144  085B                     l2803:
  8145                           
  8146                           ;I2C/I2C.c: 36:     data= SSPBUF;
  8147  085B  1283               	bcf	3,5	;RP0=0, select bank0
  8148  085C  1303               	bcf	3,6	;RP1=0, select bank0
  8149  085D  0813               	movf	19,w	;volatile
  8150  085E  00FF               	movwf	btemp+1
  8151  085F  087F               	movf	btemp+1,w
  8152  0860  00B6               	movwf	I2c_Read@data
  8153  0861                     l2805:
  8154                           
  8155                           ;I2C/I2C.c: 37:     return data;
  8156  0861  0836               	movf	I2c_Read@data,w
  8157  0862                     l414:
  8158  0862  0008               	return
  8159  0863                     __end_of_I2c_Read:
  8160                           
  8161                           	psect	text44
  8162  0924                     __ptext44:	
  8163 ;; *************** function _GPIO_Init *****************
  8164 ;; Defined at:
  8165 ;;		line 23 in file "gpio/gpio.c"
  8166 ;; Parameters:    Size  Location     Type
  8167 ;;		None
  8168 ;; Auto vars:     Size  Location     Type
  8169 ;;		None
  8170 ;; Return value:  Size  Location     Type
  8171 ;;                  1    wreg      void 
  8172 ;; Registers used:
  8173 ;;		wreg, status,2, status,0, btemp+1
  8174 ;; Tracked objects:
  8175 ;;		On entry : 0/0
  8176 ;;		On exit  : 0/0
  8177 ;;		Unchanged: 0/0
  8178 ;; Data sizes:     COMMON   BANK0   BANK1   BANK3   BANK2
  8179 ;;      Params:         0       0       0       0       0
  8180 ;;      Locals:         0       0       0       0       0
  8181 ;;      Temps:          0       0       0       0       0
  8182 ;;      Totals:         0       0       0       0       0
  8183 ;;Total ram usage:        0 bytes
  8184 ;; Hardware stack levels used:    1
  8185 ;; Hardware stack levels required when called:    4
  8186 ;; This function calls:
  8187 ;;		Nothing
  8188 ;; This function is called by:
  8189 ;;		_main
  8190 ;; This function uses a non-reentrant model
  8191 ;;
  8192                           
  8193                           
  8194                           ;psect for function _GPIO_Init
  8195  0924                     _GPIO_Init:
  8196  0924                     l2947:	
  8197                           ;incstack = 0
  8198                           ; Regs used in _GPIO_Init: [wreg+status,2+status,0+btemp+1]
  8199                           
  8200  0924  30DF               	movlw	223
  8201  0925  00FF               	movwf	btemp+1
  8202  0926  087F               	movf	btemp+1,w
  8203  0927  1683               	bsf	3,5	;RP0=1, select bank1
  8204  0928  1303               	bcf	3,6	;RP1=0, select bank1
  8205  0929  0587               	andwf	7,f	;volatile
  8206  092A                     l2949:
  8207  092A  30FB               	movlw	251
  8208  092B  00FF               	movwf	btemp+1
  8209  092C  087F               	movf	btemp+1,w
  8210  092D  0587               	andwf	7,f	;volatile
  8211  092E                     l2951:
  8212  092E  30EF               	movlw	239
  8213  092F  00FF               	movwf	btemp+1
  8214  0930  087F               	movf	btemp+1,w
  8215  0931  0586               	andwf	6,f	;volatile
  8216  0932                     l2953:
  8217  0932  30DF               	movlw	223
  8218  0933  00FF               	movwf	btemp+1
  8219  0934  087F               	movf	btemp+1,w
  8220  0935  0585               	andwf	5,f	;volatile
  8221  0936                     l2955:
  8222  0936  30EF               	movlw	239
  8223  0937  00FF               	movwf	btemp+1
  8224  0938  087F               	movf	btemp+1,w
  8225  0939  0585               	andwf	5,f	;volatile
  8226  093A                     l189:
  8227  093A  1486               	bsf	6,1	;volatile
  8228  093B                     l193:
  8229  093B  1506               	bsf	6,2	;volatile
  8230  093C                     l197:
  8231  093C  1406               	bsf	6,0	;volatile
  8232  093D                     l201:
  8233  093D  1505               	bsf	5,2	;volatile
  8234  093E                     l205:
  8235  093E  1587               	bsf	7,3	;volatile
  8236  093F                     l209:
  8237  093F  1607               	bsf	7,4	;volatile
  8238  0940                     l2969:
  8239  0940  0188               	clrf	8	;volatile
  8240  0941                     l216:
  8241  0941  0008               	return
  8242  0942                     __end_of_GPIO_Init:
  8243                           
  8244                           	psect	text45
  8245  0830                     __ptext45:	
  8246 ;; *************** function _Elements_Init *****************
  8247 ;; Defined at:
  8248 ;;		line 23 in file "Elements/Elements.c"
  8249 ;; Parameters:    Size  Location     Type
  8250 ;;		None
  8251 ;; Auto vars:     Size  Location     Type
  8252 ;;		None
  8253 ;; Return value:  Size  Location     Type
  8254 ;;                  1    wreg      void 
  8255 ;; Registers used:
  8256 ;;		wreg, status,2, status,0, btemp+1
  8257 ;; Tracked objects:
  8258 ;;		On entry : 0/0
  8259 ;;		On exit  : 0/0
  8260 ;;		Unchanged: 0/0
  8261 ;; Data sizes:     COMMON   BANK0   BANK1   BANK3   BANK2
  8262 ;;      Params:         0       0       0       0       0
  8263 ;;      Locals:         0       0       0       0       0
  8264 ;;      Temps:          0       0       0       0       0
  8265 ;;      Totals:         0       0       0       0       0
  8266 ;;Total ram usage:        0 bytes
  8267 ;; Hardware stack levels used:    1
  8268 ;; Hardware stack levels required when called:    4
  8269 ;; This function calls:
  8270 ;;		Nothing
  8271 ;; This function is called by:
  8272 ;;		_main
  8273 ;; This function uses a non-reentrant model
  8274 ;;
  8275                           
  8276                           
  8277                           ;psect for function _Elements_Init
  8278  0830                     _Elements_Init:
  8279  0830                     l2997:	
  8280                           ;incstack = 0
  8281                           ; Regs used in _Elements_Init: [wreg+status,2+status,0+btemp+1]
  8282                           
  8283                           
  8284                           ;Elements/Elements.c: 25:  LED_Status=_LED_OFF;
  8285  0830  1283               	bcf	3,5	;RP0=0, select bank0
  8286  0831  1303               	bcf	3,6	;RP1=0, select bank0
  8287  0832  01CB               	clrf	_LED_Status
  8288  0833                     l2999:
  8289                           
  8290                           ;Elements/Elements.c: 26:  (PORTC &= ~(1<<5));
  8291  0833  30DF               	movlw	223
  8292  0834  00FF               	movwf	btemp+1
  8293  0835  087F               	movf	btemp+1,w
  8294  0836  0587               	andwf	7,f	;volatile
  8295  0837                     l3001:
  8296                           
  8297                           ;Elements/Elements.c: 27:  (PORTC &= ~(1<<2));
  8298  0837  30FB               	movlw	251
  8299  0838  00FF               	movwf	btemp+1
  8300  0839  087F               	movf	btemp+1,w
  8301  083A  0587               	andwf	7,f	;volatile
  8302  083B                     l134:
  8303  083B  0008               	return
  8304  083C                     __end_of_Elements_Init:
  8305                           
  8306                           	psect	text46
  8307  0964                     __ptext46:	
  8308 ;; *************** function _Buttons_Init *****************
  8309 ;; Defined at:
  8310 ;;		line 24 in file "Buttons/Buttons.c"
  8311 ;; Parameters:    Size  Location     Type
  8312 ;;		None
  8313 ;; Auto vars:     Size  Location     Type
  8314 ;;		None
  8315 ;; Return value:  Size  Location     Type
  8316 ;;                  1    wreg      void 
  8317 ;; Registers used:
  8318 ;;		wreg, fsr0l, fsr0h, status,2, status,0, btemp+1, pclath, cstack
  8319 ;; Tracked objects:
  8320 ;;		On entry : 0/0
  8321 ;;		On exit  : 0/0
  8322 ;;		Unchanged: 0/0
  8323 ;; Data sizes:     COMMON   BANK0   BANK1   BANK3   BANK2
  8324 ;;      Params:         0       0       0       0       0
  8325 ;;      Locals:         0       0       0       0       0
  8326 ;;      Temps:          0       0       0       0       0
  8327 ;;      Totals:         0       0       0       0       0
  8328 ;;Total ram usage:        0 bytes
  8329 ;; Hardware stack levels used:    1
  8330 ;; Hardware stack levels required when called:    5
  8331 ;; This function calls:
  8332 ;;		_memset
  8333 ;; This function is called by:
  8334 ;;		_main
  8335 ;; This function uses a non-reentrant model
  8336 ;;
  8337                           
  8338                           
  8339                           ;psect for function _Buttons_Init
  8340  0964                     _Buttons_Init:
  8341  0964                     l3861:	
  8342                           ;incstack = 0
  8343                           ; Regs used in _Buttons_Init: [wreg-fsr0h+status,2+status,0+btemp+1+pclath+cstack]
  8344                           
  8345                           
  8346                           ;Buttons/Buttons.c: 27:     memset( Debounce_Up , 1 , sizeof( Debounce_Up ) );
  8347  0964  3001               	movlw	1
  8348  0965  1283               	bcf	3,5	;RP0=0, select bank0
  8349  0966  1303               	bcf	3,6	;RP1=0, select bank0
  8350  0967  00B6               	movwf	memset@c
  8351  0968  3000               	movlw	0
  8352  0969  00B7               	movwf	memset@c+1
  8353  096A  3003               	movlw	3
  8354  096B  00B8               	movwf	memset@n
  8355  096C  3000               	movlw	0
  8356  096D  00B9               	movwf	memset@n+1
  8357  096E  30D9               	movlw	(low (_Debounce_Up| 0))& (0+255)
  8358  096F  120A  158A  2142  120A  158A  	fcall	_memset
  8359                           
  8360                           ;Buttons/Buttons.c: 28:     memset( Debounce_Down , 1 , sizeof( Debounce_Down ) );
  8361  0974  3001               	movlw	1
  8362  0975  1283               	bcf	3,5	;RP0=0, select bank0
  8363  0976  1303               	bcf	3,6	;RP1=0, select bank0
  8364  0977  00B6               	movwf	memset@c
  8365  0978  3000               	movlw	0
  8366  0979  00B7               	movwf	memset@c+1
  8367  097A  3003               	movlw	3
  8368  097B  00B8               	movwf	memset@n
  8369  097C  3000               	movlw	0
  8370  097D  00B9               	movwf	memset@n+1
  8371  097E  30D6               	movlw	(low (_Debounce_Down| 0))& (0+255)
  8372  097F  120A  158A  2142  120A  158A  	fcall	_memset
  8373  0984                     l3863:
  8374                           
  8375                           ;Buttons/Buttons.c: 29:     INTCONbits.INTE=1;
  8376  0984  160B               	bsf	11,4	;volatile
  8377  0985                     l3865:
  8378                           
  8379                           ;Buttons/Buttons.c: 30:     INTEDG=1;
  8380  0985  1683               	bsf	3,5	;RP0=1, select bank1
  8381  0986  1303               	bcf	3,6	;RP1=0, select bank1
  8382  0987  1701               	bsf	1,6	;volatile
  8383  0988                     l3867:
  8384                           
  8385                           ;Buttons/Buttons.c: 31:     INTCONbits.INTF=0;
  8386  0988  108B               	bcf	11,1	;volatile
  8387  0989                     l98:
  8388  0989  0008               	return
  8389  098A                     __end_of_Buttons_Init:
  8390                           
  8391                           	psect	text47
  8392  0942                     __ptext47:	
  8393 ;; *************** function _memset *****************
  8394 ;; Defined at:
  8395 ;;		line 8 in file "C:\Program Files (x86)\Microchip\xc8\v2.20\pic\sources\c90\common\memset.c"
  8396 ;; Parameters:    Size  Location     Type
  8397 ;;  p1              1    wreg     PTR void 
  8398 ;;		 -> Scheduler_ActivationFlags(3), Debounce_Down(3), Debounce_Up(3), 
  8399 ;;  c               2   22[BANK0 ] int 
  8400 ;;  n               2   24[BANK0 ] unsigned int 
  8401 ;; Auto vars:     Size  Location     Type
  8402 ;;  p1              1   27[BANK0 ] PTR void 
  8403 ;;		 -> Scheduler_ActivationFlags(3), Debounce_Down(3), Debounce_Up(3), 
  8404 ;;  p               1   26[BANK0 ] PTR unsigned char 
  8405 ;;		 -> Scheduler_ActivationFlags(3), Debounce_Down(3), Debounce_Up(3), 
  8406 ;; Return value:  Size  Location     Type
  8407 ;;                  1    wreg      PTR void 
  8408 ;; Registers used:
  8409 ;;		wreg, fsr0l, fsr0h, status,2, status,0, btemp+1
  8410 ;; Tracked objects:
  8411 ;;		On entry : 0/0
  8412 ;;		On exit  : 0/0
  8413 ;;		Unchanged: 0/0
  8414 ;; Data sizes:     COMMON   BANK0   BANK1   BANK3   BANK2
  8415 ;;      Params:         0       4       0       0       0
  8416 ;;      Locals:         0       2       0       0       0
  8417 ;;      Temps:          0       0       0       0       0
  8418 ;;      Totals:         0       6       0       0       0
  8419 ;;Total ram usage:        6 bytes
  8420 ;; Hardware stack levels used:    1
  8421 ;; Hardware stack levels required when called:    4
  8422 ;; This function calls:
  8423 ;;		Nothing
  8424 ;; This function is called by:
  8425 ;;		_Buttons_Init
  8426 ;;		_Scheduler_Init
  8427 ;; This function uses a non-reentrant model
  8428 ;;
  8429                           
  8430                           
  8431                           ;psect for function _memset
  8432  0942                     _memset:
  8433                           
  8434                           ;incstack = 0
  8435                           ; Regs used in _memset: [wreg-fsr0h+status,2+status,0+btemp+1]
  8436                           ;memset@p1 stored from wreg
  8437  0942  1283               	bcf	3,5	;RP0=0, select bank0
  8438  0943  1303               	bcf	3,6	;RP1=0, select bank0
  8439  0944  00BB               	movwf	memset@p1
  8440  0945                     l3795:
  8441  0945  083B               	movf	memset@p1,w
  8442  0946  00FF               	movwf	btemp+1
  8443  0947  087F               	movf	btemp+1,w
  8444  0948  00BA               	movwf	memset@p
  8445  0949  2955               	goto	l3801
  8446  094A                     l3797:
  8447  094A  0836               	movf	memset@c,w
  8448  094B  00FF               	movwf	btemp+1
  8449  094C  083A               	movf	memset@p,w
  8450  094D  0084               	movwf	4
  8451  094E  087F               	movf	btemp+1,w
  8452  094F  1383               	bcf	3,7	;select IRP bank0
  8453  0950  0080               	movwf	0
  8454  0951                     l3799:
  8455  0951  3001               	movlw	1
  8456  0952  00FF               	movwf	btemp+1
  8457  0953  087F               	movf	btemp+1,w
  8458  0954  07BA               	addwf	memset@p,f
  8459  0955                     l3801:
  8460  0955  3001               	movlw	1
  8461  0956  02B8               	subwf	memset@n,f
  8462  0957  3000               	movlw	0
  8463  0958  1C03               	skipc
  8464  0959  03B9               	decf	memset@n+1,f
  8465  095A  02B9               	subwf	memset@n+1,f
  8466  095B  0A38               	incf	memset@n,w
  8467  095C  1D03               	skipz
  8468  095D  2962               	goto	u5221
  8469  095E  0A39               	incf	memset@n+1,w
  8470  095F  1D03               	btfss	3,2
  8471  0960  2962               	goto	u5221
  8472  0961  2963               	goto	u5220
  8473  0962                     u5221:
  8474  0962  294A               	goto	l3797
  8475  0963                     u5220:
  8476  0963                     l1087:
  8477  0963  0008               	return
  8478  0964                     __end_of_memset:
  8479                           
  8480                           	psect	text48
  8481  17CD                     __ptext48:	
  8482 ;; *************** function _ADC_Start_Conv *****************
  8483 ;; Defined at:
  8484 ;;		line 58 in file "ADC/ADC.c"
  8485 ;; Parameters:    Size  Location     Type
  8486 ;;		None
  8487 ;; Auto vars:     Size  Location     Type
  8488 ;;		None
  8489 ;; Return value:  Size  Location     Type
  8490 ;;                  1    wreg      void 
  8491 ;; Registers used:
  8492 ;;		None
  8493 ;; Tracked objects:
  8494 ;;		On entry : 0/0
  8495 ;;		On exit  : 0/0
  8496 ;;		Unchanged: 0/0
  8497 ;; Data sizes:     COMMON   BANK0   BANK1   BANK3   BANK2
  8498 ;;      Params:         0       0       0       0       0
  8499 ;;      Locals:         0       0       0       0       0
  8500 ;;      Temps:          0       0       0       0       0
  8501 ;;      Totals:         0       0       0       0       0
  8502 ;;Total ram usage:        0 bytes
  8503 ;; Hardware stack levels used:    1
  8504 ;; Hardware stack levels required when called:    4
  8505 ;; This function calls:
  8506 ;;		Nothing
  8507 ;; This function is called by:
  8508 ;;		_main
  8509 ;; This function uses a non-reentrant model
  8510 ;;
  8511                           
  8512                           
  8513                           ;psect for function _ADC_Start_Conv
  8514  17CD                     _ADC_Start_Conv:
  8515  17CD                     l2943:	
  8516                           ;incstack = 0
  8517                           ; Regs used in _ADC_Start_Conv: []
  8518                           
  8519                           
  8520                           ;ADC/ADC.c: 60:  if (ADC_Info.ADC_INIT_FLAG==1)
  8521  17CD  1283               	bcf	3,5	;RP0=0, select bank0
  8522  17CE  1303               	bcf	3,6	;RP1=0, select bank0
  8523  17CF  1C4D               	btfss	_ADC_Info,0
  8524  17D0  2FD2               	goto	u3591
  8525  17D1  2FD3               	goto	u3590
  8526  17D2                     u3591:
  8527  17D2  2FD5               	goto	l17
  8528  17D3                     u3590:
  8529  17D3                     l2945:
  8530                           
  8531                           ;ADC/ADC.c: 61:  {;ADC/ADC.c: 62:      ADCON0bits.GO_DONE=1 ;
  8532  17D3  151F               	bsf	31,2	;volatile
  8533                           
  8534                           ;ADC/ADC.c: 63:      ADC_Info.ADC_START_FLAG=1;
  8535  17D4  14CD               	bsf	_ADC_Info,1
  8536  17D5                     l17:
  8537  17D5  0008               	return
  8538  17D6                     __end_of_ADC_Start_Conv:
  8539                           
  8540                           	psect	text49
  8541  0909                     __ptext49:	
  8542 ;; *************** function _ADC_Init *****************
  8543 ;; Defined at:
  8544 ;;		line 22 in file "ADC/ADC.c"
  8545 ;; Parameters:    Size  Location     Type
  8546 ;;		None
  8547 ;; Auto vars:     Size  Location     Type
  8548 ;;		None
  8549 ;; Return value:  Size  Location     Type
  8550 ;;                  1    wreg      void 
  8551 ;; Registers used:
  8552 ;;		None
  8553 ;; Tracked objects:
  8554 ;;		On entry : 0/0
  8555 ;;		On exit  : 0/0
  8556 ;;		Unchanged: 0/0
  8557 ;; Data sizes:     COMMON   BANK0   BANK1   BANK3   BANK2
  8558 ;;      Params:         0       0       0       0       0
  8559 ;;      Locals:         0       0       0       0       0
  8560 ;;      Temps:          0       0       0       0       0
  8561 ;;      Totals:         0       0       0       0       0
  8562 ;;Total ram usage:        0 bytes
  8563 ;; Hardware stack levels used:    1
  8564 ;; Hardware stack levels required when called:    4
  8565 ;; This function calls:
  8566 ;;		Nothing
  8567 ;; This function is called by:
  8568 ;;		_main
  8569 ;; This function uses a non-reentrant model
  8570 ;;
  8571                           
  8572                           
  8573                           ;psect for function _ADC_Init
  8574  0909                     _ADC_Init:
  8575  0909                     l2941:	
  8576                           ;incstack = 0
  8577                           ; Regs used in _ADC_Init: []
  8578                           
  8579                           
  8580                           ;ADC/ADC.c: 25:     ADCON1bits.ADFM=1;
  8581  0909  1683               	bsf	3,5	;RP0=1, select bank1
  8582  090A  1303               	bcf	3,6	;RP1=0, select bank1
  8583  090B  179F               	bsf	31,7	;volatile
  8584                           
  8585                           ;ADC/ADC.c: 27:     ADCON0bits.ADCS0=1 ;
  8586  090C  1283               	bcf	3,5	;RP0=0, select bank0
  8587  090D  1303               	bcf	3,6	;RP1=0, select bank0
  8588  090E  171F               	bsf	31,6	;volatile
  8589                           
  8590                           ;ADC/ADC.c: 28:     ADCON0bits.ADCS1=0;
  8591  090F  139F               	bcf	31,7	;volatile
  8592                           
  8593                           ;ADC/ADC.c: 29:     ADCON1bits.ADCS2=1 ;
  8594  0910  1683               	bsf	3,5	;RP0=1, select bank1
  8595  0911  1303               	bcf	3,6	;RP1=0, select bank1
  8596  0912  171F               	bsf	31,6	;volatile
  8597                           
  8598                           ;ADC/ADC.c: 32:     ADCON0bits.CHS0=0;
  8599  0913  1283               	bcf	3,5	;RP0=0, select bank0
  8600  0914  1303               	bcf	3,6	;RP1=0, select bank0
  8601  0915  119F               	bcf	31,3	;volatile
  8602                           
  8603                           ;ADC/ADC.c: 33:     ADCON0bits.CHS1=1;
  8604  0916  161F               	bsf	31,4	;volatile
  8605                           
  8606                           ;ADC/ADC.c: 34:     ADCON0bits.CHS2=0;
  8607  0917  129F               	bcf	31,5	;volatile
  8608                           
  8609                           ;ADC/ADC.c: 37:     ADCON1bits.PCFG0=0;
  8610  0918  1683               	bsf	3,5	;RP0=1, select bank1
  8611  0919  1303               	bcf	3,6	;RP1=0, select bank1
  8612  091A  101F               	bcf	31,0	;volatile
  8613                           
  8614                           ;ADC/ADC.c: 38:     ADCON1bits.PCFG1=1;
  8615  091B  149F               	bsf	31,1	;volatile
  8616                           
  8617                           ;ADC/ADC.c: 39:     ADCON1bits.PCFG2=0;
  8618  091C  111F               	bcf	31,2	;volatile
  8619                           
  8620                           ;ADC/ADC.c: 40:     ADCON1bits.PCFG3=0;
  8621  091D  119F               	bcf	31,3	;volatile
  8622                           
  8623                           ;ADC/ADC.c: 42:     ADCON0bits.ADON=1;
  8624  091E  1283               	bcf	3,5	;RP0=0, select bank0
  8625  091F  1303               	bcf	3,6	;RP1=0, select bank0
  8626  0920  141F               	bsf	31,0	;volatile
  8627                           
  8628                           ;ADC/ADC.c: 43:     ADCON0bits.GO_DONE=0;
  8629  0921  111F               	bcf	31,2	;volatile
  8630                           
  8631                           ;ADC/ADC.c: 44:     ADC_Info.ADC_INIT_FLAG=1;
  8632  0922  144D               	bsf	_ADC_Info,0
  8633  0923                     l13:
  8634  0923  0008               	return
  8635  0924                     __end_of_ADC_Init:
  8636                           
  8637                           	psect	text50
  8638  0AB3                     __ptext50:	
  8639 ;; *************** function _myISR *****************
  8640 ;; Defined at:
  8641 ;;		line 9 in file "Interrupt/Interrupt.c"
  8642 ;; Parameters:    Size  Location     Type
  8643 ;;		None
  8644 ;; Auto vars:     Size  Location     Type
  8645 ;;		None
  8646 ;; Return value:  Size  Location     Type
  8647 ;;                  1    wreg      void 
  8648 ;; Registers used:
  8649 ;;		wreg, fsr0l, fsr0h, status,2, status,0, btemp+1, pclath, cstack
  8650 ;; Tracked objects:
  8651 ;;		On entry : 0/0
  8652 ;;		On exit  : 0/0
  8653 ;;		Unchanged: 0/0
  8654 ;; Data sizes:     COMMON   BANK0   BANK1   BANK3   BANK2
  8655 ;;      Params:         0       0       0       0       0
  8656 ;;      Locals:         0       0       0       0       0
  8657 ;;      Temps:          0       4       0       0       0
  8658 ;;      Totals:         0       4       0       0       0
  8659 ;;Total ram usage:        4 bytes
  8660 ;; Hardware stack levels used:    1
  8661 ;; Hardware stack levels required when called:    3
  8662 ;; This function calls:
  8663 ;;		_EXTI_On_Off_CallBack
  8664 ;;		_Timer0_CallBack
  8665 ;; This function is called by:
  8666 ;;		Interrupt level 1
  8667 ;; This function uses a non-reentrant model
  8668 ;;
  8669                           
  8670                           
  8671                           ;psect for function _myISR
  8672  0AB3                     _myISR:
  8673  0AB3                     i1l3927:
  8674                           
  8675                           ;Interrupt/Interrupt.c: 12:  if(INTCONbits.INTF)
  8676  0AB3  1C8B               	btfss	11,1	;volatile
  8677  0AB4  2AB6               	goto	u532_21
  8678  0AB5  2AB7               	goto	u532_20
  8679  0AB6                     u532_21:
  8680  0AB6  2AC5               	goto	i1l233
  8681  0AB7                     u532_20:
  8682  0AB7                     i1l3929:
  8683                           
  8684                           ;Interrupt/Interrupt.c: 13:  {;Interrupt/Interrupt.c: 14:         INTCONbits.INTF=0;
  8685  0AB7  108B               	bcf	11,1	;volatile
  8686  0AB8                     i1l3931:
  8687                           
  8688                           ;Interrupt/Interrupt.c: 15:   Interrupt_CallBack.ExtiCallBack();
  8689  0AB8  3010               	movlw	low (_Interrupt_CallBack-__stringbase)
  8690  0AB9  0084               	movwf	4
  8691  0ABA  120A  158A  2000  120A  158A  	fcall	stringdir
  8692  0ABF  120A  118A  205C  120A  158A  	fcall	i1fptable
  8693                           
  8694                           ;Interrupt/Interrupt.c: 16:  }
  8695  0AC4  2AD8               	goto	i1l236
  8696  0AC5                     i1l233:	
  8697                           ;Interrupt/Interrupt.c: 17:  else if(INTCONbits.TMR0IF)
  8698                           
  8699  0AC5  1D0B               	btfss	11,2	;volatile
  8700  0AC6  2AC8               	goto	u533_21
  8701  0AC7  2AC9               	goto	u533_20
  8702  0AC8                     u533_21:
  8703  0AC8  2AD8               	goto	i1l236
  8704  0AC9                     u533_20:
  8705  0AC9                     i1l3933:
  8706                           
  8707                           ;Interrupt/Interrupt.c: 18:  {;Interrupt/Interrupt.c: 19:         INTCONbits.TMR0IF=0;
  8708  0AC9  110B               	bcf	11,2	;volatile
  8709  0ACA                     i1l3935:
  8710                           
  8711                           ;Interrupt/Interrupt.c: 20:         TMR0=100;
  8712  0ACA  3064               	movlw	100
  8713  0ACB  0081               	movwf	1	;volatile
  8714  0ACC                     i1l3937:
  8715                           
  8716                           ;Interrupt/Interrupt.c: 22:   Interrupt_CallBack.Timer0CallBack();
  8717  0ACC  3011               	movlw	low (((_Interrupt_CallBack+1)-__stringbase)| (0+32768))
  8718  0ACD  0084               	movwf	4
  8719  0ACE  120A  158A  2000  120A  158A  	fcall	stringdir
  8720  0AD3  120A  118A  205C  120A  158A  	fcall	i1fptable
  8721  0AD8                     i1l236:
  8722  0AD8  1283               	bcf	3,5	;RP0=0, select bank0
  8723  0AD9  1303               	bcf	3,6	;RP1=0, select bank0
  8724  0ADA  0835               	movf	??_myISR+3,w
  8725  0ADB  00FF               	movwf	btemp+1
  8726  0ADC  0834               	movf	??_myISR+2,w
  8727  0ADD  008A               	movwf	10
  8728  0ADE  0833               	movf	??_myISR+1,w
  8729  0ADF  0084               	movwf	4
  8730  0AE0  0E32               	swapf	??_myISR^0,w
  8731  0AE1  0083               	movwf	3
  8732  0AE2  0EFE               	swapf	btemp,f
  8733  0AE3  0E7E               	swapf	btemp,w
  8734  0AE4  0009               	retfie
  8735  0AE5                     __end_of_myISR:
  8736                           
  8737                           	psect	intentry
  8738  0004                     __pintentry:	
  8739                           ;incstack = 0
  8740 ;; hardware stack exceeded
  8741                           ; Regs used in _myISR: [wreg-fsr0h+status,2+status,0+btemp+1+pclath+cstack]
  8742                           
  8743  0004                     interrupt_function:
  8744  007E                     saved_w	set	btemp
  8745  0004  00FE               	movwf	btemp
  8746  0005  0E03               	swapf	3,w
  8747  0006  1283               	bcf	3,5	;RP0=0, select bank0
  8748  0007  1303               	bcf	3,6	;RP1=0, select bank0
  8749  0008  00B2               	movwf	??_myISR
  8750  0009  0804               	movf	4,w
  8751  000A  00B3               	movwf	??_myISR+1
  8752  000B  080A               	movf	10,w
  8753  000C  00B4               	movwf	??_myISR+2
  8754  000D  087F               	movf	btemp+1,w
  8755  000E  00B5               	movwf	??_myISR+3
  8756  000F  120A  158A  2AB3   	ljmp	_myISR
  8757                           
  8758                           	psect	text51
  8759  0A57                     __ptext51:	
  8760 ;; *************** function _Timer0_CallBack *****************
  8761 ;; Defined at:
  8762 ;;		line 54 in file "Timer/Timer.c"
  8763 ;; Parameters:    Size  Location     Type
  8764 ;;		None
  8765 ;; Auto vars:     Size  Location     Type
  8766 ;;		None
  8767 ;; Return value:  Size  Location     Type
  8768 ;;                  1    wreg      void 
  8769 ;; Registers used:
  8770 ;;		wreg, fsr0l, fsr0h, status,2, status,0, btemp+1, pclath, cstack
  8771 ;; Tracked objects:
  8772 ;;		On entry : 0/0
  8773 ;;		On exit  : 0/0
  8774 ;;		Unchanged: 0/0
  8775 ;; Data sizes:     COMMON   BANK0   BANK1   BANK3   BANK2
  8776 ;;      Params:         0       0       0       0       0
  8777 ;;      Locals:         0       0       0       0       0
  8778 ;;      Temps:          0       0       0       0       0
  8779 ;;      Totals:         0       0       0       0       0
  8780 ;;Total ram usage:        0 bytes
  8781 ;; Hardware stack levels used:    1
  8782 ;; Hardware stack levels required when called:    2
  8783 ;; This function calls:
  8784 ;;		_Scheduler_ActivateTask
  8785 ;; This function is called by:
  8786 ;;		_myISR
  8787 ;; This function uses a non-reentrant model
  8788 ;;
  8789                           
  8790                           
  8791                           ;psect for function _Timer0_CallBack
  8792  0A57                     _Timer0_CallBack:
  8793  0A57                     i1l3899:	
  8794                           ;incstack = 0
  8795 ;; hardware stack exceeded
  8796                           ; Regs used in _Timer0_CallBack: [wreg-fsr0h+status,2+status,0+btemp+1+pclath+cstack]
  8797                           
  8798                           
  8799                           ;Timer/Timer.c: 56:  Tick_Num++;
  8800  0A57  3001               	movlw	1
  8801  0A58  1683               	bsf	3,5	;RP0=1, select bank1
  8802  0A59  1303               	bcf	3,6	;RP1=0, select bank1
  8803  0A5A  07CB               	addwf	_Tick_Num^(0+128),f
  8804  0A5B  3000               	movlw	0
  8805  0A5C  1803               	skipnc
  8806  0A5D  3001               	movlw	1
  8807  0A5E  07CC               	addwf	(_Tick_Num+1)^(0+128),f
  8808  0A5F  3000               	movlw	0
  8809  0A60  1803               	skipnc
  8810  0A61  3001               	movlw	1
  8811  0A62  07CD               	addwf	(_Tick_Num+2)^(0+128),f
  8812  0A63  3000               	movlw	0
  8813  0A64  1803               	skipnc
  8814  0A65  3001               	movlw	1
  8815  0A66  07CE               	addwf	(_Tick_Num+3)^(0+128),f
  8816  0A67                     i1l3901:
  8817                           
  8818                           ;Timer/Timer.c: 57:  Scheduler_ActivateTask(Tick_Num );
  8819  0A67  084E               	movf	(_Tick_Num+3)^(0+128),w
  8820  0A68  1283               	bcf	3,5	;RP0=0, select bank0
  8821  0A69  1303               	bcf	3,6	;RP1=0, select bank0
  8822  0A6A  00B0               	movwf	Scheduler_ActivateTask@SystemTick+3
  8823  0A6B  1683               	bsf	3,5	;RP0=1, select bank1
  8824  0A6C  1303               	bcf	3,6	;RP1=0, select bank1
  8825  0A6D  084D               	movf	(_Tick_Num+2)^(0+128),w
  8826  0A6E  1283               	bcf	3,5	;RP0=0, select bank0
  8827  0A6F  1303               	bcf	3,6	;RP1=0, select bank0
  8828  0A70  00AF               	movwf	Scheduler_ActivateTask@SystemTick+2
  8829  0A71  1683               	bsf	3,5	;RP0=1, select bank1
  8830  0A72  1303               	bcf	3,6	;RP1=0, select bank1
  8831  0A73  084C               	movf	(_Tick_Num+1)^(0+128),w
  8832  0A74  1283               	bcf	3,5	;RP0=0, select bank0
  8833  0A75  1303               	bcf	3,6	;RP1=0, select bank0
  8834  0A76  00AE               	movwf	Scheduler_ActivateTask@SystemTick+1
  8835  0A77  1683               	bsf	3,5	;RP0=1, select bank1
  8836  0A78  1303               	bcf	3,6	;RP1=0, select bank1
  8837  0A79  084B               	movf	_Tick_Num^(0+128),w
  8838  0A7A  1283               	bcf	3,5	;RP0=0, select bank0
  8839  0A7B  1303               	bcf	3,6	;RP1=0, select bank0
  8840  0A7C  00AD               	movwf	Scheduler_ActivateTask@SystemTick
  8841  0A7D  120A  158A  25D9  120A  158A  	fcall	_Scheduler_ActivateTask
  8842  0A82                     i1l339:
  8843  0A82  0008               	return
  8844  0A83                     __end_of_Timer0_CallBack:
  8845                           
  8846                           	psect	text52
  8847  0DD9                     __ptext52:	
  8848 ;; *************** function _Scheduler_ActivateTask *****************
  8849 ;; Defined at:
  8850 ;;		line 35 in file "Scheduler/Scheduler.c"
  8851 ;; Parameters:    Size  Location     Type
  8852 ;;  SystemTick      4   13[BANK0 ] unsigned long 
  8853 ;; Auto vars:     Size  Location     Type
  8854 ;;  IntityIndex     1   17[BANK0 ] unsigned char 
  8855 ;; Return value:  Size  Location     Type
  8856 ;;                  1    wreg      void 
  8857 ;; Registers used:
  8858 ;;		wreg, fsr0l, fsr0h, status,2, status,0, btemp+1, pclath, cstack
  8859 ;; Tracked objects:
  8860 ;;		On entry : 0/0
  8861 ;;		On exit  : 0/0
  8862 ;;		Unchanged: 0/0
  8863 ;; Data sizes:     COMMON   BANK0   BANK1   BANK3   BANK2
  8864 ;;      Params:         0       4       0       0       0
  8865 ;;      Locals:         0       1       0       0       0
  8866 ;;      Temps:          0       0       0       0       0
  8867 ;;      Totals:         0       5       0       0       0
  8868 ;;Total ram usage:        5 bytes
  8869 ;; Hardware stack levels used:    1
  8870 ;; Hardware stack levels required when called:    1
  8871 ;; This function calls:
  8872 ;;		___llmod
  8873 ;;		i1___bmul
  8874 ;;		i1___lldiv
  8875 ;; This function is called by:
  8876 ;;		_Timer0_CallBack
  8877 ;; This function uses a non-reentrant model
  8878 ;;
  8879                           
  8880                           
  8881                           ;psect for function _Scheduler_ActivateTask
  8882  0DD9                     _Scheduler_ActivateTask:
  8883  0DD9                     i1l3803:	
  8884                           ;incstack = 0
  8885 ;; hardware stack exceeded
  8886                           ; Regs used in _Scheduler_ActivateTask: [wreg-fsr0h+status,2+status,0+btemp+1+pclath+cst
      +                          ack]
  8887                           
  8888                           
  8889                           ;Scheduler/Scheduler.c: 35: void Scheduler_ActivateTask(uint32_t SystemTick);Scheduler/S
      +                          cheduler.c: 36: {;Scheduler/Scheduler.c: 38:   for( uint8_t IntityIndex = 0 ; IntityInde
      +                          x < ( 3U ) ; IntityIndex++ )
  8890  0DD9  1283               	bcf	3,5	;RP0=0, select bank0
  8891  0DDA  1303               	bcf	3,6	;RP1=0, select bank0
  8892  0DDB  01B1               	clrf	Scheduler_ActivateTask@IntityIndex
  8893  0DDC                     i1l3809:
  8894                           
  8895                           ;Scheduler/Scheduler.c: 39:   {;Scheduler/Scheduler.c: 40:     if( ( ((SystemTick)%(Sche
      +                          duler_Intitys[IntityIndex].Peroid/(20UL)))?0:1 ) )
  8896  0DDC  3000               	movlw	0
  8897  0DDD  00F6               	movwf	i1___lldiv@divisor+3
  8898  0DDE  3000               	movlw	0
  8899  0DDF  00F5               	movwf	i1___lldiv@divisor+2
  8900  0DE0  3000               	movlw	0
  8901  0DE1  00F4               	movwf	i1___lldiv@divisor+1
  8902  0DE2  3014               	movlw	20
  8903  0DE3  00F3               	movwf	i1___lldiv@divisor
  8904  0DE4  3005               	movlw	5
  8905  0DE5  00FF               	movwf	btemp+1
  8906  0DE6  087F               	movf	btemp+1,w
  8907  0DE7  00F0               	movwf	i1___bmul@multiplicand
  8908  0DE8  0831               	movf	Scheduler_ActivateTask@IntityIndex,w
  8909  0DE9  120A  158A  2096  120A  158A  	fcall	i1___bmul
  8910  0DEE  3E02               	addlw	low (((_Scheduler_Intitys-__stringbase)| (0+32768)+1))
  8911  0DEF  0084               	movwf	4
  8912  0DF0  120A  158A  2000  120A  158A  	fcall	stringdir
  8913  0DF5  00F7               	movwf	i1___lldiv@dividend
  8914  0DF6  120A  158A  2000  120A  158A  	fcall	stringdir
  8915  0DFB  00F8               	movwf	i1___lldiv@dividend+1
  8916  0DFC  120A  158A  2000  120A  158A  	fcall	stringdir
  8917  0E01  00F9               	movwf	i1___lldiv@dividend+2
  8918  0E02  120A  158A  2000  120A  158A  	fcall	stringdir
  8919  0E07  00FA               	movwf	i1___lldiv@dividend+3
  8920  0E08  120A  158A  26A5  120A  158A  	fcall	i1___lldiv
  8921  0E0D  0876               	movf	?i1___lldiv+3,w
  8922  0E0E  1283               	bcf	3,5	;RP0=0, select bank0
  8923  0E0F  1303               	bcf	3,6	;RP1=0, select bank0
  8924  0E10  00A8               	movwf	___llmod@divisor+3
  8925  0E11  0875               	movf	?i1___lldiv+2,w
  8926  0E12  00A7               	movwf	___llmod@divisor+2
  8927  0E13  0874               	movf	?i1___lldiv+1,w
  8928  0E14  00A6               	movwf	___llmod@divisor+1
  8929  0E15  0873               	movf	?i1___lldiv,w
  8930  0E16  00A5               	movwf	___llmod@divisor
  8931  0E17  0830               	movf	Scheduler_ActivateTask@SystemTick+3,w
  8932  0E18  00AC               	movwf	___llmod@dividend+3
  8933  0E19  082F               	movf	Scheduler_ActivateTask@SystemTick+2,w
  8934  0E1A  00AB               	movwf	___llmod@dividend+2
  8935  0E1B  082E               	movf	Scheduler_ActivateTask@SystemTick+1,w
  8936  0E1C  00AA               	movwf	___llmod@dividend+1
  8937  0E1D  082D               	movf	Scheduler_ActivateTask@SystemTick,w
  8938  0E1E  00A9               	movwf	___llmod@dividend
  8939  0E1F  120A  158A  24CF  120A  158A  	fcall	___llmod
  8940  0E24  1283               	bcf	3,5	;RP0=0, select bank0
  8941  0E25  1303               	bcf	3,6	;RP1=0, select bank0
  8942  0E26  0828               	movf	?___llmod+3,w
  8943  0E27  0427               	iorwf	?___llmod+2,w
  8944  0E28  0426               	iorwf	?___llmod+1,w
  8945  0E29  0425               	iorwf	?___llmod,w
  8946  0E2A  1D03               	skipz
  8947  0E2B  2E2D               	goto	u523_21
  8948  0E2C  2E2E               	goto	u523_20
  8949  0E2D                     u523_21:
  8950  0E2D  2E34               	goto	i1l3813
  8951  0E2E                     u523_20:
  8952  0E2E                     i1l3811:
  8953                           
  8954                           ;Scheduler/Scheduler.c: 41:     {;Scheduler/Scheduler.c: 42:      Scheduler_ActivationFl
      +                          ags[IntityIndex] = 1 ;
  8955  0E2E  0831               	movf	Scheduler_ActivateTask@IntityIndex,w
  8956  0E2F  3ED3               	addlw	(low (_Scheduler_ActivationFlags| 0))& (0+255)
  8957  0E30  0084               	movwf	4
  8958  0E31  1383               	bcf	3,7	;select IRP bank1
  8959  0E32  0180               	clrf	0
  8960  0E33  0A80               	incf	0,f
  8961  0E34                     i1l3813:
  8962                           
  8963                           ;Scheduler/Scheduler.c: 44:   }
  8964  0E34  3001               	movlw	1
  8965  0E35  00FF               	movwf	btemp+1
  8966  0E36  087F               	movf	btemp+1,w
  8967  0E37  07B1               	addwf	Scheduler_ActivateTask@IntityIndex,f
  8968  0E38                     i1l3815:
  8969  0E38  3003               	movlw	3
  8970  0E39  0231               	subwf	Scheduler_ActivateTask@IntityIndex,w
  8971  0E3A  1C03               	skipc
  8972  0E3B  2E3D               	goto	u524_21
  8973  0E3C  2E3E               	goto	u524_20
  8974  0E3D                     u524_21:
  8975  0E3D  2DDC               	goto	i1l3809
  8976  0E3E                     u524_20:
  8977  0E3E                     i1l260:
  8978  0E3E  0008               	return
  8979  0E3F                     __end_of_Scheduler_ActivateTask:
  8980                           
  8981                           	psect	text53
  8982  0EA5                     __ptext53:	
  8983 ;; *************** function i1___lldiv *****************
  8984 ;; Defined at:
  8985 ;;		line 5 in file "C:\Program Files (x86)\Microchip\xc8\v2.20\pic\sources\c90\common\__lldiv.c"
  8986 ;; Parameters:    Size  Location     Type
  8987 ;;  divisor         4    3[COMMON] unsigned long 
  8988 ;;  dividend        4    7[COMMON] unsigned long 
  8989 ;; Auto vars:     Size  Location     Type
  8990 ;;  quotient        4    0[BANK0 ] unsigned long 
  8991 ;;  counter         1    4[BANK0 ] unsigned char 
  8992 ;; Return value:  Size  Location     Type
  8993 ;;                  4    3[COMMON] unsigned long 
  8994 ;; Registers used:
  8995 ;;		wreg, status,2, status,0, btemp+1
  8996 ;; Tracked objects:
  8997 ;;		On entry : 0/0
  8998 ;;		On exit  : 0/0
  8999 ;;		Unchanged: 0/0
  9000 ;; Data sizes:     COMMON   BANK0   BANK1   BANK3   BANK2
  9001 ;;      Params:         8       0       0       0       0
  9002 ;;      Locals:         0       5       0       0       0
  9003 ;;      Temps:          1       0       0       0       0
  9004 ;;      Totals:         9       5       0       0       0
  9005 ;;Total ram usage:       14 bytes
  9006 ;; Hardware stack levels used:    1
  9007 ;; This function calls:
  9008 ;;		Nothing
  9009 ;; This function is called by:
  9010 ;;		_Scheduler_ActivateTask
  9011 ;; This function uses a non-reentrant model
  9012 ;;
  9013                           
  9014                           
  9015                           ;psect for function i1___lldiv
  9016  0EA5                     i1___lldiv:
  9017  0EA5                     i1l2833:	
  9018                           ;incstack = 0
  9019 ;; hardware stack exceeded
  9020                           ; Regs used in i1___lldiv: [wreg+status,2+status,0+btemp+1]
  9021                           
  9022  0EA5  3000               	movlw	0
  9023  0EA6  1283               	bcf	3,5	;RP0=0, select bank0
  9024  0EA7  1303               	bcf	3,6	;RP1=0, select bank0
  9025  0EA8  00A3               	movwf	i1___lldiv@quotient+3
  9026  0EA9  3000               	movlw	0
  9027  0EAA  00A2               	movwf	i1___lldiv@quotient+2
  9028  0EAB  3000               	movlw	0
  9029  0EAC  00A1               	movwf	i1___lldiv@quotient+1
  9030  0EAD  3000               	movlw	0
  9031  0EAE  00A0               	movwf	i1___lldiv@quotient
  9032  0EAF  0876               	movf	i1___lldiv@divisor+3,w
  9033  0EB0  0475               	iorwf	i1___lldiv@divisor+2,w
  9034  0EB1  0474               	iorwf	i1___lldiv@divisor+1,w
  9035  0EB2  0473               	iorwf	i1___lldiv@divisor,w
  9036  0EB3  1903               	skipnz
  9037  0EB4  2EB6               	goto	u345_21
  9038  0EB5  2EB7               	goto	u345_20
  9039  0EB6                     u345_21:
  9040  0EB6  2F04               	goto	i1l2855
  9041  0EB7                     u345_20:
  9042  0EB7                     i1l2835:
  9043  0EB7  01A4               	clrf	i1___lldiv@counter
  9044  0EB8  0AA4               	incf	i1___lldiv@counter,f
  9045  0EB9  2EC7               	goto	i1l2841
  9046  0EBA                     i1l2837:
  9047  0EBA  3001               	movlw	1
  9048  0EBB  00FB               	movwf	??i1___lldiv
  9049  0EBC                     u346_25:
  9050  0EBC  1003               	clrc
  9051  0EBD  0DF3               	rlf	i1___lldiv@divisor,f
  9052  0EBE  0DF4               	rlf	i1___lldiv@divisor+1,f
  9053  0EBF  0DF5               	rlf	i1___lldiv@divisor+2,f
  9054  0EC0  0DF6               	rlf	i1___lldiv@divisor+3,f
  9055  0EC1  0BFB               	decfsz	??i1___lldiv,f
  9056  0EC2  2EBC               	goto	u346_25
  9057  0EC3                     i1l2839:
  9058  0EC3  3001               	movlw	1
  9059  0EC4  00FF               	movwf	btemp+1
  9060  0EC5  087F               	movf	btemp+1,w
  9061  0EC6  07A4               	addwf	i1___lldiv@counter,f
  9062  0EC7                     i1l2841:
  9063  0EC7  1FF6               	btfss	i1___lldiv@divisor+3,7
  9064  0EC8  2ECA               	goto	u347_21
  9065  0EC9  2ECB               	goto	u347_20
  9066  0ECA                     u347_21:
  9067  0ECA  2EBA               	goto	i1l2837
  9068  0ECB                     u347_20:
  9069  0ECB                     i1l2843:
  9070  0ECB  3001               	movlw	1
  9071  0ECC  00FB               	movwf	??i1___lldiv
  9072  0ECD                     u348_25:
  9073  0ECD  1003               	clrc
  9074  0ECE  0DA0               	rlf	i1___lldiv@quotient,f
  9075  0ECF  0DA1               	rlf	i1___lldiv@quotient+1,f
  9076  0ED0  0DA2               	rlf	i1___lldiv@quotient+2,f
  9077  0ED1  0DA3               	rlf	i1___lldiv@quotient+3,f
  9078  0ED2  0BFB               	decfsz	??i1___lldiv,f
  9079  0ED3  2ECD               	goto	u348_25
  9080  0ED4                     i1l2845:
  9081  0ED4  0876               	movf	i1___lldiv@divisor+3,w
  9082  0ED5  027A               	subwf	i1___lldiv@dividend+3,w
  9083  0ED6  1D03               	skipz
  9084  0ED7  2EE2               	goto	u349_25
  9085  0ED8  0875               	movf	i1___lldiv@divisor+2,w
  9086  0ED9  0279               	subwf	i1___lldiv@dividend+2,w
  9087  0EDA  1D03               	skipz
  9088  0EDB  2EE2               	goto	u349_25
  9089  0EDC  0874               	movf	i1___lldiv@divisor+1,w
  9090  0EDD  0278               	subwf	i1___lldiv@dividend+1,w
  9091  0EDE  1D03               	skipz
  9092  0EDF  2EE2               	goto	u349_25
  9093  0EE0  0873               	movf	i1___lldiv@divisor,w
  9094  0EE1  0277               	subwf	i1___lldiv@dividend,w
  9095  0EE2                     u349_25:
  9096  0EE2  1C03               	skipc
  9097  0EE3  2EE5               	goto	u349_21
  9098  0EE4  2EE6               	goto	u349_20
  9099  0EE5                     u349_21:
  9100  0EE5  2EF5               	goto	i1l2851
  9101  0EE6                     u349_20:
  9102  0EE6                     i1l2847:
  9103  0EE6  0873               	movf	i1___lldiv@divisor,w
  9104  0EE7  02F7               	subwf	i1___lldiv@dividend,f
  9105  0EE8  0874               	movf	i1___lldiv@divisor+1,w
  9106  0EE9  1C03               	skipc
  9107  0EEA  0F74               	incfsz	i1___lldiv@divisor+1,w
  9108  0EEB  02F8               	subwf	i1___lldiv@dividend+1,f
  9109  0EEC  0875               	movf	i1___lldiv@divisor+2,w
  9110  0EED  1C03               	skipc
  9111  0EEE  0F75               	incfsz	i1___lldiv@divisor+2,w
  9112  0EEF  02F9               	subwf	i1___lldiv@dividend+2,f
  9113  0EF0  0876               	movf	i1___lldiv@divisor+3,w
  9114  0EF1  1C03               	skipc
  9115  0EF2  0F76               	incfsz	i1___lldiv@divisor+3,w
  9116  0EF3  02FA               	subwf	i1___lldiv@dividend+3,f
  9117  0EF4                     i1l2849:
  9118  0EF4  1420               	bsf	i1___lldiv@quotient,0
  9119  0EF5                     i1l2851:
  9120  0EF5  3001               	movlw	1
  9121  0EF6                     u350_25:
  9122  0EF6  1003               	clrc
  9123  0EF7  0CF6               	rrf	i1___lldiv@divisor+3,f
  9124  0EF8  0CF5               	rrf	i1___lldiv@divisor+2,f
  9125  0EF9  0CF4               	rrf	i1___lldiv@divisor+1,f
  9126  0EFA  0CF3               	rrf	i1___lldiv@divisor,f
  9127  0EFB  3EFF               	addlw	-1
  9128  0EFC  1D03               	skipz
  9129  0EFD  2EF6               	goto	u350_25
  9130  0EFE                     i1l2853:
  9131  0EFE  3001               	movlw	1
  9132  0EFF  02A4               	subwf	i1___lldiv@counter,f
  9133  0F00  1D03               	btfss	3,2
  9134  0F01  2F03               	goto	u351_21
  9135  0F02  2F04               	goto	u351_20
  9136  0F03                     u351_21:
  9137  0F03  2ECB               	goto	i1l2843
  9138  0F04                     u351_20:
  9139  0F04                     i1l2855:
  9140  0F04  0823               	movf	i1___lldiv@quotient+3,w
  9141  0F05  00F6               	movwf	?i1___lldiv+3
  9142  0F06  0822               	movf	i1___lldiv@quotient+2,w
  9143  0F07  00F5               	movwf	?i1___lldiv+2
  9144  0F08  0821               	movf	i1___lldiv@quotient+1,w
  9145  0F09  00F4               	movwf	?i1___lldiv+1
  9146  0F0A  0820               	movf	i1___lldiv@quotient,w
  9147  0F0B  00F3               	movwf	?i1___lldiv
  9148  0F0C                     i1l669:
  9149  0F0C  0008               	return
  9150  0F0D                     __end_ofi1___lldiv:
  9151                           
  9152                           	psect	text54
  9153  0896                     __ptext54:	
  9154 ;; *************** function i1___bmul *****************
  9155 ;; Defined at:
  9156 ;;		line 4 in file "C:\Program Files (x86)\Microchip\xc8\v2.20\pic\sources\c90\common\Umul8.c"
  9157 ;; Parameters:    Size  Location     Type
  9158 ;;  multiplier      1    wreg     unsigned char 
  9159 ;;  multiplicand    1    0[COMMON] unsigned char 
  9160 ;; Auto vars:     Size  Location     Type
  9161 ;;  multiplier      1    2[COMMON] unsigned char 
  9162 ;;  product         1    1[COMMON] unsigned char 
  9163 ;; Return value:  Size  Location     Type
  9164 ;;                  1    wreg      unsigned char 
  9165 ;; Registers used:
  9166 ;;		wreg, status,2, status,0, btemp+1
  9167 ;; Tracked objects:
  9168 ;;		On entry : 0/0
  9169 ;;		On exit  : 0/0
  9170 ;;		Unchanged: 0/0
  9171 ;; Data sizes:     COMMON   BANK0   BANK1   BANK3   BANK2
  9172 ;;      Params:         1       0       0       0       0
  9173 ;;      Locals:         2       0       0       0       0
  9174 ;;      Temps:          0       0       0       0       0
  9175 ;;      Totals:         3       0       0       0       0
  9176 ;;Total ram usage:        3 bytes
  9177 ;; Hardware stack levels used:    1
  9178 ;; This function calls:
  9179 ;;		Nothing
  9180 ;; This function is called by:
  9181 ;;		_Scheduler_ActivateTask
  9182 ;; This function uses a non-reentrant model
  9183 ;;
  9184                           
  9185                           
  9186                           ;psect for function i1___bmul
  9187  0896                     i1___bmul:
  9188                           
  9189                           ;incstack = 0
  9190 ;; hardware stack exceeded
  9191                           ; Regs used in i1___bmul: [wreg+status,2+status,0+btemp+1]
  9192                           ;i1___bmul@multiplier stored from wreg
  9193  0896  00F2               	movwf	i1___bmul@multiplier
  9194  0897                     i1l2859:
  9195  0897  01F1               	clrf	i1___bmul@product
  9196  0898                     i1l2861:
  9197  0898  1C72               	btfss	i1___bmul@multiplier,0
  9198  0899  289B               	goto	u352_21
  9199  089A  289C               	goto	u352_20
  9200  089B                     u352_21:
  9201  089B  28A0               	goto	i1l2865
  9202  089C                     u352_20:
  9203  089C                     i1l2863:
  9204  089C  0870               	movf	i1___bmul@multiplicand,w
  9205  089D  00FF               	movwf	btemp+1
  9206  089E  087F               	movf	btemp+1,w
  9207  089F  07F1               	addwf	i1___bmul@product,f
  9208  08A0                     i1l2865:
  9209  08A0  1003               	clrc
  9210  08A1  0DF0               	rlf	i1___bmul@multiplicand,f
  9211  08A2                     i1l2867:
  9212  08A2  1003               	clrc
  9213  08A3  0CF2               	rrf	i1___bmul@multiplier,f
  9214  08A4                     i1l2869:
  9215  08A4  0872               	movf	i1___bmul@multiplier,w
  9216  08A5  1D03               	btfss	3,2
  9217  08A6  28A8               	goto	u353_21
  9218  08A7  28A9               	goto	u353_20
  9219  08A8                     u353_21:
  9220  08A8  2898               	goto	i1l2861
  9221  08A9                     u353_20:
  9222  08A9                     i1l2871:
  9223  08A9  0871               	movf	i1___bmul@product,w
  9224  08AA                     i1l659:
  9225  08AA  0008               	return
  9226  08AB                     __end_ofi1___bmul:
  9227                           
  9228                           	psect	text55
  9229  0CCF                     __ptext55:	
  9230 ;; *************** function ___llmod *****************
  9231 ;; Defined at:
  9232 ;;		line 5 in file "C:\Program Files (x86)\Microchip\xc8\v2.20\pic\sources\c90\common\llmod.c"
  9233 ;; Parameters:    Size  Location     Type
  9234 ;;  divisor         4    5[BANK0 ] unsigned long 
  9235 ;;  dividend        4    9[BANK0 ] unsigned long 
  9236 ;; Auto vars:     Size  Location     Type
  9237 ;;  counter         1   13[COMMON] unsigned char 
  9238 ;; Return value:  Size  Location     Type
  9239 ;;                  4    5[BANK0 ] unsigned long 
  9240 ;; Registers used:
  9241 ;;		wreg, status,2, status,0, btemp+1
  9242 ;; Tracked objects:
  9243 ;;		On entry : 0/0
  9244 ;;		On exit  : 0/0
  9245 ;;		Unchanged: 0/0
  9246 ;; Data sizes:     COMMON   BANK0   BANK1   BANK3   BANK2
  9247 ;;      Params:         0       8       0       0       0
  9248 ;;      Locals:         1       0       0       0       0
  9249 ;;      Temps:          1       0       0       0       0
  9250 ;;      Totals:         2       8       0       0       0
  9251 ;;Total ram usage:       10 bytes
  9252 ;; Hardware stack levels used:    1
  9253 ;; This function calls:
  9254 ;;		Nothing
  9255 ;; This function is called by:
  9256 ;;		_Scheduler_ActivateTask
  9257 ;; This function uses a non-reentrant model
  9258 ;;
  9259                           
  9260                           
  9261                           ;psect for function ___llmod
  9262  0CCF                     ___llmod:
  9263  0CCF                     i1l2811:	
  9264                           ;incstack = 0
  9265 ;; hardware stack exceeded
  9266                           ; Regs used in ___llmod: [wreg+status,2+status,0+btemp+1]
  9267                           
  9268  0CCF  1283               	bcf	3,5	;RP0=0, select bank0
  9269  0CD0  1303               	bcf	3,6	;RP1=0, select bank0
  9270  0CD1  0828               	movf	___llmod@divisor+3,w
  9271  0CD2  0427               	iorwf	___llmod@divisor+2,w
  9272  0CD3  0426               	iorwf	___llmod@divisor+1,w
  9273  0CD4  0425               	iorwf	___llmod@divisor,w
  9274  0CD5  1903               	skipnz
  9275  0CD6  2CD8               	goto	u339_21
  9276  0CD7  2CD9               	goto	u339_20
  9277  0CD8                     u339_21:
  9278  0CD8  2D1C               	goto	i1l2829
  9279  0CD9                     u339_20:
  9280  0CD9                     i1l2813:
  9281  0CD9  01FD               	clrf	___llmod@counter
  9282  0CDA  0AFD               	incf	___llmod@counter,f
  9283  0CDB  2CE9               	goto	i1l2819
  9284  0CDC                     i1l2815:
  9285  0CDC  3001               	movlw	1
  9286  0CDD  00FC               	movwf	??___llmod
  9287  0CDE                     u340_25:
  9288  0CDE  1003               	clrc
  9289  0CDF  0DA5               	rlf	___llmod@divisor,f
  9290  0CE0  0DA6               	rlf	___llmod@divisor+1,f
  9291  0CE1  0DA7               	rlf	___llmod@divisor+2,f
  9292  0CE2  0DA8               	rlf	___llmod@divisor+3,f
  9293  0CE3  0BFC               	decfsz	??___llmod,f
  9294  0CE4  2CDE               	goto	u340_25
  9295  0CE5                     i1l2817:
  9296  0CE5  3001               	movlw	1
  9297  0CE6  00FF               	movwf	btemp+1
  9298  0CE7  087F               	movf	btemp+1,w
  9299  0CE8  07FD               	addwf	___llmod@counter,f
  9300  0CE9                     i1l2819:
  9301  0CE9  1FA8               	btfss	___llmod@divisor+3,7
  9302  0CEA  2CEC               	goto	u341_21
  9303  0CEB  2CED               	goto	u341_20
  9304  0CEC                     u341_21:
  9305  0CEC  2CDC               	goto	i1l2815
  9306  0CED                     u341_20:
  9307  0CED                     i1l2821:
  9308  0CED  0828               	movf	___llmod@divisor+3,w
  9309  0CEE  022C               	subwf	___llmod@dividend+3,w
  9310  0CEF  1D03               	skipz
  9311  0CF0  2CFB               	goto	u342_25
  9312  0CF1  0827               	movf	___llmod@divisor+2,w
  9313  0CF2  022B               	subwf	___llmod@dividend+2,w
  9314  0CF3  1D03               	skipz
  9315  0CF4  2CFB               	goto	u342_25
  9316  0CF5  0826               	movf	___llmod@divisor+1,w
  9317  0CF6  022A               	subwf	___llmod@dividend+1,w
  9318  0CF7  1D03               	skipz
  9319  0CF8  2CFB               	goto	u342_25
  9320  0CF9  0825               	movf	___llmod@divisor,w
  9321  0CFA  0229               	subwf	___llmod@dividend,w
  9322  0CFB                     u342_25:
  9323  0CFB  1C03               	skipc
  9324  0CFC  2CFE               	goto	u342_21
  9325  0CFD  2CFF               	goto	u342_20
  9326  0CFE                     u342_21:
  9327  0CFE  2D0D               	goto	i1l2825
  9328  0CFF                     u342_20:
  9329  0CFF                     i1l2823:
  9330  0CFF  0825               	movf	___llmod@divisor,w
  9331  0D00  02A9               	subwf	___llmod@dividend,f
  9332  0D01  0826               	movf	___llmod@divisor+1,w
  9333  0D02  1C03               	skipc
  9334  0D03  0F26               	incfsz	___llmod@divisor+1,w
  9335  0D04  02AA               	subwf	___llmod@dividend+1,f
  9336  0D05  0827               	movf	___llmod@divisor+2,w
  9337  0D06  1C03               	skipc
  9338  0D07  0F27               	incfsz	___llmod@divisor+2,w
  9339  0D08  02AB               	subwf	___llmod@dividend+2,f
  9340  0D09  0828               	movf	___llmod@divisor+3,w
  9341  0D0A  1C03               	skipc
  9342  0D0B  0F28               	incfsz	___llmod@divisor+3,w
  9343  0D0C  02AC               	subwf	___llmod@dividend+3,f
  9344  0D0D                     i1l2825:
  9345  0D0D  3001               	movlw	1
  9346  0D0E                     u343_25:
  9347  0D0E  1003               	clrc
  9348  0D0F  0CA8               	rrf	___llmod@divisor+3,f
  9349  0D10  0CA7               	rrf	___llmod@divisor+2,f
  9350  0D11  0CA6               	rrf	___llmod@divisor+1,f
  9351  0D12  0CA5               	rrf	___llmod@divisor,f
  9352  0D13  3EFF               	addlw	-1
  9353  0D14  1D03               	skipz
  9354  0D15  2D0E               	goto	u343_25
  9355  0D16                     i1l2827:
  9356  0D16  3001               	movlw	1
  9357  0D17  02FD               	subwf	___llmod@counter,f
  9358  0D18  1D03               	btfss	3,2
  9359  0D19  2D1B               	goto	u344_21
  9360  0D1A  2D1C               	goto	u344_20
  9361  0D1B                     u344_21:
  9362  0D1B  2CED               	goto	i1l2821
  9363  0D1C                     u344_20:
  9364  0D1C                     i1l2829:
  9365  0D1C  082C               	movf	___llmod@dividend+3,w
  9366  0D1D  00A8               	movwf	?___llmod+3
  9367  0D1E  082B               	movf	___llmod@dividend+2,w
  9368  0D1F  00A7               	movwf	?___llmod+2
  9369  0D20  082A               	movf	___llmod@dividend+1,w
  9370  0D21  00A6               	movwf	?___llmod+1
  9371  0D22  0829               	movf	___llmod@dividend,w
  9372  0D23  00A5               	movwf	?___llmod
  9373  0D24                     i1l855:
  9374  0D24  0008               	return
  9375  0D25                     __end_of___llmod:
  9376                           
  9377                           	psect	text56
  9378  08AB                     __ptext56:	
  9379 ;; *************** function _EXTI_On_Off_CallBack *****************
  9380 ;; Defined at:
  9381 ;;		line 46 in file "Buttons/Buttons.c"
  9382 ;; Parameters:    Size  Location     Type
  9383 ;;		None
  9384 ;; Auto vars:     Size  Location     Type
  9385 ;;		None
  9386 ;; Return value:  Size  Location     Type
  9387 ;;                  1    wreg      void 
  9388 ;; Registers used:
  9389 ;;		wreg, status,2, status,0
  9390 ;; Tracked objects:
  9391 ;;		On entry : 0/0
  9392 ;;		On exit  : 0/0
  9393 ;;		Unchanged: 0/0
  9394 ;; Data sizes:     COMMON   BANK0   BANK1   BANK3   BANK2
  9395 ;;      Params:         0       0       0       0       0
  9396 ;;      Locals:         0       0       0       0       0
  9397 ;;      Temps:          0       0       0       0       0
  9398 ;;      Totals:         0       0       0       0       0
  9399 ;;Total ram usage:        0 bytes
  9400 ;; Hardware stack levels used:    1
  9401 ;; This function calls:
  9402 ;;		Nothing
  9403 ;; This function is called by:
  9404 ;;		_myISR
  9405 ;; This function uses a non-reentrant model
  9406 ;;
  9407                           
  9408                           
  9409                           ;psect for function _EXTI_On_Off_CallBack
  9410  08AB                     _EXTI_On_Off_CallBack:
  9411  08AB                     i1l3041:	
  9412                           ;incstack = 0
  9413                           ; Regs used in _EXTI_On_Off_CallBack: [wreg+status,2+status,0]
  9414                           
  9415                           
  9416                           ;Buttons/Buttons.c: 48:  if((Mode.Select_Mode==Setting_Mode) || (Mode.Select_Mode==Norma
      +                          l_Mode))
  9417  08AB  3002               	movlw	2
  9418  08AC  1283               	bcf	3,5	;RP0=0, select bank0
  9419  08AD  1303               	bcf	3,6	;RP1=0, select bank0
  9420  08AE  0654               	xorwf	_Mode,w
  9421  08AF  1903               	btfsc	3,2
  9422  08B0  28B2               	goto	u365_21
  9423  08B1  28B3               	goto	u365_20
  9424  08B2                     u365_21:
  9425  08B2  28B8               	goto	i1l3045
  9426  08B3                     u365_20:
  9427  08B3                     i1l3043:
  9428  08B3  0354               	decf	_Mode,w
  9429  08B4  1D03               	btfss	3,2
  9430  08B5  28B7               	goto	u366_21
  9431  08B6  28B8               	goto	u366_20
  9432  08B7                     u366_21:
  9433  08B7  28BA               	goto	i1l3047
  9434  08B8                     u366_20:
  9435  08B8                     i1l3045:
  9436                           
  9437                           ;Buttons/Buttons.c: 49:  {;Buttons/Buttons.c: 51:   Mode.Select_Mode=Off_Mode;
  9438  08B8  01D4               	clrf	_Mode
  9439                           
  9440                           ;Buttons/Buttons.c: 53:  }
  9441  08B9  28C1               	goto	i1l106
  9442  08BA                     i1l3047:
  9443  08BA  0854               	movf	_Mode,w
  9444  08BB  1D03               	btfss	3,2
  9445  08BC  28BE               	goto	u367_21
  9446  08BD  28BF               	goto	u367_20
  9447  08BE                     u367_21:
  9448  08BE  28C1               	goto	i1l106
  9449  08BF                     u367_20:
  9450  08BF                     i1l3049:
  9451                           
  9452                           ;Buttons/Buttons.c: 55:  {;Buttons/Buttons.c: 57:   Mode.Select_Mode=Normal_Mode;
  9453  08BF  01D4               	clrf	_Mode
  9454  08C0  0AD4               	incf	_Mode,f
  9455  08C1                     i1l106:
  9456  08C1  0008               	return
  9457  08C2                     __end_of_EXTI_On_Off_CallBack:
  9458  0004                     
  9459                           	psect	functab
  9460  004B                     __pfunctab:
  9461  004B                     __fptable:
  9462  004B                     fptable:
  9463  004B  00FF               	movwf	(btemp+1)& (0+127)
  9464  004C  3000               	movlw	high fptable
  9465  004D  008A               	movwf	10
  9466  004E  087F               	movf	(btemp+1)& (0+127),w
  9467  004F  0782               	addwf	2,f
  9468  0050                     fpbase:
  9469  0050  2850               	goto	fpbase	; Call via a null pointer and you will get stuck here.
  9470  0051                     fp_u0:
  9471  0051  2851               	ljmp	fp_u0	; unused
  9472  0052                     fp_u1:
  9473  0052  2852               	ljmp	fp_u1	; unused
  9474  0053                     fp__Scheduler_Task3:
  9475  0053  160A  118A  2FF5   	ljmp	_Scheduler_Task3
  9476  0056                     fp__Scheduler_Task1:
  9477  0056  120A  158A  281A   	ljmp	_Scheduler_Task1
  9478  0059                     fp__Scheduler_Task2:
  9479  0059  120A  158A  2825   	ljmp	_Scheduler_Task2
  9480  005C                     __end_of__fptable:
  9481  005C                     __i1fptable:
  9482  005C                     i1fptable:
  9483  005C  00FF               	movwf	(btemp+1)& (0+127)
  9484  005D  3000               	movlw	high i1fptable
  9485  005E  008A               	movwf	10
  9486  005F  087F               	movf	(btemp+1)& (0+127),w
  9487  0060  0782               	addwf	2,f
  9488  0061                     i1fpbase:
  9489  0061  2861               	goto	i1fpbase	; Call via a null pointer and you will get stuck here.
  9490  0062                     fp__EXTI_On_Off_CallBack:
  9491  0062  120A  158A  28AB   	ljmp	_EXTI_On_Off_CallBack
  9492  0065                     fp__Timer0_CallBack:
  9493  0065  120A  158A  2A57   	ljmp	_Timer0_CallBack
  9494  0068                     __end_of__i1fptable:
  9495  007E                     btemp	set	126	;btemp
  9496  007E                     wtemp0	set	126
  9497                           
  9498                           	psect	config
  9499                           
  9500                           ;Config register CONFIG @ 0x2007
  9501                           ;	Oscillator Selection bits
  9502                           ;	FOSC = HS, HS oscillator
  9503                           ;	Watchdog Timer Enable bit
  9504                           ;	WDTE = OFF, WDT disabled
  9505                           ;	Power-up Timer Enable bit
  9506                           ;	PWRTE = OFF, PWRT disabled
  9507                           ;	Brown-out Reset Enable bit
  9508                           ;	BOREN = OFF, BOR disabled
  9509                           ;	Low-Voltage (Single-Supply) In-Circuit Serial Programming Enable bit
  9510                           ;	LVP = OFF, RB3 is digital I/O, HV on MCLR must be used for programming
  9511                           ;	Data EEPROM Memory Code Protection bit
  9512                           ;	CPD = OFF, Data EEPROM code protection off
  9513                           ;	Flash Program Memory Write Enable bits
  9514                           ;	WRT = OFF, Write protection off; all program memory may be written to by EECON control
  9515                           ;	In-Circuit Debugger Mode bit
  9516                           ;	DEBUG = 0x1, unprogrammed default
  9517                           ;	Flash Program Memory Code Protection bit
  9518                           ;	CP = OFF, Code protection off
  9519  2007                     	org	8199
  9520  2007  3F3A               	dw	16186

Data Sizes:
    Strings     0
    Constant    17
    Data        4
    BSS         76
    Persistent  0
    Stack       0

Auto Spaces:
    Space          Size  Autos    Used
    COMMON           14     14      14
    BANK0            80     35      58
    BANK1            80     43      60
    BANK3            96      0      40
    BANK2            96      0       0

Pointer List with Targets:

    Scheduler_Start$1352	const PTR FTN()void  size(1) Largest target is 1
		 -> Scheduler_Task3(), Scheduler_Task2(), Scheduler_Task1(), 

    memset@p1	PTR void  size(1) Largest target is 3
		 -> Scheduler_ActivationFlags(BANK1[3]), Debounce_Down(BANK1[3]), Debounce_Up(BANK1[3]), 

    memset@p	PTR unsigned char  size(1) Largest target is 3
		 -> Scheduler_ActivationFlags(BANK1[3]), Debounce_Down(BANK1[3]), Debounce_Up(BANK1[3]), 

    S391$fuction_ptr	PTR FTN()void  size(1) Largest target is 1
		 -> Scheduler_Task3(), Scheduler_Task2(), Scheduler_Task1(), 

    Scheduler_Intitys.fuction_ptr	PTR FTN()void  size(1) Largest target is 1
		 -> Scheduler_Task3(), Scheduler_Task2(), Scheduler_Task1(), 

    sp__memset	PTR void  size(1) Largest target is 3
		 -> Scheduler_ActivationFlags(BANK1[3]), Debounce_Down(BANK1[3]), Debounce_Up(BANK1[3]), 

    Average_Value@Avrage_Values	PTR unsigned char  size(1) Largest target is 6
		 -> Temperature(BANK0[6]), 

    S156_CallBack_t$Timer0CallBack	PTR FTN()void  size(1) Largest target is 1
		 -> Timer0_CallBack(), 

    Interrupt_CallBack.Timer0CallBack	PTR FTN()void  size(1) Largest target is 1
		 -> Timer0_CallBack(), 

    S156_CallBack_t$ExtiCallBack	PTR FTN()void  size(1) Largest target is 1
		 -> EXTI_On_Off_CallBack(), 

    Interrupt_CallBack.ExtiCallBack	PTR FTN()void  size(1) Largest target is 1
		 -> EXTI_On_Off_CallBack(), 

    ADC_Get_Value@Buffer	PTR unsigned char  size(1) Largest target is 6
		 -> Temperature(BANK0[6]), 


Critical Paths under _main in COMMON

    None.

Critical Paths under _myISR in COMMON

    _Scheduler_ActivateTask->___llmod
    i1___lldiv->i1___bmul
    ___llmod->i1___lldiv

Critical Paths under _main in BANK0

    _Set_EEPROM_Data->_EEPROM_Write
    _EEPROM_Write->_I2c_Write
    _ModeManager_MainFunction->_Mode_Setting_Timer
    _Mode_Setting_Timer->___wmul
    _Temperature_Calc->___fltol
    ___flmul->__Umul8_16
    _Average_Value->___lldiv
    _Elements_MainFunction->_LED_Control
    _LED_Control->_LED_BLINKING
    _LED_BLINKING->___wmul
    _Scheduler_Task1->_SSD_MainFunction
    _SSD_MainFunction->_SSD_SelectDigit
    _SSD_SelectDisplay->_SSD_Blink
    _SSD_Blink->___wmul
    _SSD_SelectDigit->___awdiv
    _Scheduler_Init->_memset
    _Get_EEPROM_Data->___awmod
    _EEPROM_Read->_I2c_Read
    _EEPROM_Read->_I2c_Write
    _Buttons_Init->_memset

Critical Paths under _myISR in BANK0

    _Timer0_CallBack->_Scheduler_ActivateTask
    _Scheduler_ActivateTask->___llmod
    ___llmod->i1___lldiv

Critical Paths under _main in BANK1

    _main->_Scheduler_Start
    _Temperature_MainFunction->_Temperature_Calc
    _Temperature_Calc->___fltol
    ___fltol->___flmul
    ___flmul->___xxtofl
    _Average_Value->___lldiv

Critical Paths under _myISR in BANK1

    None.

Critical Paths under _main in BANK3

    None.

Critical Paths under _myISR in BANK3

    None.

Critical Paths under _main in BANK2

    None.

Critical Paths under _myISR in BANK2

    None.

Call Graph Tables:

 ---------------------------------------------------------------------------------
 (Depth) Function   	        Calls       Base Space   Used Autos Params    Refs
 ---------------------------------------------------------------------------------
 (0) _main                                                 0     0      0   13603
                           _ADC_Init
                     _ADC_Start_Conv
                       _Buttons_Init
                      _Elements_Init
                          _GPIO_Init
                    _Get_EEPROM_Data
                           _I2c_Init
                   _ModeManager_Init
                           _SSD_Init
                     _Scheduler_Init
                    _Scheduler_Start
                        _Timer0_Init
 ---------------------------------------------------------------------------------
 (1) _Timer0_Init                                          0     0      0       0
 ---------------------------------------------------------------------------------
 (1) _Scheduler_Start                                      1     1      0   10855
                                             42 BANK1      1     1      0
                    _Scheduler_Task1 *
                    _Scheduler_Task2 *
                    _Scheduler_Task3 *
                             ___bmul
 ---------------------------------------------------------------------------------
 (2) ___bmul                                               3     2      1     179
                                             22 BANK0      3     2      1
 ---------------------------------------------------------------------------------
 (2) _Scheduler_Task3                                      0     0      0    1028
           _ModeManager_MainFunction
                    _Set_EEPROM_Data
 ---------------------------------------------------------------------------------
 (3) _Set_EEPROM_Data                                      0     0      0     183
                       _EEPROM_Write
 ---------------------------------------------------------------------------------
 (4) _EEPROM_Write                                         2     1      1     183
                                             23 BANK0      2     1      1
                          _I2c_Start
                           _I2c_Stop
                        _I2c_WaitAck
                          _I2c_Write
 ---------------------------------------------------------------------------------
 (3) _ModeManager_MainFunction                             0     0      0     845
                 _Mode_Setting_Timer
 ---------------------------------------------------------------------------------
 (4) _Mode_Setting_Timer                                   4     2      2     845
                                             28 BANK0      4     2      2
                             ___wmul
 ---------------------------------------------------------------------------------
 (2) _Scheduler_Task2                                      0     0      0    7224
              _Elements_MainFunction
           _Temperature_MainFunction
 ---------------------------------------------------------------------------------
 (3) _Temperature_MainFunction                             0     0      0    6379
                      _ADC_Get_Value
                   _Temperature_Calc
 ---------------------------------------------------------------------------------
 (4) _Temperature_Calc                                     4     4      0    6312
                                             38 BANK1      4     4      0
                      _Average_Value
                            ___flmul
                            ___fltol
                            ___lwmod
                           ___xxtofl
 ---------------------------------------------------------------------------------
 (5) ___xxtofl                                            14    10      4     566
                                             22 BANK0      8     4      4
                                              0 BANK1      6     6      0
 ---------------------------------------------------------------------------------
 (5) ___fltol                                             10     6      4     427
                                             31 BANK0      4     0      4
                                             32 BANK1      6     6      0
                            ___flmul (ARG)
                           ___xxtofl (ARG)
 ---------------------------------------------------------------------------------
 (5) ___flmul                                             26    18      8    3353
                                              6 BANK1     26    18      8
                          __Umul8_16
                           ___xxtofl (ARG)
 ---------------------------------------------------------------------------------
 (6) __Umul8_16                                            9     7      2     980
                                             22 BANK0      9     7      2
 ---------------------------------------------------------------------------------
 (5) _Average_Value                                        8     7      1    1374
                                             31 BANK0      3     2      1
                                              5 BANK1      5     5      0
                            ___lldiv
                            ___lwmod
 ---------------------------------------------------------------------------------
 (5) ___lwmod                                              5     1      4     592
                                             22 BANK0      5     1      4
 ---------------------------------------------------------------------------------
 (6) ___lldiv                                             14     6      8     531
                                             22 BANK0      9     1      8
                                              0 BANK1      5     5      0
 ---------------------------------------------------------------------------------
 (4) _ADC_Get_Value                                        1     1      0      67
                                             22 BANK0      1     1      0
 ---------------------------------------------------------------------------------
 (3) _Elements_MainFunction                                4     4      0     845
                                              0 BANK1      4     4      0
                        _LED_Control
 ---------------------------------------------------------------------------------
 (4) _LED_Control                                          2     2      0     845
                                             32 BANK0      2     2      0
                       _LED_BLINKING
 ---------------------------------------------------------------------------------
 (5) _LED_BLINKING                                         4     2      2     845
                                             28 BANK0      4     2      2
                             ___wmul
 ---------------------------------------------------------------------------------
 (2) _Scheduler_Task1                                      0     0      0    2263
               _Buttons_MainFunction
                   _SSD_MainFunction
 ---------------------------------------------------------------------------------
 (3) _SSD_MainFunction                                     2     2      0    2263
                                             32 BANK0      2     2      0
                    _SSD_SelectDigit
                  _SSD_SelectDisplay
 ---------------------------------------------------------------------------------
 (4) _SSD_SelectDisplay                                    0     0      0     845
                          _SSD_Blink
 ---------------------------------------------------------------------------------
 (5) _SSD_Blink                                            4     2      2     845
                                             28 BANK0      4     2      2
                             ___wmul
 ---------------------------------------------------------------------------------
 (5) ___wmul                                               6     2      4     724
                                             22 BANK0      6     2      4
 ---------------------------------------------------------------------------------
 (4) _SSD_SelectDigit                                      2     2      0    1418
                                             30 BANK0      2     2      0
                            ___awdiv
                            ___awmod
 ---------------------------------------------------------------------------------
 (5) ___awdiv                                              8     4      4     625
                                             22 BANK0      8     4      4
 ---------------------------------------------------------------------------------
 (3) _Buttons_MainFunction                                 1     1      0       0
                                             22 BANK0      1     1      0
 ---------------------------------------------------------------------------------
 (1) _Scheduler_Init                                       0     0      0     935
                             _memset
 ---------------------------------------------------------------------------------
 (1) _SSD_Init                                             0     0      0       0
 ---------------------------------------------------------------------------------
 (1) _ModeManager_Init                                     0     0      0       0
 ---------------------------------------------------------------------------------
 (1) _I2c_Init                                             0     0      0       0
 ---------------------------------------------------------------------------------
 (1) _Get_EEPROM_Data                                      2     2      0     878
                                             28 BANK0      2     2      0
                        _EEPROM_Read
                            ___awmod
 ---------------------------------------------------------------------------------
 (5) ___awmod                                              6     2      4     793
                                             22 BANK0      6     2      4
 ---------------------------------------------------------------------------------
 (2) _EEPROM_Read                                          1     1      0      85
                                             23 BANK0      1     1      0
                           _I2c_Read
                      _I2c_Send_NAck
                          _I2c_Start
                           _I2c_Stop
                        _I2c_WaitAck
                          _I2c_Write
 ---------------------------------------------------------------------------------
 (5) _I2c_Write                                            1     1      0      31
                                             22 BANK0      1     1      0
 ---------------------------------------------------------------------------------
 (5) _I2c_WaitAck                                          0     0      0       0
 ---------------------------------------------------------------------------------
 (5) _I2c_Stop                                             0     0      0       0
 ---------------------------------------------------------------------------------
 (5) _I2c_Start                                            0     0      0       0
 ---------------------------------------------------------------------------------
 (3) _I2c_Send_NAck                                        0     0      0       0
 ---------------------------------------------------------------------------------
 (3) _I2c_Read                                             1     1      0      23
                                             22 BANK0      1     1      0
 ---------------------------------------------------------------------------------
 (1) _GPIO_Init                                            0     0      0       0
 ---------------------------------------------------------------------------------
 (1) _Elements_Init                                        0     0      0       0
 ---------------------------------------------------------------------------------
 (1) _Buttons_Init                                         0     0      0     935
                             _memset
 ---------------------------------------------------------------------------------
 (2) _memset                                               6     2      4     935
                                             22 BANK0      6     2      4
 ---------------------------------------------------------------------------------
 (1) _ADC_Start_Conv                                       0     0      0       0
 ---------------------------------------------------------------------------------
 (1) _ADC_Init                                             0     0      0       0
 ---------------------------------------------------------------------------------
 Estimated maximum stack depth 6
 ---------------------------------------------------------------------------------
 (Depth) Function   	        Calls       Base Space   Used Autos Params    Refs
 ---------------------------------------------------------------------------------
 (7) _myISR                                                4     4      0     863
                                             18 BANK0      4     4      0
               _EXTI_On_Off_CallBack *
                    _Timer0_CallBack *
 ---------------------------------------------------------------------------------
 (8) _Timer0_CallBack                                      0     0      0     863
             _Scheduler_ActivateTask
 ---------------------------------------------------------------------------------
 (9) _Scheduler_ActivateTask                               5     1      4     863
                                             13 BANK0      5     1      4
                            ___llmod
                           i1___bmul
                          i1___lldiv
 ---------------------------------------------------------------------------------
 (10) i1___lldiv                                          14     6      8     214
                                              3 COMMON     9     1      8
                                              0 BANK0      5     5      0
                           i1___bmul (ARG)
 ---------------------------------------------------------------------------------
 (10) i1___bmul                                            3     2      1      87
                                              0 COMMON     3     2      1
 ---------------------------------------------------------------------------------
 (10) ___llmod                                            10     2      8     311
                                             12 COMMON     2     2      0
                                              5 BANK0      8     0      8
                           i1___bmul (ARG)
                          i1___lldiv (ARG)
 ---------------------------------------------------------------------------------
 (8) _EXTI_On_Off_CallBack                                 0     0      0       0
 ---------------------------------------------------------------------------------
 Estimated maximum stack depth 10
 ---------------------------------------------------------------------------------

 Call Graph Graphs:

 _main (ROOT)
   _ADC_Init
   _ADC_Start_Conv
   _Buttons_Init
     _memset
   _Elements_Init
   _GPIO_Init
   _Get_EEPROM_Data
     _EEPROM_Read
       _I2c_Read
       _I2c_Send_NAck
       _I2c_Start
       _I2c_Stop
       _I2c_WaitAck
       _I2c_Write
     ___awmod
   _I2c_Init
   _ModeManager_Init
   _SSD_Init
   _Scheduler_Init
     _memset
   _Scheduler_Start
     _Scheduler_Task1 *
       _Buttons_MainFunction
       _SSD_MainFunction
         _SSD_SelectDigit
           ___awdiv
           ___awmod
         _SSD_SelectDisplay
           _SSD_Blink
             ___wmul
     _Scheduler_Task2 *
       _Elements_MainFunction
         _LED_Control
           _LED_BLINKING
             ___wmul
       _Temperature_MainFunction
         _ADC_Get_Value
         _Temperature_Calc
           _Average_Value
             ___lldiv
             ___lwmod
           ___flmul
             __Umul8_16
             ___xxtofl (ARG)
           ___fltol
             ___flmul (ARG)
               __Umul8_16
               ___xxtofl (ARG)
             ___xxtofl (ARG)
           ___lwmod
           ___xxtofl
     _Scheduler_Task3 *
       _ModeManager_MainFunction
         _Mode_Setting_Timer
           ___wmul
       _Set_EEPROM_Data
         _EEPROM_Write
           _I2c_Start
           _I2c_Stop
           _I2c_WaitAck
           _I2c_Write
     ___bmul *
   _Timer0_Init

 _myISR (ROOT)
   _EXTI_On_Off_CallBack *
   _Timer0_CallBack *
     _Scheduler_ActivateTask
       ___llmod
         i1___bmul (ARG)
         i1___lldiv (ARG)
           i1___bmul (ARG)
       i1___bmul
       i1___lldiv
         i1___bmul (ARG)

 Address spaces:
Name               Size   Autos  Total    Cost      Usage
BANK3               60      0      28       9       41.7%
BITBANK3            60      0       0       8        0.0%
SFR3                 0      0       0       4        0.0%
BITSFR3              0      0       0       4        0.0%
BANK2               60      0       0      11        0.0%
BITBANK2            60      0       0      10        0.0%
SFR2                 0      0       0       5        0.0%
BITSFR2              0      0       0       5        0.0%
BANK1               50     2B      3C       7       75.0%
BITBANK1            50      0       0       6        0.0%
SFR1                 0      0       0       2        0.0%
BITSFR1              0      0       0       2        0.0%
BANK0               50     23      3A       5       72.5%
BITBANK0            50      0       0       4        0.0%
SFR0                 0      0       0       1        0.0%
BITSFR0              0      0       0       1        0.0%
COMMON               E      E       E       1      100.0%
BITCOMMON            E      0       0       0        0.0%
CODE                 0      0       0       0        0.0%
DATA                 0      0      AC      12        0.0%
ABS                  0      0      AC       3        0.0%
NULL                 0      0       0       0        0.0%
STACK                0      0       0       2        0.0%
EEDATA             100      0       0       0        0.0%


Microchip Technology PIC Macro Assembler V2.20 build 20200408173844 
Symbol Table                                                                                   Sat Jul 18 18:59:49 2020

                                   pc 0002                        ___bmul@product 0037  
                                  l13 0923                                    l21 08F0  
                                  _BF 04A0                                    l17 17D5  
                                  l68 0C3D                                    l79 05D9  
                                  l98 0989                          ___awdiv@sign 003B  
                                  fsr 0004                   ___wmul@multiplicand 0038  
                 __Umul8_16@word_mpld 003C                      ??_ADC_Start_Conv 0036  
                                 l201 093D                                   l300 082F  
                                 l205 093E                                   l141 0A2B  
                                 l134 083B                                   l119 079D  
                                 l303 17FF                                   l216 0941  
                                 l209 093F                                   l402 0847  
                                 l411 0857                                   l147 09BC  
                                 l323 070E                                   l420 17DE  
                                 l405 17E2                                   l501 0853  
                                 l149 09D8                                   l157 0EA4  
                                 l245 0B51                                   l414 0862  
                                 l254 0872                                   l318 0890  
                                 l407 17E6                                   l423 17ED  
                                 l319 0895                                   l408 17E9  
                                 l432 17BD                                   l360 0C66  
                                 l336 0882                                   l193 093B  
                                 l417 17DA                                   l425 17F1  
                                 l426 17F4                                   l434 17C3  
                                 l522 0BBE                                   l435 17C4  
                                 l371 0A56                                   l356 17B2  
                                 l524 0BC4                                   l532 0AB2  
                                 l197 093C                                   l189 093A  
                                 l429 17BC                                   l517 0D7D  
                                 l365 0C7E                                   l542 07F8  
                                 l366 0C86                                   l359 0C84  
                                 l471 0B17                                   l464 0B50  
                                 l633 0998                                   l297 0824  
                                 l547 07FD                                   l635 09B0  
                                 l476 0CCE                                   l468 0908  
                                 l826 0660                                   l915 0C00  
                                 l819 0677                                   l659 08D8  
                                 l669 0FFF                                   l829 0677  
                                 l786 0F75                                   l799 0DD8  
                                 _PEN 048A                                   _SEN 0488  
                                 _SSD 0046                                   fsr0 0004  
                                 indf 0000                          ___awmod@sign 003B  
                  _Mode_Setting_Timer 0A2C                          ?_LED_Control 0070  
                        ___flmul@aexp 00B4                          ___flmul@bexp 00B9  
                        ___flmul@sign 00B3                          ___flmul@temp 00BE  
                        ___flmul@prod 00BA                          ___fltol@exp1 00C5  
                                l1022 0422                                  l1041 09EF  
                                l1034 0416                                  l1043 0A01  
                                l1028 038E                                  l1080 04DF  
                                l3001 0837                                  l1066 0466  
                                l3003 17AF                                  l1068 052D  
                                l3021 087D                                  l1087 0963  
                                l1079 04D3                                  l3023 0881  
                                l3201 09F8                                  l3131 098A  
                                l3211 0560                                  l3203 09FD  
                                l3019 0873                                  l3141 09AC  
                                l3133 098E                                  l3221 059F  
                                l3213 0578                                  l3311 0D8C  
                                l3303 0D7E                                  l3135 0992  
                                l3231 0A24                                  l3151 0F98  
                                l3223 05A5                                  l3207 0531  
                                l3241 17BD                                  l3321 0DA5  
                                l3313 0D90                                  l3305 0D81  
                                l3137 099F                                  l3233 0A27  
                                l3161 0FD2                                  l3153 0F9E  
                                l3145 0F76                                  l3225 05AB  
                                l3209 053B                                  l3401 00A1  
                                l3235 17DF                                  l3331 0DC4  
                                l3323 0DA9                                  l3315 0D95  
                                l3307 0D85                                  l3139 09A6  
                                l3251 0BB2                                  l3243 0B8A  
                                l3227 0A02                                  l3163 0FD5  
                                l3155 0FA4                                  l3147 0F8A  
                                l3171 0BC5                                  l3219 0579  
                                l3411 00B8                                  l3403 00A5  
                                l3237 17EA                                  l3325 0DAD  
                                l3317 0D9B                                  l3333 0DCA  
                                l3309 0D8A                                  l3261 0F10  
                                l3253 0BB7                                  l3245 0BA8  
                                l3229 0A20                                  l3165 0FDF  
                                l3157 0FB2                                  l3149 0F8F  
                                l3181 0BDF                                  l3173 0BCD  
                                l3501 03E1                                  l3413 00BA  
                                l3405 00A6                                  l3341 05DA  
                                l3239 17BA                                  l3335 0DCF  
                                l3327 0DB7                                  l3319 0D9E  
                                l3271 0F24                                  l3263 0F14  
                                l3255 0BBC                                  l3247 0BAD  
                                l3159 0FC4                                  l3167 0FE7  
                                l3183 0BE9                                  l3175 0BD0  
                                l3511 040A                                  l3503 03F0  
                                l3431 013F                                  l3423 00D5  
                                l3415 00C2                                  l3407 00AB  
                                l3351 061C                                  l3343 05E9  
                                l2801 0854                                  l3337 0DD4  
                                l3329 0DBD                                  l3281 0F3A  
                                l3273 0F28                                  l3265 0F19  
                                l3249 0BAE                                  l3257 0BC0  
                                l3185 0BEF                                  l3177 0BD7  
                                l3193 09DC                                  l3513 040E  
                                l3505 03FA                                  l3441 01D0  
                                l3433 0175                                  l3425 00EF  
                                l3417 00C7                                  l3409 00B0  
                                l3353 0624                                  l3521 0426  
                                l3601 0A2C                                  l2803 085B  
                                l3291 0F5A                                  l3283 0F3E  
                                l3275 0F2A                                  l3267 0F1B  
                                l3259 0F0D                                  l3187 0BF6  
                                l3179 0BDB                                  l3195 09DE  
                                l3515 040F                                  l3507 03FC  
                                l3451 0264                                  l3443 01ED  
                                l3435 0191                                  l3427 00FC  
                                l3419 00CC                                  l3363 0634  
                                l3355 0628                                  l3347 05F4  
                                l3523 042B                                  l3603 0A4A  
                                l3611 0AF3                                  l2805 0861  
                                l3701 079B                                  l3293 0F61  
                                l3285 0F42                                  l3277 0F30  
                                l3269 0F1F                                  l3621 0A8E  
                                l3189 0BFC                                  l3197 09E5  
                                l3517 041A                                  l3509 0402  
                                l3461 033A                                  l3453 029B  
                                l3445 0207                                  l3437 01AD  
                                l3429 0123                                  l3381 006F  
                                l3373 0651                                  l3365 063F  
                                l3357 062C                                  l3349 0619  
                                l3541 0494                                  l3533 0479  
                                l3525 0431                                  l3605 0A52  
                                l3613 0B00                                  l3287 0F53  
                                l3279 0F33                                  l3295 0F67  
                                l3631 0AAA                                  l3623 0A91  
                                l3711 0E6A                                  l3703 0E3F  
                                l3199 09E9                                  l3471 035F  
                                l3463 0343                                  l3455 02B5  
                                l3447 0224                                  l3439 01B6  
                                l3391 0084                                  l3383 0075  
                                l3375 0665                                  l3367 064A  
                                l3551 04C7                                  l3543 0498  
                                l3535 0480                                  l3527 044F  
                                l3615 0B05                                  l3607 0AE8  
                                l3801 0955                                  l2809 17D6  
                                l3297 0F6C                                  l3289 0F59  
                                l3641 07DA                                  l3633 079E  
                                l3625 0A97                                  l3617 0A83  
                                l3721 0E93                                  l3713 0E6B  
                                l3705 0E45                                  l3481 0377  
                                l3473 0368                                  l3465 0351  
                                l3457 02EC                                  l3449 0247  
                                l3393 008C                                  l3385 0079  
                                l3377 066A                                  l3561 050C  
                                l3553 04CD                                  l3545 04A6  
                                l3537 0484                                  l3529 0470  
                                l3609 0AED                                  l3299 0F71  
                                l3651 07EE                                  l3643 07DF  
                                l3635 07A5                                  l3627 0A9B  
                                l3619 0A8A                                  l3731 0D30  
                                l3715 0E70                                  l3707 0E4A  
                                l3723 0E96                                  l3571 08E0  
                                l3491 03A6                                  l3483 038B  
                                l3467 035A                                  l3475 036E  
                                l3459 0312                                  l3395 008E  
                                l3387 007A                                  l3379 0068  
                                l3563 0512                                  l3555 04D7  
                                l3547 04AF                                  l3539 048D  
                                l2941 0909                                  l3661 072D  
                                l3653 07F2                                  l3645 07E3  
                                l3637 07AA                                  l3629 0AA5  
                                l3741 0D3F                                  l3733 0D33  
                                l3581 09BE                                  l3725 0E9E  
                                l3717 0E8C                                  l3709 0E64  
                                l3573 08E4                                  l3493 03AA  
                                l3477 0372                                  l3469 035E  
                                l3397 0096                                  l3389 007F  
                                l3565 0515                                  l3557 04E1  
                                l3549 04B6                                  l3821 17F5  
                                l2943 17CD                                  l2951 092E  
                                l3831 0CA7                                  l3823 0C8A  
                                l3671 074C                                  l3663 0733  
                                l3655 07F6                                  l3647 07E7  
                                l3639 07D6                                  l3751 0D4E  
                                l3743 0D42                                  l3735 0D36  
                                l3719 0E92                                  l3727 0E9F  
                                l3575 08EF                                  l3495 03C3  
                                l3487 0393                                  l3479 0373  
                                l3399 009B                                  l3559 0507  
                                l3591 0678                                  l3911 0C15  
                                l3903 0C01                                  l2945 17D3  
                                l2953 0932                                  l3841 0CCB  
                                l3833 0CB2                                  l3825 0C8F  
                                l3681 0767                                  l3673 0758  
                                l3665 073A                                  l3649 07E9  
                                l3657 07F9                                  l3745 0D45  
                                l3737 0D39                                  l3729 0D25  
                                l3585 09C3                                  l3577 09B1  
                                l3569 08DC                                  l3489 0398  
                                l3497 03C9                                  l3593 06E5  
                                l3761 0883                                  l3817 081A  
                                l3921 0C2E                                  l3913 0C1A  
                                l3905 0C06                                  l2955 0936  
                                l2947 0924                                  l3835 0CB7  
                                l3827 0C95                                  l3691 0780  
                                l3675 075D                                  l3667 073F  
                                l3683 0769                                  l3659 070F  
                                l3747 0D48                                  l3739 0D3C  
                                l3755 0D50                                  l3579 09B2  
                                l3499 03D6                                  l3595 06EF  
                                l3763 088A                                  l3771 0C57  
                                l3819 0825                                  l3851 08CE  
                                l3923 0C33                                  l3915 0C1F  
                                l3907 0C0B                                  l3861 0964  
                                l2949 092A                                  l3837 0CC1  
                                l3829 0CA2                                  l2981 0845  
                                l2973 083C                                  l3693 078C  
                                l3685 076E                                  l3677 0761  
                                l3669 0744                                  l3749 0D4B  
                                l3597 0707                                  l3781 0C74  
                                l3773 0C5B                                  l3765 0C40  
                                l3853 08D0                                  l3845 08C5  
                                l3925 0C38                                  l3917 0C24  
                                l3909 0C10                                  l3863 0984  
                                l3839 0CC6                                  l3871 0B23  
                                l2983 0846                                  l2975 0840  
                                l3695 0791                                  l3687 0773  
                                l3679 0765                                  l3599 070D  
                                l3783 0C76                                  l3775 0C61  
                                l3767 0C48                                  l3791 08FB  
                                l3855 08D2                                  l3847 08C6  
                                l3919 0C29                                  l3865 0985  
                                l2969 0940                                  l3873 0B29  
                                l2977 0843                                  l2993 0848  
                                l3881 0863                                  l3697 0795  
                                l3689 0778                                  l3785 0C7A  
                                l3777 0C6A                                  l3769 0C51  
                                l3793 0905                                  l3857 08D7  
                                l3849 08CA                                  l3795 0945  
                                l3867 0988                                  l3875 0B2F  
                                l2979 0844                                  l2995 0852  
                                l3699 0799                                  l3779 0C6E  
                                l3787 08F1                                  l3891 0B5D  
                                l3883 0B51                                  l3797 094A  
                                l2997 0830                                  l3877 0B47  
                                l3869 0B18                                  l3981 0D5A  
                                l3789 08F7                                  l3893 0B77  
                                l3799 0951                                  l2999 0833  
                                l3879 0B4C                                  l3895 0B7E  
                                l3897 0B82                                  l3889 0B54  
                                l3979 09CD                    __size_of_I2c_Start 000B  
                  __size_of_I2c_Write 0006                        ??_LED_BLINKING 003E  
                                u4000 0BBC                                  u4001 0BBB  
                                u4010 0F14                                  u4011 0F13  
                                u4100 0F6C                                  u4020 0F1F  
                                u4101 0F6B                                  u4021 0F1E  
                                u4110 0D85                                  u4030 0F30  
                                u4111 0D84                                  u4031 0F2F  
                                u4120 0D90                                  u5000 076E  
                                u4200 05E9                                  u4121 0D8F  
                                u5001 076D                                  u4201 05E8  
                                u4130 0D9B                                  u5010 0773  
                                u4050 0F42                                  u4210 0612  
                                u4131 0D9A                                  u5011 0772  
                                u4051 0F41                                  u5020 0778  
                                u5100 0E8C                                  u4300 0079  
                                u4220 062C                                  u5021 0777  
                                u4045 0F34                                  u5101 0E8B  
                                u4301 0078                                  u4221 062B  
                                u4150 0DAD                                  u5030 0780  
                                u4070 0F53                                  u4310 007F  
                                u4230 0633                                  u5110 088A  
                                u4151 0DAC                                  u5031 077F  
                                u4071 0F52                                  u4311 007E  
                                u4231 0632                                  u4215 060D  
                                u5111 0889                                  u4160 0DB7  
                                u5040 0788                                  u4320 0084  
                                u5200 0C7E                                  u5120 0C48  
                                u4161 0DB6                                  u4145 0D9F  
                                u5041 0784                                  u4065 0F43  
                                u5105 0E88                                  u4401 0183  
                                u4321 0083                                  u5201 0C7D  
                                u5121 0C47                                  u3370 085B  
                                u4090 0F67                                  u4402 018A  
                                u4330 00A5                                  u4250 0649  
                                u5130 0C57                                  u5210 08F7  
                                u3371 085A                                  u4091 0F66  
                                u4075 0F4F                                  u4411 019F  
                                u4403 0191                                  u4331 00A4  
                                u4251 0648                                  u5131 0C56  
                                u5211 08F6                                  u5220 0963  
                                u3380 17DE                                  u4180 0DCA  
                                u5060 0791                                  u3700 0992  
                                u4412 01A6                                  u4340 00AB  
                                u4260 0650                                  u5140 0C5B  
                                u5300 0B5D                                  u5221 0962  
                                u3381 17DD                                  u4181 0DC9  
                                u4165 0DB3                                  u5061 0790  
                                u4085 0F5B                                  u3701 0991  
                                u4501 0304                                  u4413 01AD  
                                u4341 00AA                                  u4261 064F  
                                u4245 0635                                  u5141 0C5A  
                                u5301 0B5C                                  u4190 0DCF  
                                u5054 078B                                  u5070 0E45  
                                u4510 0320                                  u4502 030B  
                                u4350 00B0                                  u5150 0C61  
                                u5310 0B88                                  u4191 0DCE  
                                u4175 0DBE                                  u5071 0E44  
                                u4503 0312                                  u4431 01DF  
                                u4351 00AF                                  u5151 0C60  
                                u5311 0B87                                  u5080 0E4A  
                                u3800 0FE7                                  u4600 0392  
                                u4432 01E6                                  u4360 00C7  
                                u4280 0665                                  u5160 0C6A  
                                u5081 0E49                                  u3801 0FE6  
                                u4601 0391                                  u4521 032C  
                                u4441 0216                                  u4433 01ED  
                                u4425 01AF                                  u4361 00C6  
                                u4281 0664                                  u5161 0C69  
                                u3730 09AC                                  u5090 0E64  
                                u3810 0BCD                                  u4610 0398  
                                u4522 0333                                  u4442 021D  
                                u4370 00CC                                  u4290 066A  
                                u5170 0C6E                                  u5250 08CA  
                                u3731 09AB                                  u3715 0999  
                                u5091 0E63                                  u3811 0BCC  
                                u4611 0397                                  u4523 033A  
                                u4515 031B                                  u4443 0224  
                                u4371 00CB                                  u4291 0669  
                                u4275 0653                                  u5171 0C6D  
                                u5251 08C9                                  u3740 0F8A  
                                u4620 03AA                                  u5180 0C74  
                                u5260 08D7                                  u3725 09A0  
                                u3741 0F89                                  u4621 03A9  
                                u4461 0256                                  u4381 0131  
                                u5181 0C73                                  u5261 08D6  
                                u3590 17D3                                  u5270 0B29  
                                u3830 0BDF                                  u4630 03B9  
                                u4550 035E                                  u4462 025D  
                                u4382 0138                                  u4710 0493  
                                u5190 0C7A                                  u3591 17D2  
                                u5271 0B28                                  u5095 0E60  
                                u3831 0BDE                                  u4551 035D  
                                u4535 033C                                  u4471 028D  
                                u4463 0264                                  u4455 0226  
                                u4391 014D                                  u4383 013F  
                                u4711 0492                                  u5191 0C79  
                                u5280 0B2F                                  u3760 0FA4  
                                u3840 0BE9                                  u4640 03D6  
                                u4472 0294                                  u4392 0154  
                                u4800 0512                                  u5281 0B2E  
                                u3761 0FA3                                  u3841 0BE8  
                                u3825 0BD1                                  u3921 0590  
                                u3905 054B                                  u4641 03D5  
                                u4545 0353                                  u4481 02C4  
                                u4473 029B                                  u4393 015B  
                                u4801 0511                                  u4705 0485  
                                u5290 0B47                                  u4810 08E0  
                                u3930 05AB                                  u3922 0591  
                                u4650 03F0                                  u4570 0372  
                                u4490 02F8                                  u4482 02CB  
                                u4730 04B5                                  u5291 0B46  
                                u4811 08DF                                  u3755 0F91  
                                u3931 05AA                                  u3923 0597  
                                u3915 057E                                  u4651 03EF  
                                u4635 03B4                                  u4571 0371  
                                u4483 02D2                                  u4731 04B4  
                                u4900 07DF                                  u3940 0A20  
                                u4820 08E4                                  u3780 0FC4  
                                u3860 0BFC                                  u3924 0598  
                                u4660 040E                                  u4580 0377  
                                _RCEN 048B                                  u4901 07DE  
                                u3941 0A1F                                  u4821 08E3  
                                u3781 0FC3                                  u3861 0BFB  
                                u3845 0BE5                                  u3925 059E  
                                u4661 040D                                  u4645 03D2  
                                u4581 0376                                  u4565 0361  
                                u4725 04A7                                  u3950 17E6  
                                u4910 07EE                                  u3926 059F  
                                u3870 09E9                                  u4590 038B  
                                u4750 04CD                                  u4670 042B  
                                u4830 070D                                  u3951 17E5  
                                u4911 07ED                                  u3775 0FA7  
                                u3855 0BF0                                  u3871 09E8  
                                u4655 03EC                                  u4591 038A  
                                u4495 02F3                                  u4751 04CC  
                                u4671 042A                                  u4831 070C  
                                u3960 17F1                                  u4760 04D3  
                                u4680 0431                                  u4840 0A4A  
                                u3961 17F0                                  u3945 0A1C  
                                u3785 0FC0                                  u4761 04D2  
                                u4745 04BC                                  u4681 0430  
                                u4841 0A49                                  u3970 17C3  
                                u4930 073A                                  u4850 0A8A  
                                u3890 09FD                                  u4770 04D7  
                                u4690 0470                                  u3971 17C2  
                                u4931 0739                                  u4851 0A89  
                                u3795 0FD6                                  u3891 09FC  
                                u4771 04D6                                  u4691 046F  
                                u4940 073F                                  u3980 0BA8  
                                u4860 0A97                                  u4780 04EE  
                                u4941 073E                                  u4925 0720  
                                u3981 0BA7                                  u4861 0A96  
                                u3885 09F0                                  u4845 0A46  
                                u4950 0744                                  u3990 0BAD  
                                u4870 0AAA                                  u4790 050C  
                                u4951 0743                                  u3991 0BAC  
                                u4871 0AA9                                  u4791 050B  
                                u4960 074C                                  u4880 07A5  
                 ?_Mode_Setting_Timer 003C                                  u4961 074B  
                                u4881 07A4                                  u3985 0BA4  
                                u4785 04E9                                  u4970 0754  
                                u4890 07AA                                  u4971 0750  
                                u4891 07A9                                  u4990 075D  
                                u4991 075C                                  u4984 0757  
                                _TMR0 0001                                  _Mode 0054  
           __size_of_Temperature_Calc 0097                     i1___lldiv@divisor 0073  
                                _main 0C01              ??_Scheduler_ActivateTask 007E  
                                fp_u0 0051                                  fp_u1 0052  
                                btemp 007E                     i1___lldiv@counter 0024  
                    __end_of_ADC_Init 0924                                  start 0012  
                  __size_of_GPIO_Init 001E                     ___bmul@multiplier 0038  
                    ??_Scheduler_Init 003C                      __end_of_I2c_Init 0848  
                    __end_of_I2c_Read 0863                      __end_of_I2c_Stop 17F5  
                          _Enable_SSD 004C                     ??_Timer0_CallBack 007E  
                __end_of_EEPROM_Write 0B18                  ??_Mode_Setting_Timer 003E  
                     _Average_Nvalues 0058                         ___fltol@sign1 00C4  
                               ?_main 0070                                 _ACKEN 048C  
                               _ACKDT 048D                       __end_of___awdiv 0F76  
                     __end_of___awmod 0DD9                       __end_of___flmul 0423  
                     __end_of___fltol 0678                       __end_of___lldiv 1000  
                     ___awdiv@divisor 0036                       __end_of___llmod 0D25  
Buttons_MainFunction@Counter_Debounce 0049                                 i1l106 08C1  
                               i1l233 0AC5                                 i1l260 0E3E  
                               i1l236 0AD8                       __end_of___lwmod 0C01  
                               i1l339 0A82                                 i1l659 08AA  
                               i1l669 0F0C                                 i1l855 0D24  
                     ___awdiv@counter 003A                                 _PORTA 0005  
                               _PORTB 0006                                 _PORTC 0007  
                               _PORTD 0008                                 _SSPM0 00A0  
                               _SSPM1 00A1                                 _SSPM2 00A2  
                               _SSPM3 00A3                                 _TRISA 0085  
                               _TRISB 0086                                 _TRISC 0087  
                               _TRISD 0088                                 _SSPEN 00A5  
                               _SSPIF 0063                      _ModeManager_Init 17AF  
                  i1___lldiv@dividend 0077                                 _myISR 0AB3  
                         _Debounce_Up 00D9                                 fpbase 0050  
                    __end_of_SSD_Init 0854            Average_Value@Avrage_Values 003F  
                    __end_ofi1___bmul 08AB                         ?_Buttons_Init 0070  
                               pclath 000A                    __size_of_SSD_Blink 003B  
                               status 0003                      EEPROM_Write@Addr 0037  
                               wtemp0 007E                      EEPROM_Write@Data 0038  
                  __size_ofi1___lldiv 0068                       _Set_EEPROM_Data 08F1  
                    ?_Get_EEPROM_Data 0070                  __size_of_EEPROM_Read 0048  
                     __initialization 0015                     ??_Scheduler_Task1 0042  
                   ??_Scheduler_Task2 0043                     ??_Scheduler_Task3 0040  
                        __end_of_main 0C40                     ??_Scheduler_Start 0043  
                     _SSD_SelectDigit 079E                    i1___lldiv@quotient 0020  
              __size_of_ADC_Get_Value 0018                     __end_of_I2c_Start 17EA  
             ??_Elements_MainFunction 00A0                     __end_of_I2c_Write 17BD  
                              ??_main 0043                     __end_of_GPIO_Init 0942  
                __size_of_I2c_WaitAck 0008                                ?_myISR 0070  
          ??_ModeManager_MainFunction 0040                      ___llmod@dividend 0029  
                              _ADRESL 009E                      ___awdiv@dividend 0038  
                      ??_Buttons_Init 003C                                i1l3041 08AB  
                              i1l3043 08B3                                i1l3045 08B8  
                              i1l3047 08BA                                i1l3049 08BF  
                              i1l2811 0CCF                                i1l2821 0CED  
                              i1l2813 0CD9                                i1l2823 0CFF  
                              i1l2815 0CDC                                i1l2825 0D0D  
                              i1l2817 0CE5                                i1l2841 0EC7  
                              i1l2833 0EA5                                i1l2827 0D16  
                              i1l2819 0CE9                                i1l2851 0EF5  
                              i1l2843 0ECB                                i1l2835 0EB7  
                              i1l3811 0E2E                                i1l3803 0DD9  
                              i1l2829 0D1C                                i1l2861 0898  
                              i1l2853 0EFE                                i1l2845 0ED4  
                              i1l2837 0EBA                                i1l3813 0E34  
                              i1l3901 0A67                                i1l2871 08A9  
                              i1l2863 089C                                i1l2847 0EE6  
                              i1l2839 0EC3                                i1l2855 0F04  
                              i1l3815 0E38                                i1l2865 08A0  
                              i1l2849 0EF4                                i1l3809 0DDC  
                              i1l2867 08A2                                i1l2859 0897  
                              i1l3931 0AB8                                i1l2869 08A4  
                              i1l3933 0AC9                                i1l3935 0ACA  
                              i1l3927 0AB3                                i1l3937 0ACC  
                              i1l3929 0AB7                                i1l3899 0A57  
                              _INTEDG 040E                                u340_25 0CDE  
                              u341_20 0CED                                u341_21 0CEC  
                              u342_20 0CFF                                u342_21 0CFE  
                              u342_25 0CFB                                u350_25 0EF6  
                              u351_20 0F04                                u351_21 0F03  
                              u343_25 0D0E                                u344_20 0D1C  
                              u352_20 089C                                u344_21 0D1B  
                              u352_21 089B                                u353_20 08A9  
                              u345_20 0EB7                                u353_21 08A8  
                              u345_21 0EB6                                u346_25 0EBC  
                              u339_20 0CD9                                u347_20 0ECB  
                              u523_20 0E2E                                u339_21 0CD8  
                              u347_21 0ECA                                u523_21 0E2D  
                              u524_20 0E3E                                u532_20 0AB7  
                              u524_21 0E3D                                u532_21 0AB6  
                              u348_25 0ECD                                u365_20 08B3  
                              u349_20 0EE6                                u533_20 0AC9  
                              u365_21 08B2                                u349_21 0EE5  
                              u533_21 0AC8                                u349_25 0EE2  
                              u366_20 08B8                                u366_21 08B7  
                              u367_20 08BF                                u367_21 08BE  
                          __i1fptable 005C                                _SSPADD 0093  
                              _SSPBUF 0013                      __end_of__fptable 005C  
                    __end_of___xxtofl 052E       __size_of_Scheduler_ActivateTask 0066  
                       ??_Timer0_Init 0036          __end_of_EXTI_On_Off_CallBack 08C2  
                              ___bmul 08C2         __size_of_Buttons_MainFunction 008F  
                              ___wmul 098A                             ??___awdiv 003A  
                           ??___awmod 003A                             ??___flmul 00AE  
                           ??___fltol 00C0                             ??___lldiv 003E  
                           ??___llmod 007C                             ??___lwmod 003A  
                          _Tempreture 0045                                _memset 0942  
                __end_of_LED_BLINKING 0A2C                      ___awdiv@quotient 003C  
                     ___awmod@divisor 0036                       ___awmod@counter 003A  
   Scheduler_ActivateTask@IntityIndex 0031                     __end_of_SSD_Blink 0BC5  
            __end_of_SSD_MainFunction 0D7E                                fptable 004B  
                   __end_ofi1___lldiv 0F0D                                fptotal 0006  
                  __size_of__Umul8_16 0029                             ?_ADC_Init 0070  
                              saved_w 007E      __end_of_Temperature_MainFunction 0896  
                __size_of_LED_Control 0028      Scheduler_ActivateTask@SystemTick 002D  
             __end_of_Set_EEPROM_Data 0909                         _ADC_Get_Value 08D9  
                           ?_I2c_Init 0070                             ?_I2c_Read 0070  
                           ?_I2c_Stop 0070                 __end_of_Elements_Init 083C  
                        ___xxtofl@arg 00A2                          ___xxtofl@exp 00A1  
                        ___xxtofl@val 0036                      _Temperature_Calc 0678  
             __end_of__initialization 0047                            ___fltol@f1 003F  
             __end_of_SSD_SelectDigit 07FE                 __size_of_EEPROM_Write 0033  
                 ___bmul@multiplicand 0036                        __pcstackCOMMON 0070  
                        __pidataBANK0 17B3                         __end_of_myISR 0AE5  
                 __end_of_Timer0_Init 0883                             ?_SSD_Init 0070  
                           ?i1___bmul 0070                _Scheduler_ActivateTask 0DD9  
               __end_of_I2c_Send_NAck 17DF                        _OPTION_REGbits 0081  
                          ??_ADC_Init 0036                 __end_of_Average_Value 05DA  
                    i1___bmul@product 0071                               ??_myISR 0032  
                      ?_ADC_Get_Value 0070                            ??_I2c_Init 0036  
                          ??_I2c_Read 0036                          _EEPROM_Write 0AE5  
                          __pbssBANK0 0043                            __pbssBANK1 00CB  
                          __pbssBANK3 0190                            ??_I2c_Stop 0036  
                     _Timer0_CallBack 0A57                     __end_of__Umul8_16 0A02  
            __end_of_ModeManager_Init 17B3                            __pmaintext 0C01  
                             ?___bmul 0036                               ?___wmul 0036  
                          __pintentry 0004                  __end_of_Buttons_Init 098A  
                             ?_memset 0036                            ??_SSD_Init 0036  
                          ??i1___bmul 0071                             ?___xxtofl 0036  
                _EXTI_On_Off_CallBack 08AB                      ?_Set_EEPROM_Data 0070  
                          __stringtab 0800                       _Scheduler_Task1 081A  
                     _Scheduler_Task2 0825                       _Scheduler_Task3 17F5  
                     _Scheduler_Start 0B51                               i1fpbase 0061  
            _Temperature_MainFunction 0883                               _Counter 0057  
                             _Buttons 004A                      ?_SSD_SelectDigit 0070  
                         _Timer0_Init 0873                 __size_of_LED_BLINKING 002A  
                     __size_of___bmul 0017                               ___awdiv 0F0D  
SSD_SelectDigit@Enable_Digit_Selector 0056                               ___awmod 0D7E  
                             ___flmul 0068                               ___fltol 05DA  
                             ___lldiv 0F76                       __size_of___wmul 0027  
                 ADC_Get_Value@Buffer 0036                               ___llmod 0CCF  
                             ___lwmod 0BC5           __size_of_Mode_Setting_Timer 002B  
                         _Temperature 004E                       __size_of_memset 0022  
      __size_of_Elements_MainFunction 0066                               __ptext1 0873  
                             __ptext2 0B51                               __ptext3 08C2  
                             __ptext4 0825                               __ptext5 081A  
                             __ptext6 17F5                               __ptext7 08F1  
                             __ptext8 0AE5                               __ptext9 0C40  
       __end_of_Elements_MainFunction 0EA5                   __size_of__i1fptable 000C  
                       _Debounce_Down 00D6                             _I2c_Start 17DF  
                           _I2c_Write 17B7                            ??___xxtofl 003A  
                    ___awmod@dividend 0038                   i1___bmul@multiplier 0072  
                     ??_ADC_Get_Value 0036                 ?_EXTI_On_Off_CallBack 0070  
             __end_of_Timer0_CallBack 0A83                               clrloop0 17C6  
                           _GPIO_Init 0924                  end_of_initialization 0047  
             __size_of_ADC_Start_Conv 0009                          _LED_BLINKING 0A02  
                       ??_EEPROM_Read 0037                               memset@c 0036  
                             memset@n 0038                               memset@p 003A  
                     ___lldiv@divisor 0036                       ___lldiv@counter 00A4  
            __size_of_Get_EEPROM_Data 0039              __end_of_Temperature_Calc 070F  
                       ??_I2c_WaitAck 0036                            ?_I2c_Start 0070  
                          ?_I2c_Write 0070               __size_of_Scheduler_Init 0010  
                   ?_SSD_MainFunction 0070                         ___xxtofl@sign 00A0  
             __end_of_Scheduler_Task1 0825               __end_of_Scheduler_Task2 0830  
             __end_of_Scheduler_Task3 1800                             _SSD_Blink 0B8A  
        __end_of_Buttons_MainFunction 079E               __end_of_Scheduler_Start 0B8A  
                  ??_SSD_MainFunction 0040                             i1___lldiv 0EA5  
                   __size_of_ADC_Init 001B                            ?_GPIO_Init 0070  
                 LED_BLINKING@Counter 0059                           ___flmul@grs 00B5  
                   __size_of_I2c_Init 000C                     __size_of_I2c_Read 000F  
                   __size_of_I2c_Stop 000B                     _Scheduler_Intitys 0806  
                 LED_BLINKING@Time_Ms 003C                 __size_of_Buttons_Init 0026  
                 __end_of_EEPROM_Read 0CCF     __size_of_ModeManager_MainFunction 0047  
           ?_ModeManager_MainFunction 0070               ?_Scheduler_ActivateTask 002D  
                      __end_of___bmul 08D9                        __end_of___wmul 09B1  
                      __end_of_memset 0964                     __size_of_SSD_Init 000C  
                   __size_ofi1___bmul 0015                         ??_LED_Control 0040  
                 start_initialization 0015                ??_EXTI_On_Off_CallBack 0070  
                          ?_SSD_Blink 003C                     SSD_Blink@Times_Ms 003C  
                          ?i1___lldiv 0073                      ?_Timer0_CallBack 0070  
                   _SSD_SelectDisplay 0A83                   __end_of_I2c_WaitAck 17C5  
                        _Buttons_Init 0964                    ?_SSD_SelectDisplay 0070  
           __end_of_Scheduler_Intitys 0815                       ___llmod@divisor 0025  
                     ___llmod@counter 007D                   ??_SSD_SelectDisplay 0040  
                   ?_ModeManager_Init 0070        __end_of_Scheduler_ActivateTask 0E3F  
                            ??___bmul 0037                              ??___wmul 003A  
                           __Umul8_16 09D9                    ??_ModeManager_Init 0036  
                         __pdataBANK0 0056                              ??_memset 003A  
              __size_of_Elements_Init 000C                           ??_I2c_Start 0036  
                         ??_I2c_Write 0036                    __end_of__i1fptable 0068  
                           ___flmul@a 00AA                             ___flmul@b 00A6  
                   ??_Get_EEPROM_Data 003C                             ___latbits 0002  
          ??_Temperature_MainFunction 0043                         __pcstackBANK0 0020  
                       __pcstackBANK1 00A0             __end_of_SSD_SelectDisplay 0AB3  
                    ?_Scheduler_Task1 0070                      ?_Scheduler_Task2 0070  
                    ?_Scheduler_Task3 0070                      ?_Scheduler_Start 0070  
                   __size_of__fptable 0011                     __size_of___xxtofl 010B  
                         ??_GPIO_Init 0036                        _ADC_Start_Conv 17CD  
                 __end_of_LED_Control 09D9                           _EEPROM_Data 0048  
                         _EEPROM_Read 0C87                __size_of_I2c_Send_NAck 0009  
                        ?_Timer0_Init 0070                SSD_SelectDigit@Digit_1 0044  
              SSD_SelectDigit@Digit_2 0043            __end_of_Interrupt_CallBack 0817  
                           __pfunctab 004B                  _Buttons_MainFunction 070F  
              __size_of_Average_Value 00AC                              ?___awdiv 0036  
                            ?___awmod 0036                              ?___flmul 00A6  
                            ?___fltol 003F                              ?___lldiv 0036  
                            ?___llmod 0025                            ?__Umul8_16 0036  
                            ?___lwmod 0036                             __pstrings 0800  
                      _Scheduler_Init 0863                           _I2c_WaitAck 17BD  
                            _ADC_Info 004D                              _ADC_Init 0909  
                         ??_SSD_Blink 003E                __end_of_ADC_Start_Conv 17D6  
                         ??i1___lldiv 007B                        __size_of_myISR 0032  
                            _I2c_Init 083C                              _I2c_Read 0854  
                            _I2c_Stop 17EA                     interrupt_function 0004  
                       _Elements_Init 0830                        ___wmul@product 003A  
                           clear_ram0 17C5                 i1___bmul@multiplicand 0070  
            __size_of_Set_EEPROM_Data 0018                 ?_Buttons_MainFunction 0070  
          __end_of_Mode_Setting_Timer 0A57              __size_of_SSD_SelectDigit 0060  
              __end_of_Scheduler_Init 0873                              _SSD_Init 0848  
                            i1___bmul 0896                            _ADCON0bits 001F  
                         __stringbase 0805                            _ADCON1bits 009F  
                   ___wmul@multiplier 0036                     ?_Temperature_Calc 0070  
                       _I2c_Send_NAck 17D6                 _Elements_MainFunction 0E3F  
                  ??_Temperature_Calc 00C6                           _LED_Control 09B1  
          __size_of_SSD_SelectDisplay 0030                       ?_ADC_Start_Conv 0070  
                       _Average_Value 052E                              i1fptable 005C  
               __end_of_ADC_Get_Value 08F1                              i1fptotal 0004  
             fp__EXTI_On_Off_CallBack 0062      __end_of_ModeManager_MainFunction 0C87  
                      ?_Elements_Init 0070             __size_of_SSD_MainFunction 0059  
          Mode_Setting_Timer@Timer_Ms 003C                              _Tick_Num 00CB  
                         ??__Umul8_16 0038                      __size_of___awdiv 0069  
                    __size_of___awmod 005B                      __size_of___flmul 03BB  
                    __size_of___fltol 009E                      __size_of___lldiv 008A  
                    __size_of___llmod 0056                      __size_of___lwmod 003C  
                     ?_Scheduler_Init 0070                    __end_of__stringtab 0806  
                      ?_I2c_Send_NAck 0070                              __fptable 004B  
                            ___xxtofl 0423                        ?_Average_Value 003F  
                            __ptext10 0A2C                              __ptext11 0883  
                            __ptext20 08D9                              __ptext12 0678  
                            __ptext21 0E3F                              __ptext13 0423  
                            __ptext30 070F                              __ptext22 09B1  
                            __ptext14 05DA                              __ptext31 0863  
                            __ptext23 0A02                              __ptext15 0068  
                            __ptext40 17EA                              __ptext32 0848  
                            __ptext24 0D25                              __ptext16 09D9  
                            __ptext41 17DF                              __ptext33 17AF  
                            __ptext25 0A83                              __ptext17 052E  
                            __ptext50 0AB3                              __ptext42 17D6  
                            __ptext34 083C                              __ptext26 0B8A  
                            __ptext18 0BC5                              __ptext51 0A57  
                            __ptext43 0854                              __ptext35 0B18  
                            __ptext27 098A                              __ptext19 0F76  
                            __ptext52 0DD9                              __ptext44 0924  
                            __ptext36 0D7E                              __ptext28 079E  
                            __ptext53 0EA5                              __ptext45 0830  
                            __ptext37 0C87                              __ptext29 0F0D  
                            __ptext54 0896                              __ptext46 0964  
                            __ptext38 17B7                              __ptext55 0CCF  
                            __ptext47 0942                              __ptext39 17BD  
                            __ptext56 08AB                              __ptext48 17CD  
                            __ptext49 0909                         ?_EEPROM_Write 0037  
                       __size_of_main 003F                ??_Buttons_MainFunction 0036  
                            _temb_val 0190                         _Avrage_buffer 00CF  
                __size_of_Timer0_Init 0010                       _Get_EEPROM_Data 0B18  
                        I2c_Read@data 0036                     ??_Set_EEPROM_Data 0039  
              ?_Elements_MainFunction 0070                            _LED_Status 004B  
                       I2c_Write@data 0036                            _INTCONbits 000B  
                   ??_SSD_SelectDigit 003E             __size_of_ModeManager_Init 0004  
                            memset@p1 003B         __size_of_EXTI_On_Off_CallBack 0017  
                      ??_EEPROM_Write 0038                       ??_Elements_Init 0036  
                            intlevel1 004B                      ___lwmod@dividend 0038  
                        ?_EEPROM_Read 0070                      ___lldiv@dividend 003A  
          Scheduler_Start@IntityIndex 00CA             _Scheduler_ActivationFlags 00D3  
            __size_of_Timer0_CallBack 002C                    fp__Timer0_CallBack 0065  
            _ModeManager_MainFunction 0C40                             stringcode 0800  
                     ??_I2c_Send_NAck 0036                __Umul8_16@multiplicand 0036  
                        ?_I2c_WaitAck 0070                    _Interrupt_CallBack 0815  
                     ??_Average_Value 00A5                      ___lldiv@quotient 00A0  
                     ___lwmod@divisor 0036                       ___lwmod@counter 003A  
                            stringdir 0800                              stringtab 0800  
                  Average_Value@Value 0040                    Average_Value@index 0041  
                       ?_LED_BLINKING 003C              __size_of_Scheduler_Task1 000B  
            __size_of_Scheduler_Task2 000B              __size_of_Scheduler_Task3 000B  
                  fp__Scheduler_Task1 0056                    fp__Scheduler_Task2 0059  
                  fp__Scheduler_Task3 0053                       EEPROM_Read@Addr 0037  
                     EEPROM_Read@Data 0047              __size_of_Scheduler_Start 0039  
                __Umul8_16@multiplier 003E                      _SSD_MainFunction 0D25  
             __end_of_Get_EEPROM_Data 0B51     __size_of_Temperature_MainFunction 0013  
           ?_Temperature_MainFunction 0070                     __Umul8_16@product 003A  
