

Microchip MPLAB XC8 Assembler V2.20 build 20200408173844 
                                                                                               Sun Jul 12 18:06:59 2020

Microchip MPLAB XC8 C Compiler v2.20 (Free license) build 20200408173844 Og1 
     1                           	processor	16F877A
     2                           	pagewidth 120
     3                           	opt	flic
     4                           	psect	idataBANK0,global,class=CODE,delta=2,noexec
     5                           	psect	strings,global,class=STRING,delta=2,noexec
     6                           	psect	cinit,global,class=CODE,merge=1,delta=2
     7                           	psect	bssBANK0,global,class=BANK0,space=1,delta=1,noexec
     8                           	psect	dataBANK0,global,class=BANK0,space=1,delta=1,noexec
     9                           	psect	bssBANK1,global,class=BANK1,space=1,delta=1,noexec
    10                           	psect	bssBANK3,global,class=BANK3,space=1,delta=1,noexec
    11                           	psect	clrtext,global,class=CODE,delta=2
    12                           	psect	cstackBANK1,global,class=BANK1,space=1,delta=1,noexec
    13                           	psect	cstackCOMMON,global,class=COMMON,space=1,delta=1,noexec
    14                           	psect	cstackBANK0,global,class=BANK0,space=1,delta=1,noexec
    15                           	psect	maintext,global,class=CODE,split=1,delta=2
    16                           	psect	text1,local,class=CODE,merge=1,delta=2
    17                           	psect	text2,local,class=CODE,merge=1,delta=2
    18                           	psect	text3,local,class=CODE,merge=1,delta=2,group=1
    19                           	psect	text4,local,class=CODE,merge=1,delta=2
    20                           	psect	text5,local,class=CODE,merge=1,delta=2
    21                           	psect	text6,local,class=CODE,merge=1,delta=2
    22                           	psect	text7,local,class=CODE,merge=1,delta=2
    23                           	psect	text8,local,class=CODE,merge=1,delta=2
    24                           	psect	text9,local,class=CODE,merge=1,delta=2
    25                           	psect	text10,local,class=CODE,merge=1,delta=2
    26                           	psect	text11,local,class=CODE,merge=1,delta=2
    27                           	psect	text12,local,class=CODE,merge=1,delta=2
    28                           	psect	text13,local,class=CODE,merge=1,delta=2
    29                           	psect	text14,local,class=CODE,merge=1,delta=2
    30                           	psect	text15,local,class=CODE,merge=1,delta=2
    31                           	psect	text16,local,class=CODE,merge=1,delta=2,group=1
    32                           	psect	text17,local,class=CODE,merge=1,delta=2,group=1
    33                           	psect	text18,local,class=CODE,merge=1,delta=2,group=1
    34                           	psect	text19,local,class=CODE,merge=1,delta=2,group=1
    35                           	psect	text20,local,class=CODE,merge=1,delta=2
    36                           	psect	text21,local,class=CODE,merge=1,delta=2,group=1
    37                           	psect	text22,local,class=CODE,merge=1,delta=2,group=1
    38                           	psect	text23,local,class=CODE,merge=1,delta=2
    39                           	psect	text24,local,class=CODE,merge=1,delta=2,group=1
    40                           	psect	text25,local,class=CODE,merge=1,delta=2,group=1
    41                           	psect	text26,local,class=CODE,merge=1,delta=2
    42                           	psect	text27,local,class=CODE,merge=1,delta=2,group=1
    43                           	psect	text28,local,class=CODE,merge=1,delta=2
    44                           	psect	text29,local,class=CODE,merge=1,delta=2,group=2
    45                           	psect	text30,local,class=CODE,merge=1,delta=2
    46                           	psect	text31,local,class=CODE,merge=1,delta=2
    47                           	psect	text32,local,class=CODE,merge=1,delta=2
    48                           	psect	text33,local,class=CODE,merge=1,delta=2
    49                           	psect	text34,local,class=CODE,merge=1,delta=2
    50                           	psect	text35,local,class=CODE,merge=1,delta=2
    51                           	psect	text36,local,class=CODE,merge=1,delta=2
    52                           	psect	text37,local,class=CODE,merge=1,delta=2
    53                           	psect	intentry,global,class=CODE,delta=2
    54                           	psect	text38,local,class=CODE,merge=1,delta=2
    55                           	psect	text39,local,class=CODE,merge=1,delta=2
    56                           	psect	text40,local,class=CODE,merge=1,delta=2
    57                           	psect	text41,local,class=CODE,merge=1,delta=2
    58                           	psect	text42,local,class=CODE,merge=1,delta=2,group=1
    59                           	psect	text43,local,class=CODE,merge=1,delta=2
    60                           	psect	functab,global,class=ENTRY,delta=2
    61                           	psect	config,global,abs,ovrld,class=CONFIG,space=4,delta=2,noexec
    62                           	dabs	1,0x7E,2
    63  0000                     
    64                           ; Version 2.20
    65                           ; Generated 12/02/2020 GMT
    66                           ; 
    67                           ; Copyright © 2020, Microchip Technology Inc. and its subsidiaries ("Microchip")
    68                           ; All rights reserved.
    69                           ; 
    70                           ; This software is developed by Microchip Technology Inc. and its subsidiaries ("Microch
      +                          ip").
    71                           ; 
    72                           ; Redistribution and use in source and binary forms, with or without modification, are
    73                           ; permitted provided that the following conditions are met:
    74                           ; 
    75                           ;     1. Redistributions of source code must retain the above copyright notice, this lis
      +                          t of
    76                           ;        conditions and the following disclaimer.
    77                           ; 
    78                           ;     2. Redistributions in binary form must reproduce the above copyright notice, this 
      +                          list
    79                           ;        of conditions and the following disclaimer in the documentation and/or other
    80                           ;        materials provided with the distribution.
    81                           ; 
    82                           ;     3. Microchip's name may not be used to endorse or promote products derived from th
      +                          is
    83                           ;        software without specific prior written permission.
    84                           ; 
    85                           ; THIS SOFTWARE IS PROVIDED BY MICROCHIP "AS IS" AND ANY EXPRESS OR IMPLIED WARRANTIES,
    86                           ; INCLUDING, BUT NOT LIMITED TO, THE IMPLIED WARRANTIES OF MERCHANTABILITY AND FITNESS F
      +                          OR
    87                           ; PURPOSE ARE DISCLAIMED.  IN NO EVENT SHALL MICROCHIP BE LIABLE FOR ANY DIRECT, INDIREC
      +                          T,
    88                           ; INCIDENTAL, SPECIAL, EXEMPLARY, OR CONSEQUENTIAL DAMAGES (INCLUDING BUT NOT LIMITED TO
    89                           ; PROCUREMENT OF SUBSTITUTE GOODS OR SERVICES; LOSS OF USE, DATA OR PROFITS; OR BUSINESS
    90                           ; INTERRUPTION) HOWSOEVER CAUSED AND ON ANY THEORY OF LIABILITY, WHETHER IN CONTRACT, ST
      +                          RICT
    91                           ; LIABILITY, OR TORT (INCLUDING NEGLIGENCE OR OTHERWISE) ARISING IN ANY WAY OUT OF THE U
      +                          SE OF
    92                           ; THIS SOFTWARE, EVEN IF ADVISED OF THE POSSIBILITY OF SUCH DAMAGE.
    93                           ; 
    94                           ; 
    95                           ; Code-generator required, PIC16F877A Definitions
    96                           ; 
    97                           ; SFR Addresses
    98  0000                     	;# 
    99  0001                     	;# 
   100  0002                     	;# 
   101  0003                     	;# 
   102  0004                     	;# 
   103  0005                     	;# 
   104  0006                     	;# 
   105  0007                     	;# 
   106  0008                     	;# 
   107  0009                     	;# 
   108  000A                     	;# 
   109  000B                     	;# 
   110  000C                     	;# 
   111  000D                     	;# 
   112  000E                     	;# 
   113  000E                     	;# 
   114  000F                     	;# 
   115  0010                     	;# 
   116  0011                     	;# 
   117  0012                     	;# 
   118  0013                     	;# 
   119  0014                     	;# 
   120  0015                     	;# 
   121  0015                     	;# 
   122  0016                     	;# 
   123  0017                     	;# 
   124  0018                     	;# 
   125  0019                     	;# 
   126  001A                     	;# 
   127  001B                     	;# 
   128  001B                     	;# 
   129  001C                     	;# 
   130  001D                     	;# 
   131  001E                     	;# 
   132  001F                     	;# 
   133  0081                     	;# 
   134  0085                     	;# 
   135  0086                     	;# 
   136  0087                     	;# 
   137  0088                     	;# 
   138  0089                     	;# 
   139  008C                     	;# 
   140  008D                     	;# 
   141  008E                     	;# 
   142  0091                     	;# 
   143  0092                     	;# 
   144  0093                     	;# 
   145  0094                     	;# 
   146  0098                     	;# 
   147  0099                     	;# 
   148  009C                     	;# 
   149  009D                     	;# 
   150  009E                     	;# 
   151  009F                     	;# 
   152  010C                     	;# 
   153  010D                     	;# 
   154  010E                     	;# 
   155  010F                     	;# 
   156  018C                     	;# 
   157  018D                     	;# 
   158  0000                     	;# 
   159  0001                     	;# 
   160  0002                     	;# 
   161  0003                     	;# 
   162  0004                     	;# 
   163  0005                     	;# 
   164  0006                     	;# 
   165  0007                     	;# 
   166  0008                     	;# 
   167  0009                     	;# 
   168  000A                     	;# 
   169  000B                     	;# 
   170  000C                     	;# 
   171  000D                     	;# 
   172  000E                     	;# 
   173  000E                     	;# 
   174  000F                     	;# 
   175  0010                     	;# 
   176  0011                     	;# 
   177  0012                     	;# 
   178  0013                     	;# 
   179  0014                     	;# 
   180  0015                     	;# 
   181  0015                     	;# 
   182  0016                     	;# 
   183  0017                     	;# 
   184  0018                     	;# 
   185  0019                     	;# 
   186  001A                     	;# 
   187  001B                     	;# 
   188  001B                     	;# 
   189  001C                     	;# 
   190  001D                     	;# 
   191  001E                     	;# 
   192  001F                     	;# 
   193  0081                     	;# 
   194  0085                     	;# 
   195  0086                     	;# 
   196  0087                     	;# 
   197  0088                     	;# 
   198  0089                     	;# 
   199  008C                     	;# 
   200  008D                     	;# 
   201  008E                     	;# 
   202  0091                     	;# 
   203  0092                     	;# 
   204  0093                     	;# 
   205  0094                     	;# 
   206  0098                     	;# 
   207  0099                     	;# 
   208  009C                     	;# 
   209  009D                     	;# 
   210  009E                     	;# 
   211  009F                     	;# 
   212  010C                     	;# 
   213  010D                     	;# 
   214  010E                     	;# 
   215  010F                     	;# 
   216  018C                     	;# 
   217  018D                     	;# 
   218  0000                     	;# 
   219  0001                     	;# 
   220  0002                     	;# 
   221  0003                     	;# 
   222  0004                     	;# 
   223  0005                     	;# 
   224  0006                     	;# 
   225  0007                     	;# 
   226  0008                     	;# 
   227  0009                     	;# 
   228  000A                     	;# 
   229  000B                     	;# 
   230  000C                     	;# 
   231  000D                     	;# 
   232  000E                     	;# 
   233  000E                     	;# 
   234  000F                     	;# 
   235  0010                     	;# 
   236  0011                     	;# 
   237  0012                     	;# 
   238  0013                     	;# 
   239  0014                     	;# 
   240  0015                     	;# 
   241  0015                     	;# 
   242  0016                     	;# 
   243  0017                     	;# 
   244  0018                     	;# 
   245  0019                     	;# 
   246  001A                     	;# 
   247  001B                     	;# 
   248  001B                     	;# 
   249  001C                     	;# 
   250  001D                     	;# 
   251  001E                     	;# 
   252  001F                     	;# 
   253  0081                     	;# 
   254  0085                     	;# 
   255  0086                     	;# 
   256  0087                     	;# 
   257  0088                     	;# 
   258  0089                     	;# 
   259  008C                     	;# 
   260  008D                     	;# 
   261  008E                     	;# 
   262  0091                     	;# 
   263  0092                     	;# 
   264  0093                     	;# 
   265  0094                     	;# 
   266  0098                     	;# 
   267  0099                     	;# 
   268  009C                     	;# 
   269  009D                     	;# 
   270  009E                     	;# 
   271  009F                     	;# 
   272  010C                     	;# 
   273  010D                     	;# 
   274  010E                     	;# 
   275  010F                     	;# 
   276  018C                     	;# 
   277  018D                     	;# 
   278  0000                     	;# 
   279  0001                     	;# 
   280  0002                     	;# 
   281  0003                     	;# 
   282  0004                     	;# 
   283  0005                     	;# 
   284  0006                     	;# 
   285  0007                     	;# 
   286  0008                     	;# 
   287  0009                     	;# 
   288  000A                     	;# 
   289  000B                     	;# 
   290  000C                     	;# 
   291  000D                     	;# 
   292  000E                     	;# 
   293  000E                     	;# 
   294  000F                     	;# 
   295  0010                     	;# 
   296  0011                     	;# 
   297  0012                     	;# 
   298  0013                     	;# 
   299  0014                     	;# 
   300  0015                     	;# 
   301  0015                     	;# 
   302  0016                     	;# 
   303  0017                     	;# 
   304  0018                     	;# 
   305  0019                     	;# 
   306  001A                     	;# 
   307  001B                     	;# 
   308  001B                     	;# 
   309  001C                     	;# 
   310  001D                     	;# 
   311  001E                     	;# 
   312  001F                     	;# 
   313  0081                     	;# 
   314  0085                     	;# 
   315  0086                     	;# 
   316  0087                     	;# 
   317  0088                     	;# 
   318  0089                     	;# 
   319  008C                     	;# 
   320  008D                     	;# 
   321  008E                     	;# 
   322  0091                     	;# 
   323  0092                     	;# 
   324  0093                     	;# 
   325  0094                     	;# 
   326  0098                     	;# 
   327  0099                     	;# 
   328  009C                     	;# 
   329  009D                     	;# 
   330  009E                     	;# 
   331  009F                     	;# 
   332  010C                     	;# 
   333  010D                     	;# 
   334  010E                     	;# 
   335  010F                     	;# 
   336  018C                     	;# 
   337  018D                     	;# 
   338  0000                     	;# 
   339  0001                     	;# 
   340  0002                     	;# 
   341  0003                     	;# 
   342  0004                     	;# 
   343  0005                     	;# 
   344  0006                     	;# 
   345  0007                     	;# 
   346  0008                     	;# 
   347  0009                     	;# 
   348  000A                     	;# 
   349  000B                     	;# 
   350  000C                     	;# 
   351  000D                     	;# 
   352  000E                     	;# 
   353  000E                     	;# 
   354  000F                     	;# 
   355  0010                     	;# 
   356  0011                     	;# 
   357  0012                     	;# 
   358  0013                     	;# 
   359  0014                     	;# 
   360  0015                     	;# 
   361  0015                     	;# 
   362  0016                     	;# 
   363  0017                     	;# 
   364  0018                     	;# 
   365  0019                     	;# 
   366  001A                     	;# 
   367  001B                     	;# 
   368  001B                     	;# 
   369  001C                     	;# 
   370  001D                     	;# 
   371  001E                     	;# 
   372  001F                     	;# 
   373  0081                     	;# 
   374  0085                     	;# 
   375  0086                     	;# 
   376  0087                     	;# 
   377  0088                     	;# 
   378  0089                     	;# 
   379  008C                     	;# 
   380  008D                     	;# 
   381  008E                     	;# 
   382  0091                     	;# 
   383  0092                     	;# 
   384  0093                     	;# 
   385  0094                     	;# 
   386  0098                     	;# 
   387  0099                     	;# 
   388  009C                     	;# 
   389  009D                     	;# 
   390  009E                     	;# 
   391  009F                     	;# 
   392  010C                     	;# 
   393  010D                     	;# 
   394  010E                     	;# 
   395  010F                     	;# 
   396  018C                     	;# 
   397  018D                     	;# 
   398  0000                     	;# 
   399  0001                     	;# 
   400  0002                     	;# 
   401  0003                     	;# 
   402  0004                     	;# 
   403  0005                     	;# 
   404  0006                     	;# 
   405  0007                     	;# 
   406  0008                     	;# 
   407  0009                     	;# 
   408  000A                     	;# 
   409  000B                     	;# 
   410  000C                     	;# 
   411  000D                     	;# 
   412  000E                     	;# 
   413  000E                     	;# 
   414  000F                     	;# 
   415  0010                     	;# 
   416  0011                     	;# 
   417  0012                     	;# 
   418  0013                     	;# 
   419  0014                     	;# 
   420  0015                     	;# 
   421  0015                     	;# 
   422  0016                     	;# 
   423  0017                     	;# 
   424  0018                     	;# 
   425  0019                     	;# 
   426  001A                     	;# 
   427  001B                     	;# 
   428  001B                     	;# 
   429  001C                     	;# 
   430  001D                     	;# 
   431  001E                     	;# 
   432  001F                     	;# 
   433  0081                     	;# 
   434  0085                     	;# 
   435  0086                     	;# 
   436  0087                     	;# 
   437  0088                     	;# 
   438  0089                     	;# 
   439  008C                     	;# 
   440  008D                     	;# 
   441  008E                     	;# 
   442  0091                     	;# 
   443  0092                     	;# 
   444  0093                     	;# 
   445  0094                     	;# 
   446  0098                     	;# 
   447  0099                     	;# 
   448  009C                     	;# 
   449  009D                     	;# 
   450  009E                     	;# 
   451  009F                     	;# 
   452  010C                     	;# 
   453  010D                     	;# 
   454  010E                     	;# 
   455  010F                     	;# 
   456  018C                     	;# 
   457  018D                     	;# 
   458  0000                     	;# 
   459  0001                     	;# 
   460  0002                     	;# 
   461  0003                     	;# 
   462  0004                     	;# 
   463  0005                     	;# 
   464  0006                     	;# 
   465  0007                     	;# 
   466  0008                     	;# 
   467  0009                     	;# 
   468  000A                     	;# 
   469  000B                     	;# 
   470  000C                     	;# 
   471  000D                     	;# 
   472  000E                     	;# 
   473  000E                     	;# 
   474  000F                     	;# 
   475  0010                     	;# 
   476  0011                     	;# 
   477  0012                     	;# 
   478  0013                     	;# 
   479  0014                     	;# 
   480  0015                     	;# 
   481  0015                     	;# 
   482  0016                     	;# 
   483  0017                     	;# 
   484  0018                     	;# 
   485  0019                     	;# 
   486  001A                     	;# 
   487  001B                     	;# 
   488  001B                     	;# 
   489  001C                     	;# 
   490  001D                     	;# 
   491  001E                     	;# 
   492  001F                     	;# 
   493  0081                     	;# 
   494  0085                     	;# 
   495  0086                     	;# 
   496  0087                     	;# 
   497  0088                     	;# 
   498  0089                     	;# 
   499  008C                     	;# 
   500  008D                     	;# 
   501  008E                     	;# 
   502  0091                     	;# 
   503  0092                     	;# 
   504  0093                     	;# 
   505  0094                     	;# 
   506  0098                     	;# 
   507  0099                     	;# 
   508  009C                     	;# 
   509  009D                     	;# 
   510  009E                     	;# 
   511  009F                     	;# 
   512  010C                     	;# 
   513  010D                     	;# 
   514  010E                     	;# 
   515  010F                     	;# 
   516  018C                     	;# 
   517  018D                     	;# 
   518  0000                     	;# 
   519  0001                     	;# 
   520  0002                     	;# 
   521  0003                     	;# 
   522  0004                     	;# 
   523  0005                     	;# 
   524  0006                     	;# 
   525  0007                     	;# 
   526  0008                     	;# 
   527  0009                     	;# 
   528  000A                     	;# 
   529  000B                     	;# 
   530  000C                     	;# 
   531  000D                     	;# 
   532  000E                     	;# 
   533  000E                     	;# 
   534  000F                     	;# 
   535  0010                     	;# 
   536  0011                     	;# 
   537  0012                     	;# 
   538  0013                     	;# 
   539  0014                     	;# 
   540  0015                     	;# 
   541  0015                     	;# 
   542  0016                     	;# 
   543  0017                     	;# 
   544  0018                     	;# 
   545  0019                     	;# 
   546  001A                     	;# 
   547  001B                     	;# 
   548  001B                     	;# 
   549  001C                     	;# 
   550  001D                     	;# 
   551  001E                     	;# 
   552  001F                     	;# 
   553  0081                     	;# 
   554  0085                     	;# 
   555  0086                     	;# 
   556  0087                     	;# 
   557  0088                     	;# 
   558  0089                     	;# 
   559  008C                     	;# 
   560  008D                     	;# 
   561  008E                     	;# 
   562  0091                     	;# 
   563  0092                     	;# 
   564  0093                     	;# 
   565  0094                     	;# 
   566  0098                     	;# 
   567  0099                     	;# 
   568  009C                     	;# 
   569  009D                     	;# 
   570  009E                     	;# 
   571  009F                     	;# 
   572  010C                     	;# 
   573  010D                     	;# 
   574  010E                     	;# 
   575  010F                     	;# 
   576  018C                     	;# 
   577  018D                     	;# 
   578  0000                     	;# 
   579  0001                     	;# 
   580  0002                     	;# 
   581  0003                     	;# 
   582  0004                     	;# 
   583  0005                     	;# 
   584  0006                     	;# 
   585  0007                     	;# 
   586  0008                     	;# 
   587  0009                     	;# 
   588  000A                     	;# 
   589  000B                     	;# 
   590  000C                     	;# 
   591  000D                     	;# 
   592  000E                     	;# 
   593  000E                     	;# 
   594  000F                     	;# 
   595  0010                     	;# 
   596  0011                     	;# 
   597  0012                     	;# 
   598  0013                     	;# 
   599  0014                     	;# 
   600  0015                     	;# 
   601  0015                     	;# 
   602  0016                     	;# 
   603  0017                     	;# 
   604  0018                     	;# 
   605  0019                     	;# 
   606  001A                     	;# 
   607  001B                     	;# 
   608  001B                     	;# 
   609  001C                     	;# 
   610  001D                     	;# 
   611  001E                     	;# 
   612  001F                     	;# 
   613  0081                     	;# 
   614  0085                     	;# 
   615  0086                     	;# 
   616  0087                     	;# 
   617  0088                     	;# 
   618  0089                     	;# 
   619  008C                     	;# 
   620  008D                     	;# 
   621  008E                     	;# 
   622  0091                     	;# 
   623  0092                     	;# 
   624  0093                     	;# 
   625  0094                     	;# 
   626  0098                     	;# 
   627  0099                     	;# 
   628  009C                     	;# 
   629  009D                     	;# 
   630  009E                     	;# 
   631  009F                     	;# 
   632  010C                     	;# 
   633  010D                     	;# 
   634  010E                     	;# 
   635  010F                     	;# 
   636  018C                     	;# 
   637  018D                     	;# 
   638  0000                     	;# 
   639  0001                     	;# 
   640  0002                     	;# 
   641  0003                     	;# 
   642  0004                     	;# 
   643  0005                     	;# 
   644  0006                     	;# 
   645  0007                     	;# 
   646  0008                     	;# 
   647  0009                     	;# 
   648  000A                     	;# 
   649  000B                     	;# 
   650  000C                     	;# 
   651  000D                     	;# 
   652  000E                     	;# 
   653  000E                     	;# 
   654  000F                     	;# 
   655  0010                     	;# 
   656  0011                     	;# 
   657  0012                     	;# 
   658  0013                     	;# 
   659  0014                     	;# 
   660  0015                     	;# 
   661  0015                     	;# 
   662  0016                     	;# 
   663  0017                     	;# 
   664  0018                     	;# 
   665  0019                     	;# 
   666  001A                     	;# 
   667  001B                     	;# 
   668  001B                     	;# 
   669  001C                     	;# 
   670  001D                     	;# 
   671  001E                     	;# 
   672  001F                     	;# 
   673  0081                     	;# 
   674  0085                     	;# 
   675  0086                     	;# 
   676  0087                     	;# 
   677  0088                     	;# 
   678  0089                     	;# 
   679  008C                     	;# 
   680  008D                     	;# 
   681  008E                     	;# 
   682  0091                     	;# 
   683  0092                     	;# 
   684  0093                     	;# 
   685  0094                     	;# 
   686  0098                     	;# 
   687  0099                     	;# 
   688  009C                     	;# 
   689  009D                     	;# 
   690  009E                     	;# 
   691  009F                     	;# 
   692  010C                     	;# 
   693  010D                     	;# 
   694  010E                     	;# 
   695  010F                     	;# 
   696  018C                     	;# 
   697  018D                     	;# 
   698  0000                     	;# 
   699  0001                     	;# 
   700  0002                     	;# 
   701  0003                     	;# 
   702  0004                     	;# 
   703  0005                     	;# 
   704  0006                     	;# 
   705  0007                     	;# 
   706  0008                     	;# 
   707  0009                     	;# 
   708  000A                     	;# 
   709  000B                     	;# 
   710  000C                     	;# 
   711  000D                     	;# 
   712  000E                     	;# 
   713  000E                     	;# 
   714  000F                     	;# 
   715  0010                     	;# 
   716  0011                     	;# 
   717  0012                     	;# 
   718  0013                     	;# 
   719  0014                     	;# 
   720  0015                     	;# 
   721  0015                     	;# 
   722  0016                     	;# 
   723  0017                     	;# 
   724  0018                     	;# 
   725  0019                     	;# 
   726  001A                     	;# 
   727  001B                     	;# 
   728  001B                     	;# 
   729  001C                     	;# 
   730  001D                     	;# 
   731  001E                     	;# 
   732  001F                     	;# 
   733  0081                     	;# 
   734  0085                     	;# 
   735  0086                     	;# 
   736  0087                     	;# 
   737  0088                     	;# 
   738  0089                     	;# 
   739  008C                     	;# 
   740  008D                     	;# 
   741  008E                     	;# 
   742  0091                     	;# 
   743  0092                     	;# 
   744  0093                     	;# 
   745  0094                     	;# 
   746  0098                     	;# 
   747  0099                     	;# 
   748  009C                     	;# 
   749  009D                     	;# 
   750  009E                     	;# 
   751  009F                     	;# 
   752  010C                     	;# 
   753  010D                     	;# 
   754  010E                     	;# 
   755  010F                     	;# 
   756  018C                     	;# 
   757  018D                     	;# 
   758  0000                     	;# 
   759  0001                     	;# 
   760  0002                     	;# 
   761  0003                     	;# 
   762  0004                     	;# 
   763  0005                     	;# 
   764  0006                     	;# 
   765  0007                     	;# 
   766  0008                     	;# 
   767  0009                     	;# 
   768  000A                     	;# 
   769  000B                     	;# 
   770  000C                     	;# 
   771  000D                     	;# 
   772  000E                     	;# 
   773  000E                     	;# 
   774  000F                     	;# 
   775  0010                     	;# 
   776  0011                     	;# 
   777  0012                     	;# 
   778  0013                     	;# 
   779  0014                     	;# 
   780  0015                     	;# 
   781  0015                     	;# 
   782  0016                     	;# 
   783  0017                     	;# 
   784  0018                     	;# 
   785  0019                     	;# 
   786  001A                     	;# 
   787  001B                     	;# 
   788  001B                     	;# 
   789  001C                     	;# 
   790  001D                     	;# 
   791  001E                     	;# 
   792  001F                     	;# 
   793  0081                     	;# 
   794  0085                     	;# 
   795  0086                     	;# 
   796  0087                     	;# 
   797  0088                     	;# 
   798  0089                     	;# 
   799  008C                     	;# 
   800  008D                     	;# 
   801  008E                     	;# 
   802  0091                     	;# 
   803  0092                     	;# 
   804  0093                     	;# 
   805  0094                     	;# 
   806  0098                     	;# 
   807  0099                     	;# 
   808  009C                     	;# 
   809  009D                     	;# 
   810  009E                     	;# 
   811  009F                     	;# 
   812  010C                     	;# 
   813  010D                     	;# 
   814  010E                     	;# 
   815  010F                     	;# 
   816  018C                     	;# 
   817  018D                     	;# 
   818  0000                     	;# 
   819  0001                     	;# 
   820  0002                     	;# 
   821  0003                     	;# 
   822  0004                     	;# 
   823  0005                     	;# 
   824  0006                     	;# 
   825  0007                     	;# 
   826  0008                     	;# 
   827  0009                     	;# 
   828  000A                     	;# 
   829  000B                     	;# 
   830  000C                     	;# 
   831  000D                     	;# 
   832  000E                     	;# 
   833  000E                     	;# 
   834  000F                     	;# 
   835  0010                     	;# 
   836  0011                     	;# 
   837  0012                     	;# 
   838  0013                     	;# 
   839  0014                     	;# 
   840  0015                     	;# 
   841  0015                     	;# 
   842  0016                     	;# 
   843  0017                     	;# 
   844  0018                     	;# 
   845  0019                     	;# 
   846  001A                     	;# 
   847  001B                     	;# 
   848  001B                     	;# 
   849  001C                     	;# 
   850  001D                     	;# 
   851  001E                     	;# 
   852  001F                     	;# 
   853  0081                     	;# 
   854  0085                     	;# 
   855  0086                     	;# 
   856  0087                     	;# 
   857  0088                     	;# 
   858  0089                     	;# 
   859  008C                     	;# 
   860  008D                     	;# 
   861  008E                     	;# 
   862  0091                     	;# 
   863  0092                     	;# 
   864  0093                     	;# 
   865  0094                     	;# 
   866  0098                     	;# 
   867  0099                     	;# 
   868  009C                     	;# 
   869  009D                     	;# 
   870  009E                     	;# 
   871  009F                     	;# 
   872  010C                     	;# 
   873  010D                     	;# 
   874  010E                     	;# 
   875  010F                     	;# 
   876  018C                     	;# 
   877  018D                     	;# 
   878  0000                     	;# 
   879  0001                     	;# 
   880  0002                     	;# 
   881  0003                     	;# 
   882  0004                     	;# 
   883  0005                     	;# 
   884  0006                     	;# 
   885  0007                     	;# 
   886  0008                     	;# 
   887  0009                     	;# 
   888  000A                     	;# 
   889  000B                     	;# 
   890  000C                     	;# 
   891  000D                     	;# 
   892  000E                     	;# 
   893  000E                     	;# 
   894  000F                     	;# 
   895  0010                     	;# 
   896  0011                     	;# 
   897  0012                     	;# 
   898  0013                     	;# 
   899  0014                     	;# 
   900  0015                     	;# 
   901  0015                     	;# 
   902  0016                     	;# 
   903  0017                     	;# 
   904  0018                     	;# 
   905  0019                     	;# 
   906  001A                     	;# 
   907  001B                     	;# 
   908  001B                     	;# 
   909  001C                     	;# 
   910  001D                     	;# 
   911  001E                     	;# 
   912  001F                     	;# 
   913  0081                     	;# 
   914  0085                     	;# 
   915  0086                     	;# 
   916  0087                     	;# 
   917  0088                     	;# 
   918  0089                     	;# 
   919  008C                     	;# 
   920  008D                     	;# 
   921  008E                     	;# 
   922  0091                     	;# 
   923  0092                     	;# 
   924  0093                     	;# 
   925  0094                     	;# 
   926  0098                     	;# 
   927  0099                     	;# 
   928  009C                     	;# 
   929  009D                     	;# 
   930  009E                     	;# 
   931  009F                     	;# 
   932  010C                     	;# 
   933  010D                     	;# 
   934  010E                     	;# 
   935  010F                     	;# 
   936  018C                     	;# 
   937  018D                     	;# 
   938                           
   939                           	psect	idataBANK0
   940  08F5                     __pidataBANK0:
   941                           
   942                           ;initializer for LED_BLINKING@Counter
   943  08F5  3401               	retlw	1
   944                           
   945                           ;initializer for Display_Blink@Counter
   946  08F6  3401               	retlw	1
   947                           
   948                           ;initializer for Display_MainFunction@Enable_Digit_Selector
   949  08F7  3401               	retlw	1
   950                           
   951                           ;initializer for _Average_Nvalues
   952  08F8  340A               	retlw	10
   953                           
   954                           	psect	strings
   955  0800                     __pstrings:
   956  0800                     stringtab:
   957  0800                     __stringtab:
   958  0800                     stringcode:	
   959                           ;	String table - string pointers are 1 byte each
   960                           
   961  0800                     stringdir:
   962  0800  3008               	movlw	high stringdir
   963  0801  008A               	movwf	10
   964  0802  0804               	movf	4,w
   965  0803  0A84               	incf	4,f
   966  0804  0782               	addwf	2,f
   967  0805                     __stringbase:
   968  0805  3400               	retlw	0
   969  0806                     __end_of__stringtab:
   970  0806                     _Scheduler_Intitys:
   971  0806  3404               	retlw	low (fp__Scheduler_Task1-fpbase)
   972  0807  3414               	retlw	20
   973  0808  3400               	retlw	0
   974  0809  3400               	retlw	0
   975  080A  3400               	retlw	0
   976  080B  3407               	retlw	low (fp__Scheduler_Task2-fpbase)
   977  080C  3464               	retlw	100
   978  080D  3400               	retlw	0
   979  080E  3400               	retlw	0
   980  080F  3400               	retlw	0
   981  0810  3401               	retlw	low (fp__Scheduler_Task3-fpbase)
   982  0811  34C8               	retlw	200
   983  0812  3400               	retlw	0
   984  0813  3400               	retlw	0
   985  0814  3400               	retlw	0
   986  0815                     __end_of_Scheduler_Intitys:
   987  0001                     _TMR0	set	1
   988  0007                     _PORTC	set	7
   989  0008                     _PORTD	set	8
   990  0005                     _PORTA	set	5
   991  0006                     _PORTB	set	6
   992  000B                     _INTCONbits	set	11
   993  001E                     _ADRESH	set	30
   994  001F                     _ADCON0bits	set	31
   995  0081                     _OPTION_REGbits	set	129
   996  0088                     _TRISD	set	136
   997  0085                     _TRISA	set	133
   998  0086                     _TRISB	set	134
   999  0087                     _TRISC	set	135
  1000  009E                     _ADRESL	set	158
  1001  009F                     _ADCON1bits	set	159
  1002  040E                     _INTEDG	set	1038
  1003                           
  1004                           	psect	cinit
  1005  0015                     start_initialization:	
  1006                           ; #config settings
  1007                           
  1008  0015                     __initialization:
  1009                           
  1010                           ; Initialize objects allocated to BANK0
  1011  0015  120A  158A  20F5  120A  118A  	fcall	__pidataBANK0	;fetch initializer
  1012  001A  00D2               	movwf	__pdataBANK0& (0+127)
  1013  001B  120A  158A  20F6  120A  118A  	fcall	__pidataBANK0+1	;fetch initializer
  1014  0020  00D3               	movwf	(__pdataBANK0+1)& (0+127)
  1015  0021  120A  158A  20F7  120A  118A  	fcall	__pidataBANK0+2	;fetch initializer
  1016  0026  00D4               	movwf	(__pdataBANK0+2)& (0+127)
  1017  0027  120A  158A  20F8  120A  118A  	fcall	__pidataBANK0+3	;fetch initializer
  1018  002C  00D5               	movwf	(__pdataBANK0+3)& (0+127)
  1019                           
  1020                           ; Clear objects allocated to BANK3
  1021  002D  1783               	bsf	3,7	;select IRP bank2
  1022  002E  3090               	movlw	low __pbssBANK3
  1023  002F  0084               	movwf	4
  1024  0030  30B8               	movlw	low (__pbssBANK3+40)
  1025  0031  120A  158A  2105  120A  118A  	fcall	clear_ram0
  1026                           
  1027                           ; Clear objects allocated to BANK1
  1028  0036  1683               	bsf	3,5	;RP0=1, select bank1
  1029  0037  1303               	bcf	3,6	;RP1=0, select bank1
  1030  0038  01D6               	clrf	__pbssBANK1& (0+127)
  1031  0039  01D7               	clrf	(__pbssBANK1+1)& (0+127)
  1032  003A  01D8               	clrf	(__pbssBANK1+2)& (0+127)
  1033  003B  01D9               	clrf	(__pbssBANK1+3)& (0+127)
  1034  003C  01DA               	clrf	(__pbssBANK1+4)& (0+127)
  1035  003D  01DB               	clrf	(__pbssBANK1+5)& (0+127)
  1036                           
  1037                           ; Clear objects allocated to BANK0
  1038  003E  1383               	bcf	3,7	;select IRP bank0
  1039  003F  303F               	movlw	low __pbssBANK0
  1040  0040  0084               	movwf	4
  1041  0041  3052               	movlw	low (__pbssBANK0+19)
  1042  0042  120A  158A  2105  120A  118A  	fcall	clear_ram0
  1043  0047                     end_of_initialization:	
  1044                           ;End of C runtime variable initialization code
  1045                           
  1046  0047                     __end_of__initialization:
  1047  0047  0183               	clrf	3
  1048  0048  120A  158A  2A8E   	ljmp	_main	;jump to C main() function
  1049                           
  1050                           	psect	bssBANK0
  1051  003F                     __pbssBANK0:
  1052  003F                     _Tick_Num:
  1053  003F                     	ds	4
  1054  0043                     _Avrage_buffer:
  1055  0043                     	ds	4
  1056  0047                     Display_MainFunction@Display:
  1057  0047                     	ds	1
  1058  0048                     Display_MainFunction@Tempreture:
  1059  0048                     	ds	1
  1060  0049                     Display_MainFunction@Digit_2:
  1061  0049                     	ds	1
  1062  004A                     Display_MainFunction@Digit_1:
  1063  004A                     	ds	1
  1064  004B                     _LED_Status:
  1065  004B                     	ds	1
  1066  004C                     _Enable_Display:
  1067  004C                     	ds	1
  1068  004D                     _Temperature:
  1069  004D                     	ds	5
  1070                           
  1071                           	psect	dataBANK0
  1072  0052                     __pdataBANK0:
  1073  0052                     LED_BLINKING@Counter:
  1074  0052                     	ds	1
  1075  0053                     Display_Blink@Counter:
  1076  0053                     	ds	1
  1077  0054                     Display_MainFunction@Enable_Digit_Selector:
  1078  0054                     	ds	1
  1079  0055                     _Average_Nvalues:
  1080  0055                     	ds	1
  1081                           
  1082                           	psect	bssBANK1
  1083  00D6                     __pbssBANK1:
  1084  00D6                     _Mode:
  1085  00D6                     	ds	2
  1086  00D8                     _ADC_Info:
  1087  00D8                     	ds	1
  1088  00D9                     _Scheduler_ActivationFlags:
  1089  00D9                     	ds	3
  1090                           
  1091                           	psect	bssBANK3
  1092  0190                     __pbssBANK3:
  1093  0190                     _temb_val:
  1094  0190                     	ds	40
  1095                           
  1096                           	psect	clrtext
  1097  0905                     clear_ram0:	
  1098                           ;	Called with FSR containing the base address, and
  1099                           ;	W with the last address+1
  1100                           
  1101  0905  0064               	clrwdt	;clear the watchdog before getting into this loop
  1102  0906                     clrloop0:
  1103  0906  0180               	clrf	0	;clear RAM location pointed to by FSR
  1104  0907  0A84               	incf	4,f	;increment pointer
  1105  0908  0604               	xorwf	4,w	;XOR with final address
  1106  0909  1903               	btfsc	3,2	;have we reached the end yet?
  1107  090A  3400               	retlw	0	;all done for this memory range, return
  1108  090B  0604               	xorwf	4,w	;XOR again to restore value
  1109  090C  2906               	goto	clrloop0	;do the next byte
  1110                           
  1111                           	psect	cstackBANK1
  1112  00A0                     __pcstackBANK1:
  1113  00A0                     ??___xxtofl:
  1114  00A0                     ?___lldiv:	
  1115                           ; 1 bytes @ 0x0
  1116                           
  1117  00A0                     ___awdiv@counter:	
  1118                           ; 4 bytes @ 0x0
  1119                           
  1120  00A0                     ___awmod@counter:	
  1121                           ; 1 bytes @ 0x0
  1122                           
  1123  00A0                     memset@p:	
  1124                           ; 1 bytes @ 0x0
  1125                           
  1126  00A0                     ___wmul@product:	
  1127                           ; 1 bytes @ 0x0
  1128                           
  1129  00A0                     __Umul8_16@product:	
  1130                           ; 2 bytes @ 0x0
  1131                           
  1132  00A0                     ___lldiv@divisor:	
  1133                           ; 2 bytes @ 0x0
  1134                           
  1135                           
  1136                           ; 4 bytes @ 0x0
  1137  00A0                     	ds	1
  1138  00A1                     ___awdiv@sign:
  1139  00A1                     ___awmod@sign:	
  1140                           ; 1 bytes @ 0x1
  1141                           
  1142  00A1                     memset@p1:	
  1143                           ; 1 bytes @ 0x1
  1144                           
  1145                           
  1146                           ; 1 bytes @ 0x1
  1147  00A1                     	ds	1
  1148  00A2                     ?_Display_Blink:
  1149  00A2                     ?_Start_Setting_Timer:	
  1150                           ; 1 bytes @ 0x2
  1151                           
  1152  00A2                     ?_LED_BLINKING:	
  1153                           ; 1 bytes @ 0x2
  1154                           
  1155  00A2                     Display_Blink@Times_Ms:	
  1156                           ; 1 bytes @ 0x2
  1157                           
  1158  00A2                     LED_BLINKING@Time_Ms:	
  1159                           ; 2 bytes @ 0x2
  1160                           
  1161  00A2                     Start_Setting_Timer@Timer_Ms:	
  1162                           ; 2 bytes @ 0x2
  1163                           
  1164  00A2                     ___awdiv@quotient:	
  1165                           ; 2 bytes @ 0x2
  1166                           
  1167  00A2                     __Umul8_16@word_mpld:	
  1168                           ; 2 bytes @ 0x2
  1169                           
  1170                           
  1171                           ; 2 bytes @ 0x2
  1172  00A2                     	ds	2
  1173  00A4                     __Umul8_16@multiplier:
  1174  00A4                     ___xxtofl@sign:	
  1175                           ; 1 bytes @ 0x4
  1176                           
  1177  00A4                     Display_Blink@Task_Peroid:	
  1178                           ; 1 bytes @ 0x4
  1179                           
  1180  00A4                     LED_BLINKING@Task_Peroid:	
  1181                           ; 2 bytes @ 0x4
  1182                           
  1183  00A4                     Start_Setting_Timer@Peroid_Task:	
  1184                           ; 2 bytes @ 0x4
  1185                           
  1186  00A4                     ___lldiv@dividend:	
  1187                           ; 2 bytes @ 0x4
  1188                           
  1189                           
  1190                           ; 4 bytes @ 0x4
  1191  00A4                     	ds	1
  1192  00A5                     ___xxtofl@exp:
  1193                           
  1194                           ; 1 bytes @ 0x5
  1195  00A5                     	ds	1
  1196  00A6                     ??_Display_Blink:
  1197  00A6                     ??_Start_Setting_Timer:	
  1198                           ; 1 bytes @ 0x6
  1199                           
  1200  00A6                     ??_LED_BLINKING:	
  1201                           ; 1 bytes @ 0x6
  1202                           
  1203  00A6                     ___xxtofl@arg:	
  1204                           ; 1 bytes @ 0x6
  1205                           
  1206                           
  1207                           ; 4 bytes @ 0x6
  1208  00A6                     	ds	2
  1209  00A8                     ??_Display_MainFunction:
  1210  00A8                     ___lldiv@quotient:	
  1211                           ; 1 bytes @ 0x8
  1212                           
  1213                           
  1214                           ; 4 bytes @ 0x8
  1215  00A8                     	ds	2
  1216  00AA                     ?___flmul:
  1217  00AA                     ___flmul@b:	
  1218                           ; 4 bytes @ 0xA
  1219                           
  1220                           
  1221                           ; 4 bytes @ 0xA
  1222  00AA                     	ds	2
  1223  00AC                     ___lldiv@counter:
  1224                           
  1225                           ; 1 bytes @ 0xC
  1226  00AC                     	ds	1
  1227  00AD                     ?_Average_Value:
  1228  00AD                     Average_Value@Avrage_Values:	
  1229                           ; 1 bytes @ 0xD
  1230                           
  1231                           
  1232                           ; 1 bytes @ 0xD
  1233  00AD                     	ds	1
  1234  00AE                     ??_Average_Value:
  1235  00AE                     ___flmul@a:	
  1236                           ; 1 bytes @ 0xE
  1237                           
  1238                           
  1239                           ; 4 bytes @ 0xE
  1240  00AE                     	ds	4
  1241  00B2                     ??___flmul:
  1242                           
  1243                           ; 1 bytes @ 0x12
  1244  00B2                     	ds	1
  1245  00B3                     Average_Value@Value:
  1246                           
  1247                           ; 1 bytes @ 0x13
  1248  00B3                     	ds	1
  1249  00B4                     Average_Value@index:
  1250                           
  1251                           ; 1 bytes @ 0x14
  1252  00B4                     	ds	3
  1253  00B7                     ___flmul@sign:
  1254                           
  1255                           ; 1 bytes @ 0x17
  1256  00B7                     	ds	1
  1257  00B8                     ___flmul@aexp:
  1258                           
  1259                           ; 1 bytes @ 0x18
  1260  00B8                     	ds	1
  1261  00B9                     ___flmul@grs:
  1262                           
  1263                           ; 4 bytes @ 0x19
  1264  00B9                     	ds	4
  1265  00BD                     ___flmul@bexp:
  1266                           
  1267                           ; 1 bytes @ 0x1D
  1268  00BD                     	ds	1
  1269  00BE                     ___flmul@prod:
  1270                           
  1271                           ; 4 bytes @ 0x1E
  1272  00BE                     	ds	4
  1273  00C2                     ___flmul@temp:
  1274                           
  1275                           ; 2 bytes @ 0x22
  1276  00C2                     	ds	2
  1277  00C4                     ?___fltol:
  1278  00C4                     ___fltol@f1:	
  1279                           ; 4 bytes @ 0x24
  1280                           
  1281                           
  1282                           ; 4 bytes @ 0x24
  1283  00C4                     	ds	4
  1284  00C8                     ??___fltol:
  1285                           
  1286                           ; 1 bytes @ 0x28
  1287  00C8                     	ds	4
  1288  00CC                     ___fltol@sign1:
  1289                           
  1290                           ; 1 bytes @ 0x2C
  1291  00CC                     	ds	1
  1292  00CD                     ___fltol@exp1:
  1293                           
  1294                           ; 1 bytes @ 0x2D
  1295  00CD                     	ds	1
  1296  00CE                     ??_Temperature_Calc:
  1297                           
  1298                           ; 1 bytes @ 0x2E
  1299  00CE                     	ds	4
  1300  00D2                     Temperature_Calc@ADC_VALUE:
  1301                           
  1302                           ; 1 bytes @ 0x32
  1303  00D2                     	ds	1
  1304  00D3                     ADC_Value_Ready_CallBack@ADC_Value:
  1305                           
  1306                           ; 2 bytes @ 0x33
  1307  00D3                     	ds	2
  1308  00D5                     Scheduler_Start@IntityIndex:
  1309                           
  1310                           ; 1 bytes @ 0x35
  1311  00D5                     	ds	1
  1312                           
  1313                           	psect	cstackCOMMON
  1314  0070                     __pcstackCOMMON:
  1315  0070                     ?_ADC_Value_Ready_CallBack:
  1316  0070                     ?_Temperature_Calc:	
  1317                           ; 1 bytes @ 0x0
  1318                           
  1319  0070                     ?_GPIO_Init:	
  1320                           ; 1 bytes @ 0x0
  1321                           
  1322  0070                     ?_On_Off_Init:	
  1323                           ; 1 bytes @ 0x0
  1324                           
  1325  0070                     ?_Display_Init:	
  1326                           ; 1 bytes @ 0x0
  1327                           
  1328  0070                     ?_Elements_Init:	
  1329                           ; 1 bytes @ 0x0
  1330                           
  1331  0070                     ?_Mode_Init:	
  1332                           ; 1 bytes @ 0x0
  1333                           
  1334  0070                     ?_Scheduler_Init:	
  1335                           ; 1 bytes @ 0x0
  1336                           
  1337  0070                     ?_Timer0_Init:	
  1338                           ; 1 bytes @ 0x0
  1339                           
  1340  0070                     ?_Scheduler_Start:	
  1341                           ; 1 bytes @ 0x0
  1342                           
  1343  0070                     ?_Timer0_CallBack:	
  1344                           ; 1 bytes @ 0x0
  1345                           
  1346  0070                     ?_Scheduler_Task1:	
  1347                           ; 1 bytes @ 0x0
  1348                           
  1349  0070                     ?_Scheduler_Task2:	
  1350                           ; 1 bytes @ 0x0
  1351                           
  1352  0070                     ?_Scheduler_Task3:	
  1353                           ; 1 bytes @ 0x0
  1354                           
  1355  0070                     ?_Mode_MainFunction:	
  1356                           ; 1 bytes @ 0x0
  1357                           
  1358  0070                     ?_ADC_Init:	
  1359                           ; 1 bytes @ 0x0
  1360                           
  1361  0070                     ?_ADC_Start_Conv:	
  1362                           ; 1 bytes @ 0x0
  1363                           
  1364  0070                     ?_ADC_Conv_MainFunction:	
  1365                           ; 1 bytes @ 0x0
  1366                           
  1367  0070                     ?_main:	
  1368                           ; 1 bytes @ 0x0
  1369                           
  1370  0070                     ?_EXTI_On_Off_CallBack:	
  1371                           ; 1 bytes @ 0x0
  1372                           
  1373  0070                     ??_EXTI_On_Off_CallBack:	
  1374                           ; 1 bytes @ 0x0
  1375                           
  1376  0070                     ?_Read_UP_DOWN_BUTTONS:	
  1377                           ; 1 bytes @ 0x0
  1378                           
  1379  0070                     ?_Display_MainFunction:	
  1380                           ; 1 bytes @ 0x0
  1381                           
  1382  0070                     ?_LED_MainFunction:	
  1383                           ; 1 bytes @ 0x0
  1384                           
  1385  0070                     ?_Elements_MainFunction:	
  1386                           ; 1 bytes @ 0x0
  1387                           
  1388  0070                     ?_myISR:	
  1389                           ; 1 bytes @ 0x0
  1390                           
  1391  0070                     ?i1___bmul:	
  1392                           ; 1 bytes @ 0x0
  1393                           
  1394  0070                     i1___bmul@multiplicand:	
  1395                           ; 1 bytes @ 0x0
  1396                           
  1397                           
  1398                           ; 1 bytes @ 0x0
  1399  0070                     	ds	1
  1400  0071                     ??i1___bmul:
  1401  0071                     i1___bmul@product:	
  1402                           ; 1 bytes @ 0x1
  1403                           
  1404                           
  1405                           ; 1 bytes @ 0x1
  1406  0071                     	ds	1
  1407  0072                     i1___bmul@multiplier:
  1408                           
  1409                           ; 1 bytes @ 0x2
  1410  0072                     	ds	1
  1411  0073                     ?i1___lldiv:
  1412  0073                     i1___lldiv@divisor:	
  1413                           ; 4 bytes @ 0x3
  1414                           
  1415                           
  1416                           ; 4 bytes @ 0x3
  1417  0073                     	ds	4
  1418  0077                     i1___lldiv@dividend:
  1419                           
  1420                           ; 4 bytes @ 0x7
  1421  0077                     	ds	4
  1422  007B                     ??i1___lldiv:
  1423                           
  1424                           ; 1 bytes @ 0xB
  1425  007B                     	ds	1
  1426  007C                     ??___llmod:
  1427                           
  1428                           ; 1 bytes @ 0xC
  1429  007C                     	ds	1
  1430  007D                     ___llmod@counter:
  1431                           
  1432                           ; 1 bytes @ 0xD
  1433  007D                     	ds	1
  1434  007E                     ??_Timer0_CallBack:
  1435  007E                     ??_Scheduler_ActivateTask:	
  1436                           ; 1 bytes @ 0xE
  1437                           
  1438                           
  1439                           	psect	cstackBANK0
  1440  0020                     __pcstackBANK0:	
  1441                           ; 1 bytes @ 0xE
  1442                           
  1443  0020                     i1___lldiv@quotient:
  1444                           
  1445                           ; 4 bytes @ 0x0
  1446  0020                     	ds	4
  1447  0024                     i1___lldiv@counter:
  1448                           
  1449                           ; 1 bytes @ 0x4
  1450  0024                     	ds	1
  1451  0025                     ?___llmod:
  1452  0025                     ___llmod@divisor:	
  1453                           ; 4 bytes @ 0x5
  1454                           
  1455                           
  1456                           ; 4 bytes @ 0x5
  1457  0025                     	ds	4
  1458  0029                     ___llmod@dividend:
  1459                           
  1460                           ; 4 bytes @ 0x9
  1461  0029                     	ds	4
  1462  002D                     ?_Scheduler_ActivateTask:
  1463  002D                     Scheduler_ActivateTask@SystemTick:	
  1464                           ; 1 bytes @ 0xD
  1465                           
  1466                           
  1467                           ; 4 bytes @ 0xD
  1468  002D                     	ds	4
  1469  0031                     Scheduler_ActivateTask@SystemTick_Loc:
  1470                           
  1471                           ; 4 bytes @ 0x11
  1472  0031                     	ds	4
  1473  0035                     Scheduler_ActivateTask@IntityIndex:
  1474                           
  1475                           ; 1 bytes @ 0x15
  1476  0035                     	ds	1
  1477  0036                     ??_myISR:
  1478                           
  1479                           ; 1 bytes @ 0x16
  1480  0036                     	ds	4
  1481  003A                     ??_GPIO_Init:
  1482  003A                     ??_On_Off_Init:	
  1483                           ; 1 bytes @ 0x1A
  1484                           
  1485  003A                     ??_Display_Init:	
  1486                           ; 1 bytes @ 0x1A
  1487                           
  1488  003A                     ??_Elements_Init:	
  1489                           ; 1 bytes @ 0x1A
  1490                           
  1491  003A                     ??_Mode_Init:	
  1492                           ; 1 bytes @ 0x1A
  1493                           
  1494  003A                     ??_Timer0_Init:	
  1495                           ; 1 bytes @ 0x1A
  1496                           
  1497  003A                     ?_memset:	
  1498                           ; 1 bytes @ 0x1A
  1499                           
  1500  003A                     ??_ADC_Init:	
  1501                           ; 1 bytes @ 0x1A
  1502                           
  1503  003A                     ??_ADC_Start_Conv:	
  1504                           ; 1 bytes @ 0x1A
  1505                           
  1506  003A                     ??_Read_UP_DOWN_BUTTONS:	
  1507                           ; 1 bytes @ 0x1A
  1508                           
  1509  003A                     ??_Elements_MainFunction:	
  1510                           ; 1 bytes @ 0x1A
  1511                           
  1512  003A                     ?___bmul:	
  1513                           ; 1 bytes @ 0x1A
  1514                           
  1515  003A                     ??___lldiv:	
  1516                           ; 1 bytes @ 0x1A
  1517                           
  1518  003A                     ?__Umul8_16:	
  1519                           ; 1 bytes @ 0x1A
  1520                           
  1521  003A                     ?___wmul:	
  1522                           ; 2 bytes @ 0x1A
  1523                           
  1524  003A                     ?___awdiv:	
  1525                           ; 2 bytes @ 0x1A
  1526                           
  1527  003A                     ?___awmod:	
  1528                           ; 2 bytes @ 0x1A
  1529                           
  1530  003A                     ?___lwmod:	
  1531                           ; 2 bytes @ 0x1A
  1532                           
  1533  003A                     ?___xxtofl:	
  1534                           ; 2 bytes @ 0x1A
  1535                           
  1536  003A                     ___bmul@multiplicand:	
  1537                           ; 4 bytes @ 0x1A
  1538                           
  1539  003A                     __Umul8_16@multiplicand:	
  1540                           ; 1 bytes @ 0x1A
  1541                           
  1542  003A                     ___wmul@multiplier:	
  1543                           ; 1 bytes @ 0x1A
  1544                           
  1545  003A                     ___awdiv@divisor:	
  1546                           ; 2 bytes @ 0x1A
  1547                           
  1548  003A                     ___awmod@divisor:	
  1549                           ; 2 bytes @ 0x1A
  1550                           
  1551  003A                     ___lwmod@divisor:	
  1552                           ; 2 bytes @ 0x1A
  1553                           
  1554  003A                     memset@c:	
  1555                           ; 2 bytes @ 0x1A
  1556                           
  1557  003A                     ___xxtofl@val:	
  1558                           ; 2 bytes @ 0x1A
  1559                           
  1560                           
  1561                           ; 4 bytes @ 0x1A
  1562  003A                     	ds	1
  1563  003B                     ??___bmul:
  1564  003B                     ___bmul@product:	
  1565                           ; 1 bytes @ 0x1B
  1566                           
  1567                           
  1568                           ; 1 bytes @ 0x1B
  1569  003B                     	ds	1
  1570  003C                     ??__Umul8_16:
  1571  003C                     ___bmul@multiplier:	
  1572                           ; 1 bytes @ 0x1C
  1573                           
  1574  003C                     ___wmul@multiplicand:	
  1575                           ; 1 bytes @ 0x1C
  1576                           
  1577  003C                     ___awdiv@dividend:	
  1578                           ; 2 bytes @ 0x1C
  1579                           
  1580  003C                     ___awmod@dividend:	
  1581                           ; 2 bytes @ 0x1C
  1582                           
  1583  003C                     ___lwmod@dividend:	
  1584                           ; 2 bytes @ 0x1C
  1585                           
  1586  003C                     memset@n:	
  1587                           ; 2 bytes @ 0x1C
  1588                           
  1589                           
  1590                           ; 2 bytes @ 0x1C
  1591  003C                     	ds	2
  1592  003E                     ??_Scheduler_Init:
  1593  003E                     ??_memset:	
  1594                           ; 1 bytes @ 0x1E
  1595                           
  1596  003E                     ??_Scheduler_Task1:	
  1597                           ; 1 bytes @ 0x1E
  1598                           
  1599  003E                     ??_Mode_MainFunction:	
  1600                           ; 1 bytes @ 0x1E
  1601                           
  1602  003E                     ??_LED_MainFunction:	
  1603                           ; 1 bytes @ 0x1E
  1604                           
  1605  003E                     ??___wmul:	
  1606                           ; 1 bytes @ 0x1E
  1607                           
  1608  003E                     ??___awdiv:	
  1609                           ; 1 bytes @ 0x1E
  1610                           
  1611  003E                     ??___awmod:	
  1612                           ; 1 bytes @ 0x1E
  1613                           
  1614  003E                     ??___lwmod:	
  1615                           ; 1 bytes @ 0x1E
  1616                           
  1617  003E                     ___lwmod@counter:	
  1618                           ; 1 bytes @ 0x1E
  1619                           
  1620                           
  1621                           ; 1 bytes @ 0x1E
  1622  003E                     	ds	1
  1623  003F                     ??_ADC_Value_Ready_CallBack:
  1624  003F                     ??_Scheduler_Start:	
  1625                           ; 1 bytes @ 0x1F
  1626                           
  1627  003F                     ??_Scheduler_Task2:	
  1628                           ; 1 bytes @ 0x1F
  1629                           
  1630  003F                     ??_Scheduler_Task3:	
  1631                           ; 1 bytes @ 0x1F
  1632                           
  1633  003F                     ??_ADC_Conv_MainFunction:	
  1634                           ; 1 bytes @ 0x1F
  1635                           
  1636  003F                     ??_main:	
  1637                           ; 1 bytes @ 0x1F
  1638                           
  1639                           
  1640                           	psect	maintext
  1641  0A8E                     __pmaintext:	
  1642                           ; 1 bytes @ 0x1F
  1643 ;;
  1644 ;;Main: autosize = 0, tempsize = 0, incstack = 0, save=0
  1645 ;;
  1646 ;; *************** function _main *****************
  1647 ;; Defined at:
  1648 ;;		line 39 in file "main.c"
  1649 ;; Parameters:    Size  Location     Type
  1650 ;;		None
  1651 ;; Auto vars:     Size  Location     Type
  1652 ;;		None
  1653 ;; Return value:  Size  Location     Type
  1654 ;;                  1    wreg      void 
  1655 ;; Registers used:
  1656 ;;		wreg, fsr0l, fsr0h, status,2, status,0, btemp+1, pclath, cstack
  1657 ;; Tracked objects:
  1658 ;;		On entry : B00/0
  1659 ;;		On exit  : 0/0
  1660 ;;		Unchanged: 0/0
  1661 ;; Data sizes:     COMMON   BANK0   BANK1   BANK3   BANK2
  1662 ;;      Params:         0       0       0       0       0
  1663 ;;      Locals:         0       0       0       0       0
  1664 ;;      Temps:          0       0       0       0       0
  1665 ;;      Totals:         0       0       0       0       0
  1666 ;;Total ram usage:        0 bytes
  1667 ;; Hardware stack levels required when called:   11
  1668 ;; This function calls:
  1669 ;;		_ADC_Init
  1670 ;;		_ADC_Start_Conv
  1671 ;;		_Display_Init
  1672 ;;		_Elements_Init
  1673 ;;		_GPIO_Init
  1674 ;;		_Mode_Init
  1675 ;;		_On_Off_Init
  1676 ;;		_Scheduler_Init
  1677 ;;		_Scheduler_Start
  1678 ;;		_Timer0_Init
  1679 ;; This function is called by:
  1680 ;;		Startup code after reset
  1681 ;; This function uses a non-reentrant model
  1682 ;;
  1683                           
  1684                           
  1685                           ;psect for function _main
  1686  0A8E                     _main:
  1687  0A8E                     l3318:	
  1688                           ;incstack = 0
  1689 ;; hardware stack exceeded
  1690                           ; Regs used in _main: [wreg-fsr0h+status,2+status,0+btemp+1+pclath+cstack]
  1691                           
  1692                           
  1693                           ;main.c: 41:   GPIO_Init();
  1694  0A8E  120A  158A  2223  120A  158A  	fcall	_GPIO_Init
  1695  0A93                     l3320:
  1696                           
  1697                           ;main.c: 42:   ADC_Init();
  1698  0A93  120A  158A  21CA  120A  158A  	fcall	_ADC_Init
  1699  0A98                     l3322:
  1700                           
  1701                           ;main.c: 43:   On_Off_Init();
  1702  0A98  120A  158A  20F9  120A  158A  	fcall	_On_Off_Init
  1703                           
  1704                           ;main.c: 44:   Display_Init();
  1705  0A9D  120A  158A  213C  120A  158A  	fcall	_Display_Init
  1706                           
  1707                           ;main.c: 45:   Elements_Init();
  1708  0AA2  120A  158A  2149  120A  158A  	fcall	_Elements_Init
  1709                           
  1710                           ;main.c: 46:   Mode_Init();
  1711  0AA7  120A  158A  2123  120A  158A  	fcall	_Mode_Init
  1712  0AAC                     l3324:
  1713                           
  1714                           ;main.c: 47:   ADC_Start_Conv();
  1715  0AAC  120A  158A  212F  120A  158A  	fcall	_ADC_Start_Conv
  1716  0AB1                     l3326:
  1717                           
  1718                           ;main.c: 48:   Scheduler_Init();
  1719  0AB1  120A  158A  2167  120A  158A  	fcall	_Scheduler_Init
  1720  0AB6                     l3328:
  1721                           
  1722                           ;main.c: 49:   Timer0_Init();
  1723  0AB6  120A  158A  2177  120A  158A  	fcall	_Timer0_Init
  1724  0ABB                     l3330:
  1725                           
  1726                           ;main.c: 50:   Scheduler_Start();
  1727  0ABB  120A  158A  2332  120A  158A  	fcall	_Scheduler_Start
  1728  0AC0                     l68:	
  1729                           ;main.c: 51:     while(1)
  1730                           
  1731  0AC0                     l69:	
  1732                           ;main.c: 52:     {}
  1733                           
  1734  0AC0  2AC0               	goto	l68
  1735  0AC1  120A  118A  2812   	ljmp	start
  1736  0AC4                     __end_of_main:
  1737                           
  1738                           	psect	text1
  1739  0977                     __ptext1:	
  1740 ;; *************** function _Timer0_Init *****************
  1741 ;; Defined at:
  1742 ;;		line 10 in file "Timer/Timer.c"
  1743 ;; Parameters:    Size  Location     Type
  1744 ;;		None
  1745 ;; Auto vars:     Size  Location     Type
  1746 ;;		None
  1747 ;; Return value:  Size  Location     Type
  1748 ;;                  1    wreg      void 
  1749 ;; Registers used:
  1750 ;;		wreg
  1751 ;; Tracked objects:
  1752 ;;		On entry : 0/0
  1753 ;;		On exit  : 0/0
  1754 ;;		Unchanged: 0/0
  1755 ;; Data sizes:     COMMON   BANK0   BANK1   BANK3   BANK2
  1756 ;;      Params:         0       0       0       0       0
  1757 ;;      Locals:         0       0       0       0       0
  1758 ;;      Temps:          0       0       0       0       0
  1759 ;;      Totals:         0       0       0       0       0
  1760 ;;Total ram usage:        0 bytes
  1761 ;; Hardware stack levels used:    1
  1762 ;; Hardware stack levels required when called:    4
  1763 ;; This function calls:
  1764 ;;		Nothing
  1765 ;; This function is called by:
  1766 ;;		_main
  1767 ;; This function uses a non-reentrant model
  1768 ;;
  1769                           
  1770                           
  1771                           ;psect for function _Timer0_Init
  1772  0977                     _Timer0_Init:
  1773  0977                     l2606:	
  1774                           ;incstack = 0
  1775                           ; Regs used in _Timer0_Init: [wreg]
  1776                           
  1777                           
  1778                           ;Timer/Timer.c: 13:      OPTION_REGbits.T0CS=0;
  1779  0977  1683               	bsf	3,5	;RP0=1, select bank1
  1780  0978  1303               	bcf	3,6	;RP1=0, select bank1
  1781  0979  1281               	bcf	1,5	;volatile
  1782                           
  1783                           ;Timer/Timer.c: 14:      OPTION_REGbits.PSA=0;
  1784  097A  1181               	bcf	1,3	;volatile
  1785                           
  1786                           ;Timer/Timer.c: 17:      OPTION_REGbits.PS0=1;
  1787  097B  1401               	bsf	1,0	;volatile
  1788                           
  1789                           ;Timer/Timer.c: 18:      OPTION_REGbits.PS1=1;
  1790  097C  1481               	bsf	1,1	;volatile
  1791                           
  1792                           ;Timer/Timer.c: 19:      OPTION_REGbits.PS2=1;
  1793  097D  1501               	bsf	1,2	;volatile
  1794                           
  1795                           ;Timer/Timer.c: 22:         INTCONbits.TMR0IE=1;
  1796  097E  168B               	bsf	11,5	;volatile
  1797                           
  1798                           ;Timer/Timer.c: 23:         INTCONbits.PEIE=1;
  1799  097F  170B               	bsf	11,6	;volatile
  1800                           
  1801                           ;Timer/Timer.c: 24:         INTCONbits.GIE=1;
  1802  0980  178B               	bsf	11,7	;volatile
  1803  0981                     l2608:
  1804                           
  1805                           ;Timer/Timer.c: 25:      TMR0=100;
  1806  0981  3064               	movlw	100
  1807  0982  1283               	bcf	3,5	;RP0=0, select bank0
  1808  0983  1303               	bcf	3,6	;RP1=0, select bank0
  1809  0984  0081               	movwf	1	;volatile
  1810  0985                     l2610:
  1811                           
  1812                           ;Timer/Timer.c: 26:         INTCONbits.TMR0IF=0;
  1813  0985  110B               	bcf	11,2	;volatile
  1814  0986                     l366:
  1815  0986  0008               	return
  1816  0987                     __end_of_Timer0_Init:
  1817                           
  1818                           	psect	text2
  1819  0B32                     __ptext2:	
  1820 ;; *************** function _Scheduler_Start *****************
  1821 ;; Defined at:
  1822 ;;		line 13 in file "Scheduler/Scheduler.c"
  1823 ;; Parameters:    Size  Location     Type
  1824 ;;		None
  1825 ;; Auto vars:     Size  Location     Type
  1826 ;;  IntityIndex     1   53[BANK1 ] unsigned char 
  1827 ;; Return value:  Size  Location     Type
  1828 ;;                  1    wreg      void 
  1829 ;; Registers used:
  1830 ;;		wreg, fsr0l, fsr0h, status,2, status,0, btemp+1, pclath, cstack
  1831 ;; Tracked objects:
  1832 ;;		On entry : 0/0
  1833 ;;		On exit  : 0/0
  1834 ;;		Unchanged: 0/0
  1835 ;; Data sizes:     COMMON   BANK0   BANK1   BANK3   BANK2
  1836 ;;      Params:         0       0       0       0       0
  1837 ;;      Locals:         0       0       1       0       0
  1838 ;;      Temps:          0       0       0       0       0
  1839 ;;      Totals:         0       0       1       0       0
  1840 ;;Total ram usage:        1 bytes
  1841 ;; Hardware stack levels used:    1
  1842 ;; Hardware stack levels required when called:   10
  1843 ;; This function calls:
  1844 ;;		_Scheduler_Task1
  1845 ;;		_Scheduler_Task2
  1846 ;;		_Scheduler_Task3
  1847 ;;		___bmul
  1848 ;; This function is called by:
  1849 ;;		_main
  1850 ;; This function uses a non-reentrant model
  1851 ;;
  1852                           
  1853                           
  1854                           ;psect for function _Scheduler_Start
  1855  0B32                     _Scheduler_Start:
  1856  0B32                     l289:	
  1857                           ;incstack = 0
  1858 ;; hardware stack exceeded
  1859                           ; Regs used in _Scheduler_Start: [wreg-fsr0h+status,2+status,0+btemp+1+pclath+cstack]
  1860                           ;Scheduler/Scheduler.c: 15:   while(1)
  1861                           
  1862  0B32                     l3298:
  1863                           
  1864                           ;Scheduler/Scheduler.c: 16:   {;Scheduler/Scheduler.c: 17:  for( uint8_t IntityIndex = 0
      +                           ; IntityIndex < ( 3U ) ; IntityIndex++ )
  1865  0B32  1683               	bsf	3,5	;RP0=1, select bank1
  1866  0B33  1303               	bcf	3,6	;RP1=0, select bank1
  1867  0B34  01D5               	clrf	Scheduler_Start@IntityIndex^(0+128)
  1868  0B35                     l3304:
  1869                           
  1870                           ;Scheduler/Scheduler.c: 18:  {;Scheduler/Scheduler.c: 19:   if( Scheduler_ActivationFlag
      +                          s[IntityIndex] == 1 )
  1871  0B35  0855               	movf	Scheduler_Start@IntityIndex^(0+128),w
  1872  0B36  3ED9               	addlw	(low (_Scheduler_ActivationFlags| 0))& (0+255)
  1873  0B37  0084               	movwf	4
  1874  0B38  1383               	bcf	3,7	;select IRP bank1
  1875  0B39  0300               	decf	0,w
  1876  0B3A  1D03               	btfss	3,2
  1877  0B3B  2B3D               	goto	u4951
  1878  0B3C  2B3E               	goto	u4950
  1879  0B3D                     u4951:
  1880  0B3D  2B5F               	goto	l3310
  1881  0B3E                     u4950:
  1882  0B3E                     l3306:
  1883                           
  1884                           ;Scheduler/Scheduler.c: 20:   {;Scheduler/Scheduler.c: 21:    (*Scheduler_Intitys[Intity
      +                          Index].fuction_ptr)();
  1885  0B3E  3005               	movlw	5
  1886  0B3F  00FF               	movwf	btemp+1
  1887  0B40  087F               	movf	btemp+1,w
  1888  0B41  1283               	bcf	3,5	;RP0=0, select bank0
  1889  0B42  1303               	bcf	3,6	;RP1=0, select bank0
  1890  0B43  00BA               	movwf	___bmul@multiplicand
  1891  0B44  1683               	bsf	3,5	;RP0=1, select bank1
  1892  0B45  1303               	bcf	3,6	;RP1=0, select bank1
  1893  0B46  0855               	movf	Scheduler_Start@IntityIndex^(0+128),w
  1894  0B47  120A  158A  21B3  120A  158A  	fcall	___bmul
  1895  0B4C  3E01               	addlw	low ((_Scheduler_Intitys-__stringbase)| (0+32768))
  1896  0B4D  0084               	movwf	4
  1897  0B4E  120A  158A  2000  120A  158A  	fcall	stringdir
  1898  0B53  120A  118A  204B  120A  158A  	fcall	fptable
  1899  0B58                     l3308:
  1900                           
  1901                           ;Scheduler/Scheduler.c: 22:    Scheduler_ActivationFlags[IntityIndex] = 0 ;
  1902  0B58  1683               	bsf	3,5	;RP0=1, select bank1
  1903  0B59  1303               	bcf	3,6	;RP1=0, select bank1
  1904  0B5A  0855               	movf	Scheduler_Start@IntityIndex^(0+128),w
  1905  0B5B  3ED9               	addlw	(low (_Scheduler_ActivationFlags| 0))& (0+255)
  1906  0B5C  0084               	movwf	4
  1907  0B5D  1383               	bcf	3,7	;select IRP bank1
  1908  0B5E  0180               	clrf	0
  1909  0B5F                     l3310:
  1910                           
  1911                           ;Scheduler/Scheduler.c: 24:  }
  1912  0B5F  3001               	movlw	1
  1913  0B60  00FF               	movwf	btemp+1
  1914  0B61  087F               	movf	btemp+1,w
  1915  0B62  07D5               	addwf	Scheduler_Start@IntityIndex^(0+128),f
  1916  0B63                     l3312:
  1917  0B63  3003               	movlw	3
  1918  0B64  0255               	subwf	Scheduler_Start@IntityIndex^(0+128),w
  1919  0B65  1C03               	skipc
  1920  0B66  2B68               	goto	u4961
  1921  0B67  2B69               	goto	u4960
  1922  0B68                     u4961:
  1923  0B68  2B35               	goto	l3304
  1924  0B69                     u4960:
  1925  0B69  2B32               	goto	l289
  1926  0B6A  0008               	return
  1927  0B6B                     __end_of_Scheduler_Start:
  1928                           
  1929                           	psect	text3
  1930  09B3                     __ptext3:	
  1931 ;; *************** function ___bmul *****************
  1932 ;; Defined at:
  1933 ;;		line 4 in file "C:\Program Files (x86)\Microchip\xc8\v2.20\pic\sources\c90\common\Umul8.c"
  1934 ;; Parameters:    Size  Location     Type
  1935 ;;  multiplier      1    wreg     unsigned char 
  1936 ;;  multiplicand    1   26[BANK0 ] unsigned char 
  1937 ;; Auto vars:     Size  Location     Type
  1938 ;;  multiplier      1   28[BANK0 ] unsigned char 
  1939 ;;  product         1   27[BANK0 ] unsigned char 
  1940 ;; Return value:  Size  Location     Type
  1941 ;;                  1    wreg      unsigned char 
  1942 ;; Registers used:
  1943 ;;		wreg, status,2, status,0, btemp+1
  1944 ;; Tracked objects:
  1945 ;;		On entry : 0/0
  1946 ;;		On exit  : 0/0
  1947 ;;		Unchanged: 0/0
  1948 ;; Data sizes:     COMMON   BANK0   BANK1   BANK3   BANK2
  1949 ;;      Params:         0       1       0       0       0
  1950 ;;      Locals:         0       2       0       0       0
  1951 ;;      Temps:          0       0       0       0       0
  1952 ;;      Totals:         0       3       0       0       0
  1953 ;;Total ram usage:        3 bytes
  1954 ;; Hardware stack levels used:    1
  1955 ;; Hardware stack levels required when called:    4
  1956 ;; This function calls:
  1957 ;;		Nothing
  1958 ;; This function is called by:
  1959 ;;		_Scheduler_Start
  1960 ;;		_Scheduler_ActivateTask
  1961 ;; This function uses a non-reentrant model
  1962 ;;
  1963                           
  1964                           
  1965                           ;psect for function ___bmul
  1966  09B3                     ___bmul:
  1967                           
  1968                           ;incstack = 0
  1969                           ; Regs used in ___bmul: [wreg+status,2+status,0+btemp+1]
  1970                           ;___bmul@multiplier stored from wreg
  1971  09B3  1283               	bcf	3,5	;RP0=0, select bank0
  1972  09B4  1303               	bcf	3,6	;RP1=0, select bank0
  1973  09B5  00BC               	movwf	___bmul@multiplier
  1974  09B6                     l2542:
  1975  09B6  01BB               	clrf	___bmul@product
  1976  09B7                     l2544:
  1977  09B7  1C3C               	btfss	___bmul@multiplier,0
  1978  09B8  29BA               	goto	u3431
  1979  09B9  29BB               	goto	u3430
  1980  09BA                     u3431:
  1981  09BA  29BF               	goto	l2548
  1982  09BB                     u3430:
  1983  09BB                     l2546:
  1984  09BB  083A               	movf	___bmul@multiplicand,w
  1985  09BC  00FF               	movwf	btemp+1
  1986  09BD  087F               	movf	btemp+1,w
  1987  09BE  07BB               	addwf	___bmul@product,f
  1988  09BF                     l2548:
  1989  09BF  1003               	clrc
  1990  09C0  0DBA               	rlf	___bmul@multiplicand,f
  1991  09C1                     l2550:
  1992  09C1  1003               	clrc
  1993  09C2  0CBC               	rrf	___bmul@multiplier,f
  1994  09C3                     l2552:
  1995  09C3  083C               	movf	___bmul@multiplier,w
  1996  09C4  1D03               	btfss	3,2
  1997  09C5  29C7               	goto	u3441
  1998  09C6  29C8               	goto	u3440
  1999  09C7                     u3441:
  2000  09C7  29B7               	goto	l2544
  2001  09C8                     u3440:
  2002  09C8                     l2554:
  2003  09C8  083B               	movf	___bmul@product,w
  2004  09C9                     l506:
  2005  09C9  0008               	return
  2006  09CA                     __end_of___bmul:
  2007                           
  2008                           	psect	text4
  2009  0918                     __ptext4:	
  2010 ;; *************** function _Scheduler_Task2 *****************
  2011 ;; Defined at:
  2012 ;;		line 16 in file "Scheduler/Tasks.c"
  2013 ;; Parameters:    Size  Location     Type
  2014 ;;		None
  2015 ;; Auto vars:     Size  Location     Type
  2016 ;;		None
  2017 ;; Return value:  Size  Location     Type
  2018 ;;                  1    wreg      void 
  2019 ;; Registers used:
  2020 ;;		wreg, fsr0l, fsr0h, status,2, status,0, btemp+1, pclath, cstack
  2021 ;; Tracked objects:
  2022 ;;		On entry : 0/0
  2023 ;;		On exit  : 0/0
  2024 ;;		Unchanged: 0/0
  2025 ;; Data sizes:     COMMON   BANK0   BANK1   BANK3   BANK2
  2026 ;;      Params:         0       0       0       0       0
  2027 ;;      Locals:         0       0       0       0       0
  2028 ;;      Temps:          0       0       0       0       0
  2029 ;;      Totals:         0       0       0       0       0
  2030 ;;Total ram usage:        0 bytes
  2031 ;; Hardware stack levels used:    1
  2032 ;; Hardware stack levels required when called:    9
  2033 ;; This function calls:
  2034 ;;		_ADC_Conv_MainFunction
  2035 ;;		_LED_MainFunction
  2036 ;; This function is called by:
  2037 ;;		_Scheduler_Start
  2038 ;; This function uses a non-reentrant model
  2039 ;;
  2040                           
  2041                           
  2042                           ;psect for function _Scheduler_Task2
  2043  0918                     _Scheduler_Task2:
  2044  0918                     l3290:	
  2045                           ;incstack = 0
  2046 ;; hardware stack exceeded
  2047                           ; Regs used in _Scheduler_Task2: [wreg-fsr0h+status,2+status,0+btemp+1+pclath+cstack]
  2048                           
  2049                           
  2050                           ;Scheduler/Tasks.c: 18:  ADC_Conv_MainFunction();
  2051  0918  120A  158A  2205  120A  158A  	fcall	_ADC_Conv_MainFunction
  2052  091D                     l3292:
  2053                           
  2054                           ;Scheduler/Tasks.c: 19:  LED_MainFunction();
  2055  091D  120A  158A  2427  120A  158A  	fcall	_LED_MainFunction
  2056  0922                     l340:
  2057  0922  0008               	return
  2058  0923                     __end_of_Scheduler_Task2:
  2059                           
  2060                           	psect	text5
  2061  08FF                     __ptext5:	
  2062 ;; *************** function _Scheduler_Task1 *****************
  2063 ;; Defined at:
  2064 ;;		line 10 in file "Scheduler/Tasks.c"
  2065 ;; Parameters:    Size  Location     Type
  2066 ;;		None
  2067 ;; Auto vars:     Size  Location     Type
  2068 ;;		None
  2069 ;; Return value:  Size  Location     Type
  2070 ;;                  1    wreg      void 
  2071 ;; Registers used:
  2072 ;;		wreg, fsr0l, fsr0h, status,2, status,0, btemp+1, pclath, cstack
  2073 ;; Tracked objects:
  2074 ;;		On entry : 0/0
  2075 ;;		On exit  : 0/0
  2076 ;;		Unchanged: 0/0
  2077 ;; Data sizes:     COMMON   BANK0   BANK1   BANK3   BANK2
  2078 ;;      Params:         0       0       0       0       0
  2079 ;;      Locals:         0       0       0       0       0
  2080 ;;      Temps:          0       0       0       0       0
  2081 ;;      Totals:         0       0       0       0       0
  2082 ;;Total ram usage:        0 bytes
  2083 ;; Hardware stack levels used:    1
  2084 ;; Hardware stack levels required when called:    7
  2085 ;; This function calls:
  2086 ;;		_Display_MainFunction
  2087 ;; This function is called by:
  2088 ;;		_Scheduler_Start
  2089 ;; This function uses a non-reentrant model
  2090 ;;
  2091                           
  2092                           
  2093                           ;psect for function _Scheduler_Task1
  2094  08FF                     _Scheduler_Task1:
  2095  08FF                     l3288:	
  2096                           ;incstack = 0
  2097 ;; hardware stack exceeded
  2098                           ; Regs used in _Scheduler_Task1: [wreg-fsr0h+status,2+status,0+btemp+1+pclath+cstack]
  2099                           
  2100                           
  2101                           ;Scheduler/Tasks.c: 12:  Display_MainFunction();
  2102  08FF  120A  118A  2415  120A  158A  	fcall	_Display_MainFunction
  2103  0904                     l337:
  2104  0904  0008               	return
  2105  0905                     __end_of_Scheduler_Task1:
  2106                           
  2107                           	psect	text6
  2108  090D                     __ptext6:	
  2109 ;; *************** function _Scheduler_Task3 *****************
  2110 ;; Defined at:
  2111 ;;		line 23 in file "Scheduler/Tasks.c"
  2112 ;; Parameters:    Size  Location     Type
  2113 ;;		None
  2114 ;; Auto vars:     Size  Location     Type
  2115 ;;		None
  2116 ;; Return value:  Size  Location     Type
  2117 ;;                  1    wreg      void 
  2118 ;; Registers used:
  2119 ;;		wreg, status,2, status,0, btemp+1, pclath, cstack
  2120 ;; Tracked objects:
  2121 ;;		On entry : 0/0
  2122 ;;		On exit  : 0/0
  2123 ;;		Unchanged: 0/0
  2124 ;; Data sizes:     COMMON   BANK0   BANK1   BANK3   BANK2
  2125 ;;      Params:         0       0       0       0       0
  2126 ;;      Locals:         0       0       0       0       0
  2127 ;;      Temps:          0       0       0       0       0
  2128 ;;      Totals:         0       0       0       0       0
  2129 ;;Total ram usage:        0 bytes
  2130 ;; Hardware stack levels used:    1
  2131 ;; Hardware stack levels required when called:    7
  2132 ;; This function calls:
  2133 ;;		_Elements_MainFunction
  2134 ;;		_Mode_MainFunction
  2135 ;; This function is called by:
  2136 ;;		_Scheduler_Start
  2137 ;; This function uses a non-reentrant model
  2138 ;;
  2139                           
  2140                           
  2141                           ;psect for function _Scheduler_Task3
  2142  090D                     _Scheduler_Task3:
  2143  090D                     l3294:	
  2144                           ;incstack = 0
  2145 ;; hardware stack exceeded
  2146                           ; Regs used in _Scheduler_Task3: [wreg+status,2+status,0+btemp+1+pclath+cstack]
  2147                           
  2148                           
  2149                           ;Scheduler/Tasks.c: 25:     Mode_MainFunction();
  2150  090D  120A  158A  2563  120A  158A  	fcall	_Mode_MainFunction
  2151                           
  2152                           ;Scheduler/Tasks.c: 26:  Elements_MainFunction();
  2153  0912  120A  158A  24BA  120A  158A  	fcall	_Elements_MainFunction
  2154  0917                     l343:
  2155  0917  0008               	return
  2156  0918                     __end_of_Scheduler_Task3:
  2157                           
  2158                           	psect	text7
  2159  0D63                     __ptext7:	
  2160 ;; *************** function _Mode_MainFunction *****************
  2161 ;; Defined at:
  2162 ;;		line 28 in file "WaterHeater_Mode/WaterHeater_Mode.c"
  2163 ;; Parameters:    Size  Location     Type
  2164 ;;		None
  2165 ;; Auto vars:     Size  Location     Type
  2166 ;;		None
  2167 ;; Return value:  Size  Location     Type
  2168 ;;                  1    wreg      void 
  2169 ;; Registers used:
  2170 ;;		wreg, status,2, status,0, btemp+1, pclath, cstack
  2171 ;; Tracked objects:
  2172 ;;		On entry : 0/0
  2173 ;;		On exit  : 0/0
  2174 ;;		Unchanged: 0/0
  2175 ;; Data sizes:     COMMON   BANK0   BANK1   BANK3   BANK2
  2176 ;;      Params:         0       0       0       0       0
  2177 ;;      Locals:         0       0       0       0       0
  2178 ;;      Temps:          0       1       0       0       0
  2179 ;;      Totals:         0       1       0       0       0
  2180 ;;Total ram usage:        1 bytes
  2181 ;; Hardware stack levels used:    1
  2182 ;; Hardware stack levels required when called:    6
  2183 ;; This function calls:
  2184 ;;		_Read_UP_DOWN_BUTTONS
  2185 ;;		_Start_Setting_Timer
  2186 ;; This function is called by:
  2187 ;;		_Scheduler_Task3
  2188 ;; This function uses a non-reentrant model
  2189 ;;
  2190                           
  2191                           
  2192                           ;psect for function _Mode_MainFunction
  2193  0D63                     _Mode_MainFunction:
  2194  0D63                     l3238:	
  2195                           ;incstack = 0
  2196 ;; hardware stack exceeded
  2197                           ; Regs used in _Mode_MainFunction: [wreg+status,2+status,0+btemp+1+pclath+cstack]
  2198                           
  2199                           
  2200                           ;WaterHeater_Mode/WaterHeater_Mode.c: 30:  Read_UP_DOWN_BUTTONS();
  2201  0D63  120A  118A  27D7  120A  158A  	fcall	_Read_UP_DOWN_BUTTONS
  2202  0D68                     l3240:
  2203                           
  2204                           ;WaterHeater_Mode/WaterHeater_Mode.c: 32:    if(Mode.Select_Mode==Setting_Mode)
  2205  0D68  3002               	movlw	2
  2206  0D69  1683               	bsf	3,5	;RP0=1, select bank1
  2207  0D6A  1303               	bcf	3,6	;RP1=0, select bank1
  2208  0D6B  0656               	xorwf	_Mode^(0+128),w
  2209  0D6C  1D03               	btfss	3,2
  2210  0D6D  2D6F               	goto	u4811
  2211  0D6E  2D70               	goto	u4810
  2212  0D6F                     u4811:
  2213  0D6F  2DC7               	goto	l389
  2214  0D70                     u4810:
  2215  0D70                     l3242:
  2216                           
  2217                           ;WaterHeater_Mode/WaterHeater_Mode.c: 33:    {;WaterHeater_Mode/WaterHeater_Mode.c: 35: 
      +                              Start_Setting_Timer(5000,200);
  2218  0D70  3088               	movlw	136
  2219  0D71  00A2               	movwf	Start_Setting_Timer@Timer_Ms^(0+128)
  2220  0D72  3013               	movlw	19
  2221  0D73  00A3               	movwf	(Start_Setting_Timer@Timer_Ms^(0+128)+1)
  2222  0D74  30C8               	movlw	200
  2223  0D75  00A4               	movwf	Start_Setting_Timer@Peroid_Task^(0+128)
  2224  0D76  3000               	movlw	0
  2225  0D77  00A5               	movwf	(Start_Setting_Timer@Peroid_Task^(0+128)+1)
  2226  0D78  120A  158A  23E7  120A  158A  	fcall	_Start_Setting_Timer
  2227  0D7D                     l3244:
  2228                           
  2229                           ;WaterHeater_Mode/WaterHeater_Mode.c: 36:     if((((PORTB>>2)&1)==0) &&(((PORTB>>1)&1)==
      +                          1) && Temperature.Set_Temp !=(75U))
  2230  0D7D  1283               	bcf	3,5	;RP0=0, select bank0
  2231  0D7E  1303               	bcf	3,6	;RP1=0, select bank0
  2232  0D7F  0806               	movf	6,w	;volatile
  2233  0D80  00BE               	movwf	??_Mode_MainFunction
  2234  0D81  3002               	movlw	2
  2235  0D82                     u4825:
  2236  0D82  1003               	clrc
  2237  0D83  0CBE               	rrf	??_Mode_MainFunction,f
  2238  0D84  3EFF               	addlw	-1
  2239  0D85  1D03               	skipz
  2240  0D86  2D82               	goto	u4825
  2241  0D87  183E               	btfsc	??_Mode_MainFunction,0
  2242  0D88  2D8A               	goto	u4831
  2243  0D89  2D8B               	goto	u4830
  2244  0D8A                     u4831:
  2245  0D8A  2DA6               	goto	l3254
  2246  0D8B                     u4830:
  2247  0D8B                     l3246:
  2248  0D8B  0806               	movf	6,w	;volatile
  2249  0D8C  00BE               	movwf	??_Mode_MainFunction
  2250  0D8D  3001               	movlw	1
  2251  0D8E                     u4845:
  2252  0D8E  1003               	clrc
  2253  0D8F  0CBE               	rrf	??_Mode_MainFunction,f
  2254  0D90  3EFF               	addlw	-1
  2255  0D91  1D03               	skipz
  2256  0D92  2D8E               	goto	u4845
  2257  0D93  1C3E               	btfss	??_Mode_MainFunction,0
  2258  0D94  2D96               	goto	u4851
  2259  0D95  2D97               	goto	u4850
  2260  0D96                     u4851:
  2261  0D96  2DA6               	goto	l3254
  2262  0D97                     u4850:
  2263  0D97                     l3248:
  2264  0D97  304B               	movlw	75
  2265  0D98  064F               	xorwf	_Temperature+2,w
  2266  0D99  1903               	btfsc	3,2
  2267  0D9A  2D9C               	goto	u4861
  2268  0D9B  2D9D               	goto	u4860
  2269  0D9C                     u4861:
  2270  0D9C  2DA6               	goto	l3254
  2271  0D9D                     u4860:
  2272  0D9D                     l3250:
  2273                           
  2274                           ;WaterHeater_Mode/WaterHeater_Mode.c: 37:      {;WaterHeater_Mode/WaterHeater_Mode.c: 38
      +                          :       Temperature.Set_Temp += (5U);
  2275  0D9D  3005               	movlw	5
  2276  0D9E  00FF               	movwf	btemp+1
  2277  0D9F  087F               	movf	btemp+1,w
  2278  0DA0  07CF               	addwf	_Temperature+2,f
  2279  0DA1                     l3252:
  2280                           
  2281                           ;WaterHeater_Mode/WaterHeater_Mode.c: 39:       Mode.Setting_Mode_Timer=1;
  2282  0DA1  1683               	bsf	3,5	;RP0=1, select bank1
  2283  0DA2  1303               	bcf	3,6	;RP1=0, select bank1
  2284  0DA3  01D7               	clrf	(_Mode^(0+128)+1)
  2285  0DA4  0AD7               	incf	(_Mode^(0+128)+1),f
  2286                           
  2287                           ;WaterHeater_Mode/WaterHeater_Mode.c: 40:      }
  2288  0DA5  2DC7               	goto	l389
  2289  0DA6                     l3254:
  2290  0DA6  0806               	movf	6,w	;volatile
  2291  0DA7  00BE               	movwf	??_Mode_MainFunction
  2292  0DA8  3002               	movlw	2
  2293  0DA9                     u4875:
  2294  0DA9  1003               	clrc
  2295  0DAA  0CBE               	rrf	??_Mode_MainFunction,f
  2296  0DAB  3EFF               	addlw	-1
  2297  0DAC  1D03               	skipz
  2298  0DAD  2DA9               	goto	u4875
  2299  0DAE  1C3E               	btfss	??_Mode_MainFunction,0
  2300  0DAF  2DB1               	goto	u4881
  2301  0DB0  2DB2               	goto	u4880
  2302  0DB1                     u4881:
  2303  0DB1  2DC7               	goto	l389
  2304  0DB2                     u4880:
  2305  0DB2                     l3256:
  2306  0DB2  0806               	movf	6,w	;volatile
  2307  0DB3  00BE               	movwf	??_Mode_MainFunction
  2308  0DB4  3001               	movlw	1
  2309  0DB5                     u4895:
  2310  0DB5  1003               	clrc
  2311  0DB6  0CBE               	rrf	??_Mode_MainFunction,f
  2312  0DB7  3EFF               	addlw	-1
  2313  0DB8  1D03               	skipz
  2314  0DB9  2DB5               	goto	u4895
  2315  0DBA  183E               	btfsc	??_Mode_MainFunction,0
  2316  0DBB  2DBD               	goto	u4901
  2317  0DBC  2DBE               	goto	u4900
  2318  0DBD                     u4901:
  2319  0DBD  2DC7               	goto	l389
  2320  0DBE                     u4900:
  2321  0DBE                     l3258:
  2322  0DBE  3023               	movlw	35
  2323  0DBF  064F               	xorwf	_Temperature+2,w
  2324  0DC0  1903               	btfsc	3,2
  2325  0DC1  2DC3               	goto	u4911
  2326  0DC2  2DC4               	goto	u4910
  2327  0DC3                     u4911:
  2328  0DC3  2DC7               	goto	l389
  2329  0DC4                     u4910:
  2330  0DC4                     l3260:
  2331                           
  2332                           ;WaterHeater_Mode/WaterHeater_Mode.c: 42:      {;WaterHeater_Mode/WaterHeater_Mode.c: 43
      +                          :       Temperature.Set_Temp -= (5U);
  2333  0DC4  3005               	movlw	5
  2334  0DC5  02CF               	subwf	_Temperature+2,f
  2335  0DC6  2DA1               	goto	l3252
  2336  0DC7                     l389:
  2337  0DC7  0008               	return
  2338  0DC8                     __end_of_Mode_MainFunction:
  2339                           
  2340                           	psect	text8
  2341  0BE7                     __ptext8:	
  2342 ;; *************** function _Start_Setting_Timer *****************
  2343 ;; Defined at:
  2344 ;;		line 54 in file "WaterHeater_Mode/WaterHeater_Mode.c"
  2345 ;; Parameters:    Size  Location     Type
  2346 ;;  Timer_Ms        2    2[BANK1 ] unsigned int 
  2347 ;;  Peroid_Task     2    4[BANK1 ] unsigned int 
  2348 ;; Auto vars:     Size  Location     Type
  2349 ;;		None
  2350 ;; Return value:  Size  Location     Type
  2351 ;;                  1    wreg      void 
  2352 ;; Registers used:
  2353 ;;		wreg, status,2, status,0, btemp+1, pclath, cstack
  2354 ;; Tracked objects:
  2355 ;;		On entry : 0/0
  2356 ;;		On exit  : 0/0
  2357 ;;		Unchanged: 0/0
  2358 ;; Data sizes:     COMMON   BANK0   BANK1   BANK3   BANK2
  2359 ;;      Params:         0       0       4       0       0
  2360 ;;      Locals:         0       0       0       0       0
  2361 ;;      Temps:          0       0       2       0       0
  2362 ;;      Totals:         0       0       6       0       0
  2363 ;;Total ram usage:        6 bytes
  2364 ;; Hardware stack levels used:    1
  2365 ;; Hardware stack levels required when called:    5
  2366 ;; This function calls:
  2367 ;;		___wmul
  2368 ;; This function is called by:
  2369 ;;		_Mode_MainFunction
  2370 ;; This function uses a non-reentrant model
  2371 ;;
  2372                           
  2373                           
  2374                           ;psect for function _Start_Setting_Timer
  2375  0BE7                     _Start_Setting_Timer:
  2376  0BE7                     l3050:	
  2377                           ;incstack = 0
  2378 ;; hardware stack exceeded
  2379                           ; Regs used in _Start_Setting_Timer: [wreg+status,2+status,0+btemp+1+pclath+cstack]
  2380                           
  2381                           
  2382                           ;WaterHeater_Mode/WaterHeater_Mode.c: 54: void Start_Setting_Timer(uint16_t Timer_Ms ,ui
      +                          nt16_t Peroid_Task);WaterHeater_Mode/WaterHeater_Mode.c: 55: {;WaterHeater_Mode/WaterHea
      +                          ter_Mode.c: 56:  if(Mode.Setting_Mode_Timer*Peroid_Task==Timer_Ms)
  2383  0BE7  1683               	bsf	3,5	;RP0=1, select bank1
  2384  0BE8  1303               	bcf	3,6	;RP1=0, select bank1
  2385  0BE9  0857               	movf	(_Mode^(0+128)+1),w
  2386  0BEA  00A6               	movwf	??_Start_Setting_Timer^(0+128)
  2387  0BEB  01A7               	clrf	(??_Start_Setting_Timer^(0+128)+1)
  2388  0BEC  0826               	movf	??_Start_Setting_Timer^(0+128),w
  2389  0BED  1283               	bcf	3,5	;RP0=0, select bank0
  2390  0BEE  1303               	bcf	3,6	;RP1=0, select bank0
  2391  0BEF  00BA               	movwf	___wmul@multiplier
  2392  0BF0  1683               	bsf	3,5	;RP0=1, select bank1
  2393  0BF1  1303               	bcf	3,6	;RP1=0, select bank1
  2394  0BF2  0827               	movf	(??_Start_Setting_Timer+1)^(0+128),w
  2395  0BF3  1283               	bcf	3,5	;RP0=0, select bank0
  2396  0BF4  1303               	bcf	3,6	;RP1=0, select bank0
  2397  0BF5  00BB               	movwf	___wmul@multiplier+1
  2398  0BF6  1683               	bsf	3,5	;RP0=1, select bank1
  2399  0BF7  1303               	bcf	3,6	;RP1=0, select bank1
  2400  0BF8  0825               	movf	(Start_Setting_Timer@Peroid_Task+1)^(0+128),w
  2401  0BF9  1283               	bcf	3,5	;RP0=0, select bank0
  2402  0BFA  1303               	bcf	3,6	;RP1=0, select bank0
  2403  0BFB  00BD               	movwf	___wmul@multiplicand+1
  2404  0BFC  1683               	bsf	3,5	;RP0=1, select bank1
  2405  0BFD  1303               	bcf	3,6	;RP1=0, select bank1
  2406  0BFE  0824               	movf	Start_Setting_Timer@Peroid_Task^(0+128),w
  2407  0BFF  1283               	bcf	3,5	;RP0=0, select bank0
  2408  0C00  1303               	bcf	3,6	;RP1=0, select bank0
  2409  0C01  00BC               	movwf	___wmul@multiplicand
  2410  0C02  120A  158A  22C4  120A  158A  	fcall	___wmul
  2411  0C07  1683               	bsf	3,5	;RP0=1, select bank1
  2412  0C08  1303               	bcf	3,6	;RP1=0, select bank1
  2413  0C09  0823               	movf	(Start_Setting_Timer@Timer_Ms+1)^(0+128),w
  2414  0C0A  1283               	bcf	3,5	;RP0=0, select bank0
  2415  0C0B  1303               	bcf	3,6	;RP1=0, select bank0
  2416  0C0C  063B               	xorwf	?___wmul+1,w
  2417  0C0D  1D03               	skipz
  2418  0C0E  2C15               	goto	u4435
  2419  0C0F  1683               	bsf	3,5	;RP0=1, select bank1
  2420  0C10  1303               	bcf	3,6	;RP1=0, select bank1
  2421  0C11  0822               	movf	Start_Setting_Timer@Timer_Ms^(0+128),w
  2422  0C12  1283               	bcf	3,5	;RP0=0, select bank0
  2423  0C13  1303               	bcf	3,6	;RP1=0, select bank0
  2424  0C14  063A               	xorwf	?___wmul,w
  2425  0C15                     u4435:
  2426  0C15  1D03               	skipz
  2427  0C16  2C18               	goto	u4431
  2428  0C17  2C19               	goto	u4430
  2429  0C18                     u4431:
  2430  0C18  2C20               	goto	l3054
  2431  0C19                     u4430:
  2432  0C19                     l3052:
  2433                           
  2434                           ;WaterHeater_Mode/WaterHeater_Mode.c: 57:  {;WaterHeater_Mode/WaterHeater_Mode.c: 59:   
      +                          Mode.Select_Mode=Normal_Mode;
  2435  0C19  1683               	bsf	3,5	;RP0=1, select bank1
  2436  0C1A  1303               	bcf	3,6	;RP1=0, select bank1
  2437  0C1B  01D6               	clrf	_Mode^(0+128)
  2438  0C1C  0AD6               	incf	_Mode^(0+128),f
  2439                           
  2440                           ;WaterHeater_Mode/WaterHeater_Mode.c: 60:   Mode.Setting_Mode_Timer=1;
  2441  0C1D  01D7               	clrf	(_Mode^(0+128)+1)
  2442  0C1E  0AD7               	incf	(_Mode^(0+128)+1),f
  2443                           
  2444                           ;WaterHeater_Mode/WaterHeater_Mode.c: 62:  }
  2445  0C1F  2C26               	goto	l394
  2446  0C20                     l3054:
  2447                           
  2448                           ;WaterHeater_Mode/WaterHeater_Mode.c: 64:  {;WaterHeater_Mode/WaterHeater_Mode.c: 65:   
      +                          Mode.Setting_Mode_Timer++;
  2449  0C20  3001               	movlw	1
  2450  0C21  00FF               	movwf	btemp+1
  2451  0C22  087F               	movf	btemp+1,w
  2452  0C23  1683               	bsf	3,5	;RP0=1, select bank1
  2453  0C24  1303               	bcf	3,6	;RP1=0, select bank1
  2454  0C25  07D7               	addwf	(_Mode^(0+128)+1),f
  2455  0C26                     l394:
  2456  0C26  0008               	return
  2457  0C27                     __end_of_Start_Setting_Timer:
  2458                           
  2459                           	psect	text9
  2460  07D7                     __ptext9:	
  2461 ;; *************** function _Read_UP_DOWN_BUTTONS *****************
  2462 ;; Defined at:
  2463 ;;		line 39 in file "Buttons/Buttons.c"
  2464 ;; Parameters:    Size  Location     Type
  2465 ;;		None
  2466 ;; Auto vars:     Size  Location     Type
  2467 ;;		None
  2468 ;; Return value:  Size  Location     Type
  2469 ;;                  1    wreg      void 
  2470 ;; Registers used:
  2471 ;;		wreg, status,2, status,0, btemp+1
  2472 ;; Tracked objects:
  2473 ;;		On entry : 0/0
  2474 ;;		On exit  : 0/0
  2475 ;;		Unchanged: 0/0
  2476 ;; Data sizes:     COMMON   BANK0   BANK1   BANK3   BANK2
  2477 ;;      Params:         0       0       0       0       0
  2478 ;;      Locals:         0       0       0       0       0
  2479 ;;      Temps:          0       1       0       0       0
  2480 ;;      Totals:         0       1       0       0       0
  2481 ;;Total ram usage:        1 bytes
  2482 ;; Hardware stack levels used:    1
  2483 ;; Hardware stack levels required when called:    4
  2484 ;; This function calls:
  2485 ;;		Nothing
  2486 ;; This function is called by:
  2487 ;;		_Mode_MainFunction
  2488 ;; This function uses a non-reentrant model
  2489 ;;
  2490                           
  2491                           
  2492                           ;psect for function _Read_UP_DOWN_BUTTONS
  2493  07D7                     _Read_UP_DOWN_BUTTONS:
  2494  07D7                     l2178:	
  2495                           ;incstack = 0
  2496                           ; Regs used in _Read_UP_DOWN_BUTTONS: [wreg+status,2+status,0+btemp+1]
  2497                           
  2498                           
  2499                           ;Buttons/Buttons.c: 41:     if(((((PORTB>>2)&1)==0) ||(((PORTB>>1)&1)==0)) && Mode.Selec
      +                          t_Mode==Normal_Mode)
  2500  07D7  1283               	bcf	3,5	;RP0=0, select bank0
  2501  07D8  1303               	bcf	3,6	;RP1=0, select bank0
  2502  07D9  0806               	movf	6,w	;volatile
  2503  07DA  00BA               	movwf	??_Read_UP_DOWN_BUTTONS
  2504  07DB  3002               	movlw	2
  2505  07DC                     u2635:
  2506  07DC  1003               	clrc
  2507  07DD  0CBA               	rrf	??_Read_UP_DOWN_BUTTONS,f
  2508  07DE  3EFF               	addlw	-1
  2509  07DF  1D03               	skipz
  2510  07E0  2FDC               	goto	u2635
  2511  07E1  1C3A               	btfss	??_Read_UP_DOWN_BUTTONS,0
  2512  07E2  2FE4               	goto	u2641
  2513  07E3  2FE5               	goto	u2640
  2514  07E4                     u2641:
  2515  07E4  2FF1               	goto	l2182
  2516  07E5                     u2640:
  2517  07E5                     l2180:
  2518  07E5  0806               	movf	6,w	;volatile
  2519  07E6  00BA               	movwf	??_Read_UP_DOWN_BUTTONS
  2520  07E7  3001               	movlw	1
  2521  07E8                     u2655:
  2522  07E8  1003               	clrc
  2523  07E9  0CBA               	rrf	??_Read_UP_DOWN_BUTTONS,f
  2524  07EA  3EFF               	addlw	-1
  2525  07EB  1D03               	skipz
  2526  07EC  2FE8               	goto	u2655
  2527  07ED  183A               	btfsc	??_Read_UP_DOWN_BUTTONS,0
  2528  07EE  2FF0               	goto	u2661
  2529  07EF  2FF1               	goto	u2660
  2530  07F0                     u2661:
  2531  07F0  2FFC               	goto	l107
  2532  07F1                     u2660:
  2533  07F1                     l2182:
  2534  07F1  1683               	bsf	3,5	;RP0=1, select bank1
  2535  07F2  1303               	bcf	3,6	;RP1=0, select bank1
  2536  07F3  0356               	decf	_Mode^(0+128),w
  2537  07F4  1D03               	btfss	3,2
  2538  07F5  2FF7               	goto	u2671
  2539  07F6  2FF8               	goto	u2670
  2540  07F7                     u2671:
  2541  07F7  2FFC               	goto	l107
  2542  07F8                     u2670:
  2543  07F8                     l2184:
  2544                           
  2545                           ;Buttons/Buttons.c: 42:     {;Buttons/Buttons.c: 43:       Mode.Select_Mode=Setting_Mode
      +                          ;
  2546  07F8  3002               	movlw	2
  2547  07F9  00FF               	movwf	btemp+1
  2548  07FA  087F               	movf	btemp+1,w
  2549  07FB  00D6               	movwf	_Mode^(0+128)
  2550  07FC                     l107:
  2551  07FC  0008               	return
  2552  07FD                     __end_of_Read_UP_DOWN_BUTTONS:
  2553                           
  2554                           	psect	text10
  2555  0CBA                     __ptext10:	
  2556 ;; *************** function _Elements_MainFunction *****************
  2557 ;; Defined at:
  2558 ;;		line 58 in file "Elements/Elements.c"
  2559 ;; Parameters:    Size  Location     Type
  2560 ;;		None
  2561 ;; Auto vars:     Size  Location     Type
  2562 ;;		None
  2563 ;; Return value:  Size  Location     Type
  2564 ;;                  1    wreg      void 
  2565 ;; Registers used:
  2566 ;;		wreg, status,2, status,0, btemp+1
  2567 ;; Tracked objects:
  2568 ;;		On entry : 0/0
  2569 ;;		On exit  : 0/0
  2570 ;;		Unchanged: 0/0
  2571 ;; Data sizes:     COMMON   BANK0   BANK1   BANK3   BANK2
  2572 ;;      Params:         0       0       0       0       0
  2573 ;;      Locals:         0       0       0       0       0
  2574 ;;      Temps:          0       4       0       0       0
  2575 ;;      Totals:         0       4       0       0       0
  2576 ;;Total ram usage:        4 bytes
  2577 ;; Hardware stack levels used:    1
  2578 ;; Hardware stack levels required when called:    4
  2579 ;; This function calls:
  2580 ;;		Nothing
  2581 ;; This function is called by:
  2582 ;;		_Scheduler_Task3
  2583 ;; This function uses a non-reentrant model
  2584 ;;
  2585                           
  2586                           
  2587                           ;psect for function _Elements_MainFunction
  2588  0CBA                     _Elements_MainFunction:
  2589  0CBA                     l2398:	
  2590                           ;incstack = 0
  2591                           ; Regs used in _Elements_MainFunction: [wreg+status,2+status,0+btemp+1]
  2592                           
  2593                           
  2594                           ;Elements/Elements.c: 60:   if(Temperature.Average_Value_Ready_Flag==1 && Mode.Select_Mo
      +                          de==Normal_Mode)
  2595  0CBA  1283               	bcf	3,5	;RP0=0, select bank0
  2596  0CBB  1303               	bcf	3,6	;RP1=0, select bank0
  2597  0CBC  1C50               	btfss	_Temperature+3,0
  2598  0CBD  2CBF               	goto	u3101
  2599  0CBE  2CC0               	goto	u3100
  2600  0CBF                     u3101:
  2601  0CBF  2D03               	goto	l2418
  2602  0CC0                     u3100:
  2603  0CC0                     l2400:
  2604  0CC0  1683               	bsf	3,5	;RP0=1, select bank1
  2605  0CC1  1303               	bcf	3,6	;RP1=0, select bank1
  2606  0CC2  0356               	decf	_Mode^(0+128),w
  2607  0CC3  1D03               	btfss	3,2
  2608  0CC4  2CC6               	goto	u3111
  2609  0CC5  2CC7               	goto	u3110
  2610  0CC6                     u3111:
  2611  0CC6  2D03               	goto	l2418
  2612  0CC7                     u3110:
  2613  0CC7                     l2402:
  2614                           
  2615                           ;Elements/Elements.c: 61:   {;Elements/Elements.c: 63:         if(Temperature.Average_Va
      +                          lue < (Temperature.Set_Temp - (5U)))
  2616  0CC7  1283               	bcf	3,5	;RP0=0, select bank0
  2617  0CC8  1303               	bcf	3,6	;RP1=0, select bank0
  2618  0CC9  084F               	movf	_Temperature+2,w
  2619  0CCA  3EFB               	addlw	251
  2620  0CCB  00BA               	movwf	??_Elements_MainFunction
  2621  0CCC  30FF               	movlw	255
  2622  0CCD  1803               	skipnc
  2623  0CCE  3000               	movlw	0
  2624  0CCF  00BB               	movwf	??_Elements_MainFunction+1
  2625  0CD0  084E               	movf	_Temperature+1,w
  2626  0CD1  00BC               	movwf	??_Elements_MainFunction+2
  2627  0CD2  01BD               	clrf	??_Elements_MainFunction+3
  2628  0CD3  083B               	movf	??_Elements_MainFunction+1,w
  2629  0CD4  023D               	subwf	??_Elements_MainFunction+3,w
  2630  0CD5  1D03               	skipz
  2631  0CD6  2CD9               	goto	u3125
  2632  0CD7  083A               	movf	??_Elements_MainFunction,w
  2633  0CD8  023C               	subwf	??_Elements_MainFunction+2,w
  2634  0CD9                     u3125:
  2635  0CD9  1803               	skipnc
  2636  0CDA  2CDC               	goto	u3121
  2637  0CDB  2CDD               	goto	u3120
  2638  0CDC                     u3121:
  2639  0CDC  2CE7               	goto	l2410
  2640  0CDD                     u3120:
  2641  0CDD                     l2404:
  2642                           
  2643                           ;Elements/Elements.c: 64:          {;Elements/Elements.c: 65:          (PORTC &= ~(1<<2)
      +                          );
  2644  0CDD  30FB               	movlw	251
  2645  0CDE  00FF               	movwf	btemp+1
  2646  0CDF  087F               	movf	btemp+1,w
  2647  0CE0  0587               	andwf	7,f	;volatile
  2648  0CE1                     l2406:
  2649                           
  2650                           ;Elements/Elements.c: 66:          (PORTC|= (1<<5));
  2651  0CE1  1687               	bsf	7,5	;volatile
  2652  0CE2                     l2408:
  2653                           
  2654                           ;Elements/Elements.c: 67:    LED_Status=LED_BLINK ;
  2655  0CE2  3002               	movlw	2
  2656  0CE3  00FF               	movwf	btemp+1
  2657  0CE4  087F               	movf	btemp+1,w
  2658  0CE5  00CB               	movwf	_LED_Status
  2659                           
  2660                           ;Elements/Elements.c: 69:          }else if(Temperature.Average_Value > (Temperature.Set
      +                          _Temp + (5U)))
  2661  0CE6  2D0C               	goto	l205
  2662  0CE7                     l2410:
  2663  0CE7  084E               	movf	_Temperature+1,w
  2664  0CE8  00BA               	movwf	??_Elements_MainFunction
  2665  0CE9  01BB               	clrf	??_Elements_MainFunction+1
  2666  0CEA  084F               	movf	_Temperature+2,w
  2667  0CEB  3E05               	addlw	5
  2668  0CEC  00BC               	movwf	??_Elements_MainFunction+2
  2669  0CED  3000               	movlw	0
  2670  0CEE  1803               	skipnc
  2671  0CEF  3001               	movlw	1
  2672  0CF0  00BD               	movwf	??_Elements_MainFunction+3
  2673  0CF1  083B               	movf	??_Elements_MainFunction+1,w
  2674  0CF2  023D               	subwf	??_Elements_MainFunction+3,w
  2675  0CF3  1D03               	skipz
  2676  0CF4  2CF7               	goto	u3135
  2677  0CF5  083A               	movf	??_Elements_MainFunction,w
  2678  0CF6  023C               	subwf	??_Elements_MainFunction+2,w
  2679  0CF7                     u3135:
  2680  0CF7  1803               	skipnc
  2681  0CF8  2CFA               	goto	u3131
  2682  0CF9  2CFB               	goto	u3130
  2683  0CFA                     u3131:
  2684  0CFA  2D0C               	goto	l205
  2685  0CFB                     u3130:
  2686  0CFB                     l2412:
  2687                           
  2688                           ;Elements/Elements.c: 70:          {;Elements/Elements.c: 72:           (PORTC &= ~(1<<5
      +                          ));
  2689  0CFB  30DF               	movlw	223
  2690  0CFC  00FF               	movwf	btemp+1
  2691  0CFD  087F               	movf	btemp+1,w
  2692  0CFE  0587               	andwf	7,f	;volatile
  2693  0CFF                     l2414:
  2694                           
  2695                           ;Elements/Elements.c: 73:           (PORTC|= (1<<2));
  2696  0CFF  1507               	bsf	7,2	;volatile
  2697  0D00                     l2416:
  2698                           
  2699                           ;Elements/Elements.c: 74:     LED_Status=LED_ON ;
  2700  0D00  01CB               	clrf	_LED_Status
  2701  0D01  0ACB               	incf	_LED_Status,f
  2702  0D02  2D0C               	goto	l205
  2703  0D03                     l2418:
  2704                           
  2705                           ;Elements/Elements.c: 79:   {;Elements/Elements.c: 80:    (PORTC &= ~(1<<2));
  2706  0D03  30FB               	movlw	251
  2707  0D04  00FF               	movwf	btemp+1
  2708  0D05  087F               	movf	btemp+1,w
  2709  0D06  1283               	bcf	3,5	;RP0=0, select bank0
  2710  0D07  0587               	andwf	7,f	;volatile
  2711                           
  2712                           ;Elements/Elements.c: 81:    (PORTC &= ~(1<<5));
  2713  0D08  30DF               	movlw	223
  2714  0D09  00FF               	movwf	btemp+1
  2715  0D0A  087F               	movf	btemp+1,w
  2716  0D0B  0587               	andwf	7,f	;volatile
  2717  0D0C                     l205:
  2718  0D0C  0008               	return
  2719  0D0D                     __end_of_Elements_MainFunction:
  2720                           
  2721                           	psect	text11
  2722  0C27                     __ptext11:	
  2723 ;; *************** function _LED_MainFunction *****************
  2724 ;; Defined at:
  2725 ;;		line 37 in file "Elements/Elements.c"
  2726 ;; Parameters:    Size  Location     Type
  2727 ;;		None
  2728 ;; Auto vars:     Size  Location     Type
  2729 ;;		None
  2730 ;; Return value:  Size  Location     Type
  2731 ;;                  1    wreg      void 
  2732 ;; Registers used:
  2733 ;;		wreg, status,2, status,0, btemp+1, pclath, cstack
  2734 ;; Tracked objects:
  2735 ;;		On entry : 0/0
  2736 ;;		On exit  : 0/0
  2737 ;;		Unchanged: 0/0
  2738 ;; Data sizes:     COMMON   BANK0   BANK1   BANK3   BANK2
  2739 ;;      Params:         0       0       0       0       0
  2740 ;;      Locals:         0       0       0       0       0
  2741 ;;      Temps:          0       0       0       0       0
  2742 ;;      Totals:         0       0       0       0       0
  2743 ;;Total ram usage:        0 bytes
  2744 ;; Hardware stack levels used:    1
  2745 ;; Hardware stack levels required when called:    6
  2746 ;; This function calls:
  2747 ;;		_LED_BLINKING
  2748 ;; This function is called by:
  2749 ;;		_Scheduler_Task2
  2750 ;; This function uses a non-reentrant model
  2751 ;;
  2752                           
  2753                           
  2754                           ;psect for function _LED_MainFunction
  2755  0C27                     _LED_MainFunction:
  2756  0C27                     l3220:	
  2757                           ;incstack = 0
  2758 ;; hardware stack exceeded
  2759                           ; Regs used in _LED_MainFunction: [wreg+status,2+status,0+btemp+1+pclath+cstack]
  2760                           
  2761                           
  2762                           ;Elements/Elements.c: 39:  if(LED_Status==LED_BLINK && Mode.Select_Mode==Normal_Mode)
  2763  0C27  3002               	movlw	2
  2764  0C28  1283               	bcf	3,5	;RP0=0, select bank0
  2765  0C29  1303               	bcf	3,6	;RP1=0, select bank0
  2766  0C2A  064B               	xorwf	_LED_Status,w
  2767  0C2B  1D03               	btfss	3,2
  2768  0C2C  2C2E               	goto	u4751
  2769  0C2D  2C2F               	goto	u4750
  2770  0C2E                     u4751:
  2771  0C2E  2C44               	goto	l3226
  2772  0C2F                     u4750:
  2773  0C2F                     l3222:
  2774  0C2F  1683               	bsf	3,5	;RP0=1, select bank1
  2775  0C30  1303               	bcf	3,6	;RP1=0, select bank1
  2776  0C31  0356               	decf	_Mode^(0+128),w
  2777  0C32  1D03               	btfss	3,2
  2778  0C33  2C35               	goto	u4761
  2779  0C34  2C36               	goto	u4760
  2780  0C35                     u4761:
  2781  0C35  2C44               	goto	l3226
  2782  0C36                     u4760:
  2783  0C36                     l3224:
  2784                           
  2785                           ;Elements/Elements.c: 40:  {;Elements/Elements.c: 42:   LED_BLINKING(1000,100);
  2786  0C36  30E8               	movlw	232
  2787  0C37  00A2               	movwf	LED_BLINKING@Time_Ms^(0+128)
  2788  0C38  3003               	movlw	3
  2789  0C39  00A3               	movwf	(LED_BLINKING@Time_Ms^(0+128)+1)
  2790  0C3A  3064               	movlw	100
  2791  0C3B  00A4               	movwf	LED_BLINKING@Task_Peroid^(0+128)
  2792  0C3C  3000               	movlw	0
  2793  0C3D  00A5               	movwf	(LED_BLINKING@Task_Peroid^(0+128)+1)
  2794  0C3E  120A  158A  23A7  120A  158A  	fcall	_LED_BLINKING
  2795                           
  2796                           ;Elements/Elements.c: 43:  }
  2797  0C43  2C68               	goto	l197
  2798  0C44                     l3226:
  2799  0C44  1283               	bcf	3,5	;RP0=0, select bank0
  2800  0C45  034B               	decf	_LED_Status,w
  2801  0C46  1D03               	btfss	3,2
  2802  0C47  2C49               	goto	u4771
  2803  0C48  2C4A               	goto	u4770
  2804  0C49                     u4771:
  2805  0C49  2C55               	goto	l3232
  2806  0C4A                     u4770:
  2807  0C4A                     l3228:
  2808  0C4A  1683               	bsf	3,5	;RP0=1, select bank1
  2809  0C4B  1303               	bcf	3,6	;RP1=0, select bank1
  2810  0C4C  0356               	decf	_Mode^(0+128),w
  2811  0C4D  1D03               	btfss	3,2
  2812  0C4E  2C50               	goto	u4781
  2813  0C4F  2C51               	goto	u4780
  2814  0C50                     u4781:
  2815  0C50  2C55               	goto	l3232
  2816  0C51                     u4780:
  2817  0C51                     l3230:
  2818                           
  2819                           ;Elements/Elements.c: 45:  {;Elements/Elements.c: 46:   (PORTB|= (1<<4));
  2820  0C51  1283               	bcf	3,5	;RP0=0, select bank0
  2821  0C52  1303               	bcf	3,6	;RP1=0, select bank0
  2822  0C53  1606               	bsf	6,4	;volatile
  2823                           
  2824                           ;Elements/Elements.c: 47:  }
  2825  0C54  2C68               	goto	l197
  2826  0C55                     l3232:
  2827  0C55  1683               	bsf	3,5	;RP0=1, select bank1
  2828  0C56  1303               	bcf	3,6	;RP1=0, select bank1
  2829  0C57  0856               	movf	_Mode^(0+128),w
  2830  0C58  1903               	btfsc	3,2
  2831  0C59  2C5B               	goto	u4791
  2832  0C5A  2C5C               	goto	u4790
  2833  0C5B                     u4791:
  2834  0C5B  2C62               	goto	l3236
  2835  0C5C                     u4790:
  2836  0C5C                     l3234:
  2837  0C5C  3002               	movlw	2
  2838  0C5D  0656               	xorwf	_Mode^(0+128),w
  2839  0C5E  1D03               	btfss	3,2
  2840  0C5F  2C61               	goto	u4801
  2841  0C60  2C62               	goto	u4800
  2842  0C61                     u4801:
  2843  0C61  2C68               	goto	l197
  2844  0C62                     u4800:
  2845  0C62                     l3236:
  2846                           
  2847                           ;Elements/Elements.c: 49:  {;Elements/Elements.c: 50:   (PORTB &= ~(1<<4));
  2848  0C62  30EF               	movlw	239
  2849  0C63  00FF               	movwf	btemp+1
  2850  0C64  087F               	movf	btemp+1,w
  2851  0C65  1283               	bcf	3,5	;RP0=0, select bank0
  2852  0C66  1303               	bcf	3,6	;RP1=0, select bank0
  2853  0C67  0586               	andwf	6,f	;volatile
  2854  0C68                     l197:
  2855  0C68  0008               	return
  2856  0C69                     __end_of_LED_MainFunction:
  2857                           
  2858                           	psect	text12
  2859  0BA7                     __ptext12:	
  2860 ;; *************** function _LED_BLINKING *****************
  2861 ;; Defined at:
  2862 ;;		line 20 in file "Elements/Elements.c"
  2863 ;; Parameters:    Size  Location     Type
  2864 ;;  Time_Ms         2    2[BANK1 ] unsigned int 
  2865 ;;  Task_Peroid     2    4[BANK1 ] unsigned int 
  2866 ;; Auto vars:     Size  Location     Type
  2867 ;;		None
  2868 ;; Return value:  Size  Location     Type
  2869 ;;                  1    wreg      void 
  2870 ;; Registers used:
  2871 ;;		wreg, status,2, status,0, btemp+1, pclath, cstack
  2872 ;; Tracked objects:
  2873 ;;		On entry : 0/0
  2874 ;;		On exit  : 0/0
  2875 ;;		Unchanged: 0/0
  2876 ;; Data sizes:     COMMON   BANK0   BANK1   BANK3   BANK2
  2877 ;;      Params:         0       0       4       0       0
  2878 ;;      Locals:         0       0       0       0       0
  2879 ;;      Temps:          0       0       2       0       0
  2880 ;;      Totals:         0       0       6       0       0
  2881 ;;Total ram usage:        6 bytes
  2882 ;; Hardware stack levels used:    1
  2883 ;; Hardware stack levels required when called:    5
  2884 ;; This function calls:
  2885 ;;		___wmul
  2886 ;; This function is called by:
  2887 ;;		_LED_MainFunction
  2888 ;; This function uses a non-reentrant model
  2889 ;;
  2890                           
  2891                           
  2892                           ;psect for function _LED_BLINKING
  2893  0BA7                     _LED_BLINKING:
  2894  0BA7                     l3042:	
  2895                           ;incstack = 0
  2896 ;; hardware stack exceeded
  2897                           ; Regs used in _LED_BLINKING: [wreg+status,2+status,0+btemp+1+pclath+cstack]
  2898                           
  2899                           
  2900                           ;Elements/Elements.c: 20: void LED_BLINKING(uint16_t Time_Ms,uint16_t Task_Peroid);Eleme
      +                          nts/Elements.c: 21: {;Elements/Elements.c: 22:  static uint8_t Counter=1;;Elements/Eleme
      +                          nts.c: 24:    if(Counter*Task_Peroid==Time_Ms)
  2901  0BA7  1283               	bcf	3,5	;RP0=0, select bank0
  2902  0BA8  1303               	bcf	3,6	;RP1=0, select bank0
  2903  0BA9  0852               	movf	LED_BLINKING@Counter,w
  2904  0BAA  1683               	bsf	3,5	;RP0=1, select bank1
  2905  0BAB  1303               	bcf	3,6	;RP1=0, select bank1
  2906  0BAC  00A6               	movwf	??_LED_BLINKING^(0+128)
  2907  0BAD  01A7               	clrf	(??_LED_BLINKING^(0+128)+1)
  2908  0BAE  0826               	movf	??_LED_BLINKING^(0+128),w
  2909  0BAF  1283               	bcf	3,5	;RP0=0, select bank0
  2910  0BB0  1303               	bcf	3,6	;RP1=0, select bank0
  2911  0BB1  00BA               	movwf	___wmul@multiplier
  2912  0BB2  1683               	bsf	3,5	;RP0=1, select bank1
  2913  0BB3  1303               	bcf	3,6	;RP1=0, select bank1
  2914  0BB4  0827               	movf	(??_LED_BLINKING+1)^(0+128),w
  2915  0BB5  1283               	bcf	3,5	;RP0=0, select bank0
  2916  0BB6  1303               	bcf	3,6	;RP1=0, select bank0
  2917  0BB7  00BB               	movwf	___wmul@multiplier+1
  2918  0BB8  1683               	bsf	3,5	;RP0=1, select bank1
  2919  0BB9  1303               	bcf	3,6	;RP1=0, select bank1
  2920  0BBA  0825               	movf	(LED_BLINKING@Task_Peroid+1)^(0+128),w
  2921  0BBB  1283               	bcf	3,5	;RP0=0, select bank0
  2922  0BBC  1303               	bcf	3,6	;RP1=0, select bank0
  2923  0BBD  00BD               	movwf	___wmul@multiplicand+1
  2924  0BBE  1683               	bsf	3,5	;RP0=1, select bank1
  2925  0BBF  1303               	bcf	3,6	;RP1=0, select bank1
  2926  0BC0  0824               	movf	LED_BLINKING@Task_Peroid^(0+128),w
  2927  0BC1  1283               	bcf	3,5	;RP0=0, select bank0
  2928  0BC2  1303               	bcf	3,6	;RP1=0, select bank0
  2929  0BC3  00BC               	movwf	___wmul@multiplicand
  2930  0BC4  120A  158A  22C4  120A  158A  	fcall	___wmul
  2931  0BC9  1683               	bsf	3,5	;RP0=1, select bank1
  2932  0BCA  1303               	bcf	3,6	;RP1=0, select bank1
  2933  0BCB  0823               	movf	(LED_BLINKING@Time_Ms+1)^(0+128),w
  2934  0BCC  1283               	bcf	3,5	;RP0=0, select bank0
  2935  0BCD  1303               	bcf	3,6	;RP1=0, select bank0
  2936  0BCE  063B               	xorwf	?___wmul+1,w
  2937  0BCF  1D03               	skipz
  2938  0BD0  2BD7               	goto	u4425
  2939  0BD1  1683               	bsf	3,5	;RP0=1, select bank1
  2940  0BD2  1303               	bcf	3,6	;RP1=0, select bank1
  2941  0BD3  0822               	movf	LED_BLINKING@Time_Ms^(0+128),w
  2942  0BD4  1283               	bcf	3,5	;RP0=0, select bank0
  2943  0BD5  1303               	bcf	3,6	;RP1=0, select bank0
  2944  0BD6  063A               	xorwf	?___wmul,w
  2945  0BD7                     u4425:
  2946  0BD7  1D03               	skipz
  2947  0BD8  2BDA               	goto	u4421
  2948  0BD9  2BDB               	goto	u4420
  2949  0BDA                     u4421:
  2950  0BDA  2BE2               	goto	l3048
  2951  0BDB                     u4420:
  2952  0BDB                     l3044:
  2953                           
  2954                           ;Elements/Elements.c: 25:    {;Elements/Elements.c: 26:     (PORTB^= (1<<4));
  2955  0BDB  3010               	movlw	16
  2956  0BDC  00FF               	movwf	btemp+1
  2957  0BDD  087F               	movf	btemp+1,w
  2958  0BDE  0686               	xorwf	6,f	;volatile
  2959  0BDF                     l3046:
  2960                           
  2961                           ;Elements/Elements.c: 27:        Counter=1;
  2962  0BDF  01D2               	clrf	LED_BLINKING@Counter
  2963  0BE0  0AD2               	incf	LED_BLINKING@Counter,f
  2964                           
  2965                           ;Elements/Elements.c: 29:    }
  2966  0BE1  2BE6               	goto	l187
  2967  0BE2                     l3048:
  2968                           
  2969                           ;Elements/Elements.c: 31:    {;Elements/Elements.c: 32:     Counter++;
  2970  0BE2  3001               	movlw	1
  2971  0BE3  00FF               	movwf	btemp+1
  2972  0BE4  087F               	movf	btemp+1,w
  2973  0BE5  07D2               	addwf	LED_BLINKING@Counter,f
  2974  0BE6                     l187:
  2975  0BE6  0008               	return
  2976  0BE7                     __end_of_LED_BLINKING:
  2977                           
  2978                           	psect	text13
  2979  0A05                     __ptext13:	
  2980 ;; *************** function _ADC_Conv_MainFunction *****************
  2981 ;; Defined at:
  2982 ;;		line 47 in file "ADC/ADC.c"
  2983 ;; Parameters:    Size  Location     Type
  2984 ;;		None
  2985 ;; Auto vars:     Size  Location     Type
  2986 ;;		None
  2987 ;; Return value:  Size  Location     Type
  2988 ;;                  1    wreg      void 
  2989 ;; Registers used:
  2990 ;;		wreg, fsr0l, fsr0h, status,2, status,0, btemp+1, pclath, cstack
  2991 ;; Tracked objects:
  2992 ;;		On entry : 0/0
  2993 ;;		On exit  : 0/0
  2994 ;;		Unchanged: 0/0
  2995 ;; Data sizes:     COMMON   BANK0   BANK1   BANK3   BANK2
  2996 ;;      Params:         0       0       0       0       0
  2997 ;;      Locals:         0       0       0       0       0
  2998 ;;      Temps:          0       0       0       0       0
  2999 ;;      Totals:         0       0       0       0       0
  3000 ;;Total ram usage:        0 bytes
  3001 ;; Hardware stack levels used:    1
  3002 ;; Hardware stack levels required when called:    8
  3003 ;; This function calls:
  3004 ;;		_ADC_Value_Ready_CallBack
  3005 ;; This function is called by:
  3006 ;;		_Scheduler_Task2
  3007 ;; This function uses a non-reentrant model
  3008 ;;
  3009                           
  3010                           
  3011                           ;psect for function _ADC_Conv_MainFunction
  3012  0A05                     _ADC_Conv_MainFunction:
  3013  0A05                     l3138:	
  3014                           ;incstack = 0
  3015 ;; hardware stack exceeded
  3016                           ; Regs used in _ADC_Conv_MainFunction: [wreg-fsr0h+status,2+status,0+btemp+1+pclath+csta
      +                          ck]
  3017                           
  3018                           
  3019                           ;ADC/ADC.c: 49:  if(ADC_Info.ADC_INIT_FLAG==1 && ADC_Info.ADC_START_FLAG==1 && Mode.Sele
      +                          ct_Mode==Normal_Mode)
  3020  0A05  1683               	bsf	3,5	;RP0=1, select bank1
  3021  0A06  1303               	bcf	3,6	;RP1=0, select bank1
  3022  0A07  1C58               	btfss	_ADC_Info^(0+128),0
  3023  0A08  2A0A               	goto	u4631
  3024  0A09  2A0B               	goto	u4630
  3025  0A0A                     u4631:
  3026  0A0A  2A22               	goto	l30
  3027  0A0B                     u4630:
  3028  0A0B                     l3140:
  3029  0A0B  1CD8               	btfss	_ADC_Info^(0+128),1
  3030  0A0C  2A0E               	goto	u4641
  3031  0A0D  2A0F               	goto	u4640
  3032  0A0E                     u4641:
  3033  0A0E  2A22               	goto	l30
  3034  0A0F                     u4640:
  3035  0A0F                     l3142:
  3036  0A0F  0356               	decf	_Mode^(0+128),w
  3037  0A10  1D03               	btfss	3,2
  3038  0A11  2A13               	goto	u4651
  3039  0A12  2A14               	goto	u4650
  3040  0A13                     u4651:
  3041  0A13  2A22               	goto	l30
  3042  0A14                     u4650:
  3043  0A14                     l3144:
  3044                           
  3045                           ;ADC/ADC.c: 50:  {;ADC/ADC.c: 51:      if(ADCON0bits.GO_DONE==0)
  3046  0A14  1283               	bcf	3,5	;RP0=0, select bank0
  3047  0A15  1303               	bcf	3,6	;RP1=0, select bank0
  3048  0A16  191F               	btfsc	31,2	;volatile
  3049  0A17  2A19               	goto	u4661
  3050  0A18  2A1A               	goto	u4660
  3051  0A19                     u4661:
  3052  0A19  2A22               	goto	l30
  3053  0A1A                     u4660:
  3054  0A1A                     l3146:
  3055                           
  3056                           ;ADC/ADC.c: 52:      {;ADC/ADC.c: 53:       ADC_Value_Ready_CallBack();
  3057  0A1A  120A  158A  2158  120A  158A  	fcall	_ADC_Value_Ready_CallBack
  3058  0A1F                     l3148:
  3059                           
  3060                           ;ADC/ADC.c: 54:       ADCON0bits.GO_DONE=1;
  3061  0A1F  1283               	bcf	3,5	;RP0=0, select bank0
  3062  0A20  1303               	bcf	3,6	;RP1=0, select bank0
  3063  0A21  151F               	bsf	31,2	;volatile
  3064  0A22                     l30:
  3065  0A22  0008               	return
  3066  0A23                     __end_of_ADC_Conv_MainFunction:
  3067                           
  3068                           	psect	text14
  3069  0958                     __ptext14:	
  3070 ;; *************** function _ADC_Value_Ready_CallBack *****************
  3071 ;; Defined at:
  3072 ;;		line 59 in file "ADC/ADC.c"
  3073 ;; Parameters:    Size  Location     Type
  3074 ;;		None
  3075 ;; Auto vars:     Size  Location     Type
  3076 ;;  ADC_Value       2   51[BANK1 ] unsigned int 
  3077 ;; Return value:  Size  Location     Type
  3078 ;;                  1    wreg      void 
  3079 ;; Registers used:
  3080 ;;		wreg, fsr0l, fsr0h, status,2, status,0, btemp+1, pclath, cstack
  3081 ;; Tracked objects:
  3082 ;;		On entry : 0/0
  3083 ;;		On exit  : 0/0
  3084 ;;		Unchanged: 0/0
  3085 ;; Data sizes:     COMMON   BANK0   BANK1   BANK3   BANK2
  3086 ;;      Params:         0       0       0       0       0
  3087 ;;      Locals:         0       0       2       0       0
  3088 ;;      Temps:          0       0       0       0       0
  3089 ;;      Totals:         0       0       2       0       0
  3090 ;;Total ram usage:        2 bytes
  3091 ;; Hardware stack levels used:    1
  3092 ;; Hardware stack levels required when called:    7
  3093 ;; This function calls:
  3094 ;;		_Temperature_Calc
  3095 ;; This function is called by:
  3096 ;;		_ADC_Conv_MainFunction
  3097 ;; This function uses a non-reentrant model
  3098 ;;
  3099                           
  3100                           
  3101                           ;psect for function _ADC_Value_Ready_CallBack
  3102  0958                     _ADC_Value_Ready_CallBack:
  3103  0958                     l3022:	
  3104                           ;incstack = 0
  3105 ;; hardware stack exceeded
  3106                           ; Regs used in _ADC_Value_Ready_CallBack: [wreg-fsr0h+status,2+status,0+btemp+1+pclath+c
      +                          stack]
  3107                           
  3108                           
  3109                           ;ADC/ADC.c: 61:   uint16_t ADC_Value=(ADRESH<<8)|(ADRESL);
  3110  0958  1283               	bcf	3,5	;RP0=0, select bank0
  3111  0959  1303               	bcf	3,6	;RP1=0, select bank0
  3112  095A  081E               	movf	30,w	;volatile
  3113  095B  1683               	bsf	3,5	;RP0=1, select bank1
  3114  095C  1303               	bcf	3,6	;RP1=0, select bank1
  3115  095D  00D4               	movwf	(ADC_Value_Ready_CallBack@ADC_Value+1)^(0+128)
  3116  095E  081E               	movf	30,w	;volatile
  3117  095F  00D3               	movwf	ADC_Value_Ready_CallBack@ADC_Value^(0+128)
  3118  0960                     l3024:
  3119                           
  3120                           ;ADC/ADC.c: 62:   Temperature_Calc(ADC_Value);
  3121  0960  0853               	movf	ADC_Value_Ready_CallBack@ADC_Value^(0+128),w
  3122  0961  120A  118A  26BE  120A  158A  	fcall	_Temperature_Calc
  3123  0966                     l33:
  3124  0966  0008               	return
  3125  0967                     __end_of_ADC_Value_Ready_CallBack:
  3126                           
  3127                           	psect	text15
  3128  06BE                     __ptext15:	
  3129 ;; *************** function _Temperature_Calc *****************
  3130 ;; Defined at:
  3131 ;;		line 14 in file "Temperature/Temperature.c"
  3132 ;; Parameters:    Size  Location     Type
  3133 ;;  ADC_VALUE       1    wreg     unsigned char 
  3134 ;; Auto vars:     Size  Location     Type
  3135 ;;  ADC_VALUE       1   50[BANK1 ] unsigned char 
  3136 ;; Return value:  Size  Location     Type
  3137 ;;                  1    wreg      void 
  3138 ;; Registers used:
  3139 ;;		wreg, fsr0l, fsr0h, status,2, status,0, btemp+1, pclath, cstack
  3140 ;; Tracked objects:
  3141 ;;		On entry : 0/0
  3142 ;;		On exit  : 0/0
  3143 ;;		Unchanged: 0/0
  3144 ;; Data sizes:     COMMON   BANK0   BANK1   BANK3   BANK2
  3145 ;;      Params:         0       0       0       0       0
  3146 ;;      Locals:         0       0       1       0       0
  3147 ;;      Temps:          0       0       4       0       0
  3148 ;;      Totals:         0       0       5       0       0
  3149 ;;Total ram usage:        5 bytes
  3150 ;; Hardware stack levels used:    1
  3151 ;; Hardware stack levels required when called:    6
  3152 ;; This function calls:
  3153 ;;		_Average_Value
  3154 ;;		___flmul
  3155 ;;		___fltol
  3156 ;;		___lwmod
  3157 ;;		___xxtofl
  3158 ;; This function is called by:
  3159 ;;		_ADC_Value_Ready_CallBack
  3160 ;; This function uses a non-reentrant model
  3161 ;;
  3162                           
  3163                           
  3164                           ;psect for function _Temperature_Calc
  3165  06BE                     _Temperature_Calc:
  3166                           
  3167                           ;incstack = 0
  3168 ;; hardware stack exceeded
  3169                           ; Regs used in _Temperature_Calc: [wreg-fsr0h+status,2+status,0+btemp+1+pclath+cstack]
  3170                           ;Temperature_Calc@ADC_VALUE stored from wreg
  3171  06BE  1683               	bsf	3,5	;RP0=1, select bank1
  3172  06BF  1303               	bcf	3,6	;RP1=0, select bank1
  3173  06C0  00D2               	movwf	Temperature_Calc@ADC_VALUE^(0+128)
  3174  06C1                     l2998:
  3175                           
  3176                           ;Temperature/Temperature.c: 14: void Temperature_Calc(uint8_t ADC_VALUE);Temperature/Tem
      +                          perature.c: 15: {;Temperature/Temperature.c: 16:  Temperature.Temp_Value=ADC_VALUE * 0.4
      +                          882;
  3177  06C1  0852               	movf	Temperature_Calc@ADC_VALUE^(0+128),w
  3178  06C2  00CE               	movwf	??_Temperature_Calc^(0+128)
  3179  06C3  01CF               	clrf	(??_Temperature_Calc^(0+128)+1)
  3180  06C4  01D0               	clrf	(??_Temperature_Calc^(0+128)+2)
  3181  06C5  01D1               	clrf	(??_Temperature_Calc^(0+128)+3)
  3182  06C6  0851               	movf	(??_Temperature_Calc+3)^(0+128),w
  3183  06C7  1283               	bcf	3,5	;RP0=0, select bank0
  3184  06C8  1303               	bcf	3,6	;RP1=0, select bank0
  3185  06C9  00BD               	movwf	___xxtofl@val+3
  3186  06CA  1683               	bsf	3,5	;RP0=1, select bank1
  3187  06CB  1303               	bcf	3,6	;RP1=0, select bank1
  3188  06CC  0850               	movf	(??_Temperature_Calc+2)^(0+128),w
  3189  06CD  1283               	bcf	3,5	;RP0=0, select bank0
  3190  06CE  1303               	bcf	3,6	;RP1=0, select bank0
  3191  06CF  00BC               	movwf	___xxtofl@val+2
  3192  06D0  1683               	bsf	3,5	;RP0=1, select bank1
  3193  06D1  1303               	bcf	3,6	;RP1=0, select bank1
  3194  06D2  084F               	movf	(??_Temperature_Calc+1)^(0+128),w
  3195  06D3  1283               	bcf	3,5	;RP0=0, select bank0
  3196  06D4  1303               	bcf	3,6	;RP1=0, select bank0
  3197  06D5  00BB               	movwf	___xxtofl@val+1
  3198  06D6  1683               	bsf	3,5	;RP0=1, select bank1
  3199  06D7  1303               	bcf	3,6	;RP1=0, select bank1
  3200  06D8  084E               	movf	??_Temperature_Calc^(0+128),w
  3201  06D9  1283               	bcf	3,5	;RP0=0, select bank0
  3202  06DA  1303               	bcf	3,6	;RP1=0, select bank0
  3203  06DB  00BA               	movwf	___xxtofl@val
  3204  06DC  3001               	movlw	1
  3205  06DD  120A  118A  251F  120A  118A  	fcall	___xxtofl
  3206  06E2  1283               	bcf	3,5	;RP0=0, select bank0
  3207  06E3  1303               	bcf	3,6	;RP1=0, select bank0
  3208  06E4  083D               	movf	?___xxtofl+3,w
  3209  06E5  1683               	bsf	3,5	;RP0=1, select bank1
  3210  06E6  1303               	bcf	3,6	;RP1=0, select bank1
  3211  06E7  00B1               	movwf	(___flmul@a+3)^(0+128)
  3212  06E8  1283               	bcf	3,5	;RP0=0, select bank0
  3213  06E9  1303               	bcf	3,6	;RP1=0, select bank0
  3214  06EA  083C               	movf	?___xxtofl+2,w
  3215  06EB  1683               	bsf	3,5	;RP0=1, select bank1
  3216  06EC  1303               	bcf	3,6	;RP1=0, select bank1
  3217  06ED  00B0               	movwf	(___flmul@a+2)^(0+128)
  3218  06EE  1283               	bcf	3,5	;RP0=0, select bank0
  3219  06EF  1303               	bcf	3,6	;RP1=0, select bank0
  3220  06F0  083B               	movf	?___xxtofl+1,w
  3221  06F1  1683               	bsf	3,5	;RP0=1, select bank1
  3222  06F2  1303               	bcf	3,6	;RP1=0, select bank1
  3223  06F3  00AF               	movwf	(___flmul@a+1)^(0+128)
  3224  06F4  1283               	bcf	3,5	;RP0=0, select bank0
  3225  06F5  1303               	bcf	3,6	;RP1=0, select bank0
  3226  06F6  083A               	movf	?___xxtofl,w
  3227  06F7  1683               	bsf	3,5	;RP0=1, select bank1
  3228  06F8  1303               	bcf	3,6	;RP1=0, select bank1
  3229  06F9  00AE               	movwf	___flmul@a^(0+128)
  3230  06FA  303E               	movlw	62
  3231  06FB  00AD               	movwf	(___flmul@b+3)^(0+128)
  3232  06FC  30F9               	movlw	249
  3233  06FD  00AC               	movwf	(___flmul@b+2)^(0+128)
  3234  06FE  30F5               	movlw	245
  3235  06FF  00AB               	movwf	(___flmul@b+1)^(0+128)
  3236  0700  305A               	movlw	90
  3237  0701  00AA               	movwf	___flmul@b^(0+128)
  3238  0702  120A  118A  205A  120A  118A  	fcall	___flmul
  3239  0707  1683               	bsf	3,5	;RP0=1, select bank1
  3240  0708  1303               	bcf	3,6	;RP1=0, select bank1
  3241  0709  082D               	movf	(?___flmul+3)^(0+128),w
  3242  070A  00C7               	movwf	(___fltol@f1+3)^(0+128)
  3243  070B  082C               	movf	(?___flmul+2)^(0+128),w
  3244  070C  00C6               	movwf	(___fltol@f1+2)^(0+128)
  3245  070D  082B               	movf	(?___flmul+1)^(0+128),w
  3246  070E  00C5               	movwf	(___fltol@f1+1)^(0+128)
  3247  070F  082A               	movf	?___flmul^(0+128),w
  3248  0710  00C4               	movwf	___fltol@f1^(0+128)
  3249  0711  120A  158A  2784  120A  118A  	fcall	___fltol
  3250  0716  1683               	bsf	3,5	;RP0=1, select bank1
  3251  0717  1303               	bcf	3,6	;RP1=0, select bank1
  3252  0718  0844               	movf	?___fltol^(0+128),w
  3253  0719  00FF               	movwf	btemp+1
  3254  071A  087F               	movf	btemp+1,w
  3255  071B  1283               	bcf	3,5	;RP0=0, select bank0
  3256  071C  1303               	bcf	3,6	;RP1=0, select bank0
  3257  071D  00CD               	movwf	_Temperature
  3258  071E                     l3000:
  3259                           
  3260                           ;Temperature/Temperature.c: 17:  Average_Value(Temperature.Temp_Value, &Temperature.Aver
      +                          age_Value);
  3261  071E  304E               	movlw	(low ((_Temperature| 0+1)))& (0+255)
  3262  071F  00FF               	movwf	btemp+1
  3263  0720  087F               	movf	btemp+1,w
  3264  0721  1683               	bsf	3,5	;RP0=1, select bank1
  3265  0722  1303               	bcf	3,6	;RP1=0, select bank1
  3266  0723  00AD               	movwf	Average_Value@Avrage_Values^(0+128)
  3267  0724  1283               	bcf	3,5	;RP0=0, select bank0
  3268  0725  1303               	bcf	3,6	;RP1=0, select bank0
  3269  0726  084D               	movf	_Temperature,w
  3270  0727  120A  118A  2612  120A  118A  	fcall	_Average_Value
  3271  072C                     l3002:
  3272                           
  3273                           ;Temperature/Temperature.c: 18:  Temperature.Average_NValues=(Temperature.Average_NValue
      +                          s+1)%10U;
  3274  072C  300A               	movlw	10
  3275  072D  1283               	bcf	3,5	;RP0=0, select bank0
  3276  072E  1303               	bcf	3,6	;RP1=0, select bank0
  3277  072F  00BA               	movwf	___lwmod@divisor
  3278  0730  3000               	movlw	0
  3279  0731  00BB               	movwf	___lwmod@divisor+1
  3280  0732  0851               	movf	_Temperature+4,w
  3281  0733  3E01               	addlw	1
  3282  0734  00BC               	movwf	___lwmod@dividend
  3283  0735  3000               	movlw	0
  3284  0736  1803               	skipnc
  3285  0737  3001               	movlw	1
  3286  0738  00BD               	movwf	___lwmod@dividend+1
  3287  0739  120A  158A  236B  120A  118A  	fcall	___lwmod
  3288  073E  1283               	bcf	3,5	;RP0=0, select bank0
  3289  073F  1303               	bcf	3,6	;RP1=0, select bank0
  3290  0740  083A               	movf	?___lwmod,w
  3291  0741  00FF               	movwf	btemp+1
  3292  0742  087F               	movf	btemp+1,w
  3293  0743  00D1               	movwf	_Temperature+4
  3294  0744                     l3004:
  3295                           
  3296                           ;Temperature/Temperature.c: 20:  if(Temperature.Average_NValues==9)
  3297  0744  3009               	movlw	9
  3298  0745  0651               	xorwf	_Temperature+4,w
  3299  0746  1D03               	btfss	3,2
  3300  0747  2F49               	goto	u4341
  3301  0748  2F4A               	goto	u4340
  3302  0749                     u4341:
  3303  0749  2F4B               	goto	l353
  3304  074A                     u4340:
  3305  074A                     l3006:
  3306                           
  3307                           ;Temperature/Temperature.c: 21:  {;Temperature/Temperature.c: 22:        Temperature.Ave
      +                          rage_Value_Ready_Flag=1;
  3308  074A  1450               	bsf	_Temperature+3,0
  3309  074B                     l353:
  3310  074B  0008               	return
  3311  074C                     __end_of_Temperature_Calc:
  3312                           
  3313                           	psect	text16
  3314  051F                     __ptext16:	
  3315 ;; *************** function ___xxtofl *****************
  3316 ;; Defined at:
  3317 ;;		line 10 in file "C:\Program Files (x86)\Microchip\xc8\v2.20\pic\sources\c90\common\xxtofl.c"
  3318 ;; Parameters:    Size  Location     Type
  3319 ;;  sign            1    wreg     unsigned char 
  3320 ;;  val             4   26[BANK0 ] long 
  3321 ;; Auto vars:     Size  Location     Type
  3322 ;;  sign            1    4[BANK1 ] unsigned char 
  3323 ;;  arg             4    6[BANK1 ] unsigned long 
  3324 ;;  exp             1    5[BANK1 ] unsigned char 
  3325 ;; Return value:  Size  Location     Type
  3326 ;;                  4   26[BANK0 ] unsigned char 
  3327 ;; Registers used:
  3328 ;;		wreg, status,2, status,0, btemp+1
  3329 ;; Tracked objects:
  3330 ;;		On entry : 0/0
  3331 ;;		On exit  : 0/0
  3332 ;;		Unchanged: 0/0
  3333 ;; Data sizes:     COMMON   BANK0   BANK1   BANK3   BANK2
  3334 ;;      Params:         0       4       0       0       0
  3335 ;;      Locals:         0       0       6       0       0
  3336 ;;      Temps:          0       0       4       0       0
  3337 ;;      Totals:         0       4      10       0       0
  3338 ;;Total ram usage:       14 bytes
  3339 ;; Hardware stack levels used:    1
  3340 ;; Hardware stack levels required when called:    4
  3341 ;; This function calls:
  3342 ;;		Nothing
  3343 ;; This function is called by:
  3344 ;;		_Temperature_Calc
  3345 ;; This function uses a non-reentrant model
  3346 ;;
  3347                           
  3348                           
  3349                           ;psect for function ___xxtofl
  3350  051F                     ___xxtofl:
  3351                           
  3352                           ;incstack = 0
  3353 ;; hardware stack exceeded
  3354                           ; Regs used in ___xxtofl: [wreg+status,2+status,0+btemp+1]
  3355                           ;___xxtofl@sign stored from wreg
  3356  051F  1683               	bsf	3,5	;RP0=1, select bank1
  3357  0520  1303               	bcf	3,6	;RP1=0, select bank1
  3358  0521  00A4               	movwf	___xxtofl@sign^(0+128)
  3359  0522                     l2950:
  3360  0522  0824               	movf	___xxtofl@sign^(0+128),w
  3361  0523  1903               	btfsc	3,2
  3362  0524  2D26               	goto	u4201
  3363  0525  2D27               	goto	u4200
  3364  0526                     u4201:
  3365  0526  2D4B               	goto	l2956
  3366  0527                     u4200:
  3367  0527                     l2952:
  3368  0527  1283               	bcf	3,5	;RP0=0, select bank0
  3369  0528  1303               	bcf	3,6	;RP1=0, select bank0
  3370  0529  1FBD               	btfss	___xxtofl@val+3,7
  3371  052A  2D2C               	goto	u4211
  3372  052B  2D2D               	goto	u4210
  3373  052C                     u4211:
  3374  052C  2D4B               	goto	l2956
  3375  052D                     u4210:
  3376  052D                     l2954:
  3377  052D  093A               	comf	___xxtofl@val,w
  3378  052E  1683               	bsf	3,5	;RP0=1, select bank1
  3379  052F  1303               	bcf	3,6	;RP1=0, select bank1
  3380  0530  00A6               	movwf	___xxtofl@arg^(0+128)
  3381  0531  1283               	bcf	3,5	;RP0=0, select bank0
  3382  0532  1303               	bcf	3,6	;RP1=0, select bank0
  3383  0533  093B               	comf	___xxtofl@val+1,w
  3384  0534  1683               	bsf	3,5	;RP0=1, select bank1
  3385  0535  1303               	bcf	3,6	;RP1=0, select bank1
  3386  0536  00A7               	movwf	(___xxtofl@arg+1)^(0+128)
  3387  0537  1283               	bcf	3,5	;RP0=0, select bank0
  3388  0538  1303               	bcf	3,6	;RP1=0, select bank0
  3389  0539  093C               	comf	___xxtofl@val+2,w
  3390  053A  1683               	bsf	3,5	;RP0=1, select bank1
  3391  053B  1303               	bcf	3,6	;RP1=0, select bank1
  3392  053C  00A8               	movwf	(___xxtofl@arg+2)^(0+128)
  3393  053D  1283               	bcf	3,5	;RP0=0, select bank0
  3394  053E  1303               	bcf	3,6	;RP1=0, select bank0
  3395  053F  093D               	comf	___xxtofl@val+3,w
  3396  0540  1683               	bsf	3,5	;RP0=1, select bank1
  3397  0541  1303               	bcf	3,6	;RP1=0, select bank1
  3398  0542  00A9               	movwf	(___xxtofl@arg+3)^(0+128)
  3399  0543  0AA6               	incf	___xxtofl@arg^(0+128),f
  3400  0544  1903               	skipnz
  3401  0545  0AA7               	incf	(___xxtofl@arg+1)^(0+128),f
  3402  0546  1903               	skipnz
  3403  0547  0AA8               	incf	(___xxtofl@arg+2)^(0+128),f
  3404  0548  1903               	skipnz
  3405  0549  0AA9               	incf	(___xxtofl@arg+3)^(0+128),f
  3406  054A  2D62               	goto	l913
  3407  054B                     l2956:
  3408  054B  1283               	bcf	3,5	;RP0=0, select bank0
  3409  054C  083D               	movf	___xxtofl@val+3,w
  3410  054D  1683               	bsf	3,5	;RP0=1, select bank1
  3411  054E  1303               	bcf	3,6	;RP1=0, select bank1
  3412  054F  00A9               	movwf	(___xxtofl@arg+3)^(0+128)
  3413  0550  1283               	bcf	3,5	;RP0=0, select bank0
  3414  0551  1303               	bcf	3,6	;RP1=0, select bank0
  3415  0552  083C               	movf	___xxtofl@val+2,w
  3416  0553  1683               	bsf	3,5	;RP0=1, select bank1
  3417  0554  1303               	bcf	3,6	;RP1=0, select bank1
  3418  0555  00A8               	movwf	(___xxtofl@arg+2)^(0+128)
  3419  0556  1283               	bcf	3,5	;RP0=0, select bank0
  3420  0557  1303               	bcf	3,6	;RP1=0, select bank0
  3421  0558  083B               	movf	___xxtofl@val+1,w
  3422  0559  1683               	bsf	3,5	;RP0=1, select bank1
  3423  055A  1303               	bcf	3,6	;RP1=0, select bank1
  3424  055B  00A7               	movwf	(___xxtofl@arg+1)^(0+128)
  3425  055C  1283               	bcf	3,5	;RP0=0, select bank0
  3426  055D  1303               	bcf	3,6	;RP1=0, select bank0
  3427  055E  083A               	movf	___xxtofl@val,w
  3428  055F  1683               	bsf	3,5	;RP0=1, select bank1
  3429  0560  1303               	bcf	3,6	;RP1=0, select bank1
  3430  0561  00A6               	movwf	___xxtofl@arg^(0+128)
  3431  0562                     l913:
  3432  0562  1283               	bcf	3,5	;RP0=0, select bank0
  3433  0563  1303               	bcf	3,6	;RP1=0, select bank0
  3434  0564  083D               	movf	___xxtofl@val+3,w
  3435  0565  043C               	iorwf	___xxtofl@val+2,w
  3436  0566  043B               	iorwf	___xxtofl@val+1,w
  3437  0567  043A               	iorwf	___xxtofl@val,w
  3438  0568  1D03               	skipz
  3439  0569  2D6B               	goto	u4221
  3440  056A  2D6C               	goto	u4220
  3441  056B                     u4221:
  3442  056B  2D75               	goto	l2962
  3443  056C                     u4220:
  3444  056C                     l2958:
  3445  056C  3000               	movlw	0
  3446  056D  00BD               	movwf	?___xxtofl+3
  3447  056E  3000               	movlw	0
  3448  056F  00BC               	movwf	?___xxtofl+2
  3449  0570  3000               	movlw	0
  3450  0571  00BB               	movwf	?___xxtofl+1
  3451  0572  3000               	movlw	0
  3452  0573  00BA               	movwf	?___xxtofl
  3453  0574  2E11               	goto	l915
  3454  0575                     l2962:
  3455  0575  3096               	movlw	150
  3456  0576  00FF               	movwf	btemp+1
  3457  0577  087F               	movf	btemp+1,w
  3458  0578  1683               	bsf	3,5	;RP0=1, select bank1
  3459  0579  1303               	bcf	3,6	;RP1=0, select bank1
  3460  057A  00A5               	movwf	___xxtofl@exp^(0+128)
  3461  057B  2D89               	goto	l2968
  3462  057C                     l2964:
  3463  057C  3001               	movlw	1
  3464  057D  00FF               	movwf	btemp+1
  3465  057E  087F               	movf	btemp+1,w
  3466  057F  07A5               	addwf	___xxtofl@exp^(0+128),f
  3467  0580                     l2966:
  3468  0580  3001               	movlw	1
  3469  0581                     u4235:
  3470  0581  1003               	clrc
  3471  0582  0CA9               	rrf	(___xxtofl@arg+3)^(0+128),f
  3472  0583  0CA8               	rrf	(___xxtofl@arg+2)^(0+128),f
  3473  0584  0CA7               	rrf	(___xxtofl@arg+1)^(0+128),f
  3474  0585  0CA6               	rrf	___xxtofl@arg^(0+128),f
  3475  0586  3EFF               	addlw	-1
  3476  0587  1D03               	skipz
  3477  0588  2D81               	goto	u4235
  3478  0589                     l2968:
  3479  0589  30FE               	movlw	254
  3480  058A  0529               	andwf	(___xxtofl@arg+3)^(0+128),w
  3481  058B  1D03               	btfss	3,2
  3482  058C  2D8E               	goto	u4241
  3483  058D  2D8F               	goto	u4240
  3484  058E                     u4241:
  3485  058E  2D7C               	goto	l2964
  3486  058F                     u4240:
  3487  058F  2DAB               	goto	l2976
  3488  0590                     l2970:
  3489  0590  3001               	movlw	1
  3490  0591  00FF               	movwf	btemp+1
  3491  0592  087F               	movf	btemp+1,w
  3492  0593  07A5               	addwf	___xxtofl@exp^(0+128),f
  3493  0594                     l2972:
  3494  0594  3001               	movlw	1
  3495  0595  07A6               	addwf	___xxtofl@arg^(0+128),f
  3496  0596  3000               	movlw	0
  3497  0597  1803               	skipnc
  3498  0598  3001               	movlw	1
  3499  0599  07A7               	addwf	(___xxtofl@arg+1)^(0+128),f
  3500  059A  3000               	movlw	0
  3501  059B  1803               	skipnc
  3502  059C  3001               	movlw	1
  3503  059D  07A8               	addwf	(___xxtofl@arg+2)^(0+128),f
  3504  059E  3000               	movlw	0
  3505  059F  1803               	skipnc
  3506  05A0  3001               	movlw	1
  3507  05A1  07A9               	addwf	(___xxtofl@arg+3)^(0+128),f
  3508  05A2                     l2974:
  3509  05A2  3001               	movlw	1
  3510  05A3                     u4255:
  3511  05A3  1003               	clrc
  3512  05A4  0CA9               	rrf	(___xxtofl@arg+3)^(0+128),f
  3513  05A5  0CA8               	rrf	(___xxtofl@arg+2)^(0+128),f
  3514  05A6  0CA7               	rrf	(___xxtofl@arg+1)^(0+128),f
  3515  05A7  0CA6               	rrf	___xxtofl@arg^(0+128),f
  3516  05A8  3EFF               	addlw	-1
  3517  05A9  1D03               	skipz
  3518  05AA  2DA3               	goto	u4255
  3519  05AB                     l2976:
  3520  05AB  30FF               	movlw	255
  3521  05AC  0529               	andwf	(___xxtofl@arg+3)^(0+128),w
  3522  05AD  1D03               	btfss	3,2
  3523  05AE  2DB0               	goto	u4261
  3524  05AF  2DB1               	goto	u4260
  3525  05B0                     u4261:
  3526  05B0  2D90               	goto	l2970
  3527  05B1                     u4260:
  3528  05B1  2DBD               	goto	l2980
  3529  05B2                     l2978:
  3530  05B2  3001               	movlw	1
  3531  05B3  02A5               	subwf	___xxtofl@exp^(0+128),f
  3532  05B4  3001               	movlw	1
  3533  05B5  00A0               	movwf	??___xxtofl^(0+128)
  3534  05B6                     u4275:
  3535  05B6  1003               	clrc
  3536  05B7  0DA6               	rlf	___xxtofl@arg^(0+128),f
  3537  05B8  0DA7               	rlf	(___xxtofl@arg+1)^(0+128),f
  3538  05B9  0DA8               	rlf	(___xxtofl@arg+2)^(0+128),f
  3539  05BA  0DA9               	rlf	(___xxtofl@arg+3)^(0+128),f
  3540  05BB  0BA0               	decfsz	??___xxtofl^(0+128),f
  3541  05BC  2DB6               	goto	u4275
  3542  05BD                     l2980:
  3543  05BD  1BA8               	btfsc	(___xxtofl@arg+2)^(0+128),7
  3544  05BE  2DC0               	goto	u4281
  3545  05BF  2DC1               	goto	u4280
  3546  05C0                     u4281:
  3547  05C0  2DC7               	goto	l926
  3548  05C1                     u4280:
  3549  05C1                     l2982:
  3550  05C1  3002               	movlw	2
  3551  05C2  0225               	subwf	___xxtofl@exp^(0+128),w
  3552  05C3  1803               	skipnc
  3553  05C4  2DC6               	goto	u4291
  3554  05C5  2DC7               	goto	u4290
  3555  05C6                     u4291:
  3556  05C6  2DB2               	goto	l2978
  3557  05C7                     u4290:
  3558  05C7                     l926:
  3559  05C7  1825               	btfsc	___xxtofl@exp^(0+128),0
  3560  05C8  2DCA               	goto	u4301
  3561  05C9  2DCB               	goto	u4300
  3562  05CA                     u4301:
  3563  05CA  2DD3               	goto	l927
  3564  05CB                     u4300:
  3565  05CB                     l2984:
  3566  05CB  30FF               	movlw	255
  3567  05CC  05A6               	andwf	___xxtofl@arg^(0+128),f
  3568  05CD  30FF               	movlw	255
  3569  05CE  05A7               	andwf	(___xxtofl@arg+1)^(0+128),f
  3570  05CF  307F               	movlw	127
  3571  05D0  05A8               	andwf	(___xxtofl@arg+2)^(0+128),f
  3572  05D1  30FF               	movlw	255
  3573  05D2  05A9               	andwf	(___xxtofl@arg+3)^(0+128),f
  3574  05D3                     l927:
  3575  05D3  1003               	clrc
  3576  05D4  0CA5               	rrf	___xxtofl@exp^(0+128),f
  3577  05D5                     l2986:
  3578  05D5  0825               	movf	___xxtofl@exp^(0+128),w
  3579  05D6  00A0               	movwf	??___xxtofl^(0+128)
  3580  05D7  01A1               	clrf	(??___xxtofl^(0+128)+1)
  3581  05D8  01A2               	clrf	(??___xxtofl^(0+128)+2)
  3582  05D9  01A3               	clrf	(??___xxtofl^(0+128)+3)
  3583  05DA  3018               	movlw	24
  3584  05DB                     u4315:
  3585  05DB  1003               	clrc
  3586  05DC  0DA0               	rlf	??___xxtofl^(0+128),f
  3587  05DD  0DA1               	rlf	(??___xxtofl^(0+128)+1),f
  3588  05DE  0DA2               	rlf	(??___xxtofl^(0+128)+2),f
  3589  05DF  0DA3               	rlf	(??___xxtofl^(0+128)+3),f
  3590  05E0                     u4310:
  3591  05E0  3EFF               	addlw	-1
  3592  05E1  1D03               	skipz
  3593  05E2  2DDB               	goto	u4315
  3594  05E3  0820               	movf	??___xxtofl^(0+128),w
  3595  05E4  04A6               	iorwf	___xxtofl@arg^(0+128),f
  3596  05E5  0821               	movf	(??___xxtofl+1)^(0+128),w
  3597  05E6  04A7               	iorwf	(___xxtofl@arg+1)^(0+128),f
  3598  05E7  0822               	movf	(??___xxtofl+2)^(0+128),w
  3599  05E8  04A8               	iorwf	(___xxtofl@arg+2)^(0+128),f
  3600  05E9  0823               	movf	(??___xxtofl+3)^(0+128),w
  3601  05EA  04A9               	iorwf	(___xxtofl@arg+3)^(0+128),f
  3602  05EB                     l2988:
  3603  05EB  0824               	movf	___xxtofl@sign^(0+128),w
  3604  05EC  1903               	btfsc	3,2
  3605  05ED  2DEF               	goto	u4321
  3606  05EE  2DF0               	goto	u4320
  3607  05EF                     u4321:
  3608  05EF  2DF9               	goto	l2994
  3609  05F0                     u4320:
  3610  05F0                     l2990:
  3611  05F0  1283               	bcf	3,5	;RP0=0, select bank0
  3612  05F1  1303               	bcf	3,6	;RP1=0, select bank0
  3613  05F2  1FBD               	btfss	___xxtofl@val+3,7
  3614  05F3  2DF5               	goto	u4331
  3615  05F4  2DF6               	goto	u4330
  3616  05F5                     u4331:
  3617  05F5  2DF9               	goto	l2994
  3618  05F6                     u4330:
  3619  05F6                     l2992:
  3620  05F6  1683               	bsf	3,5	;RP0=1, select bank1
  3621  05F7  1303               	bcf	3,6	;RP1=0, select bank1
  3622  05F8  17A9               	bsf	(___xxtofl@arg^(0+128)+3),7
  3623  05F9                     l2994:
  3624  05F9  1683               	bsf	3,5	;RP0=1, select bank1
  3625  05FA  1303               	bcf	3,6	;RP1=0, select bank1
  3626  05FB  0829               	movf	(___xxtofl@arg+3)^(0+128),w
  3627  05FC  1283               	bcf	3,5	;RP0=0, select bank0
  3628  05FD  1303               	bcf	3,6	;RP1=0, select bank0
  3629  05FE  00BD               	movwf	?___xxtofl+3
  3630  05FF  1683               	bsf	3,5	;RP0=1, select bank1
  3631  0600  1303               	bcf	3,6	;RP1=0, select bank1
  3632  0601  0828               	movf	(___xxtofl@arg+2)^(0+128),w
  3633  0602  1283               	bcf	3,5	;RP0=0, select bank0
  3634  0603  1303               	bcf	3,6	;RP1=0, select bank0
  3635  0604  00BC               	movwf	?___xxtofl+2
  3636  0605  1683               	bsf	3,5	;RP0=1, select bank1
  3637  0606  1303               	bcf	3,6	;RP1=0, select bank1
  3638  0607  0827               	movf	(___xxtofl@arg+1)^(0+128),w
  3639  0608  1283               	bcf	3,5	;RP0=0, select bank0
  3640  0609  1303               	bcf	3,6	;RP1=0, select bank0
  3641  060A  00BB               	movwf	?___xxtofl+1
  3642  060B  1683               	bsf	3,5	;RP0=1, select bank1
  3643  060C  1303               	bcf	3,6	;RP1=0, select bank1
  3644  060D  0826               	movf	___xxtofl@arg^(0+128),w
  3645  060E  1283               	bcf	3,5	;RP0=0, select bank0
  3646  060F  1303               	bcf	3,6	;RP1=0, select bank0
  3647  0610  00BA               	movwf	?___xxtofl
  3648  0611                     l915:
  3649  0611  0008               	return
  3650  0612                     __end_of___xxtofl:
  3651                           
  3652                           	psect	text17
  3653  0F84                     __ptext17:	
  3654 ;; *************** function ___fltol *****************
  3655 ;; Defined at:
  3656 ;;		line 43 in file "C:\Program Files (x86)\Microchip\xc8\v2.20\pic\sources\c90\common\fltol.c"
  3657 ;; Parameters:    Size  Location     Type
  3658 ;;  f1              4   36[BANK1 ] unsigned char 
  3659 ;; Auto vars:     Size  Location     Type
  3660 ;;  exp1            1   45[BANK1 ] unsigned char 
  3661 ;;  sign1           1   44[BANK1 ] unsigned char 
  3662 ;; Return value:  Size  Location     Type
  3663 ;;                  4   36[BANK1 ] long 
  3664 ;; Registers used:
  3665 ;;		wreg, status,2, status,0, btemp+1
  3666 ;; Tracked objects:
  3667 ;;		On entry : 0/0
  3668 ;;		On exit  : 0/0
  3669 ;;		Unchanged: 0/0
  3670 ;; Data sizes:     COMMON   BANK0   BANK1   BANK3   BANK2
  3671 ;;      Params:         0       0       4       0       0
  3672 ;;      Locals:         0       0       2       0       0
  3673 ;;      Temps:          0       0       4       0       0
  3674 ;;      Totals:         0       0      10       0       0
  3675 ;;Total ram usage:       10 bytes
  3676 ;; Hardware stack levels used:    1
  3677 ;; Hardware stack levels required when called:    4
  3678 ;; This function calls:
  3679 ;;		Nothing
  3680 ;; This function is called by:
  3681 ;;		_Temperature_Calc
  3682 ;; This function uses a non-reentrant model
  3683 ;;
  3684                           
  3685                           
  3686                           ;psect for function ___fltol
  3687  0F84                     ___fltol:
  3688  0F84                     l2770:	
  3689                           ;incstack = 0
  3690 ;; hardware stack exceeded
  3691                           ; Regs used in ___fltol: [wreg+status,2+status,0+btemp+1]
  3692                           
  3693  0F84  1003               	clrc
  3694  0F85  1683               	bsf	3,5	;RP0=1, select bank1
  3695  0F86  1303               	bcf	3,6	;RP1=0, select bank1
  3696  0F87  0D46               	rlf	(___fltol@f1+2)^(0+128),w
  3697  0F88  0D47               	rlf	(___fltol@f1+3)^(0+128),w
  3698  0F89  00FF               	movwf	btemp+1
  3699  0F8A  087F               	movf	btemp+1,w
  3700  0F8B  00CD               	movwf	___fltol@exp1^(0+128)
  3701  0F8C  084D               	movf	___fltol@exp1^(0+128),w
  3702  0F8D  1D03               	btfss	3,2
  3703  0F8E  2F90               	goto	u3731
  3704  0F8F  2F91               	goto	u3730
  3705  0F90                     u3731:
  3706  0F90  2F9A               	goto	l2776
  3707  0F91                     u3730:
  3708  0F91                     l2772:
  3709  0F91  3000               	movlw	0
  3710  0F92  00C7               	movwf	(?___fltol+3)^(0+128)
  3711  0F93  3000               	movlw	0
  3712  0F94  00C6               	movwf	(?___fltol+2)^(0+128)
  3713  0F95  3000               	movlw	0
  3714  0F96  00C5               	movwf	(?___fltol+1)^(0+128)
  3715  0F97  3000               	movlw	0
  3716  0F98  00C4               	movwf	?___fltol^(0+128)
  3717  0F99  2FFF               	goto	l666
  3718  0F9A                     l2776:
  3719  0F9A  0844               	movf	___fltol@f1^(0+128),w
  3720  0F9B  00C8               	movwf	??___fltol^(0+128)
  3721  0F9C  0845               	movf	(___fltol@f1+1)^(0+128),w
  3722  0F9D  00C9               	movwf	(??___fltol^(0+128)+1)
  3723  0F9E  0846               	movf	(___fltol@f1+2)^(0+128),w
  3724  0F9F  00CA               	movwf	(??___fltol^(0+128)+2)
  3725  0FA0  0847               	movf	(___fltol@f1+3)^(0+128),w
  3726  0FA1  00CB               	movwf	(??___fltol^(0+128)+3)
  3727  0FA2  301F               	movlw	31
  3728  0FA3                     u3745:
  3729  0FA3  1003               	clrc
  3730  0FA4  0CCB               	rrf	(??___fltol^(0+128)+3),f
  3731  0FA5  0CCA               	rrf	(??___fltol^(0+128)+2),f
  3732  0FA6  0CC9               	rrf	(??___fltol^(0+128)+1),f
  3733  0FA7  0CC8               	rrf	??___fltol^(0+128),f
  3734  0FA8                     u3740:
  3735  0FA8  3EFF               	addlw	-1
  3736  0FA9  1D03               	skipz
  3737  0FAA  2FA3               	goto	u3745
  3738  0FAB  0848               	movf	??___fltol^(0+128),w
  3739  0FAC  00FF               	movwf	btemp+1
  3740  0FAD  087F               	movf	btemp+1,w
  3741  0FAE  00CC               	movwf	___fltol@sign1^(0+128)
  3742  0FAF                     l2778:
  3743  0FAF  17C6               	bsf	(___fltol@f1^(0+128)+2),7
  3744  0FB0                     l2780:
  3745  0FB0  30FF               	movlw	255
  3746  0FB1  05C4               	andwf	___fltol@f1^(0+128),f
  3747  0FB2  30FF               	movlw	255
  3748  0FB3  05C5               	andwf	(___fltol@f1+1)^(0+128),f
  3749  0FB4  30FF               	movlw	255
  3750  0FB5  05C6               	andwf	(___fltol@f1+2)^(0+128),f
  3751  0FB6  3000               	movlw	0
  3752  0FB7  05C7               	andwf	(___fltol@f1+3)^(0+128),f
  3753  0FB8                     l2782:
  3754  0FB8  3096               	movlw	150
  3755  0FB9  02CD               	subwf	___fltol@exp1^(0+128),f
  3756  0FBA                     l2784:
  3757  0FBA  1FCD               	btfss	___fltol@exp1^(0+128),7
  3758  0FBB  2FBD               	goto	u3751
  3759  0FBC  2FBE               	goto	u3750
  3760  0FBD                     u3751:
  3761  0FBD  2FD8               	goto	l2796
  3762  0FBE                     u3750:
  3763  0FBE                     l2786:
  3764  0FBE  084D               	movf	___fltol@exp1^(0+128),w
  3765  0FBF  3A80               	xorlw	128
  3766  0FC0  3E97               	addlw	151
  3767  0FC1  1803               	skipnc
  3768  0FC2  2FC4               	goto	u3761
  3769  0FC3  2FC5               	goto	u3760
  3770  0FC4                     u3761:
  3771  0FC4  2FC6               	goto	l2792
  3772  0FC5                     u3760:
  3773  0FC5  2F91               	goto	l2772
  3774  0FC6                     l2792:
  3775  0FC6  3001               	movlw	1
  3776  0FC7                     u3775:
  3777  0FC7  1003               	clrc
  3778  0FC8  0CC7               	rrf	(___fltol@f1+3)^(0+128),f
  3779  0FC9  0CC6               	rrf	(___fltol@f1+2)^(0+128),f
  3780  0FCA  0CC5               	rrf	(___fltol@f1+1)^(0+128),f
  3781  0FCB  0CC4               	rrf	___fltol@f1^(0+128),f
  3782  0FCC  3EFF               	addlw	-1
  3783  0FCD  1D03               	skipz
  3784  0FCE  2FC7               	goto	u3775
  3785  0FCF                     l2794:
  3786  0FCF  3001               	movlw	1
  3787  0FD0  00FF               	movwf	btemp+1
  3788  0FD1  087F               	movf	btemp+1,w
  3789  0FD2  07CD               	addwf	___fltol@exp1^(0+128),f
  3790  0FD3  1D03               	btfss	3,2
  3791  0FD4  2FD6               	goto	u3781
  3792  0FD5  2FD7               	goto	u3780
  3793  0FD6                     u3781:
  3794  0FD6  2FC6               	goto	l2792
  3795  0FD7                     u3780:
  3796  0FD7  2FEF               	goto	l2804
  3797  0FD8                     l2796:
  3798  0FD8  3020               	movlw	32
  3799  0FD9  024D               	subwf	___fltol@exp1^(0+128),w
  3800  0FDA  1C03               	skipc
  3801  0FDB  2FDD               	goto	u3791
  3802  0FDC  2FDE               	goto	u3790
  3803  0FDD                     u3791:
  3804  0FDD  2FEA               	goto	l673
  3805  0FDE                     u3790:
  3806  0FDE  2F91               	goto	l2772
  3807  0FDF                     l2802:
  3808  0FDF  3001               	movlw	1
  3809  0FE0  00C8               	movwf	??___fltol^(0+128)
  3810  0FE1                     u3805:
  3811  0FE1  1003               	clrc
  3812  0FE2  0DC4               	rlf	___fltol@f1^(0+128),f
  3813  0FE3  0DC5               	rlf	(___fltol@f1+1)^(0+128),f
  3814  0FE4  0DC6               	rlf	(___fltol@f1+2)^(0+128),f
  3815  0FE5  0DC7               	rlf	(___fltol@f1+3)^(0+128),f
  3816  0FE6  0BC8               	decfsz	??___fltol^(0+128),f
  3817  0FE7  2FE1               	goto	u3805
  3818  0FE8  3001               	movlw	1
  3819  0FE9  02CD               	subwf	___fltol@exp1^(0+128),f
  3820  0FEA                     l673:
  3821  0FEA  084D               	movf	___fltol@exp1^(0+128),w
  3822  0FEB  1D03               	btfss	3,2
  3823  0FEC  2FEE               	goto	u3811
  3824  0FED  2FEF               	goto	u3810
  3825  0FEE                     u3811:
  3826  0FEE  2FDF               	goto	l2802
  3827  0FEF                     u3810:
  3828  0FEF                     l2804:
  3829  0FEF  084C               	movf	___fltol@sign1^(0+128),w
  3830  0FF0  1903               	btfsc	3,2
  3831  0FF1  2FF3               	goto	u3821
  3832  0FF2  2FF4               	goto	u3820
  3833  0FF3                     u3821:
  3834  0FF3  2FFF               	goto	l676
  3835  0FF4                     u3820:
  3836  0FF4                     l2806:
  3837  0FF4  09C4               	comf	___fltol@f1^(0+128),f
  3838  0FF5  09C5               	comf	(___fltol@f1+1)^(0+128),f
  3839  0FF6  09C6               	comf	(___fltol@f1+2)^(0+128),f
  3840  0FF7  09C7               	comf	(___fltol@f1+3)^(0+128),f
  3841  0FF8  0AC4               	incf	___fltol@f1^(0+128),f
  3842  0FF9  1903               	skipnz
  3843  0FFA  0AC5               	incf	(___fltol@f1+1)^(0+128),f
  3844  0FFB  1903               	skipnz
  3845  0FFC  0AC6               	incf	(___fltol@f1+2)^(0+128),f
  3846  0FFD  1903               	skipnz
  3847  0FFE  0AC7               	incf	(___fltol@f1+3)^(0+128),f
  3848  0FFF                     l676:
  3849  0FFF                     l666:
  3850  0FFF  0008               	return
  3851  1000                     __end_of___fltol:
  3852                           
  3853                           	psect	text18
  3854  005A                     __ptext18:	
  3855 ;; *************** function ___flmul *****************
  3856 ;; Defined at:
  3857 ;;		line 8 in file "C:\Program Files (x86)\Microchip\xc8\v2.20\pic\sources\c90\common\sprcmul.c"
  3858 ;; Parameters:    Size  Location     Type
  3859 ;;  b               4   10[BANK1 ] long 
  3860 ;;  a               4   14[BANK1 ] long 
  3861 ;; Auto vars:     Size  Location     Type
  3862 ;;  prod            4   30[BANK1 ] struct .
  3863 ;;  grs             4   25[BANK1 ] unsigned long 
  3864 ;;  temp            2   34[BANK1 ] struct .
  3865 ;;  bexp            1   29[BANK1 ] unsigned char 
  3866 ;;  aexp            1   24[BANK1 ] unsigned char 
  3867 ;;  sign            1   23[BANK1 ] unsigned char 
  3868 ;; Return value:  Size  Location     Type
  3869 ;;                  4   10[BANK1 ] unsigned char 
  3870 ;; Registers used:
  3871 ;;		wreg, status,2, status,0, btemp+1, pclath, cstack
  3872 ;; Tracked objects:
  3873 ;;		On entry : 0/0
  3874 ;;		On exit  : 0/0
  3875 ;;		Unchanged: 0/0
  3876 ;; Data sizes:     COMMON   BANK0   BANK1   BANK3   BANK2
  3877 ;;      Params:         0       0       8       0       0
  3878 ;;      Locals:         0       0      13       0       0
  3879 ;;      Temps:          0       0       5       0       0
  3880 ;;      Totals:         0       0      26       0       0
  3881 ;;Total ram usage:       26 bytes
  3882 ;; Hardware stack levels used:    1
  3883 ;; Hardware stack levels required when called:    5
  3884 ;; This function calls:
  3885 ;;		__Umul8_16
  3886 ;; This function is called by:
  3887 ;;		_Temperature_Calc
  3888 ;; This function uses a non-reentrant model
  3889 ;;
  3890                           
  3891                           
  3892                           ;psect for function ___flmul
  3893  005A                     ___flmul:
  3894  005A                     l2808:	
  3895                           ;incstack = 0
  3896 ;; hardware stack exceeded
  3897                           ; Regs used in ___flmul: [wreg+status,2+status,0+btemp+1+pclath+cstack]
  3898                           
  3899  005A  1683               	bsf	3,5	;RP0=1, select bank1
  3900  005B  1303               	bcf	3,6	;RP1=0, select bank1
  3901  005C  082D               	movf	(___flmul@b^(0+128)+3),w
  3902  005D  3980               	andlw	128
  3903  005E  00FF               	movwf	btemp+1
  3904  005F  087F               	movf	btemp+1,w
  3905  0060  00B7               	movwf	___flmul@sign^(0+128)
  3906  0061                     l2810:
  3907  0061  082D               	movf	(___flmul@b^(0+128)+3),w
  3908  0062  00B2               	movwf	??___flmul^(0+128)
  3909  0063  0732               	addwf	??___flmul^(0+128),w
  3910  0064  00FF               	movwf	btemp+1
  3911  0065  087F               	movf	btemp+1,w
  3912  0066  00BD               	movwf	___flmul@bexp^(0+128)
  3913  0067                     l2812:
  3914  0067  1FAC               	btfss	(___flmul@b^(0+128)+2),7
  3915  0068  286A               	goto	u3831
  3916  0069  286B               	goto	u3830
  3917  006A                     u3831:
  3918  006A  286C               	goto	l2816
  3919  006B                     u3830:
  3920  006B                     l2814:
  3921  006B  143D               	bsf	___flmul@bexp^(0+128),0
  3922  006C                     l2816:
  3923  006C  083D               	movf	___flmul@bexp^(0+128),w
  3924  006D  1903               	btfsc	3,2
  3925  006E  2870               	goto	u3841
  3926  006F  2871               	goto	u3840
  3927  0070                     u3841:
  3928  0070  2880               	goto	l2824
  3929  0071                     u3840:
  3930  0071                     l2818:
  3931  0071  0A3D               	incf	___flmul@bexp^(0+128),w
  3932  0072  1D03               	btfss	3,2
  3933  0073  2875               	goto	u3851
  3934  0074  2876               	goto	u3850
  3935  0075                     u3851:
  3936  0075  287E               	goto	l2822
  3937  0076                     u3850:
  3938  0076                     l2820:
  3939  0076  3000               	movlw	0
  3940  0077  00AD               	movwf	(___flmul@b+3)^(0+128)
  3941  0078  3000               	movlw	0
  3942  0079  00AC               	movwf	(___flmul@b+2)^(0+128)
  3943  007A  3000               	movlw	0
  3944  007B  00AB               	movwf	(___flmul@b+1)^(0+128)
  3945  007C  3000               	movlw	0
  3946  007D  00AA               	movwf	___flmul@b^(0+128)
  3947  007E                     l2822:
  3948  007E  17AC               	bsf	(___flmul@b^(0+128)+2),7
  3949  007F  2888               	goto	l2826
  3950  0080                     l2824:
  3951  0080  3000               	movlw	0
  3952  0081  00AD               	movwf	(___flmul@b+3)^(0+128)
  3953  0082  3000               	movlw	0
  3954  0083  00AC               	movwf	(___flmul@b+2)^(0+128)
  3955  0084  3000               	movlw	0
  3956  0085  00AB               	movwf	(___flmul@b+1)^(0+128)
  3957  0086  3000               	movlw	0
  3958  0087  00AA               	movwf	___flmul@b^(0+128)
  3959  0088                     l2826:
  3960  0088  0831               	movf	(___flmul@a^(0+128)+3),w
  3961  0089  3980               	andlw	128
  3962  008A  00FF               	movwf	btemp+1
  3963  008B  087F               	movf	btemp+1,w
  3964  008C  06B7               	xorwf	___flmul@sign^(0+128),f
  3965  008D                     l2828:
  3966  008D  0831               	movf	(___flmul@a^(0+128)+3),w
  3967  008E  00B2               	movwf	??___flmul^(0+128)
  3968  008F  0732               	addwf	??___flmul^(0+128),w
  3969  0090  00FF               	movwf	btemp+1
  3970  0091  087F               	movf	btemp+1,w
  3971  0092  00B8               	movwf	___flmul@aexp^(0+128)
  3972  0093                     l2830:
  3973  0093  1FB0               	btfss	(___flmul@a^(0+128)+2),7
  3974  0094  2896               	goto	u3861
  3975  0095  2897               	goto	u3860
  3976  0096                     u3861:
  3977  0096  2898               	goto	l2834
  3978  0097                     u3860:
  3979  0097                     l2832:
  3980  0097  1438               	bsf	___flmul@aexp^(0+128),0
  3981  0098                     l2834:
  3982  0098  0838               	movf	___flmul@aexp^(0+128),w
  3983  0099  1903               	btfsc	3,2
  3984  009A  289C               	goto	u3871
  3985  009B  289D               	goto	u3870
  3986  009C                     u3871:
  3987  009C  28AC               	goto	l2842
  3988  009D                     u3870:
  3989  009D                     l2836:
  3990  009D  0A38               	incf	___flmul@aexp^(0+128),w
  3991  009E  1D03               	btfss	3,2
  3992  009F  28A1               	goto	u3881
  3993  00A0  28A2               	goto	u3880
  3994  00A1                     u3881:
  3995  00A1  28AA               	goto	l2840
  3996  00A2                     u3880:
  3997  00A2                     l2838:
  3998  00A2  3000               	movlw	0
  3999  00A3  00B1               	movwf	(___flmul@a+3)^(0+128)
  4000  00A4  3000               	movlw	0
  4001  00A5  00B0               	movwf	(___flmul@a+2)^(0+128)
  4002  00A6  3000               	movlw	0
  4003  00A7  00AF               	movwf	(___flmul@a+1)^(0+128)
  4004  00A8  3000               	movlw	0
  4005  00A9  00AE               	movwf	___flmul@a^(0+128)
  4006  00AA                     l2840:
  4007  00AA  17B0               	bsf	(___flmul@a^(0+128)+2),7
  4008  00AB  28B4               	goto	l2844
  4009  00AC                     l2842:
  4010  00AC  3000               	movlw	0
  4011  00AD  00B1               	movwf	(___flmul@a+3)^(0+128)
  4012  00AE  3000               	movlw	0
  4013  00AF  00B0               	movwf	(___flmul@a+2)^(0+128)
  4014  00B0  3000               	movlw	0
  4015  00B1  00AF               	movwf	(___flmul@a+1)^(0+128)
  4016  00B2  3000               	movlw	0
  4017  00B3  00AE               	movwf	___flmul@a^(0+128)
  4018  00B4                     l2844:
  4019  00B4  0838               	movf	___flmul@aexp^(0+128),w
  4020  00B5  1903               	btfsc	3,2
  4021  00B6  28B8               	goto	u3891
  4022  00B7  28B9               	goto	u3890
  4023  00B8                     u3891:
  4024  00B8  28BE               	goto	l2848
  4025  00B9                     u3890:
  4026  00B9                     l2846:
  4027  00B9  083D               	movf	___flmul@bexp^(0+128),w
  4028  00BA  1D03               	btfss	3,2
  4029  00BB  28BD               	goto	u3901
  4030  00BC  28BE               	goto	u3900
  4031  00BD                     u3901:
  4032  00BD  28C7               	goto	l2852
  4033  00BE                     u3900:
  4034  00BE                     l2848:
  4035  00BE  3000               	movlw	0
  4036  00BF  00AD               	movwf	(?___flmul+3)^(0+128)
  4037  00C0  3000               	movlw	0
  4038  00C1  00AC               	movwf	(?___flmul+2)^(0+128)
  4039  00C2  3000               	movlw	0
  4040  00C3  00AB               	movwf	(?___flmul+1)^(0+128)
  4041  00C4  3000               	movlw	0
  4042  00C5  00AA               	movwf	?___flmul^(0+128)
  4043  00C6  2C14               	goto	l869
  4044  00C7                     l2852:
  4045  00C7  082A               	movf	___flmul@b^(0+128),w
  4046  00C8  00FF               	movwf	btemp+1
  4047  00C9  087F               	movf	btemp+1,w
  4048  00CA  1283               	bcf	3,5	;RP0=0, select bank0
  4049  00CB  1303               	bcf	3,6	;RP1=0, select bank0
  4050  00CC  00BA               	movwf	__Umul8_16@multiplicand
  4051  00CD  1683               	bsf	3,5	;RP0=1, select bank1
  4052  00CE  1303               	bcf	3,6	;RP1=0, select bank1
  4053  00CF  0830               	movf	(___flmul@a^(0+128)+2),w
  4054  00D0  120A  158A  22FB  120A  118A  	fcall	__Umul8_16
  4055  00D5  1283               	bcf	3,5	;RP0=0, select bank0
  4056  00D6  1303               	bcf	3,6	;RP1=0, select bank0
  4057  00D7  083B               	movf	?__Umul8_16+1,w
  4058  00D8  1683               	bsf	3,5	;RP0=1, select bank1
  4059  00D9  1303               	bcf	3,6	;RP1=0, select bank1
  4060  00DA  00C3               	movwf	(___flmul@temp+1)^(0+128)
  4061  00DB  1283               	bcf	3,5	;RP0=0, select bank0
  4062  00DC  1303               	bcf	3,6	;RP1=0, select bank0
  4063  00DD  083A               	movf	?__Umul8_16,w
  4064  00DE  1683               	bsf	3,5	;RP0=1, select bank1
  4065  00DF  1303               	bcf	3,6	;RP1=0, select bank1
  4066  00E0  00C2               	movwf	___flmul@temp^(0+128)
  4067  00E1                     l2854:
  4068  00E1  0842               	movf	___flmul@temp^(0+128),w
  4069  00E2  00B2               	movwf	??___flmul^(0+128)
  4070  00E3  01B3               	clrf	(??___flmul^(0+128)+1)
  4071  00E4  01B4               	clrf	(??___flmul^(0+128)+2)
  4072  00E5  01B5               	clrf	(??___flmul^(0+128)+3)
  4073  00E6  0835               	movf	(??___flmul+3)^(0+128),w
  4074  00E7  00BC               	movwf	(___flmul@grs+3)^(0+128)
  4075  00E8  0834               	movf	(??___flmul+2)^(0+128),w
  4076  00E9  00BB               	movwf	(___flmul@grs+2)^(0+128)
  4077  00EA  0833               	movf	(??___flmul+1)^(0+128),w
  4078  00EB  00BA               	movwf	(___flmul@grs+1)^(0+128)
  4079  00EC  0832               	movf	??___flmul^(0+128),w
  4080  00ED  00B9               	movwf	___flmul@grs^(0+128)
  4081  00EE                     l2856:
  4082  00EE  0843               	movf	(___flmul@temp^(0+128)+1),w
  4083  00EF  00B2               	movwf	??___flmul^(0+128)
  4084  00F0  01B3               	clrf	(??___flmul^(0+128)+1)
  4085  00F1  01B4               	clrf	(??___flmul^(0+128)+2)
  4086  00F2  01B5               	clrf	(??___flmul^(0+128)+3)
  4087  00F3  0835               	movf	(??___flmul+3)^(0+128),w
  4088  00F4  00C1               	movwf	(___flmul@prod+3)^(0+128)
  4089  00F5  0834               	movf	(??___flmul+2)^(0+128),w
  4090  00F6  00C0               	movwf	(___flmul@prod+2)^(0+128)
  4091  00F7  0833               	movf	(??___flmul+1)^(0+128),w
  4092  00F8  00BF               	movwf	(___flmul@prod+1)^(0+128)
  4093  00F9  0832               	movf	??___flmul^(0+128),w
  4094  00FA  00BE               	movwf	___flmul@prod^(0+128)
  4095  00FB  082B               	movf	(___flmul@b^(0+128)+1),w
  4096  00FC  00FF               	movwf	btemp+1
  4097  00FD  087F               	movf	btemp+1,w
  4098  00FE  1283               	bcf	3,5	;RP0=0, select bank0
  4099  00FF  1303               	bcf	3,6	;RP1=0, select bank0
  4100  0100  00BA               	movwf	__Umul8_16@multiplicand
  4101  0101  1683               	bsf	3,5	;RP0=1, select bank1
  4102  0102  1303               	bcf	3,6	;RP1=0, select bank1
  4103  0103  082F               	movf	(___flmul@a^(0+128)+1),w
  4104  0104  120A  158A  22FB  120A  118A  	fcall	__Umul8_16
  4105  0109  1283               	bcf	3,5	;RP0=0, select bank0
  4106  010A  1303               	bcf	3,6	;RP1=0, select bank0
  4107  010B  083B               	movf	?__Umul8_16+1,w
  4108  010C  1683               	bsf	3,5	;RP0=1, select bank1
  4109  010D  1303               	bcf	3,6	;RP1=0, select bank1
  4110  010E  00C3               	movwf	(___flmul@temp+1)^(0+128)
  4111  010F  1283               	bcf	3,5	;RP0=0, select bank0
  4112  0110  1303               	bcf	3,6	;RP1=0, select bank0
  4113  0111  083A               	movf	?__Umul8_16,w
  4114  0112  1683               	bsf	3,5	;RP0=1, select bank1
  4115  0113  1303               	bcf	3,6	;RP1=0, select bank1
  4116  0114  00C2               	movwf	___flmul@temp^(0+128)
  4117  0115                     l2858:
  4118  0115  0842               	movf	___flmul@temp^(0+128),w
  4119  0116  00B2               	movwf	??___flmul^(0+128)
  4120  0117  01B3               	clrf	(??___flmul^(0+128)+1)
  4121  0118  01B4               	clrf	(??___flmul^(0+128)+2)
  4122  0119  01B5               	clrf	(??___flmul^(0+128)+3)
  4123  011A  0832               	movf	??___flmul^(0+128),w
  4124  011B  07B9               	addwf	___flmul@grs^(0+128),f
  4125  011C  0833               	movf	(??___flmul+1)^(0+128),w
  4126  011D  1103               	clrz
  4127  011E  1803               	skipnc
  4128  011F  3E01               	addlw	1
  4129  0120  1903               	skipnz
  4130  0121  2923               	goto	u3911
  4131  0122  07BA               	addwf	(___flmul@grs+1)^(0+128),f
  4132  0123                     u3911:
  4133  0123  0834               	movf	(??___flmul+2)^(0+128),w
  4134  0124  1103               	clrz
  4135  0125  1803               	skipnc
  4136  0126  3E01               	addlw	1
  4137  0127  1903               	skipnz
  4138  0128  292A               	goto	u3912
  4139  0129  07BB               	addwf	(___flmul@grs+2)^(0+128),f
  4140  012A                     u3912:
  4141  012A  0835               	movf	(??___flmul+3)^(0+128),w
  4142  012B  1103               	clrz
  4143  012C  1803               	skipnc
  4144  012D  3E01               	addlw	1
  4145  012E  1903               	skipnz
  4146  012F  2931               	goto	u3913
  4147  0130  07BC               	addwf	(___flmul@grs+3)^(0+128),f
  4148  0131                     u3913:
  4149  0131                     l2860:
  4150  0131  0843               	movf	(___flmul@temp^(0+128)+1),w
  4151  0132  00B2               	movwf	??___flmul^(0+128)
  4152  0133  01B3               	clrf	(??___flmul^(0+128)+1)
  4153  0134  01B4               	clrf	(??___flmul^(0+128)+2)
  4154  0135  01B5               	clrf	(??___flmul^(0+128)+3)
  4155  0136  0832               	movf	??___flmul^(0+128),w
  4156  0137  07BE               	addwf	___flmul@prod^(0+128),f
  4157  0138  0833               	movf	(??___flmul+1)^(0+128),w
  4158  0139  1103               	clrz
  4159  013A  1803               	skipnc
  4160  013B  3E01               	addlw	1
  4161  013C  1903               	skipnz
  4162  013D  293F               	goto	u3921
  4163  013E  07BF               	addwf	(___flmul@prod+1)^(0+128),f
  4164  013F                     u3921:
  4165  013F  0834               	movf	(??___flmul+2)^(0+128),w
  4166  0140  1103               	clrz
  4167  0141  1803               	skipnc
  4168  0142  3E01               	addlw	1
  4169  0143  1903               	skipnz
  4170  0144  2946               	goto	u3922
  4171  0145  07C0               	addwf	(___flmul@prod+2)^(0+128),f
  4172  0146                     u3922:
  4173  0146  0835               	movf	(??___flmul+3)^(0+128),w
  4174  0147  1103               	clrz
  4175  0148  1803               	skipnc
  4176  0149  3E01               	addlw	1
  4177  014A  1903               	skipnz
  4178  014B  294D               	goto	u3923
  4179  014C  07C1               	addwf	(___flmul@prod+3)^(0+128),f
  4180  014D                     u3923:
  4181  014D  082C               	movf	(___flmul@b^(0+128)+2),w
  4182  014E  00FF               	movwf	btemp+1
  4183  014F  087F               	movf	btemp+1,w
  4184  0150  1283               	bcf	3,5	;RP0=0, select bank0
  4185  0151  1303               	bcf	3,6	;RP1=0, select bank0
  4186  0152  00BA               	movwf	__Umul8_16@multiplicand
  4187  0153  1683               	bsf	3,5	;RP0=1, select bank1
  4188  0154  1303               	bcf	3,6	;RP1=0, select bank1
  4189  0155  082E               	movf	___flmul@a^(0+128),w
  4190  0156  120A  158A  22FB  120A  118A  	fcall	__Umul8_16
  4191  015B  1283               	bcf	3,5	;RP0=0, select bank0
  4192  015C  1303               	bcf	3,6	;RP1=0, select bank0
  4193  015D  083B               	movf	?__Umul8_16+1,w
  4194  015E  1683               	bsf	3,5	;RP0=1, select bank1
  4195  015F  1303               	bcf	3,6	;RP1=0, select bank1
  4196  0160  00C3               	movwf	(___flmul@temp+1)^(0+128)
  4197  0161  1283               	bcf	3,5	;RP0=0, select bank0
  4198  0162  1303               	bcf	3,6	;RP1=0, select bank0
  4199  0163  083A               	movf	?__Umul8_16,w
  4200  0164  1683               	bsf	3,5	;RP0=1, select bank1
  4201  0165  1303               	bcf	3,6	;RP1=0, select bank1
  4202  0166  00C2               	movwf	___flmul@temp^(0+128)
  4203  0167                     l2862:
  4204  0167  0842               	movf	___flmul@temp^(0+128),w
  4205  0168  00B2               	movwf	??___flmul^(0+128)
  4206  0169  01B3               	clrf	(??___flmul^(0+128)+1)
  4207  016A  01B4               	clrf	(??___flmul^(0+128)+2)
  4208  016B  01B5               	clrf	(??___flmul^(0+128)+3)
  4209  016C  0832               	movf	??___flmul^(0+128),w
  4210  016D  07B9               	addwf	___flmul@grs^(0+128),f
  4211  016E  0833               	movf	(??___flmul+1)^(0+128),w
  4212  016F  1103               	clrz
  4213  0170  1803               	skipnc
  4214  0171  3E01               	addlw	1
  4215  0172  1903               	skipnz
  4216  0173  2975               	goto	u3931
  4217  0174  07BA               	addwf	(___flmul@grs+1)^(0+128),f
  4218  0175                     u3931:
  4219  0175  0834               	movf	(??___flmul+2)^(0+128),w
  4220  0176  1103               	clrz
  4221  0177  1803               	skipnc
  4222  0178  3E01               	addlw	1
  4223  0179  1903               	skipnz
  4224  017A  297C               	goto	u3932
  4225  017B  07BB               	addwf	(___flmul@grs+2)^(0+128),f
  4226  017C                     u3932:
  4227  017C  0835               	movf	(??___flmul+3)^(0+128),w
  4228  017D  1103               	clrz
  4229  017E  1803               	skipnc
  4230  017F  3E01               	addlw	1
  4231  0180  1903               	skipnz
  4232  0181  2983               	goto	u3933
  4233  0182  07BC               	addwf	(___flmul@grs+3)^(0+128),f
  4234  0183                     u3933:
  4235  0183                     l2864:
  4236  0183  0843               	movf	(___flmul@temp^(0+128)+1),w
  4237  0184  00B2               	movwf	??___flmul^(0+128)
  4238  0185  01B3               	clrf	(??___flmul^(0+128)+1)
  4239  0186  01B4               	clrf	(??___flmul^(0+128)+2)
  4240  0187  01B5               	clrf	(??___flmul^(0+128)+3)
  4241  0188  0832               	movf	??___flmul^(0+128),w
  4242  0189  07BE               	addwf	___flmul@prod^(0+128),f
  4243  018A  0833               	movf	(??___flmul+1)^(0+128),w
  4244  018B  1103               	clrz
  4245  018C  1803               	skipnc
  4246  018D  3E01               	addlw	1
  4247  018E  1903               	skipnz
  4248  018F  2991               	goto	u3941
  4249  0190  07BF               	addwf	(___flmul@prod+1)^(0+128),f
  4250  0191                     u3941:
  4251  0191  0834               	movf	(??___flmul+2)^(0+128),w
  4252  0192  1103               	clrz
  4253  0193  1803               	skipnc
  4254  0194  3E01               	addlw	1
  4255  0195  1903               	skipnz
  4256  0196  2998               	goto	u3942
  4257  0197  07C0               	addwf	(___flmul@prod+2)^(0+128),f
  4258  0198                     u3942:
  4259  0198  0835               	movf	(??___flmul+3)^(0+128),w
  4260  0199  1103               	clrz
  4261  019A  1803               	skipnc
  4262  019B  3E01               	addlw	1
  4263  019C  1903               	skipnz
  4264  019D  299F               	goto	u3943
  4265  019E  07C1               	addwf	(___flmul@prod+3)^(0+128),f
  4266  019F                     u3943:
  4267  019F                     l2866:
  4268  019F  3008               	movlw	8
  4269  01A0  00B2               	movwf	??___flmul^(0+128)
  4270  01A1                     u3955:
  4271  01A1  1003               	clrc
  4272  01A2  0DB9               	rlf	___flmul@grs^(0+128),f
  4273  01A3  0DBA               	rlf	(___flmul@grs+1)^(0+128),f
  4274  01A4  0DBB               	rlf	(___flmul@grs+2)^(0+128),f
  4275  01A5  0DBC               	rlf	(___flmul@grs+3)^(0+128),f
  4276  01A6  0BB2               	decfsz	??___flmul^(0+128),f
  4277  01A7  29A1               	goto	u3955
  4278  01A8                     l2868:
  4279  01A8  082B               	movf	(___flmul@b^(0+128)+1),w
  4280  01A9  00FF               	movwf	btemp+1
  4281  01AA  087F               	movf	btemp+1,w
  4282  01AB  1283               	bcf	3,5	;RP0=0, select bank0
  4283  01AC  1303               	bcf	3,6	;RP1=0, select bank0
  4284  01AD  00BA               	movwf	__Umul8_16@multiplicand
  4285  01AE  1683               	bsf	3,5	;RP0=1, select bank1
  4286  01AF  1303               	bcf	3,6	;RP1=0, select bank1
  4287  01B0  082E               	movf	___flmul@a^(0+128),w
  4288  01B1  120A  158A  22FB  120A  118A  	fcall	__Umul8_16
  4289  01B6  1283               	bcf	3,5	;RP0=0, select bank0
  4290  01B7  1303               	bcf	3,6	;RP1=0, select bank0
  4291  01B8  083B               	movf	?__Umul8_16+1,w
  4292  01B9  1683               	bsf	3,5	;RP0=1, select bank1
  4293  01BA  1303               	bcf	3,6	;RP1=0, select bank1
  4294  01BB  00C3               	movwf	(___flmul@temp+1)^(0+128)
  4295  01BC  1283               	bcf	3,5	;RP0=0, select bank0
  4296  01BD  1303               	bcf	3,6	;RP1=0, select bank0
  4297  01BE  083A               	movf	?__Umul8_16,w
  4298  01BF  1683               	bsf	3,5	;RP0=1, select bank1
  4299  01C0  1303               	bcf	3,6	;RP1=0, select bank1
  4300  01C1  00C2               	movwf	___flmul@temp^(0+128)
  4301  01C2                     l2870:
  4302  01C2  0842               	movf	___flmul@temp^(0+128),w
  4303  01C3  00B2               	movwf	??___flmul^(0+128)
  4304  01C4  0843               	movf	(___flmul@temp+1)^(0+128),w
  4305  01C5  00B3               	movwf	(??___flmul^(0+128)+1)
  4306  01C6  01B4               	clrf	(??___flmul^(0+128)+2)
  4307  01C7  01B5               	clrf	(??___flmul^(0+128)+3)
  4308  01C8  0832               	movf	??___flmul^(0+128),w
  4309  01C9  07B9               	addwf	___flmul@grs^(0+128),f
  4310  01CA  0833               	movf	(??___flmul+1)^(0+128),w
  4311  01CB  1103               	clrz
  4312  01CC  1803               	skipnc
  4313  01CD  3E01               	addlw	1
  4314  01CE  1903               	skipnz
  4315  01CF  29D1               	goto	u3961
  4316  01D0  07BA               	addwf	(___flmul@grs+1)^(0+128),f
  4317  01D1                     u3961:
  4318  01D1  0834               	movf	(??___flmul+2)^(0+128),w
  4319  01D2  1103               	clrz
  4320  01D3  1803               	skipnc
  4321  01D4  3E01               	addlw	1
  4322  01D5  1903               	skipnz
  4323  01D6  29D8               	goto	u3962
  4324  01D7  07BB               	addwf	(___flmul@grs+2)^(0+128),f
  4325  01D8                     u3962:
  4326  01D8  0835               	movf	(??___flmul+3)^(0+128),w
  4327  01D9  1103               	clrz
  4328  01DA  1803               	skipnc
  4329  01DB  3E01               	addlw	1
  4330  01DC  1903               	skipnz
  4331  01DD  29DF               	goto	u3963
  4332  01DE  07BC               	addwf	(___flmul@grs+3)^(0+128),f
  4333  01DF                     u3963:
  4334  01DF                     l2872:
  4335  01DF  082A               	movf	___flmul@b^(0+128),w
  4336  01E0  00FF               	movwf	btemp+1
  4337  01E1  087F               	movf	btemp+1,w
  4338  01E2  1283               	bcf	3,5	;RP0=0, select bank0
  4339  01E3  1303               	bcf	3,6	;RP1=0, select bank0
  4340  01E4  00BA               	movwf	__Umul8_16@multiplicand
  4341  01E5  1683               	bsf	3,5	;RP0=1, select bank1
  4342  01E6  1303               	bcf	3,6	;RP1=0, select bank1
  4343  01E7  082F               	movf	(___flmul@a^(0+128)+1),w
  4344  01E8  120A  158A  22FB  120A  118A  	fcall	__Umul8_16
  4345  01ED  1283               	bcf	3,5	;RP0=0, select bank0
  4346  01EE  1303               	bcf	3,6	;RP1=0, select bank0
  4347  01EF  083B               	movf	?__Umul8_16+1,w
  4348  01F0  1683               	bsf	3,5	;RP0=1, select bank1
  4349  01F1  1303               	bcf	3,6	;RP1=0, select bank1
  4350  01F2  00C3               	movwf	(___flmul@temp+1)^(0+128)
  4351  01F3  1283               	bcf	3,5	;RP0=0, select bank0
  4352  01F4  1303               	bcf	3,6	;RP1=0, select bank0
  4353  01F5  083A               	movf	?__Umul8_16,w
  4354  01F6  1683               	bsf	3,5	;RP0=1, select bank1
  4355  01F7  1303               	bcf	3,6	;RP1=0, select bank1
  4356  01F8  00C2               	movwf	___flmul@temp^(0+128)
  4357  01F9                     l2874:
  4358  01F9  0842               	movf	___flmul@temp^(0+128),w
  4359  01FA  00B2               	movwf	??___flmul^(0+128)
  4360  01FB  0843               	movf	(___flmul@temp+1)^(0+128),w
  4361  01FC  00B3               	movwf	(??___flmul^(0+128)+1)
  4362  01FD  01B4               	clrf	(??___flmul^(0+128)+2)
  4363  01FE  01B5               	clrf	(??___flmul^(0+128)+3)
  4364  01FF  0832               	movf	??___flmul^(0+128),w
  4365  0200  07B9               	addwf	___flmul@grs^(0+128),f
  4366  0201  0833               	movf	(??___flmul+1)^(0+128),w
  4367  0202  1103               	clrz
  4368  0203  1803               	skipnc
  4369  0204  3E01               	addlw	1
  4370  0205  1903               	skipnz
  4371  0206  2A08               	goto	u3971
  4372  0207  07BA               	addwf	(___flmul@grs+1)^(0+128),f
  4373  0208                     u3971:
  4374  0208  0834               	movf	(??___flmul+2)^(0+128),w
  4375  0209  1103               	clrz
  4376  020A  1803               	skipnc
  4377  020B  3E01               	addlw	1
  4378  020C  1903               	skipnz
  4379  020D  2A0F               	goto	u3972
  4380  020E  07BB               	addwf	(___flmul@grs+2)^(0+128),f
  4381  020F                     u3972:
  4382  020F  0835               	movf	(??___flmul+3)^(0+128),w
  4383  0210  1103               	clrz
  4384  0211  1803               	skipnc
  4385  0212  3E01               	addlw	1
  4386  0213  1903               	skipnz
  4387  0214  2A16               	goto	u3973
  4388  0215  07BC               	addwf	(___flmul@grs+3)^(0+128),f
  4389  0216                     u3973:
  4390  0216                     l2876:
  4391  0216  3008               	movlw	8
  4392  0217  00B2               	movwf	??___flmul^(0+128)
  4393  0218                     u3985:
  4394  0218  1003               	clrc
  4395  0219  0DB9               	rlf	___flmul@grs^(0+128),f
  4396  021A  0DBA               	rlf	(___flmul@grs+1)^(0+128),f
  4397  021B  0DBB               	rlf	(___flmul@grs+2)^(0+128),f
  4398  021C  0DBC               	rlf	(___flmul@grs+3)^(0+128),f
  4399  021D  0BB2               	decfsz	??___flmul^(0+128),f
  4400  021E  2A18               	goto	u3985
  4401  021F  082A               	movf	___flmul@b^(0+128),w
  4402  0220  00FF               	movwf	btemp+1
  4403  0221  087F               	movf	btemp+1,w
  4404  0222  1283               	bcf	3,5	;RP0=0, select bank0
  4405  0223  1303               	bcf	3,6	;RP1=0, select bank0
  4406  0224  00BA               	movwf	__Umul8_16@multiplicand
  4407  0225  1683               	bsf	3,5	;RP0=1, select bank1
  4408  0226  1303               	bcf	3,6	;RP1=0, select bank1
  4409  0227  082E               	movf	___flmul@a^(0+128),w
  4410  0228  120A  158A  22FB  120A  118A  	fcall	__Umul8_16
  4411  022D  1283               	bcf	3,5	;RP0=0, select bank0
  4412  022E  1303               	bcf	3,6	;RP1=0, select bank0
  4413  022F  083B               	movf	?__Umul8_16+1,w
  4414  0230  1683               	bsf	3,5	;RP0=1, select bank1
  4415  0231  1303               	bcf	3,6	;RP1=0, select bank1
  4416  0232  00C3               	movwf	(___flmul@temp+1)^(0+128)
  4417  0233  1283               	bcf	3,5	;RP0=0, select bank0
  4418  0234  1303               	bcf	3,6	;RP1=0, select bank0
  4419  0235  083A               	movf	?__Umul8_16,w
  4420  0236  1683               	bsf	3,5	;RP0=1, select bank1
  4421  0237  1303               	bcf	3,6	;RP1=0, select bank1
  4422  0238  00C2               	movwf	___flmul@temp^(0+128)
  4423  0239                     l2878:
  4424  0239  0842               	movf	___flmul@temp^(0+128),w
  4425  023A  00B2               	movwf	??___flmul^(0+128)
  4426  023B  0843               	movf	(___flmul@temp+1)^(0+128),w
  4427  023C  00B3               	movwf	(??___flmul^(0+128)+1)
  4428  023D  01B4               	clrf	(??___flmul^(0+128)+2)
  4429  023E  01B5               	clrf	(??___flmul^(0+128)+3)
  4430  023F  0832               	movf	??___flmul^(0+128),w
  4431  0240  07B9               	addwf	___flmul@grs^(0+128),f
  4432  0241  0833               	movf	(??___flmul+1)^(0+128),w
  4433  0242  1103               	clrz
  4434  0243  1803               	skipnc
  4435  0244  3E01               	addlw	1
  4436  0245  1903               	skipnz
  4437  0246  2A48               	goto	u3991
  4438  0247  07BA               	addwf	(___flmul@grs+1)^(0+128),f
  4439  0248                     u3991:
  4440  0248  0834               	movf	(??___flmul+2)^(0+128),w
  4441  0249  1103               	clrz
  4442  024A  1803               	skipnc
  4443  024B  3E01               	addlw	1
  4444  024C  1903               	skipnz
  4445  024D  2A4F               	goto	u3992
  4446  024E  07BB               	addwf	(___flmul@grs+2)^(0+128),f
  4447  024F                     u3992:
  4448  024F  0835               	movf	(??___flmul+3)^(0+128),w
  4449  0250  1103               	clrz
  4450  0251  1803               	skipnc
  4451  0252  3E01               	addlw	1
  4452  0253  1903               	skipnz
  4453  0254  2A56               	goto	u3993
  4454  0255  07BC               	addwf	(___flmul@grs+3)^(0+128),f
  4455  0256                     u3993:
  4456  0256                     l2880:
  4457  0256  082B               	movf	(___flmul@b^(0+128)+1),w
  4458  0257  00FF               	movwf	btemp+1
  4459  0258  087F               	movf	btemp+1,w
  4460  0259  1283               	bcf	3,5	;RP0=0, select bank0
  4461  025A  1303               	bcf	3,6	;RP1=0, select bank0
  4462  025B  00BA               	movwf	__Umul8_16@multiplicand
  4463  025C  1683               	bsf	3,5	;RP0=1, select bank1
  4464  025D  1303               	bcf	3,6	;RP1=0, select bank1
  4465  025E  0830               	movf	(___flmul@a^(0+128)+2),w
  4466  025F  120A  158A  22FB  120A  118A  	fcall	__Umul8_16
  4467  0264  1283               	bcf	3,5	;RP0=0, select bank0
  4468  0265  1303               	bcf	3,6	;RP1=0, select bank0
  4469  0266  083B               	movf	?__Umul8_16+1,w
  4470  0267  1683               	bsf	3,5	;RP0=1, select bank1
  4471  0268  1303               	bcf	3,6	;RP1=0, select bank1
  4472  0269  00C3               	movwf	(___flmul@temp+1)^(0+128)
  4473  026A  1283               	bcf	3,5	;RP0=0, select bank0
  4474  026B  1303               	bcf	3,6	;RP1=0, select bank0
  4475  026C  083A               	movf	?__Umul8_16,w
  4476  026D  1683               	bsf	3,5	;RP0=1, select bank1
  4477  026E  1303               	bcf	3,6	;RP1=0, select bank1
  4478  026F  00C2               	movwf	___flmul@temp^(0+128)
  4479  0270  0842               	movf	___flmul@temp^(0+128),w
  4480  0271  00B2               	movwf	??___flmul^(0+128)
  4481  0272  0843               	movf	(___flmul@temp+1)^(0+128),w
  4482  0273  00B3               	movwf	(??___flmul^(0+128)+1)
  4483  0274  01B4               	clrf	(??___flmul^(0+128)+2)
  4484  0275  01B5               	clrf	(??___flmul^(0+128)+3)
  4485  0276  0832               	movf	??___flmul^(0+128),w
  4486  0277  07BE               	addwf	___flmul@prod^(0+128),f
  4487  0278  0833               	movf	(??___flmul+1)^(0+128),w
  4488  0279  1103               	clrz
  4489  027A  1803               	skipnc
  4490  027B  3E01               	addlw	1
  4491  027C  1903               	skipnz
  4492  027D  2A7F               	goto	u4001
  4493  027E  07BF               	addwf	(___flmul@prod+1)^(0+128),f
  4494  027F                     u4001:
  4495  027F  0834               	movf	(??___flmul+2)^(0+128),w
  4496  0280  1103               	clrz
  4497  0281  1803               	skipnc
  4498  0282  3E01               	addlw	1
  4499  0283  1903               	skipnz
  4500  0284  2A86               	goto	u4002
  4501  0285  07C0               	addwf	(___flmul@prod+2)^(0+128),f
  4502  0286                     u4002:
  4503  0286  0835               	movf	(??___flmul+3)^(0+128),w
  4504  0287  1103               	clrz
  4505  0288  1803               	skipnc
  4506  0289  3E01               	addlw	1
  4507  028A  1903               	skipnz
  4508  028B  2A8D               	goto	u4003
  4509  028C  07C1               	addwf	(___flmul@prod+3)^(0+128),f
  4510  028D                     u4003:
  4511  028D                     l2882:
  4512  028D  082C               	movf	(___flmul@b^(0+128)+2),w
  4513  028E  00FF               	movwf	btemp+1
  4514  028F  087F               	movf	btemp+1,w
  4515  0290  1283               	bcf	3,5	;RP0=0, select bank0
  4516  0291  1303               	bcf	3,6	;RP1=0, select bank0
  4517  0292  00BA               	movwf	__Umul8_16@multiplicand
  4518  0293  1683               	bsf	3,5	;RP0=1, select bank1
  4519  0294  1303               	bcf	3,6	;RP1=0, select bank1
  4520  0295  082F               	movf	(___flmul@a^(0+128)+1),w
  4521  0296  120A  158A  22FB  120A  118A  	fcall	__Umul8_16
  4522  029B  1283               	bcf	3,5	;RP0=0, select bank0
  4523  029C  1303               	bcf	3,6	;RP1=0, select bank0
  4524  029D  083B               	movf	?__Umul8_16+1,w
  4525  029E  1683               	bsf	3,5	;RP0=1, select bank1
  4526  029F  1303               	bcf	3,6	;RP1=0, select bank1
  4527  02A0  00C3               	movwf	(___flmul@temp+1)^(0+128)
  4528  02A1  1283               	bcf	3,5	;RP0=0, select bank0
  4529  02A2  1303               	bcf	3,6	;RP1=0, select bank0
  4530  02A3  083A               	movf	?__Umul8_16,w
  4531  02A4  1683               	bsf	3,5	;RP0=1, select bank1
  4532  02A5  1303               	bcf	3,6	;RP1=0, select bank1
  4533  02A6  00C2               	movwf	___flmul@temp^(0+128)
  4534  02A7                     l2884:
  4535  02A7  0842               	movf	___flmul@temp^(0+128),w
  4536  02A8  00B2               	movwf	??___flmul^(0+128)
  4537  02A9  0843               	movf	(___flmul@temp+1)^(0+128),w
  4538  02AA  00B3               	movwf	(??___flmul^(0+128)+1)
  4539  02AB  01B4               	clrf	(??___flmul^(0+128)+2)
  4540  02AC  01B5               	clrf	(??___flmul^(0+128)+3)
  4541  02AD  0832               	movf	??___flmul^(0+128),w
  4542  02AE  07BE               	addwf	___flmul@prod^(0+128),f
  4543  02AF  0833               	movf	(??___flmul+1)^(0+128),w
  4544  02B0  1103               	clrz
  4545  02B1  1803               	skipnc
  4546  02B2  3E01               	addlw	1
  4547  02B3  1903               	skipnz
  4548  02B4  2AB6               	goto	u4011
  4549  02B5  07BF               	addwf	(___flmul@prod+1)^(0+128),f
  4550  02B6                     u4011:
  4551  02B6  0834               	movf	(??___flmul+2)^(0+128),w
  4552  02B7  1103               	clrz
  4553  02B8  1803               	skipnc
  4554  02B9  3E01               	addlw	1
  4555  02BA  1903               	skipnz
  4556  02BB  2ABD               	goto	u4012
  4557  02BC  07C0               	addwf	(___flmul@prod+2)^(0+128),f
  4558  02BD                     u4012:
  4559  02BD  0835               	movf	(??___flmul+3)^(0+128),w
  4560  02BE  1103               	clrz
  4561  02BF  1803               	skipnc
  4562  02C0  3E01               	addlw	1
  4563  02C1  1903               	skipnz
  4564  02C2  2AC4               	goto	u4013
  4565  02C3  07C1               	addwf	(___flmul@prod+3)^(0+128),f
  4566  02C4                     u4013:
  4567  02C4  082C               	movf	(___flmul@b^(0+128)+2),w
  4568  02C5  00FF               	movwf	btemp+1
  4569  02C6  087F               	movf	btemp+1,w
  4570  02C7  1283               	bcf	3,5	;RP0=0, select bank0
  4571  02C8  1303               	bcf	3,6	;RP1=0, select bank0
  4572  02C9  00BA               	movwf	__Umul8_16@multiplicand
  4573  02CA  1683               	bsf	3,5	;RP0=1, select bank1
  4574  02CB  1303               	bcf	3,6	;RP1=0, select bank1
  4575  02CC  0830               	movf	(___flmul@a^(0+128)+2),w
  4576  02CD  120A  158A  22FB  120A  118A  	fcall	__Umul8_16
  4577  02D2  1283               	bcf	3,5	;RP0=0, select bank0
  4578  02D3  1303               	bcf	3,6	;RP1=0, select bank0
  4579  02D4  083B               	movf	?__Umul8_16+1,w
  4580  02D5  1683               	bsf	3,5	;RP0=1, select bank1
  4581  02D6  1303               	bcf	3,6	;RP1=0, select bank1
  4582  02D7  00C3               	movwf	(___flmul@temp+1)^(0+128)
  4583  02D8  1283               	bcf	3,5	;RP0=0, select bank0
  4584  02D9  1303               	bcf	3,6	;RP1=0, select bank0
  4585  02DA  083A               	movf	?__Umul8_16,w
  4586  02DB  1683               	bsf	3,5	;RP0=1, select bank1
  4587  02DC  1303               	bcf	3,6	;RP1=0, select bank1
  4588  02DD  00C2               	movwf	___flmul@temp^(0+128)
  4589  02DE                     l2886:
  4590  02DE  0842               	movf	___flmul@temp^(0+128),w
  4591  02DF  00B2               	movwf	??___flmul^(0+128)
  4592  02E0  0843               	movf	(___flmul@temp+1)^(0+128),w
  4593  02E1  00B3               	movwf	(??___flmul^(0+128)+1)
  4594  02E2  01B4               	clrf	(??___flmul^(0+128)+2)
  4595  02E3  01B5               	clrf	(??___flmul^(0+128)+3)
  4596  02E4  3008               	movlw	8
  4597  02E5                     u4025:
  4598  02E5  1003               	clrc
  4599  02E6  0DB2               	rlf	??___flmul^(0+128),f
  4600  02E7  0DB3               	rlf	(??___flmul^(0+128)+1),f
  4601  02E8  0DB4               	rlf	(??___flmul^(0+128)+2),f
  4602  02E9  0DB5               	rlf	(??___flmul^(0+128)+3),f
  4603  02EA                     u4020:
  4604  02EA  3EFF               	addlw	-1
  4605  02EB  1D03               	skipz
  4606  02EC  2AE5               	goto	u4025
  4607  02ED  0832               	movf	??___flmul^(0+128),w
  4608  02EE  07BE               	addwf	___flmul@prod^(0+128),f
  4609  02EF  0833               	movf	(??___flmul+1)^(0+128),w
  4610  02F0  1103               	clrz
  4611  02F1  1803               	skipnc
  4612  02F2  3E01               	addlw	1
  4613  02F3  1903               	skipnz
  4614  02F4  2AF6               	goto	u4031
  4615  02F5  07BF               	addwf	(___flmul@prod+1)^(0+128),f
  4616  02F6                     u4031:
  4617  02F6  0834               	movf	(??___flmul+2)^(0+128),w
  4618  02F7  1103               	clrz
  4619  02F8  1803               	skipnc
  4620  02F9  3E01               	addlw	1
  4621  02FA  1903               	skipnz
  4622  02FB  2AFD               	goto	u4032
  4623  02FC  07C0               	addwf	(___flmul@prod+2)^(0+128),f
  4624  02FD                     u4032:
  4625  02FD  0835               	movf	(??___flmul+3)^(0+128),w
  4626  02FE  1103               	clrz
  4627  02FF  1803               	skipnc
  4628  0300  3E01               	addlw	1
  4629  0301  1903               	skipnz
  4630  0302  2B04               	goto	u4033
  4631  0303  07C1               	addwf	(___flmul@prod+3)^(0+128),f
  4632  0304                     u4033:
  4633  0304                     l2888:
  4634  0304  0839               	movf	___flmul@grs^(0+128),w
  4635  0305  00B2               	movwf	??___flmul^(0+128)
  4636  0306  083A               	movf	(___flmul@grs+1)^(0+128),w
  4637  0307  00B3               	movwf	(??___flmul^(0+128)+1)
  4638  0308  083B               	movf	(___flmul@grs+2)^(0+128),w
  4639  0309  00B4               	movwf	(??___flmul^(0+128)+2)
  4640  030A  083C               	movf	(___flmul@grs+3)^(0+128),w
  4641  030B  00B5               	movwf	(??___flmul^(0+128)+3)
  4642  030C  3018               	movlw	24
  4643  030D                     u4045:
  4644  030D  1003               	clrc
  4645  030E  0CB5               	rrf	(??___flmul^(0+128)+3),f
  4646  030F  0CB4               	rrf	(??___flmul^(0+128)+2),f
  4647  0310  0CB3               	rrf	(??___flmul^(0+128)+1),f
  4648  0311  0CB2               	rrf	??___flmul^(0+128),f
  4649  0312                     u4040:
  4650  0312  3EFF               	addlw	-1
  4651  0313  1D03               	skipz
  4652  0314  2B0D               	goto	u4045
  4653  0315  0832               	movf	??___flmul^(0+128),w
  4654  0316  07BE               	addwf	___flmul@prod^(0+128),f
  4655  0317  0833               	movf	(??___flmul+1)^(0+128),w
  4656  0318  1103               	clrz
  4657  0319  1803               	skipnc
  4658  031A  3E01               	addlw	1
  4659  031B  1903               	skipnz
  4660  031C  2B1E               	goto	u4051
  4661  031D  07BF               	addwf	(___flmul@prod+1)^(0+128),f
  4662  031E                     u4051:
  4663  031E  0834               	movf	(??___flmul+2)^(0+128),w
  4664  031F  1103               	clrz
  4665  0320  1803               	skipnc
  4666  0321  3E01               	addlw	1
  4667  0322  1903               	skipnz
  4668  0323  2B25               	goto	u4052
  4669  0324  07C0               	addwf	(___flmul@prod+2)^(0+128),f
  4670  0325                     u4052:
  4671  0325  0835               	movf	(??___flmul+3)^(0+128),w
  4672  0326  1103               	clrz
  4673  0327  1803               	skipnc
  4674  0328  3E01               	addlw	1
  4675  0329  1903               	skipnz
  4676  032A  2B2C               	goto	u4053
  4677  032B  07C1               	addwf	(___flmul@prod+3)^(0+128),f
  4678  032C                     u4053:
  4679  032C                     l2890:
  4680  032C  3008               	movlw	8
  4681  032D  00B2               	movwf	??___flmul^(0+128)
  4682  032E                     u4065:
  4683  032E  1003               	clrc
  4684  032F  0DB9               	rlf	___flmul@grs^(0+128),f
  4685  0330  0DBA               	rlf	(___flmul@grs+1)^(0+128),f
  4686  0331  0DBB               	rlf	(___flmul@grs+2)^(0+128),f
  4687  0332  0DBC               	rlf	(___flmul@grs+3)^(0+128),f
  4688  0333  0BB2               	decfsz	??___flmul^(0+128),f
  4689  0334  2B2E               	goto	u4065
  4690  0335                     l2892:
  4691  0335  083D               	movf	___flmul@bexp^(0+128),w
  4692  0336  0738               	addwf	___flmul@aexp^(0+128),w
  4693  0337  00B2               	movwf	??___flmul^(0+128)
  4694  0338  01B3               	clrf	(??___flmul^(0+128)+1)
  4695  0339  0DB3               	rlf	(??___flmul+1)^(0+128),f
  4696  033A  0832               	movf	??___flmul^(0+128),w
  4697  033B  3E82               	addlw	130
  4698  033C  00C2               	movwf	___flmul@temp^(0+128)
  4699  033D  0833               	movf	(??___flmul+1)^(0+128),w
  4700  033E  1803               	skipnc
  4701  033F  3E01               	addlw	1
  4702  0340  3EFF               	addlw	255
  4703  0341  00C3               	movwf	(___flmul@temp+1)^(0+128)
  4704  0342  2B60               	goto	l2904
  4705  0343                     l2894:
  4706  0343  3001               	movlw	1
  4707  0344  00B2               	movwf	??___flmul^(0+128)
  4708  0345                     u4075:
  4709  0345  1003               	clrc
  4710  0346  0DBE               	rlf	___flmul@prod^(0+128),f
  4711  0347  0DBF               	rlf	(___flmul@prod+1)^(0+128),f
  4712  0348  0DC0               	rlf	(___flmul@prod+2)^(0+128),f
  4713  0349  0DC1               	rlf	(___flmul@prod+3)^(0+128),f
  4714  034A  0BB2               	decfsz	??___flmul^(0+128),f
  4715  034B  2B45               	goto	u4075
  4716  034C                     l2896:
  4717  034C  1FBC               	btfss	(___flmul@grs+3)^(0+128),7
  4718  034D  2B4F               	goto	u4081
  4719  034E  2B50               	goto	u4080
  4720  034F                     u4081:
  4721  034F  2B51               	goto	l2900
  4722  0350                     u4080:
  4723  0350                     l2898:
  4724  0350  143E               	bsf	___flmul@prod^(0+128),0
  4725  0351                     l2900:
  4726  0351  3001               	movlw	1
  4727  0352  00B2               	movwf	??___flmul^(0+128)
  4728  0353                     u4095:
  4729  0353  1003               	clrc
  4730  0354  0DB9               	rlf	___flmul@grs^(0+128),f
  4731  0355  0DBA               	rlf	(___flmul@grs+1)^(0+128),f
  4732  0356  0DBB               	rlf	(___flmul@grs+2)^(0+128),f
  4733  0357  0DBC               	rlf	(___flmul@grs+3)^(0+128),f
  4734  0358  0BB2               	decfsz	??___flmul^(0+128),f
  4735  0359  2B53               	goto	u4095
  4736  035A                     l2902:
  4737  035A  30FF               	movlw	255
  4738  035B  07C2               	addwf	___flmul@temp^(0+128),f
  4739  035C  1803               	skipnc
  4740  035D  0AC3               	incf	(___flmul@temp+1)^(0+128),f
  4741  035E  30FF               	movlw	255
  4742  035F  07C3               	addwf	(___flmul@temp+1)^(0+128),f
  4743  0360                     l2904:
  4744  0360  1FC0               	btfss	(___flmul@prod+2)^(0+128),7
  4745  0361  2B63               	goto	u4101
  4746  0362  2B64               	goto	u4100
  4747  0363                     u4101:
  4748  0363  2B43               	goto	l2894
  4749  0364                     u4100:
  4750  0364                     l2906:
  4751  0364  01B8               	clrf	___flmul@aexp^(0+128)
  4752  0365                     l2908:
  4753  0365  1FBC               	btfss	(___flmul@grs+3)^(0+128),7
  4754  0366  2B68               	goto	u4111
  4755  0367  2B69               	goto	u4110
  4756  0368                     u4111:
  4757  0368  2B85               	goto	l2916
  4758  0369                     u4110:
  4759  0369                     l2910:
  4760  0369  30FF               	movlw	255
  4761  036A  0539               	andwf	___flmul@grs^(0+128),w
  4762  036B  00B2               	movwf	??___flmul^(0+128)
  4763  036C  30FF               	movlw	255
  4764  036D  053A               	andwf	(___flmul@grs+1)^(0+128),w
  4765  036E  00B3               	movwf	(??___flmul^(0+128)+1)
  4766  036F  30FF               	movlw	255
  4767  0370  053B               	andwf	(___flmul@grs+2)^(0+128),w
  4768  0371  00B4               	movwf	(??___flmul^(0+128)+2)
  4769  0372  307F               	movlw	127
  4770  0373  053C               	andwf	(___flmul@grs+3)^(0+128),w
  4771  0374  00B5               	movwf	(??___flmul^(0+128)+3)
  4772  0375  0835               	movf	(??___flmul+3)^(0+128),w
  4773  0376  0434               	iorwf	(??___flmul+2)^(0+128),w
  4774  0377  0433               	iorwf	(??___flmul+1)^(0+128),w
  4775  0378  0432               	iorwf	??___flmul^(0+128),w
  4776  0379  1903               	skipnz
  4777  037A  2B7C               	goto	u4121
  4778  037B  2B7D               	goto	u4120
  4779  037C                     u4121:
  4780  037C  2B80               	goto	l875
  4781  037D                     u4120:
  4782  037D                     l2912:
  4783  037D  01B8               	clrf	___flmul@aexp^(0+128)
  4784  037E  0AB8               	incf	___flmul@aexp^(0+128),f
  4785  037F  2B85               	goto	l2916
  4786  0380                     l875:
  4787  0380  1C3E               	btfss	___flmul@prod^(0+128),0
  4788  0381  2B83               	goto	u4131
  4789  0382  2B84               	goto	u4130
  4790  0383                     u4131:
  4791  0383  2B85               	goto	l2916
  4792  0384                     u4130:
  4793  0384  2B7D               	goto	l2912
  4794  0385                     l2916:
  4795  0385  0838               	movf	___flmul@aexp^(0+128),w
  4796  0386  1903               	btfsc	3,2
  4797  0387  2B89               	goto	u4141
  4798  0388  2B8A               	goto	u4140
  4799  0389                     u4141:
  4800  0389  2BBB               	goto	l2926
  4801  038A                     u4140:
  4802  038A                     l2918:
  4803  038A  3001               	movlw	1
  4804  038B  07BE               	addwf	___flmul@prod^(0+128),f
  4805  038C  3000               	movlw	0
  4806  038D  1803               	skipnc
  4807  038E  3001               	movlw	1
  4808  038F  07BF               	addwf	(___flmul@prod+1)^(0+128),f
  4809  0390  3000               	movlw	0
  4810  0391  1803               	skipnc
  4811  0392  3001               	movlw	1
  4812  0393  07C0               	addwf	(___flmul@prod+2)^(0+128),f
  4813  0394  3000               	movlw	0
  4814  0395  1803               	skipnc
  4815  0396  3001               	movlw	1
  4816  0397  07C1               	addwf	(___flmul@prod+3)^(0+128),f
  4817  0398                     l2920:
  4818  0398  1C41               	btfss	(___flmul@prod+3)^(0+128),0
  4819  0399  2B9B               	goto	u4151
  4820  039A  2B9C               	goto	u4150
  4821  039B                     u4151:
  4822  039B  2BBB               	goto	l2926
  4823  039C                     u4150:
  4824  039C                     l2922:
  4825  039C  083E               	movf	___flmul@prod^(0+128),w
  4826  039D  00B2               	movwf	??___flmul^(0+128)
  4827  039E  083F               	movf	(___flmul@prod+1)^(0+128),w
  4828  039F  00B3               	movwf	(??___flmul^(0+128)+1)
  4829  03A0  0840               	movf	(___flmul@prod+2)^(0+128),w
  4830  03A1  00B4               	movwf	(??___flmul^(0+128)+2)
  4831  03A2  0841               	movf	(___flmul@prod+3)^(0+128),w
  4832  03A3  00B5               	movwf	(??___flmul^(0+128)+3)
  4833  03A4  3001               	movlw	1
  4834  03A5  00B6               	movwf	(??___flmul+4)^(0+128)
  4835  03A6                     u4165:
  4836  03A6  0D35               	rlf	(??___flmul^(0+128)+3),w
  4837  03A7  0CB5               	rrf	(??___flmul^(0+128)+3),f
  4838  03A8  0CB4               	rrf	(??___flmul^(0+128)+2),f
  4839  03A9  0CB3               	rrf	(??___flmul^(0+128)+1),f
  4840  03AA  0CB2               	rrf	??___flmul^(0+128),f
  4841  03AB                     u4160:
  4842  03AB  0BB6               	decfsz	(??___flmul+4)^(0+128),f
  4843  03AC  2BA6               	goto	u4165
  4844  03AD  0835               	movf	(??___flmul+3)^(0+128),w
  4845  03AE  00C1               	movwf	(___flmul@prod+3)^(0+128)
  4846  03AF  0834               	movf	(??___flmul+2)^(0+128),w
  4847  03B0  00C0               	movwf	(___flmul@prod+2)^(0+128)
  4848  03B1  0833               	movf	(??___flmul+1)^(0+128),w
  4849  03B2  00BF               	movwf	(___flmul@prod+1)^(0+128)
  4850  03B3  0832               	movf	??___flmul^(0+128),w
  4851  03B4  00BE               	movwf	___flmul@prod^(0+128)
  4852  03B5                     l2924:
  4853  03B5  3001               	movlw	1
  4854  03B6  07C2               	addwf	___flmul@temp^(0+128),f
  4855  03B7  1803               	skipnc
  4856  03B8  0AC3               	incf	(___flmul@temp+1)^(0+128),f
  4857  03B9  3000               	movlw	0
  4858  03BA  07C3               	addwf	(___flmul@temp+1)^(0+128),f
  4859  03BB                     l2926:
  4860  03BB  0843               	movf	(___flmul@temp+1)^(0+128),w
  4861  03BC  3A80               	xorlw	128
  4862  03BD  00FF               	movwf	btemp+1
  4863  03BE  3080               	movlw	128
  4864  03BF  027F               	subwf	btemp+1,w
  4865  03C0  1D03               	skipz
  4866  03C1  2BC4               	goto	u4175
  4867  03C2  30FF               	movlw	255
  4868  03C3  0242               	subwf	___flmul@temp^(0+128),w
  4869  03C4                     u4175:
  4870  03C4  1C03               	skipc
  4871  03C5  2BC7               	goto	u4171
  4872  03C6  2BC8               	goto	u4170
  4873  03C7                     u4171:
  4874  03C7  2BD3               	goto	l2930
  4875  03C8                     u4170:
  4876  03C8                     l2928:
  4877  03C8  307F               	movlw	127
  4878  03C9  1683               	bsf	3,5	;RP0=1, select bank1
  4879  03CA  1303               	bcf	3,6	;RP1=0, select bank1
  4880  03CB  00C1               	movwf	(___flmul@prod+3)^(0+128)
  4881  03CC  3080               	movlw	128
  4882  03CD  00C0               	movwf	(___flmul@prod+2)^(0+128)
  4883  03CE  3000               	movlw	0
  4884  03CF  00BF               	movwf	(___flmul@prod+1)^(0+128)
  4885  03D0  3000               	movlw	0
  4886  03D1  00BE               	movwf	___flmul@prod^(0+128)
  4887  03D2  2C08               	goto	l881
  4888  03D3                     l2930:
  4889  03D3  1683               	bsf	3,5	;RP0=1, select bank1
  4890  03D4  1303               	bcf	3,6	;RP1=0, select bank1
  4891  03D5  0843               	movf	(___flmul@temp+1)^(0+128),w
  4892  03D6  3A80               	xorlw	128
  4893  03D7  00FF               	movwf	btemp+1
  4894  03D8  3080               	movlw	128
  4895  03D9  027F               	subwf	btemp+1,w
  4896  03DA  1D03               	skipz
  4897  03DB  2BDE               	goto	u4185
  4898  03DC  3001               	movlw	1
  4899  03DD  0242               	subwf	___flmul@temp^(0+128),w
  4900  03DE                     u4185:
  4901  03DE  1803               	skipnc
  4902  03DF  2BE1               	goto	u4181
  4903  03E0  2BE2               	goto	u4180
  4904  03E1                     u4181:
  4905  03E1  2BEE               	goto	l2936
  4906  03E2                     u4180:
  4907  03E2                     l2932:
  4908  03E2  3000               	movlw	0
  4909  03E3  1683               	bsf	3,5	;RP0=1, select bank1
  4910  03E4  1303               	bcf	3,6	;RP1=0, select bank1
  4911  03E5  00C1               	movwf	(___flmul@prod+3)^(0+128)
  4912  03E6  3000               	movlw	0
  4913  03E7  00C0               	movwf	(___flmul@prod+2)^(0+128)
  4914  03E8  3000               	movlw	0
  4915  03E9  00BF               	movwf	(___flmul@prod+1)^(0+128)
  4916  03EA  3000               	movlw	0
  4917  03EB  00BE               	movwf	___flmul@prod^(0+128)
  4918  03EC                     l2934:
  4919  03EC  01B7               	clrf	___flmul@sign^(0+128)
  4920  03ED  2C08               	goto	l881
  4921  03EE                     l2936:
  4922  03EE  1683               	bsf	3,5	;RP0=1, select bank1
  4923  03EF  1303               	bcf	3,6	;RP1=0, select bank1
  4924  03F0  0842               	movf	___flmul@temp^(0+128),w
  4925  03F1  00FF               	movwf	btemp+1
  4926  03F2  087F               	movf	btemp+1,w
  4927  03F3  00BD               	movwf	___flmul@bexp^(0+128)
  4928  03F4                     l2938:
  4929  03F4  30FF               	movlw	255
  4930  03F5  05BE               	andwf	___flmul@prod^(0+128),f
  4931  03F6  30FF               	movlw	255
  4932  03F7  05BF               	andwf	(___flmul@prod+1)^(0+128),f
  4933  03F8  307F               	movlw	127
  4934  03F9  05C0               	andwf	(___flmul@prod+2)^(0+128),f
  4935  03FA  3000               	movlw	0
  4936  03FB  05C1               	andwf	(___flmul@prod+3)^(0+128),f
  4937  03FC                     l2940:
  4938  03FC  1C3D               	btfss	___flmul@bexp^(0+128),0
  4939  03FD  2BFF               	goto	u4191
  4940  03FE  2C00               	goto	u4190
  4941  03FF                     u4191:
  4942  03FF  2C01               	goto	l2944
  4943  0400                     u4190:
  4944  0400                     l2942:
  4945  0400  17C0               	bsf	(___flmul@prod^(0+128)+2),7
  4946  0401                     l2944:
  4947  0401  083D               	movf	___flmul@bexp^(0+128),w
  4948  0402  00B2               	movwf	??___flmul^(0+128)
  4949  0403  1003               	clrc
  4950  0404  0C32               	rrf	??___flmul^(0+128),w
  4951  0405  00FF               	movwf	btemp+1
  4952  0406  087F               	movf	btemp+1,w
  4953  0407  00C1               	movwf	(___flmul@prod^(0+128)+3)
  4954  0408                     l881:
  4955  0408  0837               	movf	___flmul@sign^(0+128),w
  4956  0409  00FF               	movwf	btemp+1
  4957  040A  087F               	movf	btemp+1,w
  4958  040B  04C1               	iorwf	(___flmul@prod^(0+128)+3),f
  4959  040C                     l2946:
  4960  040C  0841               	movf	(___flmul@prod+3)^(0+128),w
  4961  040D  00AD               	movwf	(?___flmul+3)^(0+128)
  4962  040E  0840               	movf	(___flmul@prod+2)^(0+128),w
  4963  040F  00AC               	movwf	(?___flmul+2)^(0+128)
  4964  0410  083F               	movf	(___flmul@prod+1)^(0+128),w
  4965  0411  00AB               	movwf	(?___flmul+1)^(0+128)
  4966  0412  083E               	movf	___flmul@prod^(0+128),w
  4967  0413  00AA               	movwf	?___flmul^(0+128)
  4968  0414                     l869:
  4969  0414  0008               	return
  4970  0415                     __end_of___flmul:
  4971                           
  4972                           	psect	text19
  4973  0AFB                     __ptext19:	
  4974 ;; *************** function __Umul8_16 *****************
  4975 ;; Defined at:
  4976 ;;		line 4 in file "C:\Program Files (x86)\Microchip\xc8\v2.20\pic\sources\c90\common\Umul8_16.c"
  4977 ;; Parameters:    Size  Location     Type
  4978 ;;  multiplier      1    wreg     unsigned char 
  4979 ;;  multiplicand    1   26[BANK0 ] unsigned char 
  4980 ;; Auto vars:     Size  Location     Type
  4981 ;;  multiplier      1    4[BANK1 ] unsigned char 
  4982 ;;  word_mpld       2    2[BANK1 ] unsigned int 
  4983 ;;  product         2    0[BANK1 ] unsigned int 
  4984 ;; Return value:  Size  Location     Type
  4985 ;;                  2   26[BANK0 ] unsigned int 
  4986 ;; Registers used:
  4987 ;;		wreg, status,2, status,0
  4988 ;; Tracked objects:
  4989 ;;		On entry : 0/0
  4990 ;;		On exit  : 0/0
  4991 ;;		Unchanged: 0/0
  4992 ;; Data sizes:     COMMON   BANK0   BANK1   BANK3   BANK2
  4993 ;;      Params:         0       2       0       0       0
  4994 ;;      Locals:         0       0       5       0       0
  4995 ;;      Temps:          0       2       0       0       0
  4996 ;;      Totals:         0       4       5       0       0
  4997 ;;Total ram usage:        9 bytes
  4998 ;; Hardware stack levels used:    1
  4999 ;; Hardware stack levels required when called:    4
  5000 ;; This function calls:
  5001 ;;		Nothing
  5002 ;; This function is called by:
  5003 ;;		___flmul
  5004 ;; This function uses a non-reentrant model
  5005 ;;
  5006                           
  5007                           
  5008                           ;psect for function __Umul8_16
  5009  0AFB                     __Umul8_16:
  5010                           
  5011                           ;incstack = 0
  5012 ;; hardware stack exceeded
  5013                           ; Regs used in __Umul8_16: [wreg+status,2+status,0]
  5014                           ;__Umul8_16@multiplier stored from wreg
  5015  0AFB  1683               	bsf	3,5	;RP0=1, select bank1
  5016  0AFC  1303               	bcf	3,6	;RP1=0, select bank1
  5017  0AFD  00A4               	movwf	__Umul8_16@multiplier^(0+128)
  5018  0AFE                     l2736:
  5019  0AFE  01A0               	clrf	__Umul8_16@product^(0+128)
  5020  0AFF  01A1               	clrf	(__Umul8_16@product+1)^(0+128)
  5021  0B00                     l2738:
  5022  0B00  1283               	bcf	3,5	;RP0=0, select bank0
  5023  0B01  1303               	bcf	3,6	;RP1=0, select bank0
  5024  0B02  083A               	movf	__Umul8_16@multiplicand,w
  5025  0B03  00BC               	movwf	??__Umul8_16
  5026  0B04  01BD               	clrf	??__Umul8_16+1
  5027  0B05  083C               	movf	??__Umul8_16,w
  5028  0B06  1683               	bsf	3,5	;RP0=1, select bank1
  5029  0B07  1303               	bcf	3,6	;RP1=0, select bank1
  5030  0B08  00A2               	movwf	__Umul8_16@word_mpld^(0+128)
  5031  0B09  1283               	bcf	3,5	;RP0=0, select bank0
  5032  0B0A  1303               	bcf	3,6	;RP1=0, select bank0
  5033  0B0B  083D               	movf	??__Umul8_16+1,w
  5034  0B0C  1683               	bsf	3,5	;RP0=1, select bank1
  5035  0B0D  1303               	bcf	3,6	;RP1=0, select bank1
  5036  0B0E  00A3               	movwf	(__Umul8_16@word_mpld+1)^(0+128)
  5037  0B0F                     l2740:
  5038  0B0F  1C24               	btfss	__Umul8_16@multiplier^(0+128),0
  5039  0B10  2B12               	goto	u3661
  5040  0B11  2B13               	goto	u3660
  5041  0B12                     u3661:
  5042  0B12  2B19               	goto	l888
  5043  0B13                     u3660:
  5044  0B13                     l2742:
  5045  0B13  0822               	movf	__Umul8_16@word_mpld^(0+128),w
  5046  0B14  07A0               	addwf	__Umul8_16@product^(0+128),f
  5047  0B15  1803               	skipnc
  5048  0B16  0AA1               	incf	(__Umul8_16@product+1)^(0+128),f
  5049  0B17  0823               	movf	(__Umul8_16@word_mpld+1)^(0+128),w
  5050  0B18  07A1               	addwf	(__Umul8_16@product+1)^(0+128),f
  5051  0B19                     l888:
  5052  0B19  3001               	movlw	1
  5053  0B1A                     u3675:
  5054  0B1A  1003               	clrc
  5055  0B1B  0DA2               	rlf	__Umul8_16@word_mpld^(0+128),f
  5056  0B1C  0DA3               	rlf	(__Umul8_16@word_mpld+1)^(0+128),f
  5057  0B1D  3EFF               	addlw	-1
  5058  0B1E  1D03               	skipz
  5059  0B1F  2B1A               	goto	u3675
  5060  0B20  1003               	clrc
  5061  0B21  0CA4               	rrf	__Umul8_16@multiplier^(0+128),f
  5062  0B22                     l2744:
  5063  0B22  0824               	movf	__Umul8_16@multiplier^(0+128),w
  5064  0B23  1D03               	btfss	3,2
  5065  0B24  2B26               	goto	u3681
  5066  0B25  2B27               	goto	u3680
  5067  0B26                     u3681:
  5068  0B26  2B0F               	goto	l2740
  5069  0B27                     u3680:
  5070  0B27                     l2746:
  5071  0B27  0821               	movf	(__Umul8_16@product+1)^(0+128),w
  5072  0B28  1283               	bcf	3,5	;RP0=0, select bank0
  5073  0B29  1303               	bcf	3,6	;RP1=0, select bank0
  5074  0B2A  00BB               	movwf	?__Umul8_16+1
  5075  0B2B  1683               	bsf	3,5	;RP0=1, select bank1
  5076  0B2C  1303               	bcf	3,6	;RP1=0, select bank1
  5077  0B2D  0820               	movf	__Umul8_16@product^(0+128),w
  5078  0B2E  1283               	bcf	3,5	;RP0=0, select bank0
  5079  0B2F  1303               	bcf	3,6	;RP1=0, select bank0
  5080  0B30  00BA               	movwf	?__Umul8_16
  5081  0B31                     l890:
  5082  0B31  0008               	return
  5083  0B32                     __end_of__Umul8_16:
  5084                           
  5085                           	psect	text20
  5086  0612                     __ptext20:	
  5087 ;; *************** function _Average_Value *****************
  5088 ;; Defined at:
  5089 ;;		line 12 in file "Average/Average.c"
  5090 ;; Parameters:    Size  Location     Type
  5091 ;;  Value           1    wreg     unsigned char 
  5092 ;;  Avrage_Value    1   13[BANK1 ] PTR unsigned char 
  5093 ;;		 -> Temperature(5), 
  5094 ;; Auto vars:     Size  Location     Type
  5095 ;;  Value           1   19[BANK1 ] unsigned char 
  5096 ;;  index           1   20[BANK1 ] unsigned char 
  5097 ;; Return value:  Size  Location     Type
  5098 ;;                  1    wreg      void 
  5099 ;; Registers used:
  5100 ;;		wreg, fsr0l, fsr0h, status,2, status,0, btemp+1, pclath, cstack
  5101 ;; Tracked objects:
  5102 ;;		On entry : 0/0
  5103 ;;		On exit  : 0/0
  5104 ;;		Unchanged: 0/0
  5105 ;; Data sizes:     COMMON   BANK0   BANK1   BANK3   BANK2
  5106 ;;      Params:         0       0       1       0       0
  5107 ;;      Locals:         0       0       2       0       0
  5108 ;;      Temps:          0       0       5       0       0
  5109 ;;      Totals:         0       0       8       0       0
  5110 ;;Total ram usage:        8 bytes
  5111 ;; Hardware stack levels used:    1
  5112 ;; Hardware stack levels required when called:    5
  5113 ;; This function calls:
  5114 ;;		___lldiv
  5115 ;;		___lwmod
  5116 ;; This function is called by:
  5117 ;;		_Temperature_Calc
  5118 ;; This function uses a non-reentrant model
  5119 ;;
  5120                           
  5121                           
  5122                           ;psect for function _Average_Value
  5123  0612                     _Average_Value:
  5124                           
  5125                           ;incstack = 0
  5126 ;; hardware stack exceeded
  5127                           ; Regs used in _Average_Value: [wreg-fsr0h+status,2+status,0+btemp+1+pclath+cstack]
  5128                           ;Average_Value@Value stored from wreg
  5129  0612  1683               	bsf	3,5	;RP0=1, select bank1
  5130  0613  1303               	bcf	3,6	;RP1=0, select bank1
  5131  0614  00B3               	movwf	Average_Value@Value^(0+128)
  5132  0615                     l2750:
  5133                           
  5134                           ;Average/Average.c: 12: void Average_Value(uint8_t Value,uint8_t *Avrage_Values);Average
      +                          /Average.c: 13: {;Average/Average.c: 15:     Avrage_buffer=0;
  5135  0615  3000               	movlw	0
  5136  0616  1283               	bcf	3,5	;RP0=0, select bank0
  5137  0617  1303               	bcf	3,6	;RP1=0, select bank0
  5138  0618  00C6               	movwf	_Avrage_buffer+3
  5139  0619  3000               	movlw	0
  5140  061A  00C5               	movwf	_Avrage_buffer+2
  5141  061B  3000               	movlw	0
  5142  061C  00C4               	movwf	_Avrage_buffer+1
  5143  061D  3000               	movlw	0
  5144  061E  00C3               	movwf	_Avrage_buffer
  5145  061F                     l2752:
  5146                           
  5147                           ;Average/Average.c: 16:  temb_val[Average_Nvalues]=Value;
  5148  061F  1683               	bsf	3,5	;RP0=1, select bank1
  5149  0620  1303               	bcf	3,6	;RP1=0, select bank1
  5150  0621  0833               	movf	Average_Value@Value^(0+128),w
  5151  0622  00AE               	movwf	??_Average_Value^(0+128)
  5152  0623  01AF               	clrf	(??_Average_Value^(0+128)+1)
  5153  0624  01B0               	clrf	(??_Average_Value^(0+128)+2)
  5154  0625  01B1               	clrf	(??_Average_Value^(0+128)+3)
  5155  0626  1283               	bcf	3,5	;RP0=0, select bank0
  5156  0627  1303               	bcf	3,6	;RP1=0, select bank0
  5157  0628  0855               	movf	_Average_Nvalues,w
  5158  0629  1683               	bsf	3,5	;RP0=1, select bank1
  5159  062A  1303               	bcf	3,6	;RP1=0, select bank1
  5160  062B  00B2               	movwf	(??_Average_Value+4)^(0+128)
  5161  062C  3001               	movlw	1
  5162  062D                     u3695:
  5163  062D  1003               	clrc
  5164  062E  0DB2               	rlf	(??_Average_Value+4)^(0+128),f
  5165  062F  3EFF               	addlw	-1
  5166  0630  1D03               	skipz
  5167  0631  2E2D               	goto	u3695
  5168  0632  1003               	clrc
  5169  0633  0D32               	rlf	(??_Average_Value+4)^(0+128),w
  5170  0634  3E90               	addlw	(low (_temb_val| (0+256)))& (0+255)
  5171  0635  0084               	movwf	4
  5172  0636  082E               	movf	??_Average_Value^(0+128),w
  5173  0637  1783               	bsf	3,7	;select IRP bank3
  5174  0638  0080               	movwf	0
  5175  0639  0A84               	incf	4,f
  5176  063A  082F               	movf	(??_Average_Value+1)^(0+128),w
  5177  063B  0080               	movwf	0
  5178  063C  0A84               	incf	4,f
  5179  063D  0830               	movf	(??_Average_Value+2)^(0+128),w
  5180  063E  0080               	movwf	0
  5181  063F  0A84               	incf	4,f
  5182  0640  0831               	movf	(??_Average_Value+3)^(0+128),w
  5183  0641  0080               	movwf	0
  5184  0642                     l2754:
  5185                           
  5186                           ;Average/Average.c: 18:  Average_Nvalues= (Average_Nvalues+1)%10U;
  5187  0642  300A               	movlw	10
  5188  0643  1283               	bcf	3,5	;RP0=0, select bank0
  5189  0644  1303               	bcf	3,6	;RP1=0, select bank0
  5190  0645  00BA               	movwf	___lwmod@divisor
  5191  0646  3000               	movlw	0
  5192  0647  00BB               	movwf	___lwmod@divisor+1
  5193  0648  0855               	movf	_Average_Nvalues,w
  5194  0649  3E01               	addlw	1
  5195  064A  00BC               	movwf	___lwmod@dividend
  5196  064B  3000               	movlw	0
  5197  064C  1803               	skipnc
  5198  064D  3001               	movlw	1
  5199  064E  00BD               	movwf	___lwmod@dividend+1
  5200  064F  120A  158A  236B  120A  118A  	fcall	___lwmod
  5201  0654  1283               	bcf	3,5	;RP0=0, select bank0
  5202  0655  1303               	bcf	3,6	;RP1=0, select bank0
  5203  0656  083A               	movf	?___lwmod,w
  5204  0657  00FF               	movwf	btemp+1
  5205  0658  087F               	movf	btemp+1,w
  5206  0659  00D5               	movwf	_Average_Nvalues
  5207  065A                     l2756:
  5208                           
  5209                           ;Average/Average.c: 20:  for(uint8_t index=0;index<10U;index++)
  5210  065A  1683               	bsf	3,5	;RP0=1, select bank1
  5211  065B  1303               	bcf	3,6	;RP1=0, select bank1
  5212  065C  01B4               	clrf	Average_Value@index^(0+128)
  5213  065D                     l2762:
  5214                           
  5215                           ;Average/Average.c: 21:  {;Average/Average.c: 22:   Avrage_buffer+=temb_val[index];
  5216  065D  0834               	movf	Average_Value@index^(0+128),w
  5217  065E  00AE               	movwf	??_Average_Value^(0+128)
  5218  065F  3001               	movlw	1
  5219  0660                     u3705:
  5220  0660  1003               	clrc
  5221  0661  0DAE               	rlf	??_Average_Value^(0+128),f
  5222  0662  3EFF               	addlw	-1
  5223  0663  1D03               	skipz
  5224  0664  2E60               	goto	u3705
  5225  0665  1003               	clrc
  5226  0666  0D2E               	rlf	??_Average_Value^(0+128),w
  5227  0667  3E90               	addlw	(low (_temb_val| (0+256)))& (0+255)
  5228  0668  0084               	movwf	4
  5229  0669  1783               	bsf	3,7	;select IRP bank3
  5230  066A  0800               	movf	0,w
  5231  066B  1283               	bcf	3,5	;RP0=0, select bank0
  5232  066C  1303               	bcf	3,6	;RP1=0, select bank0
  5233  066D  07C3               	addwf	_Avrage_buffer,f
  5234  066E  0A84               	incf	4,f
  5235  066F  0800               	movf	0,w
  5236  0670  1803               	skipnc
  5237  0671  0F00               	incfsz	0,w
  5238  0672  2E74               	goto	u3711
  5239  0673  2E75               	goto	u3712
  5240  0674                     u3711:
  5241  0674  07C4               	addwf	_Avrage_buffer+1,f
  5242  0675                     u3712:
  5243  0675  0A84               	incf	4,f
  5244  0676  0800               	movf	0,w
  5245  0677  1803               	skipnc
  5246  0678  0F00               	incfsz	0,w
  5247  0679  2E7B               	goto	u3713
  5248  067A  2E7C               	goto	u3714
  5249  067B                     u3713:
  5250  067B  07C5               	addwf	_Avrage_buffer+2,f
  5251  067C                     u3714:
  5252  067C  0A84               	incf	4,f
  5253  067D  0800               	movf	0,w
  5254  067E  1803               	skipnc
  5255  067F  0F00               	incfsz	0,w
  5256  0680  2E82               	goto	u3715
  5257  0681  2E83               	goto	u3716
  5258  0682                     u3715:
  5259  0682  07C6               	addwf	_Avrage_buffer+3,f
  5260  0683                     u3716:
  5261  0683                     l2764:
  5262                           
  5263                           ;Average/Average.c: 23:  }
  5264  0683  3001               	movlw	1
  5265  0684  00FF               	movwf	btemp+1
  5266  0685  087F               	movf	btemp+1,w
  5267  0686  1683               	bsf	3,5	;RP0=1, select bank1
  5268  0687  1303               	bcf	3,6	;RP1=0, select bank1
  5269  0688  07B4               	addwf	Average_Value@index^(0+128),f
  5270  0689                     l2766:
  5271  0689  300A               	movlw	10
  5272  068A  0234               	subwf	Average_Value@index^(0+128),w
  5273  068B  1C03               	skipc
  5274  068C  2E8E               	goto	u3721
  5275  068D  2E8F               	goto	u3720
  5276  068E                     u3721:
  5277  068E  2E5D               	goto	l2762
  5278  068F                     u3720:
  5279  068F                     l2768:
  5280                           
  5281                           ;Average/Average.c: 26:    *Avrage_Values=Avrage_buffer/10U;
  5282  068F  3000               	movlw	0
  5283  0690  00A3               	movwf	(___lldiv@divisor+3)^(0+128)
  5284  0691  3000               	movlw	0
  5285  0692  00A2               	movwf	(___lldiv@divisor+2)^(0+128)
  5286  0693  3000               	movlw	0
  5287  0694  00A1               	movwf	(___lldiv@divisor+1)^(0+128)
  5288  0695  300A               	movlw	10
  5289  0696  00A0               	movwf	___lldiv@divisor^(0+128)
  5290  0697  1283               	bcf	3,5	;RP0=0, select bank0
  5291  0698  1303               	bcf	3,6	;RP1=0, select bank0
  5292  0699  0846               	movf	_Avrage_buffer+3,w
  5293  069A  1683               	bsf	3,5	;RP0=1, select bank1
  5294  069B  1303               	bcf	3,6	;RP1=0, select bank1
  5295  069C  00A7               	movwf	(___lldiv@dividend+3)^(0+128)
  5296  069D  1283               	bcf	3,5	;RP0=0, select bank0
  5297  069E  1303               	bcf	3,6	;RP1=0, select bank0
  5298  069F  0845               	movf	_Avrage_buffer+2,w
  5299  06A0  1683               	bsf	3,5	;RP0=1, select bank1
  5300  06A1  1303               	bcf	3,6	;RP1=0, select bank1
  5301  06A2  00A6               	movwf	(___lldiv@dividend+2)^(0+128)
  5302  06A3  1283               	bcf	3,5	;RP0=0, select bank0
  5303  06A4  1303               	bcf	3,6	;RP1=0, select bank0
  5304  06A5  0844               	movf	_Avrage_buffer+1,w
  5305  06A6  1683               	bsf	3,5	;RP0=1, select bank1
  5306  06A7  1303               	bcf	3,6	;RP1=0, select bank1
  5307  06A8  00A5               	movwf	(___lldiv@dividend+1)^(0+128)
  5308  06A9  1283               	bcf	3,5	;RP0=0, select bank0
  5309  06AA  1303               	bcf	3,6	;RP1=0, select bank0
  5310  06AB  0843               	movf	_Avrage_buffer,w
  5311  06AC  1683               	bsf	3,5	;RP0=1, select bank1
  5312  06AD  1303               	bcf	3,6	;RP1=0, select bank1
  5313  06AE  00A4               	movwf	___lldiv@dividend^(0+128)
  5314  06AF  120A  158A  270C  120A  118A  	fcall	___lldiv
  5315  06B4  1683               	bsf	3,5	;RP0=1, select bank1
  5316  06B5  1303               	bcf	3,6	;RP1=0, select bank1
  5317  06B6  0820               	movf	?___lldiv^(0+128),w
  5318  06B7  00FF               	movwf	btemp+1
  5319  06B8  082D               	movf	Average_Value@Avrage_Values^(0+128),w
  5320  06B9  0084               	movwf	4
  5321  06BA  087F               	movf	btemp+1,w
  5322  06BB  1383               	bcf	3,7	;select IRP bank0
  5323  06BC  0080               	movwf	0
  5324  06BD                     l82:
  5325  06BD  0008               	return
  5326  06BE                     __end_of_Average_Value:
  5327                           
  5328                           	psect	text21
  5329  0B6B                     __ptext21:	
  5330 ;; *************** function ___lwmod *****************
  5331 ;; Defined at:
  5332 ;;		line 5 in file "C:\Program Files (x86)\Microchip\xc8\v2.20\pic\sources\c90\common\lwmod.c"
  5333 ;; Parameters:    Size  Location     Type
  5334 ;;  divisor         2   26[BANK0 ] unsigned int 
  5335 ;;  dividend        2   28[BANK0 ] unsigned int 
  5336 ;; Auto vars:     Size  Location     Type
  5337 ;;  counter         1   30[BANK0 ] unsigned char 
  5338 ;; Return value:  Size  Location     Type
  5339 ;;                  2   26[BANK0 ] unsigned int 
  5340 ;; Registers used:
  5341 ;;		wreg, status,2, status,0, btemp+1
  5342 ;; Tracked objects:
  5343 ;;		On entry : 0/0
  5344 ;;		On exit  : 0/0
  5345 ;;		Unchanged: 0/0
  5346 ;; Data sizes:     COMMON   BANK0   BANK1   BANK3   BANK2
  5347 ;;      Params:         0       4       0       0       0
  5348 ;;      Locals:         0       1       0       0       0
  5349 ;;      Temps:          0       0       0       0       0
  5350 ;;      Totals:         0       5       0       0       0
  5351 ;;Total ram usage:        5 bytes
  5352 ;; Hardware stack levels used:    1
  5353 ;; Hardware stack levels required when called:    4
  5354 ;; This function calls:
  5355 ;;		Nothing
  5356 ;; This function is called by:
  5357 ;;		_Average_Value
  5358 ;;		_Temperature_Calc
  5359 ;; This function uses a non-reentrant model
  5360 ;;
  5361                           
  5362                           
  5363                           ;psect for function ___lwmod
  5364  0B6B                     ___lwmod:
  5365  0B6B                     l2714:	
  5366                           ;incstack = 0
  5367 ;; hardware stack exceeded
  5368                           ; Regs used in ___lwmod: [wreg+status,2+status,0+btemp+1]
  5369                           
  5370  0B6B  1283               	bcf	3,5	;RP0=0, select bank0
  5371  0B6C  1303               	bcf	3,6	;RP1=0, select bank0
  5372  0B6D  083A               	movf	___lwmod@divisor,w
  5373  0B6E  043B               	iorwf	___lwmod@divisor+1,w
  5374  0B6F  1903               	btfsc	3,2
  5375  0B70  2B72               	goto	u3601
  5376  0B71  2B73               	goto	u3600
  5377  0B72                     u3601:
  5378  0B72  2BA2               	goto	l2732
  5379  0B73                     u3600:
  5380  0B73                     l2716:
  5381  0B73  01BE               	clrf	___lwmod@counter
  5382  0B74  0ABE               	incf	___lwmod@counter,f
  5383  0B75  2B81               	goto	l2722
  5384  0B76                     l2718:
  5385  0B76  3001               	movlw	1
  5386  0B77                     u3615:
  5387  0B77  1003               	clrc
  5388  0B78  0DBA               	rlf	___lwmod@divisor,f
  5389  0B79  0DBB               	rlf	___lwmod@divisor+1,f
  5390  0B7A  3EFF               	addlw	-1
  5391  0B7B  1D03               	skipz
  5392  0B7C  2B77               	goto	u3615
  5393  0B7D                     l2720:
  5394  0B7D  3001               	movlw	1
  5395  0B7E  00FF               	movwf	btemp+1
  5396  0B7F  087F               	movf	btemp+1,w
  5397  0B80  07BE               	addwf	___lwmod@counter,f
  5398  0B81                     l2722:
  5399  0B81  1FBB               	btfss	___lwmod@divisor+1,7
  5400  0B82  2B84               	goto	u3621
  5401  0B83  2B85               	goto	u3620
  5402  0B84                     u3621:
  5403  0B84  2B76               	goto	l2718
  5404  0B85                     u3620:
  5405  0B85                     l2724:
  5406  0B85  083B               	movf	___lwmod@divisor+1,w
  5407  0B86  023D               	subwf	___lwmod@dividend+1,w
  5408  0B87  1D03               	skipz
  5409  0B88  2B8B               	goto	u3635
  5410  0B89  083A               	movf	___lwmod@divisor,w
  5411  0B8A  023C               	subwf	___lwmod@dividend,w
  5412  0B8B                     u3635:
  5413  0B8B  1C03               	skipc
  5414  0B8C  2B8E               	goto	u3631
  5415  0B8D  2B8F               	goto	u3630
  5416  0B8E                     u3631:
  5417  0B8E  2B95               	goto	l2728
  5418  0B8F                     u3630:
  5419  0B8F                     l2726:
  5420  0B8F  083A               	movf	___lwmod@divisor,w
  5421  0B90  02BC               	subwf	___lwmod@dividend,f
  5422  0B91  083B               	movf	___lwmod@divisor+1,w
  5423  0B92  1C03               	skipc
  5424  0B93  03BD               	decf	___lwmod@dividend+1,f
  5425  0B94  02BD               	subwf	___lwmod@dividend+1,f
  5426  0B95                     l2728:
  5427  0B95  3001               	movlw	1
  5428  0B96                     u3645:
  5429  0B96  1003               	clrc
  5430  0B97  0CBB               	rrf	___lwmod@divisor+1,f
  5431  0B98  0CBA               	rrf	___lwmod@divisor,f
  5432  0B99  3EFF               	addlw	-1
  5433  0B9A  1D03               	skipz
  5434  0B9B  2B96               	goto	u3645
  5435  0B9C                     l2730:
  5436  0B9C  3001               	movlw	1
  5437  0B9D  02BE               	subwf	___lwmod@counter,f
  5438  0B9E  1D03               	btfss	3,2
  5439  0B9F  2BA1               	goto	u3651
  5440  0BA0  2BA2               	goto	u3650
  5441  0BA1                     u3651:
  5442  0BA1  2B85               	goto	l2724
  5443  0BA2                     u3650:
  5444  0BA2                     l2732:
  5445  0BA2  083D               	movf	___lwmod@dividend+1,w
  5446  0BA3  00BB               	movwf	?___lwmod+1
  5447  0BA4  083C               	movf	___lwmod@dividend,w
  5448  0BA5  00BA               	movwf	?___lwmod
  5449  0BA6                     l762:
  5450  0BA6  0008               	return
  5451  0BA7                     __end_of___lwmod:
  5452                           
  5453                           	psect	text22
  5454  0F0C                     __ptext22:	
  5455 ;; *************** function ___lldiv *****************
  5456 ;; Defined at:
  5457 ;;		line 5 in file "C:\Program Files (x86)\Microchip\xc8\v2.20\pic\sources\c90\common\__lldiv.c"
  5458 ;; Parameters:    Size  Location     Type
  5459 ;;  divisor         4    0[BANK1 ] unsigned long 
  5460 ;;  dividend        4    4[BANK1 ] unsigned long 
  5461 ;; Auto vars:     Size  Location     Type
  5462 ;;  quotient        4    8[BANK1 ] unsigned long 
  5463 ;;  counter         1   12[BANK1 ] unsigned char 
  5464 ;; Return value:  Size  Location     Type
  5465 ;;                  4    0[BANK1 ] unsigned long 
  5466 ;; Registers used:
  5467 ;;		wreg, status,2, status,0, btemp+1
  5468 ;; Tracked objects:
  5469 ;;		On entry : 0/0
  5470 ;;		On exit  : 0/0
  5471 ;;		Unchanged: 0/0
  5472 ;; Data sizes:     COMMON   BANK0   BANK1   BANK3   BANK2
  5473 ;;      Params:         0       0       8       0       0
  5474 ;;      Locals:         0       0       5       0       0
  5475 ;;      Temps:          0       1       0       0       0
  5476 ;;      Totals:         0       1      13       0       0
  5477 ;;Total ram usage:       14 bytes
  5478 ;; Hardware stack levels used:    1
  5479 ;; Hardware stack levels required when called:    4
  5480 ;; This function calls:
  5481 ;;		Nothing
  5482 ;; This function is called by:
  5483 ;;		_Average_Value
  5484 ;; This function uses a non-reentrant model
  5485 ;;
  5486                           
  5487                           
  5488                           ;psect for function ___lldiv
  5489  0F0C                     ___lldiv:
  5490  0F0C                     l2688:	
  5491                           ;incstack = 0
  5492 ;; hardware stack exceeded
  5493                           ; Regs used in ___lldiv: [wreg+status,2+status,0+btemp+1]
  5494                           
  5495  0F0C  3000               	movlw	0
  5496  0F0D  1683               	bsf	3,5	;RP0=1, select bank1
  5497  0F0E  1303               	bcf	3,6	;RP1=0, select bank1
  5498  0F0F  00AB               	movwf	(___lldiv@quotient+3)^(0+128)
  5499  0F10  3000               	movlw	0
  5500  0F11  00AA               	movwf	(___lldiv@quotient+2)^(0+128)
  5501  0F12  3000               	movlw	0
  5502  0F13  00A9               	movwf	(___lldiv@quotient+1)^(0+128)
  5503  0F14  3000               	movlw	0
  5504  0F15  00A8               	movwf	___lldiv@quotient^(0+128)
  5505  0F16  0823               	movf	(___lldiv@divisor+3)^(0+128),w
  5506  0F17  0422               	iorwf	(___lldiv@divisor+2)^(0+128),w
  5507  0F18  0421               	iorwf	(___lldiv@divisor+1)^(0+128),w
  5508  0F19  0420               	iorwf	___lldiv@divisor^(0+128),w
  5509  0F1A  1903               	skipnz
  5510  0F1B  2F1D               	goto	u3531
  5511  0F1C  2F1E               	goto	u3530
  5512  0F1D                     u3531:
  5513  0F1D  2F7B               	goto	l2710
  5514  0F1E                     u3530:
  5515  0F1E                     l2690:
  5516  0F1E  01AC               	clrf	___lldiv@counter^(0+128)
  5517  0F1F  0AAC               	incf	___lldiv@counter^(0+128),f
  5518  0F20  2F36               	goto	l2696
  5519  0F21                     l2692:
  5520  0F21  3001               	movlw	1
  5521  0F22  1283               	bcf	3,5	;RP0=0, select bank0
  5522  0F23  1303               	bcf	3,6	;RP1=0, select bank0
  5523  0F24  00BA               	movwf	??___lldiv
  5524  0F25                     u3545:
  5525  0F25  1003               	clrc
  5526  0F26  1683               	bsf	3,5	;RP0=1, select bank1
  5527  0F27  1303               	bcf	3,6	;RP1=0, select bank1
  5528  0F28  0DA0               	rlf	___lldiv@divisor^(0+128),f
  5529  0F29  0DA1               	rlf	(___lldiv@divisor+1)^(0+128),f
  5530  0F2A  0DA2               	rlf	(___lldiv@divisor+2)^(0+128),f
  5531  0F2B  0DA3               	rlf	(___lldiv@divisor+3)^(0+128),f
  5532  0F2C  1283               	bcf	3,5	;RP0=0, select bank0
  5533  0F2D  1303               	bcf	3,6	;RP1=0, select bank0
  5534  0F2E  0BBA               	decfsz	??___lldiv,f
  5535  0F2F  2F25               	goto	u3545
  5536  0F30                     l2694:
  5537  0F30  3001               	movlw	1
  5538  0F31  00FF               	movwf	btemp+1
  5539  0F32  087F               	movf	btemp+1,w
  5540  0F33  1683               	bsf	3,5	;RP0=1, select bank1
  5541  0F34  1303               	bcf	3,6	;RP1=0, select bank1
  5542  0F35  07AC               	addwf	___lldiv@counter^(0+128),f
  5543  0F36                     l2696:
  5544  0F36  1FA3               	btfss	(___lldiv@divisor+3)^(0+128),7
  5545  0F37  2F39               	goto	u3551
  5546  0F38  2F3A               	goto	u3550
  5547  0F39                     u3551:
  5548  0F39  2F21               	goto	l2692
  5549  0F3A                     u3550:
  5550  0F3A                     l2698:
  5551  0F3A  3001               	movlw	1
  5552  0F3B  1283               	bcf	3,5	;RP0=0, select bank0
  5553  0F3C  1303               	bcf	3,6	;RP1=0, select bank0
  5554  0F3D  00BA               	movwf	??___lldiv
  5555  0F3E                     u3565:
  5556  0F3E  1003               	clrc
  5557  0F3F  1683               	bsf	3,5	;RP0=1, select bank1
  5558  0F40  1303               	bcf	3,6	;RP1=0, select bank1
  5559  0F41  0DA8               	rlf	___lldiv@quotient^(0+128),f
  5560  0F42  0DA9               	rlf	(___lldiv@quotient+1)^(0+128),f
  5561  0F43  0DAA               	rlf	(___lldiv@quotient+2)^(0+128),f
  5562  0F44  0DAB               	rlf	(___lldiv@quotient+3)^(0+128),f
  5563  0F45  1283               	bcf	3,5	;RP0=0, select bank0
  5564  0F46  1303               	bcf	3,6	;RP1=0, select bank0
  5565  0F47  0BBA               	decfsz	??___lldiv,f
  5566  0F48  2F3E               	goto	u3565
  5567  0F49                     l2700:
  5568  0F49  1683               	bsf	3,5	;RP0=1, select bank1
  5569  0F4A  1303               	bcf	3,6	;RP1=0, select bank1
  5570  0F4B  0823               	movf	(___lldiv@divisor+3)^(0+128),w
  5571  0F4C  0227               	subwf	(___lldiv@dividend+3)^(0+128),w
  5572  0F4D  1D03               	skipz
  5573  0F4E  2F59               	goto	u3575
  5574  0F4F  0822               	movf	(___lldiv@divisor+2)^(0+128),w
  5575  0F50  0226               	subwf	(___lldiv@dividend+2)^(0+128),w
  5576  0F51  1D03               	skipz
  5577  0F52  2F59               	goto	u3575
  5578  0F53  0821               	movf	(___lldiv@divisor+1)^(0+128),w
  5579  0F54  0225               	subwf	(___lldiv@dividend+1)^(0+128),w
  5580  0F55  1D03               	skipz
  5581  0F56  2F59               	goto	u3575
  5582  0F57  0820               	movf	___lldiv@divisor^(0+128),w
  5583  0F58  0224               	subwf	___lldiv@dividend^(0+128),w
  5584  0F59                     u3575:
  5585  0F59  1C03               	skipc
  5586  0F5A  2F5C               	goto	u3571
  5587  0F5B  2F5D               	goto	u3570
  5588  0F5C                     u3571:
  5589  0F5C  2F6C               	goto	l2706
  5590  0F5D                     u3570:
  5591  0F5D                     l2702:
  5592  0F5D  0820               	movf	___lldiv@divisor^(0+128),w
  5593  0F5E  02A4               	subwf	___lldiv@dividend^(0+128),f
  5594  0F5F  0821               	movf	(___lldiv@divisor+1)^(0+128),w
  5595  0F60  1C03               	skipc
  5596  0F61  0F21               	incfsz	(___lldiv@divisor+1)^(0+128),w
  5597  0F62  02A5               	subwf	(___lldiv@dividend+1)^(0+128),f
  5598  0F63  0822               	movf	(___lldiv@divisor+2)^(0+128),w
  5599  0F64  1C03               	skipc
  5600  0F65  0F22               	incfsz	(___lldiv@divisor+2)^(0+128),w
  5601  0F66  02A6               	subwf	(___lldiv@dividend+2)^(0+128),f
  5602  0F67  0823               	movf	(___lldiv@divisor+3)^(0+128),w
  5603  0F68  1C03               	skipc
  5604  0F69  0F23               	incfsz	(___lldiv@divisor+3)^(0+128),w
  5605  0F6A  02A7               	subwf	(___lldiv@dividend+3)^(0+128),f
  5606  0F6B                     l2704:
  5607  0F6B  1428               	bsf	___lldiv@quotient^(0+128),0
  5608  0F6C                     l2706:
  5609  0F6C  3001               	movlw	1
  5610  0F6D                     u3585:
  5611  0F6D  1003               	clrc
  5612  0F6E  0CA3               	rrf	(___lldiv@divisor+3)^(0+128),f
  5613  0F6F  0CA2               	rrf	(___lldiv@divisor+2)^(0+128),f
  5614  0F70  0CA1               	rrf	(___lldiv@divisor+1)^(0+128),f
  5615  0F71  0CA0               	rrf	___lldiv@divisor^(0+128),f
  5616  0F72  3EFF               	addlw	-1
  5617  0F73  1D03               	skipz
  5618  0F74  2F6D               	goto	u3585
  5619  0F75                     l2708:
  5620  0F75  3001               	movlw	1
  5621  0F76  02AC               	subwf	___lldiv@counter^(0+128),f
  5622  0F77  1D03               	btfss	3,2
  5623  0F78  2F7A               	goto	u3591
  5624  0F79  2F7B               	goto	u3590
  5625  0F7A                     u3591:
  5626  0F7A  2F3A               	goto	l2698
  5627  0F7B                     u3590:
  5628  0F7B                     l2710:
  5629  0F7B  082B               	movf	(___lldiv@quotient+3)^(0+128),w
  5630  0F7C  00A3               	movwf	(?___lldiv+3)^(0+128)
  5631  0F7D  082A               	movf	(___lldiv@quotient+2)^(0+128),w
  5632  0F7E  00A2               	movwf	(?___lldiv+2)^(0+128)
  5633  0F7F  0829               	movf	(___lldiv@quotient+1)^(0+128),w
  5634  0F80  00A1               	movwf	(?___lldiv+1)^(0+128)
  5635  0F81  0828               	movf	___lldiv@quotient^(0+128),w
  5636  0F82  00A0               	movwf	?___lldiv^(0+128)
  5637  0F83                     l516:
  5638  0F83  0008               	return
  5639  0F84                     __end_of___lldiv:
  5640                           
  5641                           	psect	text23
  5642  0415                     __ptext23:	
  5643 ;; *************** function _Display_MainFunction *****************
  5644 ;; Defined at:
  5645 ;;		line 24 in file "Display/Display.c"
  5646 ;; Parameters:    Size  Location     Type
  5647 ;;		None
  5648 ;; Auto vars:     Size  Location     Type
  5649 ;;		None
  5650 ;; Return value:  Size  Location     Type
  5651 ;;                  1    wreg      void 
  5652 ;; Registers used:
  5653 ;;		wreg, fsr0l, fsr0h, status,2, status,0, btemp+1, pclath, cstack
  5654 ;; Tracked objects:
  5655 ;;		On entry : 0/0
  5656 ;;		On exit  : 0/0
  5657 ;;		Unchanged: 0/0
  5658 ;; Data sizes:     COMMON   BANK0   BANK1   BANK3   BANK2
  5659 ;;      Params:         0       0       0       0       0
  5660 ;;      Locals:         0       0       0       0       0
  5661 ;;      Temps:          0       0       2       0       0
  5662 ;;      Totals:         0       0       2       0       0
  5663 ;;Total ram usage:        2 bytes
  5664 ;; Hardware stack levels used:    1
  5665 ;; Hardware stack levels required when called:    6
  5666 ;; This function calls:
  5667 ;;		_Display_Blink
  5668 ;;		___awdiv
  5669 ;;		___awmod
  5670 ;; This function is called by:
  5671 ;;		_Scheduler_Task1
  5672 ;; This function uses a non-reentrant model
  5673 ;;
  5674                           
  5675                           
  5676                           ;psect for function _Display_MainFunction
  5677  0415                     _Display_MainFunction:
  5678  0415                     l3150:	
  5679                           ;incstack = 0
  5680 ;; hardware stack exceeded
  5681                           ; Regs used in _Display_MainFunction: [wreg-fsr0h+status,2+status,0+btemp+1+pclath+cstac
      +                          k]
  5682                           
  5683                           
  5684                           ;Display/Display.c: 26:  static uint8_t Digit_1=0;;Display/Display.c: 27:  static uint8_
      +                          t Digit_2=0;;Display/Display.c: 28:  static uint8_t Tempreture=0;;Display/Display.c: 29:
      +                            static uint8_t Display=0;;Display/Display.c: 30:  static uint8_t Enable_Digit_Selector
      +                          =1;;Display/Display.c: 32:   if(Mode.Select_Mode==Normal_Mode)
  5685  0415  1683               	bsf	3,5	;RP0=1, select bank1
  5686  0416  1303               	bcf	3,6	;RP1=0, select bank1
  5687  0417  0356               	decf	_Mode^(0+128),w
  5688  0418  1D03               	btfss	3,2
  5689  0419  2C1B               	goto	u4671
  5690  041A  2C1C               	goto	u4670
  5691  041B                     u4671:
  5692  041B  2C25               	goto	l3156
  5693  041C                     u4670:
  5694  041C                     l3152:
  5695                           
  5696                           ;Display/Display.c: 33:   {;Display/Display.c: 34:    Tempreture=Temperature.Average_Val
      +                          ue;
  5697  041C  1283               	bcf	3,5	;RP0=0, select bank0
  5698  041D  1303               	bcf	3,6	;RP1=0, select bank0
  5699  041E  084E               	movf	_Temperature+1,w
  5700  041F  00FF               	movwf	btemp+1
  5701  0420  087F               	movf	btemp+1,w
  5702  0421  00C8               	movwf	Display_MainFunction@Tempreture
  5703  0422                     l3154:
  5704                           
  5705                           ;Display/Display.c: 35:    Enable_Display=Enable_Display_On;
  5706  0422  01CC               	clrf	_Enable_Display
  5707  0423  0ACC               	incf	_Enable_Display,f
  5708                           
  5709                           ;Display/Display.c: 36:   }
  5710  0424  2C41               	goto	l3164
  5711  0425                     l3156:
  5712  0425  3002               	movlw	2
  5713  0426  0656               	xorwf	_Mode^(0+128),w
  5714  0427  1D03               	btfss	3,2
  5715  0428  2C2A               	goto	u4681
  5716  0429  2C2B               	goto	u4680
  5717  042A                     u4681:
  5718  042A  2C32               	goto	l3160
  5719  042B                     u4680:
  5720  042B                     l3158:
  5721                           
  5722                           ;Display/Display.c: 38:   {;Display/Display.c: 39:    Tempreture=Temperature.Set_Temp;
  5723  042B  1283               	bcf	3,5	;RP0=0, select bank0
  5724  042C  1303               	bcf	3,6	;RP1=0, select bank0
  5725  042D  084F               	movf	_Temperature+2,w
  5726  042E  00FF               	movwf	btemp+1
  5727  042F  087F               	movf	btemp+1,w
  5728  0430  00C8               	movwf	Display_MainFunction@Tempreture
  5729                           
  5730                           ;Display/Display.c: 40:   }
  5731  0431  2C41               	goto	l3164
  5732  0432                     l3160:
  5733  0432  0856               	movf	_Mode^(0+128),w
  5734  0433  1D03               	btfss	3,2
  5735  0434  2C36               	goto	u4691
  5736  0435  2C37               	goto	u4690
  5737  0436                     u4691:
  5738  0436  2C41               	goto	l3164
  5739  0437                     u4690:
  5740  0437                     l3162:
  5741                           
  5742                           ;Display/Display.c: 42:   {;Display/Display.c: 43:   (PORTA &= ~(1<<5)) ;
  5743  0437  30DF               	movlw	223
  5744  0438  00FF               	movwf	btemp+1
  5745  0439  087F               	movf	btemp+1,w
  5746  043A  1283               	bcf	3,5	;RP0=0, select bank0
  5747  043B  1303               	bcf	3,6	;RP1=0, select bank0
  5748  043C  0585               	andwf	5,f	;volatile
  5749                           
  5750                           ;Display/Display.c: 44:   (PORTA &= ~(1<<4)) ;
  5751  043D  30EF               	movlw	239
  5752  043E  00FF               	movwf	btemp+1
  5753  043F  087F               	movf	btemp+1,w
  5754  0440  0585               	andwf	5,f	;volatile
  5755  0441                     l3164:
  5756                           
  5757                           ;Display/Display.c: 48:  if(Mode.Select_Mode!=Off_Mode)
  5758  0441  1683               	bsf	3,5	;RP0=1, select bank1
  5759  0442  1303               	bcf	3,6	;RP1=0, select bank1
  5760  0443  0856               	movf	_Mode^(0+128),w
  5761  0444  1903               	btfsc	3,2
  5762  0445  2C47               	goto	u4701
  5763  0446  2C48               	goto	u4700
  5764  0447                     u4701:
  5765  0447  2D1E               	goto	l158
  5766  0448                     u4700:
  5767  0448                     l3166:
  5768                           
  5769                           ;Display/Display.c: 49:  {;Display/Display.c: 50:   if(Enable_Display==Enable_Display_On
      +                          )
  5770  0448  1283               	bcf	3,5	;RP0=0, select bank0
  5771  0449  1303               	bcf	3,6	;RP1=0, select bank0
  5772  044A  034C               	decf	_Enable_Display,w
  5773  044B  1D03               	btfss	3,2
  5774  044C  2C4E               	goto	u4711
  5775  044D  2C4F               	goto	u4710
  5776  044E                     u4711:
  5777  044E  2D09               	goto	l3212
  5778  044F                     u4710:
  5779  044F                     l3168:
  5780                           
  5781                           ;Display/Display.c: 51:   {;Display/Display.c: 52:          Digit_1=Tempreture%10;
  5782  044F  300A               	movlw	10
  5783  0450  00BA               	movwf	___awmod@divisor
  5784  0451  3000               	movlw	0
  5785  0452  00BB               	movwf	___awmod@divisor+1
  5786  0453  0848               	movf	Display_MainFunction@Tempreture,w
  5787  0454  1683               	bsf	3,5	;RP0=1, select bank1
  5788  0455  1303               	bcf	3,6	;RP1=0, select bank1
  5789  0456  00A8               	movwf	??_Display_MainFunction^(0+128)
  5790  0457  01A9               	clrf	(??_Display_MainFunction^(0+128)+1)
  5791  0458  0828               	movf	??_Display_MainFunction^(0+128),w
  5792  0459  1283               	bcf	3,5	;RP0=0, select bank0
  5793  045A  1303               	bcf	3,6	;RP1=0, select bank0
  5794  045B  00BC               	movwf	___awmod@dividend
  5795  045C  1683               	bsf	3,5	;RP0=1, select bank1
  5796  045D  1303               	bcf	3,6	;RP1=0, select bank1
  5797  045E  0829               	movf	(??_Display_MainFunction+1)^(0+128),w
  5798  045F  1283               	bcf	3,5	;RP0=0, select bank0
  5799  0460  1303               	bcf	3,6	;RP1=0, select bank0
  5800  0461  00BD               	movwf	___awmod@dividend+1
  5801  0462  120A  158A  269E  120A  118A  	fcall	___awmod
  5802  0467  1283               	bcf	3,5	;RP0=0, select bank0
  5803  0468  1303               	bcf	3,6	;RP1=0, select bank0
  5804  0469  083A               	movf	?___awmod,w
  5805  046A  00FF               	movwf	btemp+1
  5806  046B  087F               	movf	btemp+1,w
  5807  046C  00CA               	movwf	Display_MainFunction@Digit_1
  5808                           
  5809                           ;Display/Display.c: 53:          Digit_2=Tempreture/10;
  5810  046D  300A               	movlw	10
  5811  046E  00BA               	movwf	___awdiv@divisor
  5812  046F  3000               	movlw	0
  5813  0470  00BB               	movwf	___awdiv@divisor+1
  5814  0471  0848               	movf	Display_MainFunction@Tempreture,w
  5815  0472  1683               	bsf	3,5	;RP0=1, select bank1
  5816  0473  1303               	bcf	3,6	;RP1=0, select bank1
  5817  0474  00A8               	movwf	??_Display_MainFunction^(0+128)
  5818  0475  01A9               	clrf	(??_Display_MainFunction^(0+128)+1)
  5819  0476  0828               	movf	??_Display_MainFunction^(0+128),w
  5820  0477  1283               	bcf	3,5	;RP0=0, select bank0
  5821  0478  1303               	bcf	3,6	;RP1=0, select bank0
  5822  0479  00BC               	movwf	___awdiv@dividend
  5823  047A  1683               	bsf	3,5	;RP0=1, select bank1
  5824  047B  1303               	bcf	3,6	;RP1=0, select bank1
  5825  047C  0829               	movf	(??_Display_MainFunction+1)^(0+128),w
  5826  047D  1283               	bcf	3,5	;RP0=0, select bank0
  5827  047E  1303               	bcf	3,6	;RP1=0, select bank0
  5828  047F  00BD               	movwf	___awdiv@dividend+1
  5829  0480  120A  118A  274C  120A  118A  	fcall	___awdiv
  5830  0485  1283               	bcf	3,5	;RP0=0, select bank0
  5831  0486  1303               	bcf	3,6	;RP1=0, select bank0
  5832  0487  083A               	movf	?___awdiv,w
  5833  0488  00FF               	movwf	btemp+1
  5834  0489  087F               	movf	btemp+1,w
  5835  048A  00C9               	movwf	Display_MainFunction@Digit_2
  5836  048B                     l3170:
  5837                           
  5838                           ;Display/Display.c: 54:          Enable_Digit_Selector^=1;
  5839  048B  3001               	movlw	1
  5840  048C  00FF               	movwf	btemp+1
  5841  048D  087F               	movf	btemp+1,w
  5842  048E  06D4               	xorwf	Display_MainFunction@Enable_Digit_Selector,f
  5843  048F                     l3172:
  5844                           
  5845                           ;Display/Display.c: 56:          if(Enable_Digit_Selector==0)
  5846  048F  0854               	movf	Display_MainFunction@Enable_Digit_Selector,w
  5847  0490  1D03               	btfss	3,2
  5848  0491  2C93               	goto	u4721
  5849  0492  2C94               	goto	u4720
  5850  0493                     u4721:
  5851  0493  2C9E               	goto	l3180
  5852  0494                     u4720:
  5853  0494                     l3174:
  5854                           
  5855                           ;Display/Display.c: 57:          {;Display/Display.c: 58:           Display=Digit_1;
  5856  0494  084A               	movf	Display_MainFunction@Digit_1,w
  5857  0495  00FF               	movwf	btemp+1
  5858  0496  087F               	movf	btemp+1,w
  5859  0497  00C7               	movwf	Display_MainFunction@Display
  5860  0498                     l3176:
  5861                           
  5862                           ;Display/Display.c: 59:            (PORTA &= ~(1<<4));
  5863  0498  30EF               	movlw	239
  5864  0499  00FF               	movwf	btemp+1
  5865  049A  087F               	movf	btemp+1,w
  5866  049B  0585               	andwf	5,f	;volatile
  5867  049C                     l3178:
  5868                           
  5869                           ;Display/Display.c: 60:            (PORTA|= (1<<5)) ;
  5870  049C  1685               	bsf	5,5	;volatile
  5871                           
  5872                           ;Display/Display.c: 62:          }
  5873  049D  2CDF               	goto	l3210
  5874  049E                     l3180:
  5875  049E  0354               	decf	Display_MainFunction@Enable_Digit_Selector,w
  5876  049F  1D03               	btfss	3,2
  5877  04A0  2CA2               	goto	u4731
  5878  04A1  2CA3               	goto	u4730
  5879  04A2                     u4731:
  5880  04A2  2CDF               	goto	l3210
  5881  04A3                     u4730:
  5882  04A3                     l3182:
  5883                           
  5884                           ;Display/Display.c: 64:          {;Display/Display.c: 65:           Display=Digit_2;
  5885  04A3  0849               	movf	Display_MainFunction@Digit_2,w
  5886  04A4  00FF               	movwf	btemp+1
  5887  04A5  087F               	movf	btemp+1,w
  5888  04A6  00C7               	movwf	Display_MainFunction@Display
  5889  04A7                     l3184:
  5890                           
  5891                           ;Display/Display.c: 66:           (PORTA &= ~(1<<5));
  5892  04A7  30DF               	movlw	223
  5893  04A8  00FF               	movwf	btemp+1
  5894  04A9  087F               	movf	btemp+1,w
  5895  04AA  0585               	andwf	5,f	;volatile
  5896  04AB                     l3186:
  5897                           
  5898                           ;Display/Display.c: 67:           (PORTA|= (1<<4));
  5899  04AB  1605               	bsf	5,4	;volatile
  5900  04AC  2CDF               	goto	l3210
  5901  04AD                     l3188:
  5902                           
  5903                           ;Display/Display.c: 76:              PORTD=0b00111111;
  5904  04AD  303F               	movlw	63
  5905  04AE  1283               	bcf	3,5	;RP0=0, select bank0
  5906  04AF  1303               	bcf	3,6	;RP1=0, select bank0
  5907  04B0  0088               	movwf	8	;volatile
  5908                           
  5909                           ;Display/Display.c: 77:              break;
  5910  04B1  2D09               	goto	l3212
  5911  04B2                     l3190:
  5912                           
  5913                           ;Display/Display.c: 80:              PORTD=0b00000110;
  5914  04B2  3006               	movlw	6
  5915  04B3  1283               	bcf	3,5	;RP0=0, select bank0
  5916  04B4  1303               	bcf	3,6	;RP1=0, select bank0
  5917  04B5  0088               	movwf	8	;volatile
  5918                           
  5919                           ;Display/Display.c: 81:              break;
  5920  04B6  2D09               	goto	l3212
  5921  04B7                     l3192:
  5922                           
  5923                           ;Display/Display.c: 84:              PORTD=0b01011011;
  5924  04B7  305B               	movlw	91
  5925  04B8  1283               	bcf	3,5	;RP0=0, select bank0
  5926  04B9  1303               	bcf	3,6	;RP1=0, select bank0
  5927  04BA  0088               	movwf	8	;volatile
  5928                           
  5929                           ;Display/Display.c: 85:              break;
  5930  04BB  2D09               	goto	l3212
  5931  04BC                     l3194:
  5932                           
  5933                           ;Display/Display.c: 88:              PORTD=0b01001111;
  5934  04BC  304F               	movlw	79
  5935  04BD  1283               	bcf	3,5	;RP0=0, select bank0
  5936  04BE  1303               	bcf	3,6	;RP1=0, select bank0
  5937  04BF  0088               	movwf	8	;volatile
  5938                           
  5939                           ;Display/Display.c: 89:              break;
  5940  04C0  2D09               	goto	l3212
  5941  04C1                     l3196:
  5942                           
  5943                           ;Display/Display.c: 92:              PORTD=0b01100110;
  5944  04C1  3066               	movlw	102
  5945  04C2  1283               	bcf	3,5	;RP0=0, select bank0
  5946  04C3  1303               	bcf	3,6	;RP1=0, select bank0
  5947  04C4  0088               	movwf	8	;volatile
  5948                           
  5949                           ;Display/Display.c: 93:              break;
  5950  04C5  2D09               	goto	l3212
  5951  04C6                     l3198:
  5952                           
  5953                           ;Display/Display.c: 96:              PORTD=0b01101101;
  5954  04C6  306D               	movlw	109
  5955  04C7  1283               	bcf	3,5	;RP0=0, select bank0
  5956  04C8  1303               	bcf	3,6	;RP1=0, select bank0
  5957  04C9  0088               	movwf	8	;volatile
  5958                           
  5959                           ;Display/Display.c: 97:              break;
  5960  04CA  2D09               	goto	l3212
  5961  04CB                     l3200:
  5962                           
  5963                           ;Display/Display.c: 100:              PORTD=0b01111101;
  5964  04CB  307D               	movlw	125
  5965  04CC  1283               	bcf	3,5	;RP0=0, select bank0
  5966  04CD  1303               	bcf	3,6	;RP1=0, select bank0
  5967  04CE  0088               	movwf	8	;volatile
  5968                           
  5969                           ;Display/Display.c: 101:              break;
  5970  04CF  2D09               	goto	l3212
  5971  04D0                     l3202:
  5972                           
  5973                           ;Display/Display.c: 104:              PORTD=0b00000111;
  5974  04D0  3007               	movlw	7
  5975  04D1  1283               	bcf	3,5	;RP0=0, select bank0
  5976  04D2  1303               	bcf	3,6	;RP1=0, select bank0
  5977  04D3  0088               	movwf	8	;volatile
  5978                           
  5979                           ;Display/Display.c: 105:              break;
  5980  04D4  2D09               	goto	l3212
  5981  04D5                     l3204:
  5982                           
  5983                           ;Display/Display.c: 108:              PORTD=0b01111111;
  5984  04D5  307F               	movlw	127
  5985  04D6  1283               	bcf	3,5	;RP0=0, select bank0
  5986  04D7  1303               	bcf	3,6	;RP1=0, select bank0
  5987  04D8  0088               	movwf	8	;volatile
  5988                           
  5989                           ;Display/Display.c: 109:              break;
  5990  04D9  2D09               	goto	l3212
  5991  04DA                     l3206:
  5992                           
  5993                           ;Display/Display.c: 112:              PORTD=0b01101111;
  5994  04DA  306F               	movlw	111
  5995  04DB  1283               	bcf	3,5	;RP0=0, select bank0
  5996  04DC  1303               	bcf	3,6	;RP1=0, select bank0
  5997  04DD  0088               	movwf	8	;volatile
  5998                           
  5999                           ;Display/Display.c: 113:              break;
  6000  04DE  2D09               	goto	l3212
  6001  04DF                     l3210:
  6002  04DF  0847               	movf	Display_MainFunction@Display,w
  6003  04E0  1683               	bsf	3,5	;RP0=1, select bank1
  6004  04E1  1303               	bcf	3,6	;RP1=0, select bank1
  6005  04E2  00A8               	movwf	??_Display_MainFunction^(0+128)
  6006  04E3  01A9               	clrf	(??_Display_MainFunction^(0+128)+1)
  6007                           
  6008                           ; Switch on 2 bytes has been partitioned into a top level switch of size 1, and 1 sub-sw
      +                          itches
  6009                           ; Switch size 1, requested type "simple"
  6010                           ; Number of cases is 1, Range of values is 0 to 0
  6011                           ; switch strategies available:
  6012                           ; Name         Instructions Cycles
  6013                           ; simple_byte            4     3 (average)
  6014                           ; direct_byte           11     8 (fixed)
  6015                           ; jumptable            260     6 (fixed)
  6016                           ;	Chosen strategy is simple_byte
  6017  04E4  0829               	movf	(??_Display_MainFunction+1)^(0+128),w
  6018  04E5  3A00               	xorlw	0	; case 0
  6019  04E6  1903               	skipnz
  6020  04E7  2CE9               	goto	l3364
  6021  04E8  2D09               	goto	l3212
  6022  04E9                     l3364:
  6023                           
  6024                           ; Switch size 1, requested type "simple"
  6025                           ; Number of cases is 10, Range of values is 0 to 9
  6026                           ; switch strategies available:
  6027                           ; Name         Instructions Cycles
  6028                           ; simple_byte           31    16 (average)
  6029                           ; direct_byte           38     8 (fixed)
  6030                           ; jumptable            260     6 (fixed)
  6031                           ;	Chosen strategy is simple_byte
  6032  04E9  0828               	movf	??_Display_MainFunction^(0+128),w
  6033  04EA  3A00               	xorlw	0	; case 0
  6034  04EB  1903               	skipnz
  6035  04EC  2CAD               	goto	l3188
  6036  04ED  3A01               	xorlw	1	; case 1
  6037  04EE  1903               	skipnz
  6038  04EF  2CB2               	goto	l3190
  6039  04F0  3A03               	xorlw	3	; case 2
  6040  04F1  1903               	skipnz
  6041  04F2  2CB7               	goto	l3192
  6042  04F3  3A01               	xorlw	1	; case 3
  6043  04F4  1903               	skipnz
  6044  04F5  2CBC               	goto	l3194
  6045  04F6  3A07               	xorlw	7	; case 4
  6046  04F7  1903               	skipnz
  6047  04F8  2CC1               	goto	l3196
  6048  04F9  3A01               	xorlw	1	; case 5
  6049  04FA  1903               	skipnz
  6050  04FB  2CC6               	goto	l3198
  6051  04FC  3A03               	xorlw	3	; case 6
  6052  04FD  1903               	skipnz
  6053  04FE  2CCB               	goto	l3200
  6054  04FF  3A01               	xorlw	1	; case 7
  6055  0500  1903               	skipnz
  6056  0501  2CD0               	goto	l3202
  6057  0502  3A0F               	xorlw	15	; case 8
  6058  0503  1903               	skipnz
  6059  0504  2CD5               	goto	l3204
  6060  0505  3A01               	xorlw	1	; case 9
  6061  0506  1903               	skipnz
  6062  0507  2CDA               	goto	l3206
  6063  0508  2D09               	goto	l3212
  6064  0509                     l3212:
  6065                           
  6066                           ;Display/Display.c: 118:   if(Mode.Select_Mode==Setting_Mode)
  6067  0509  3002               	movlw	2
  6068  050A  1683               	bsf	3,5	;RP0=1, select bank1
  6069  050B  1303               	bcf	3,6	;RP1=0, select bank1
  6070  050C  0656               	xorwf	_Mode^(0+128),w
  6071  050D  1D03               	btfss	3,2
  6072  050E  2D10               	goto	u4741
  6073  050F  2D11               	goto	u4740
  6074  0510                     u4741:
  6075  0510  2D1E               	goto	l158
  6076  0511                     u4740:
  6077  0511                     l3214:
  6078                           
  6079                           ;Display/Display.c: 119:   {;Display/Display.c: 120:    Display_Blink(1000,20);
  6080  0511  30E8               	movlw	232
  6081  0512  00A2               	movwf	Display_Blink@Times_Ms^(0+128)
  6082  0513  3003               	movlw	3
  6083  0514  00A3               	movwf	(Display_Blink@Times_Ms^(0+128)+1)
  6084  0515  3014               	movlw	20
  6085  0516  00A4               	movwf	Display_Blink@Task_Peroid^(0+128)
  6086  0517  3000               	movlw	0
  6087  0518  00A5               	movwf	(Display_Blink@Task_Peroid^(0+128)+1)
  6088  0519  120A  158A  2469  120A  118A  	fcall	_Display_Blink
  6089  051E                     l158:
  6090  051E  0008               	return
  6091  051F                     __end_of_Display_MainFunction:
  6092                           
  6093                           	psect	text24
  6094  0E9E                     __ptext24:	
  6095 ;; *************** function ___awmod *****************
  6096 ;; Defined at:
  6097 ;;		line 5 in file "C:\Program Files (x86)\Microchip\xc8\v2.20\pic\sources\c90\common\awmod.c"
  6098 ;; Parameters:    Size  Location     Type
  6099 ;;  divisor         2   26[BANK0 ] int 
  6100 ;;  dividend        2   28[BANK0 ] int 
  6101 ;; Auto vars:     Size  Location     Type
  6102 ;;  sign            1    1[BANK1 ] unsigned char 
  6103 ;;  counter         1    0[BANK1 ] unsigned char 
  6104 ;; Return value:  Size  Location     Type
  6105 ;;                  2   26[BANK0 ] int 
  6106 ;; Registers used:
  6107 ;;		wreg, status,2, status,0, btemp+1
  6108 ;; Tracked objects:
  6109 ;;		On entry : 0/0
  6110 ;;		On exit  : 0/0
  6111 ;;		Unchanged: 0/0
  6112 ;; Data sizes:     COMMON   BANK0   BANK1   BANK3   BANK2
  6113 ;;      Params:         0       4       0       0       0
  6114 ;;      Locals:         0       0       2       0       0
  6115 ;;      Temps:          0       0       0       0       0
  6116 ;;      Totals:         0       4       2       0       0
  6117 ;;Total ram usage:        6 bytes
  6118 ;; Hardware stack levels used:    1
  6119 ;; Hardware stack levels required when called:    4
  6120 ;; This function calls:
  6121 ;;		Nothing
  6122 ;; This function is called by:
  6123 ;;		_Display_MainFunction
  6124 ;; This function uses a non-reentrant model
  6125 ;;
  6126                           
  6127                           
  6128                           ;psect for function ___awmod
  6129  0E9E                     ___awmod:
  6130  0E9E                     l3100:	
  6131                           ;incstack = 0
  6132                           ; Regs used in ___awmod: [wreg+status,2+status,0+btemp+1]
  6133                           
  6134  0E9E  1683               	bsf	3,5	;RP0=1, select bank1
  6135  0E9F  1303               	bcf	3,6	;RP1=0, select bank1
  6136  0EA0  01A1               	clrf	___awmod@sign^(0+128)
  6137  0EA1                     l3102:
  6138  0EA1  1283               	bcf	3,5	;RP0=0, select bank0
  6139  0EA2  1303               	bcf	3,6	;RP1=0, select bank0
  6140  0EA3  1FBD               	btfss	___awmod@dividend+1,7
  6141  0EA4  2EA6               	goto	u4541
  6142  0EA5  2EA7               	goto	u4540
  6143  0EA6                     u4541:
  6144  0EA6  2EB0               	goto	l3108
  6145  0EA7                     u4540:
  6146  0EA7                     l3104:
  6147  0EA7  09BC               	comf	___awmod@dividend,f
  6148  0EA8  09BD               	comf	___awmod@dividend+1,f
  6149  0EA9  0ABC               	incf	___awmod@dividend,f
  6150  0EAA  1903               	skipnz
  6151  0EAB  0ABD               	incf	___awmod@dividend+1,f
  6152  0EAC                     l3106:
  6153  0EAC  1683               	bsf	3,5	;RP0=1, select bank1
  6154  0EAD  1303               	bcf	3,6	;RP1=0, select bank1
  6155  0EAE  01A1               	clrf	___awmod@sign^(0+128)
  6156  0EAF  0AA1               	incf	___awmod@sign^(0+128),f
  6157  0EB0                     l3108:
  6158  0EB0  1283               	bcf	3,5	;RP0=0, select bank0
  6159  0EB1  1FBB               	btfss	___awmod@divisor+1,7
  6160  0EB2  2EB4               	goto	u4551
  6161  0EB3  2EB5               	goto	u4550
  6162  0EB4                     u4551:
  6163  0EB4  2EBA               	goto	l3112
  6164  0EB5                     u4550:
  6165  0EB5                     l3110:
  6166  0EB5  09BA               	comf	___awmod@divisor,f
  6167  0EB6  09BB               	comf	___awmod@divisor+1,f
  6168  0EB7  0ABA               	incf	___awmod@divisor,f
  6169  0EB8  1903               	skipnz
  6170  0EB9  0ABB               	incf	___awmod@divisor+1,f
  6171  0EBA                     l3112:
  6172  0EBA  083A               	movf	___awmod@divisor,w
  6173  0EBB  043B               	iorwf	___awmod@divisor+1,w
  6174  0EBC  1903               	btfsc	3,2
  6175  0EBD  2EBF               	goto	u4561
  6176  0EBE  2EC0               	goto	u4560
  6177  0EBF                     u4561:
  6178  0EBF  2EF8               	goto	l3130
  6179  0EC0                     u4560:
  6180  0EC0                     l3114:
  6181  0EC0  1683               	bsf	3,5	;RP0=1, select bank1
  6182  0EC1  1303               	bcf	3,6	;RP1=0, select bank1
  6183  0EC2  01A0               	clrf	___awmod@counter^(0+128)
  6184  0EC3  0AA0               	incf	___awmod@counter^(0+128),f
  6185  0EC4  2ED2               	goto	l3120
  6186  0EC5                     l3116:
  6187  0EC5  3001               	movlw	1
  6188  0EC6                     u4575:
  6189  0EC6  1003               	clrc
  6190  0EC7  0DBA               	rlf	___awmod@divisor,f
  6191  0EC8  0DBB               	rlf	___awmod@divisor+1,f
  6192  0EC9  3EFF               	addlw	-1
  6193  0ECA  1D03               	skipz
  6194  0ECB  2EC6               	goto	u4575
  6195  0ECC                     l3118:
  6196  0ECC  3001               	movlw	1
  6197  0ECD  00FF               	movwf	btemp+1
  6198  0ECE  087F               	movf	btemp+1,w
  6199  0ECF  1683               	bsf	3,5	;RP0=1, select bank1
  6200  0ED0  1303               	bcf	3,6	;RP1=0, select bank1
  6201  0ED1  07A0               	addwf	___awmod@counter^(0+128),f
  6202  0ED2                     l3120:
  6203  0ED2  1283               	bcf	3,5	;RP0=0, select bank0
  6204  0ED3  1303               	bcf	3,6	;RP1=0, select bank0
  6205  0ED4  1FBB               	btfss	___awmod@divisor+1,7
  6206  0ED5  2ED7               	goto	u4581
  6207  0ED6  2ED8               	goto	u4580
  6208  0ED7                     u4581:
  6209  0ED7  2EC5               	goto	l3116
  6210  0ED8                     u4580:
  6211  0ED8                     l3122:
  6212  0ED8  1283               	bcf	3,5	;RP0=0, select bank0
  6213  0ED9  083B               	movf	___awmod@divisor+1,w
  6214  0EDA  023D               	subwf	___awmod@dividend+1,w
  6215  0EDB  1D03               	skipz
  6216  0EDC  2EDF               	goto	u4595
  6217  0EDD  083A               	movf	___awmod@divisor,w
  6218  0EDE  023C               	subwf	___awmod@dividend,w
  6219  0EDF                     u4595:
  6220  0EDF  1C03               	skipc
  6221  0EE0  2EE2               	goto	u4591
  6222  0EE1  2EE3               	goto	u4590
  6223  0EE2                     u4591:
  6224  0EE2  2EE9               	goto	l3126
  6225  0EE3                     u4590:
  6226  0EE3                     l3124:
  6227  0EE3  083A               	movf	___awmod@divisor,w
  6228  0EE4  02BC               	subwf	___awmod@dividend,f
  6229  0EE5  083B               	movf	___awmod@divisor+1,w
  6230  0EE6  1C03               	skipc
  6231  0EE7  03BD               	decf	___awmod@dividend+1,f
  6232  0EE8  02BD               	subwf	___awmod@dividend+1,f
  6233  0EE9                     l3126:
  6234  0EE9  3001               	movlw	1
  6235  0EEA                     u4605:
  6236  0EEA  1003               	clrc
  6237  0EEB  0CBB               	rrf	___awmod@divisor+1,f
  6238  0EEC  0CBA               	rrf	___awmod@divisor,f
  6239  0EED  3EFF               	addlw	-1
  6240  0EEE  1D03               	skipz
  6241  0EEF  2EEA               	goto	u4605
  6242  0EF0                     l3128:
  6243  0EF0  3001               	movlw	1
  6244  0EF1  1683               	bsf	3,5	;RP0=1, select bank1
  6245  0EF2  1303               	bcf	3,6	;RP1=0, select bank1
  6246  0EF3  02A0               	subwf	___awmod@counter^(0+128),f
  6247  0EF4  1D03               	btfss	3,2
  6248  0EF5  2EF7               	goto	u4611
  6249  0EF6  2EF8               	goto	u4610
  6250  0EF7                     u4611:
  6251  0EF7  2ED8               	goto	l3122
  6252  0EF8                     u4610:
  6253  0EF8                     l3130:
  6254  0EF8  1683               	bsf	3,5	;RP0=1, select bank1
  6255  0EF9  1303               	bcf	3,6	;RP1=0, select bank1
  6256  0EFA  0821               	movf	___awmod@sign^(0+128),w
  6257  0EFB  1903               	btfsc	3,2
  6258  0EFC  2EFE               	goto	u4621
  6259  0EFD  2EFF               	goto	u4620
  6260  0EFE                     u4621:
  6261  0EFE  2F06               	goto	l3134
  6262  0EFF                     u4620:
  6263  0EFF                     l3132:
  6264  0EFF  1283               	bcf	3,5	;RP0=0, select bank0
  6265  0F00  1303               	bcf	3,6	;RP1=0, select bank0
  6266  0F01  09BC               	comf	___awmod@dividend,f
  6267  0F02  09BD               	comf	___awmod@dividend+1,f
  6268  0F03  0ABC               	incf	___awmod@dividend,f
  6269  0F04  1903               	skipnz
  6270  0F05  0ABD               	incf	___awmod@dividend+1,f
  6271  0F06                     l3134:
  6272  0F06  1283               	bcf	3,5	;RP0=0, select bank0
  6273  0F07  083D               	movf	___awmod@dividend+1,w
  6274  0F08  00BB               	movwf	?___awmod+1
  6275  0F09  083C               	movf	___awmod@dividend,w
  6276  0F0A  00BA               	movwf	?___awmod
  6277  0F0B                     l646:
  6278  0F0B  0008               	return
  6279  0F0C                     __end_of___awmod:
  6280                           
  6281                           	psect	text25
  6282  074C                     __ptext25:	
  6283 ;; *************** function ___awdiv *****************
  6284 ;; Defined at:
  6285 ;;		line 5 in file "C:\Program Files (x86)\Microchip\xc8\v2.20\pic\sources\c90\common\awdiv.c"
  6286 ;; Parameters:    Size  Location     Type
  6287 ;;  divisor         2   26[BANK0 ] int 
  6288 ;;  dividend        2   28[BANK0 ] int 
  6289 ;; Auto vars:     Size  Location     Type
  6290 ;;  quotient        2    2[BANK1 ] int 
  6291 ;;  sign            1    1[BANK1 ] unsigned char 
  6292 ;;  counter         1    0[BANK1 ] unsigned char 
  6293 ;; Return value:  Size  Location     Type
  6294 ;;                  2   26[BANK0 ] int 
  6295 ;; Registers used:
  6296 ;;		wreg, status,2, status,0, btemp+1
  6297 ;; Tracked objects:
  6298 ;;		On entry : 0/0
  6299 ;;		On exit  : 0/0
  6300 ;;		Unchanged: 0/0
  6301 ;; Data sizes:     COMMON   BANK0   BANK1   BANK3   BANK2
  6302 ;;      Params:         0       4       0       0       0
  6303 ;;      Locals:         0       0       4       0       0
  6304 ;;      Temps:          0       0       0       0       0
  6305 ;;      Totals:         0       4       4       0       0
  6306 ;;Total ram usage:        8 bytes
  6307 ;; Hardware stack levels used:    1
  6308 ;; Hardware stack levels required when called:    4
  6309 ;; This function calls:
  6310 ;;		Nothing
  6311 ;; This function is called by:
  6312 ;;		_Display_MainFunction
  6313 ;; This function uses a non-reentrant model
  6314 ;;
  6315                           
  6316                           
  6317                           ;psect for function ___awdiv
  6318  074C                     ___awdiv:
  6319  074C                     l3056:	
  6320                           ;incstack = 0
  6321                           ; Regs used in ___awdiv: [wreg+status,2+status,0+btemp+1]
  6322                           
  6323  074C  1683               	bsf	3,5	;RP0=1, select bank1
  6324  074D  1303               	bcf	3,6	;RP1=0, select bank1
  6325  074E  01A1               	clrf	___awdiv@sign^(0+128)
  6326  074F                     l3058:
  6327  074F  1283               	bcf	3,5	;RP0=0, select bank0
  6328  0750  1303               	bcf	3,6	;RP1=0, select bank0
  6329  0751  1FBB               	btfss	___awdiv@divisor+1,7
  6330  0752  2F54               	goto	u4441
  6331  0753  2F55               	goto	u4440
  6332  0754                     u4441:
  6333  0754  2F5E               	goto	l3064
  6334  0755                     u4440:
  6335  0755                     l3060:
  6336  0755  09BA               	comf	___awdiv@divisor,f
  6337  0756  09BB               	comf	___awdiv@divisor+1,f
  6338  0757  0ABA               	incf	___awdiv@divisor,f
  6339  0758  1903               	skipnz
  6340  0759  0ABB               	incf	___awdiv@divisor+1,f
  6341  075A                     l3062:
  6342  075A  1683               	bsf	3,5	;RP0=1, select bank1
  6343  075B  1303               	bcf	3,6	;RP1=0, select bank1
  6344  075C  01A1               	clrf	___awdiv@sign^(0+128)
  6345  075D  0AA1               	incf	___awdiv@sign^(0+128),f
  6346  075E                     l3064:
  6347  075E  1283               	bcf	3,5	;RP0=0, select bank0
  6348  075F  1FBD               	btfss	___awdiv@dividend+1,7
  6349  0760  2F62               	goto	u4451
  6350  0761  2F63               	goto	u4450
  6351  0762                     u4451:
  6352  0762  2F6E               	goto	l3070
  6353  0763                     u4450:
  6354  0763                     l3066:
  6355  0763  09BC               	comf	___awdiv@dividend,f
  6356  0764  09BD               	comf	___awdiv@dividend+1,f
  6357  0765  0ABC               	incf	___awdiv@dividend,f
  6358  0766  1903               	skipnz
  6359  0767  0ABD               	incf	___awdiv@dividend+1,f
  6360  0768                     l3068:
  6361  0768  3001               	movlw	1
  6362  0769  00FF               	movwf	btemp+1
  6363  076A  087F               	movf	btemp+1,w
  6364  076B  1683               	bsf	3,5	;RP0=1, select bank1
  6365  076C  1303               	bcf	3,6	;RP1=0, select bank1
  6366  076D  06A1               	xorwf	___awdiv@sign^(0+128),f
  6367  076E                     l3070:
  6368  076E  1683               	bsf	3,5	;RP0=1, select bank1
  6369  076F  1303               	bcf	3,6	;RP1=0, select bank1
  6370  0770  01A2               	clrf	___awdiv@quotient^(0+128)
  6371  0771  01A3               	clrf	(___awdiv@quotient+1)^(0+128)
  6372  0772                     l3072:
  6373  0772  1283               	bcf	3,5	;RP0=0, select bank0
  6374  0773  1303               	bcf	3,6	;RP1=0, select bank0
  6375  0774  083A               	movf	___awdiv@divisor,w
  6376  0775  043B               	iorwf	___awdiv@divisor+1,w
  6377  0776  1903               	btfsc	3,2
  6378  0777  2F79               	goto	u4461
  6379  0778  2F7A               	goto	u4460
  6380  0779                     u4461:
  6381  0779  2FC0               	goto	l3092
  6382  077A                     u4460:
  6383  077A                     l3074:
  6384  077A  1683               	bsf	3,5	;RP0=1, select bank1
  6385  077B  1303               	bcf	3,6	;RP1=0, select bank1
  6386  077C  01A0               	clrf	___awdiv@counter^(0+128)
  6387  077D  0AA0               	incf	___awdiv@counter^(0+128),f
  6388  077E  2F8C               	goto	l3080
  6389  077F                     l3076:
  6390  077F  3001               	movlw	1
  6391  0780                     u4475:
  6392  0780  1003               	clrc
  6393  0781  0DBA               	rlf	___awdiv@divisor,f
  6394  0782  0DBB               	rlf	___awdiv@divisor+1,f
  6395  0783  3EFF               	addlw	-1
  6396  0784  1D03               	skipz
  6397  0785  2F80               	goto	u4475
  6398  0786                     l3078:
  6399  0786  3001               	movlw	1
  6400  0787  00FF               	movwf	btemp+1
  6401  0788  087F               	movf	btemp+1,w
  6402  0789  1683               	bsf	3,5	;RP0=1, select bank1
  6403  078A  1303               	bcf	3,6	;RP1=0, select bank1
  6404  078B  07A0               	addwf	___awdiv@counter^(0+128),f
  6405  078C                     l3080:
  6406  078C  1283               	bcf	3,5	;RP0=0, select bank0
  6407  078D  1303               	bcf	3,6	;RP1=0, select bank0
  6408  078E  1FBB               	btfss	___awdiv@divisor+1,7
  6409  078F  2F91               	goto	u4481
  6410  0790  2F92               	goto	u4480
  6411  0791                     u4481:
  6412  0791  2F7F               	goto	l3076
  6413  0792                     u4480:
  6414  0792                     l3082:
  6415  0792  3001               	movlw	1
  6416  0793  1683               	bsf	3,5	;RP0=1, select bank1
  6417  0794  1303               	bcf	3,6	;RP1=0, select bank1
  6418  0795                     u4495:
  6419  0795  1003               	clrc
  6420  0796  0DA2               	rlf	___awdiv@quotient^(0+128),f
  6421  0797  0DA3               	rlf	(___awdiv@quotient+1)^(0+128),f
  6422  0798  3EFF               	addlw	-1
  6423  0799  1D03               	skipz
  6424  079A  2F95               	goto	u4495
  6425  079B  1283               	bcf	3,5	;RP0=0, select bank0
  6426  079C  1303               	bcf	3,6	;RP1=0, select bank0
  6427  079D  083B               	movf	___awdiv@divisor+1,w
  6428  079E  023D               	subwf	___awdiv@dividend+1,w
  6429  079F  1D03               	skipz
  6430  07A0  2FA3               	goto	u4505
  6431  07A1  083A               	movf	___awdiv@divisor,w
  6432  07A2  023C               	subwf	___awdiv@dividend,w
  6433  07A3                     u4505:
  6434  07A3  1C03               	skipc
  6435  07A4  2FA6               	goto	u4501
  6436  07A5  2FA7               	goto	u4500
  6437  07A6                     u4501:
  6438  07A6  2FB0               	goto	l3088
  6439  07A7                     u4500:
  6440  07A7                     l3084:
  6441  07A7  083A               	movf	___awdiv@divisor,w
  6442  07A8  02BC               	subwf	___awdiv@dividend,f
  6443  07A9  083B               	movf	___awdiv@divisor+1,w
  6444  07AA  1C03               	skipc
  6445  07AB  03BD               	decf	___awdiv@dividend+1,f
  6446  07AC  02BD               	subwf	___awdiv@dividend+1,f
  6447  07AD                     l3086:
  6448  07AD  1683               	bsf	3,5	;RP0=1, select bank1
  6449  07AE  1303               	bcf	3,6	;RP1=0, select bank1
  6450  07AF  1422               	bsf	___awdiv@quotient^(0+128),0
  6451  07B0                     l3088:
  6452  07B0  3001               	movlw	1
  6453  07B1  1283               	bcf	3,5	;RP0=0, select bank0
  6454  07B2                     u4515:
  6455  07B2  1003               	clrc
  6456  07B3  0CBB               	rrf	___awdiv@divisor+1,f
  6457  07B4  0CBA               	rrf	___awdiv@divisor,f
  6458  07B5  3EFF               	addlw	-1
  6459  07B6  1D03               	skipz
  6460  07B7  2FB2               	goto	u4515
  6461  07B8                     l3090:
  6462  07B8  3001               	movlw	1
  6463  07B9  1683               	bsf	3,5	;RP0=1, select bank1
  6464  07BA  1303               	bcf	3,6	;RP1=0, select bank1
  6465  07BB  02A0               	subwf	___awdiv@counter^(0+128),f
  6466  07BC  1D03               	btfss	3,2
  6467  07BD  2FBF               	goto	u4521
  6468  07BE  2FC0               	goto	u4520
  6469  07BF                     u4521:
  6470  07BF  2F92               	goto	l3082
  6471  07C0                     u4520:
  6472  07C0                     l3092:
  6473  07C0  1683               	bsf	3,5	;RP0=1, select bank1
  6474  07C1  1303               	bcf	3,6	;RP1=0, select bank1
  6475  07C2  0821               	movf	___awdiv@sign^(0+128),w
  6476  07C3  1903               	btfsc	3,2
  6477  07C4  2FC6               	goto	u4531
  6478  07C5  2FC7               	goto	u4530
  6479  07C6                     u4531:
  6480  07C6  2FCC               	goto	l3096
  6481  07C7                     u4530:
  6482  07C7                     l3094:
  6483  07C7  09A2               	comf	___awdiv@quotient^(0+128),f
  6484  07C8  09A3               	comf	(___awdiv@quotient+1)^(0+128),f
  6485  07C9  0AA2               	incf	___awdiv@quotient^(0+128),f
  6486  07CA  1903               	skipnz
  6487  07CB  0AA3               	incf	(___awdiv@quotient+1)^(0+128),f
  6488  07CC                     l3096:
  6489  07CC  0823               	movf	(___awdiv@quotient+1)^(0+128),w
  6490  07CD  1283               	bcf	3,5	;RP0=0, select bank0
  6491  07CE  1303               	bcf	3,6	;RP1=0, select bank0
  6492  07CF  00BB               	movwf	?___awdiv+1
  6493  07D0  1683               	bsf	3,5	;RP0=1, select bank1
  6494  07D1  1303               	bcf	3,6	;RP1=0, select bank1
  6495  07D2  0822               	movf	___awdiv@quotient^(0+128),w
  6496  07D3  1283               	bcf	3,5	;RP0=0, select bank0
  6497  07D4  1303               	bcf	3,6	;RP1=0, select bank0
  6498  07D5  00BA               	movwf	?___awdiv
  6499  07D6                     l633:
  6500  07D6  0008               	return
  6501  07D7                     __end_of___awdiv:
  6502                           
  6503                           	psect	text26
  6504  0C69                     __ptext26:	
  6505 ;; *************** function _Display_Blink *****************
  6506 ;; Defined at:
  6507 ;;		line 128 in file "Display/Display.c"
  6508 ;; Parameters:    Size  Location     Type
  6509 ;;  Times_Ms        2    2[BANK1 ] unsigned int 
  6510 ;;  Task_Peroid     2    4[BANK1 ] unsigned int 
  6511 ;; Auto vars:     Size  Location     Type
  6512 ;;		None
  6513 ;; Return value:  Size  Location     Type
  6514 ;;                  1    wreg      void 
  6515 ;; Registers used:
  6516 ;;		wreg, status,2, status,0, btemp+1, pclath, cstack
  6517 ;; Tracked objects:
  6518 ;;		On entry : 0/0
  6519 ;;		On exit  : 0/0
  6520 ;;		Unchanged: 0/0
  6521 ;; Data sizes:     COMMON   BANK0   BANK1   BANK3   BANK2
  6522 ;;      Params:         0       0       4       0       0
  6523 ;;      Locals:         0       0       0       0       0
  6524 ;;      Temps:          0       0       2       0       0
  6525 ;;      Totals:         0       0       6       0       0
  6526 ;;Total ram usage:        6 bytes
  6527 ;; Hardware stack levels used:    1
  6528 ;; Hardware stack levels required when called:    5
  6529 ;; This function calls:
  6530 ;;		___wmul
  6531 ;; This function is called by:
  6532 ;;		_Display_MainFunction
  6533 ;; This function uses a non-reentrant model
  6534 ;;
  6535                           
  6536                           
  6537                           ;psect for function _Display_Blink
  6538  0C69                     _Display_Blink:
  6539  0C69                     l3026:	
  6540                           ;incstack = 0
  6541 ;; hardware stack exceeded
  6542                           ; Regs used in _Display_Blink: [wreg+status,2+status,0+btemp+1+pclath+cstack]
  6543                           
  6544                           
  6545                           ;Display/Display.c: 128: void Display_Blink(uint16_t Times_Ms,uint16_t Task_Peroid);Disp
      +                          lay/Display.c: 129: {;Display/Display.c: 130:   uint8_t static Counter=1;;Display/Displa
      +                          y.c: 132:   if(Counter*Task_Peroid==Times_Ms)
  6546  0C69  1283               	bcf	3,5	;RP0=0, select bank0
  6547  0C6A  1303               	bcf	3,6	;RP1=0, select bank0
  6548  0C6B  0853               	movf	Display_Blink@Counter,w
  6549  0C6C  1683               	bsf	3,5	;RP0=1, select bank1
  6550  0C6D  1303               	bcf	3,6	;RP1=0, select bank1
  6551  0C6E  00A6               	movwf	??_Display_Blink^(0+128)
  6552  0C6F  01A7               	clrf	(??_Display_Blink^(0+128)+1)
  6553  0C70  0826               	movf	??_Display_Blink^(0+128),w
  6554  0C71  1283               	bcf	3,5	;RP0=0, select bank0
  6555  0C72  1303               	bcf	3,6	;RP1=0, select bank0
  6556  0C73  00BA               	movwf	___wmul@multiplier
  6557  0C74  1683               	bsf	3,5	;RP0=1, select bank1
  6558  0C75  1303               	bcf	3,6	;RP1=0, select bank1
  6559  0C76  0827               	movf	(??_Display_Blink+1)^(0+128),w
  6560  0C77  1283               	bcf	3,5	;RP0=0, select bank0
  6561  0C78  1303               	bcf	3,6	;RP1=0, select bank0
  6562  0C79  00BB               	movwf	___wmul@multiplier+1
  6563  0C7A  1683               	bsf	3,5	;RP0=1, select bank1
  6564  0C7B  1303               	bcf	3,6	;RP1=0, select bank1
  6565  0C7C  0825               	movf	(Display_Blink@Task_Peroid+1)^(0+128),w
  6566  0C7D  1283               	bcf	3,5	;RP0=0, select bank0
  6567  0C7E  1303               	bcf	3,6	;RP1=0, select bank0
  6568  0C7F  00BD               	movwf	___wmul@multiplicand+1
  6569  0C80  1683               	bsf	3,5	;RP0=1, select bank1
  6570  0C81  1303               	bcf	3,6	;RP1=0, select bank1
  6571  0C82  0824               	movf	Display_Blink@Task_Peroid^(0+128),w
  6572  0C83  1283               	bcf	3,5	;RP0=0, select bank0
  6573  0C84  1303               	bcf	3,6	;RP1=0, select bank0
  6574  0C85  00BC               	movwf	___wmul@multiplicand
  6575  0C86  120A  158A  22C4  120A  158A  	fcall	___wmul
  6576  0C8B  1683               	bsf	3,5	;RP0=1, select bank1
  6577  0C8C  1303               	bcf	3,6	;RP1=0, select bank1
  6578  0C8D  0823               	movf	(Display_Blink@Times_Ms+1)^(0+128),w
  6579  0C8E  1283               	bcf	3,5	;RP0=0, select bank0
  6580  0C8F  1303               	bcf	3,6	;RP1=0, select bank0
  6581  0C90  063B               	xorwf	?___wmul+1,w
  6582  0C91  1D03               	skipz
  6583  0C92  2C99               	goto	u4395
  6584  0C93  1683               	bsf	3,5	;RP0=1, select bank1
  6585  0C94  1303               	bcf	3,6	;RP1=0, select bank1
  6586  0C95  0822               	movf	Display_Blink@Times_Ms^(0+128),w
  6587  0C96  1283               	bcf	3,5	;RP0=0, select bank0
  6588  0C97  1303               	bcf	3,6	;RP1=0, select bank0
  6589  0C98  063A               	xorwf	?___wmul,w
  6590  0C99                     u4395:
  6591  0C99  1D03               	skipz
  6592  0C9A  2C9C               	goto	u4391
  6593  0C9B  2C9D               	goto	u4390
  6594  0C9C                     u4391:
  6595  0C9C  2CB5               	goto	l3040
  6596  0C9D                     u4390:
  6597  0C9D                     l3028:
  6598                           
  6599                           ;Display/Display.c: 133:   {;Display/Display.c: 134:       if(Enable_Display==Enable_Dis
      +                          play_On)
  6600  0C9D  034C               	decf	_Enable_Display,w
  6601  0C9E  1D03               	btfss	3,2
  6602  0C9F  2CA1               	goto	u4401
  6603  0CA0  2CA2               	goto	u4400
  6604  0CA1                     u4401:
  6605  0CA1  2CAC               	goto	l3036
  6606  0CA2                     u4400:
  6607  0CA2                     l3030:
  6608                           
  6609                           ;Display/Display.c: 135:       {;Display/Display.c: 136:        Enable_Display=Enable_Di
      +                          splay_Off;
  6610  0CA2  01CC               	clrf	_Enable_Display
  6611  0CA3                     l3032:
  6612                           
  6613                           ;Display/Display.c: 137:         (PORTA &= ~(1<<5)) ;
  6614  0CA3  30DF               	movlw	223
  6615  0CA4  00FF               	movwf	btemp+1
  6616  0CA5  087F               	movf	btemp+1,w
  6617  0CA6  0585               	andwf	5,f	;volatile
  6618  0CA7                     l3034:
  6619                           
  6620                           ;Display/Display.c: 138:         (PORTA &= ~(1<<4)) ;
  6621  0CA7  30EF               	movlw	239
  6622  0CA8  00FF               	movwf	btemp+1
  6623  0CA9  087F               	movf	btemp+1,w
  6624  0CAA  0585               	andwf	5,f	;volatile
  6625                           
  6626                           ;Display/Display.c: 139:       }
  6627  0CAB  2CB3               	goto	l165
  6628  0CAC                     l3036:
  6629  0CAC  084C               	movf	_Enable_Display,w
  6630  0CAD  1D03               	btfss	3,2
  6631  0CAE  2CB0               	goto	u4411
  6632  0CAF  2CB1               	goto	u4410
  6633  0CB0                     u4411:
  6634  0CB0  2CB3               	goto	l165
  6635  0CB1                     u4410:
  6636  0CB1                     l3038:
  6637                           
  6638                           ;Display/Display.c: 141:       {;Display/Display.c: 142:        Enable_Display=Enable_Di
      +                          splay_On;
  6639  0CB1  01CC               	clrf	_Enable_Display
  6640  0CB2  0ACC               	incf	_Enable_Display,f
  6641  0CB3                     l165:
  6642                           
  6643                           ;Display/Display.c: 144:         Counter =1;
  6644  0CB3  01D3               	clrf	Display_Blink@Counter
  6645  0CB4  0AD3               	incf	Display_Blink@Counter,f
  6646  0CB5                     l3040:
  6647                           
  6648                           ;Display/Display.c: 146:   Counter++;
  6649  0CB5  3001               	movlw	1
  6650  0CB6  00FF               	movwf	btemp+1
  6651  0CB7  087F               	movf	btemp+1,w
  6652  0CB8  07D3               	addwf	Display_Blink@Counter,f
  6653  0CB9                     l167:
  6654  0CB9  0008               	return
  6655  0CBA                     __end_of_Display_Blink:
  6656                           
  6657                           	psect	text27
  6658  0AC4                     __ptext27:	
  6659 ;; *************** function ___wmul *****************
  6660 ;; Defined at:
  6661 ;;		line 15 in file "C:\Program Files (x86)\Microchip\xc8\v2.20\pic\sources\c90\common\Umul16.c"
  6662 ;; Parameters:    Size  Location     Type
  6663 ;;  multiplier      2   26[BANK0 ] unsigned int 
  6664 ;;  multiplicand    2   28[BANK0 ] unsigned int 
  6665 ;; Auto vars:     Size  Location     Type
  6666 ;;  product         2    0[BANK1 ] unsigned int 
  6667 ;; Return value:  Size  Location     Type
  6668 ;;                  2   26[BANK0 ] unsigned int 
  6669 ;; Registers used:
  6670 ;;		wreg, status,2, status,0
  6671 ;; Tracked objects:
  6672 ;;		On entry : 0/0
  6673 ;;		On exit  : 0/0
  6674 ;;		Unchanged: 0/0
  6675 ;; Data sizes:     COMMON   BANK0   BANK1   BANK3   BANK2
  6676 ;;      Params:         0       4       0       0       0
  6677 ;;      Locals:         0       0       2       0       0
  6678 ;;      Temps:          0       0       0       0       0
  6679 ;;      Totals:         0       4       2       0       0
  6680 ;;Total ram usage:        6 bytes
  6681 ;; Hardware stack levels used:    1
  6682 ;; Hardware stack levels required when called:    4
  6683 ;; This function calls:
  6684 ;;		Nothing
  6685 ;; This function is called by:
  6686 ;;		_Display_Blink
  6687 ;;		_LED_BLINKING
  6688 ;;		_Start_Setting_Timer
  6689 ;; This function uses a non-reentrant model
  6690 ;;
  6691                           
  6692                           
  6693                           ;psect for function ___wmul
  6694  0AC4                     ___wmul:
  6695  0AC4                     l3008:	
  6696                           ;incstack = 0
  6697 ;; hardware stack exceeded
  6698                           ; Regs used in ___wmul: [wreg+status,2+status,0]
  6699                           
  6700  0AC4  1683               	bsf	3,5	;RP0=1, select bank1
  6701  0AC5  1303               	bcf	3,6	;RP1=0, select bank1
  6702  0AC6  01A0               	clrf	___wmul@product^(0+128)
  6703  0AC7  01A1               	clrf	(___wmul@product+1)^(0+128)
  6704  0AC8                     l3010:
  6705  0AC8  1283               	bcf	3,5	;RP0=0, select bank0
  6706  0AC9  1C3A               	btfss	___wmul@multiplier,0
  6707  0ACA  2ACC               	goto	u4351
  6708  0ACB  2ACD               	goto	u4350
  6709  0ACC                     u4351:
  6710  0ACC  2AD9               	goto	l480
  6711  0ACD                     u4350:
  6712  0ACD                     l3012:
  6713  0ACD  083C               	movf	___wmul@multiplicand,w
  6714  0ACE  1683               	bsf	3,5	;RP0=1, select bank1
  6715  0ACF  1303               	bcf	3,6	;RP1=0, select bank1
  6716  0AD0  07A0               	addwf	___wmul@product^(0+128),f
  6717  0AD1  1803               	skipnc
  6718  0AD2  0AA1               	incf	(___wmul@product+1)^(0+128),f
  6719  0AD3  1283               	bcf	3,5	;RP0=0, select bank0
  6720  0AD4  1303               	bcf	3,6	;RP1=0, select bank0
  6721  0AD5  083D               	movf	___wmul@multiplicand+1,w
  6722  0AD6  1683               	bsf	3,5	;RP0=1, select bank1
  6723  0AD7  1303               	bcf	3,6	;RP1=0, select bank1
  6724  0AD8  07A1               	addwf	(___wmul@product+1)^(0+128),f
  6725  0AD9                     l480:
  6726  0AD9  3001               	movlw	1
  6727  0ADA  1283               	bcf	3,5	;RP0=0, select bank0
  6728  0ADB                     u4365:
  6729  0ADB  1003               	clrc
  6730  0ADC  0DBC               	rlf	___wmul@multiplicand,f
  6731  0ADD  0DBD               	rlf	___wmul@multiplicand+1,f
  6732  0ADE  3EFF               	addlw	-1
  6733  0ADF  1D03               	skipz
  6734  0AE0  2ADB               	goto	u4365
  6735  0AE1                     l3014:
  6736  0AE1  3001               	movlw	1
  6737  0AE2                     u4375:
  6738  0AE2  1003               	clrc
  6739  0AE3  0CBB               	rrf	___wmul@multiplier+1,f
  6740  0AE4  0CBA               	rrf	___wmul@multiplier,f
  6741  0AE5  3EFF               	addlw	-1
  6742  0AE6  1D03               	skipz
  6743  0AE7  2AE2               	goto	u4375
  6744  0AE8                     l3016:
  6745  0AE8  083A               	movf	___wmul@multiplier,w
  6746  0AE9  043B               	iorwf	___wmul@multiplier+1,w
  6747  0AEA  1D03               	btfss	3,2
  6748  0AEB  2AED               	goto	u4381
  6749  0AEC  2AEE               	goto	u4380
  6750  0AED                     u4381:
  6751  0AED  2AC8               	goto	l3010
  6752  0AEE                     u4380:
  6753  0AEE                     l3018:
  6754  0AEE  1683               	bsf	3,5	;RP0=1, select bank1
  6755  0AEF  1303               	bcf	3,6	;RP1=0, select bank1
  6756  0AF0  0821               	movf	(___wmul@product+1)^(0+128),w
  6757  0AF1  1283               	bcf	3,5	;RP0=0, select bank0
  6758  0AF2  1303               	bcf	3,6	;RP1=0, select bank0
  6759  0AF3  00BB               	movwf	?___wmul+1
  6760  0AF4  1683               	bsf	3,5	;RP0=1, select bank1
  6761  0AF5  1303               	bcf	3,6	;RP1=0, select bank1
  6762  0AF6  0820               	movf	___wmul@product^(0+128),w
  6763  0AF7  1283               	bcf	3,5	;RP0=0, select bank0
  6764  0AF8  1303               	bcf	3,6	;RP1=0, select bank0
  6765  0AF9  00BA               	movwf	?___wmul
  6766  0AFA                     l482:
  6767  0AFA  0008               	return
  6768  0AFB                     __end_of___wmul:
  6769                           
  6770                           	psect	text28
  6771  0967                     __ptext28:	
  6772 ;; *************** function _Scheduler_Init *****************
  6773 ;; Defined at:
  6774 ;;		line 29 in file "Scheduler/Scheduler.c"
  6775 ;; Parameters:    Size  Location     Type
  6776 ;;		None
  6777 ;; Auto vars:     Size  Location     Type
  6778 ;;		None
  6779 ;; Return value:  Size  Location     Type
  6780 ;;                  1    wreg      void 
  6781 ;; Registers used:
  6782 ;;		wreg, fsr0l, fsr0h, status,2, status,0, btemp+1, pclath, cstack
  6783 ;; Tracked objects:
  6784 ;;		On entry : 0/0
  6785 ;;		On exit  : 0/0
  6786 ;;		Unchanged: 0/0
  6787 ;; Data sizes:     COMMON   BANK0   BANK1   BANK3   BANK2
  6788 ;;      Params:         0       0       0       0       0
  6789 ;;      Locals:         0       0       0       0       0
  6790 ;;      Temps:          0       0       0       0       0
  6791 ;;      Totals:         0       0       0       0       0
  6792 ;;Total ram usage:        0 bytes
  6793 ;; Hardware stack levels used:    1
  6794 ;; Hardware stack levels required when called:    5
  6795 ;; This function calls:
  6796 ;;		_memset
  6797 ;; This function is called by:
  6798 ;;		_main
  6799 ;; This function uses a non-reentrant model
  6800 ;;
  6801                           
  6802                           
  6803                           ;psect for function _Scheduler_Init
  6804  0967                     _Scheduler_Init:
  6805  0967                     l3296:	
  6806                           ;incstack = 0
  6807                           ; Regs used in _Scheduler_Init: [wreg-fsr0h+status,2+status,0+btemp+1+pclath+cstack]
  6808                           
  6809                           
  6810                           ;Scheduler/Scheduler.c: 31:   memset( Scheduler_ActivationFlags , 0 , sizeof( Scheduler_
      +                          ActivationFlags ) );
  6811  0967  3000               	movlw	0
  6812  0968  1283               	bcf	3,5	;RP0=0, select bank0
  6813  0969  1303               	bcf	3,6	;RP1=0, select bank0
  6814  096A  00BA               	movwf	memset@c
  6815  096B  00BB               	movwf	memset@c+1
  6816  096C  3003               	movlw	3
  6817  096D  00BC               	movwf	memset@n
  6818  096E  3000               	movlw	0
  6819  096F  00BD               	movwf	memset@n+1
  6820  0970  30D9               	movlw	(low (_Scheduler_ActivationFlags| 0))& (0+255)
  6821  0971  120A  158A  2268  120A  158A  	fcall	_memset
  6822  0976                     l298:
  6823  0976  0008               	return
  6824  0977                     __end_of_Scheduler_Init:
  6825                           
  6826                           	psect	text29
  6827  0A68                     __ptext29:	
  6828 ;; *************** function _memset *****************
  6829 ;; Defined at:
  6830 ;;		line 8 in file "C:\Program Files (x86)\Microchip\xc8\v2.20\pic\sources\c90\common\memset.c"
  6831 ;; Parameters:    Size  Location     Type
  6832 ;;  p1              1    wreg     PTR void 
  6833 ;;		 -> Scheduler_ActivationFlags(3), 
  6834 ;;  c               2   26[BANK0 ] int 
  6835 ;;  n               2   28[BANK0 ] unsigned int 
  6836 ;; Auto vars:     Size  Location     Type
  6837 ;;  p1              1    1[BANK1 ] PTR void 
  6838 ;;		 -> Scheduler_ActivationFlags(3), 
  6839 ;;  p               1    0[BANK1 ] PTR unsigned char 
  6840 ;;		 -> Scheduler_ActivationFlags(3), 
  6841 ;; Return value:  Size  Location     Type
  6842 ;;                  1    wreg      PTR void 
  6843 ;; Registers used:
  6844 ;;		wreg, fsr0l, fsr0h, status,2, status,0, btemp+1
  6845 ;; Tracked objects:
  6846 ;;		On entry : 0/0
  6847 ;;		On exit  : 0/0
  6848 ;;		Unchanged: 0/0
  6849 ;; Data sizes:     COMMON   BANK0   BANK1   BANK3   BANK2
  6850 ;;      Params:         0       4       0       0       0
  6851 ;;      Locals:         0       0       2       0       0
  6852 ;;      Temps:          0       0       0       0       0
  6853 ;;      Totals:         0       4       2       0       0
  6854 ;;Total ram usage:        6 bytes
  6855 ;; Hardware stack levels used:    1
  6856 ;; Hardware stack levels required when called:    4
  6857 ;; This function calls:
  6858 ;;		Nothing
  6859 ;; This function is called by:
  6860 ;;		_Scheduler_Init
  6861 ;; This function uses a non-reentrant model
  6862 ;;
  6863                           
  6864                           
  6865                           ;psect for function _memset
  6866  0A68                     _memset:
  6867                           
  6868                           ;incstack = 0
  6869                           ; Regs used in _memset: [wreg-fsr0h+status,2+status,0+btemp+1]
  6870                           ;memset@p1 stored from wreg
  6871  0A68  1683               	bsf	3,5	;RP0=1, select bank1
  6872  0A69  1303               	bcf	3,6	;RP1=0, select bank1
  6873  0A6A  00A1               	movwf	memset@p1^(0+128)
  6874  0A6B                     l3264:
  6875  0A6B  0821               	movf	memset@p1^(0+128),w
  6876  0A6C  00FF               	movwf	btemp+1
  6877  0A6D  087F               	movf	btemp+1,w
  6878  0A6E  00A0               	movwf	memset@p^(0+128)
  6879  0A6F  2A7D               	goto	l3270
  6880  0A70                     l3266:
  6881  0A70  083A               	movf	memset@c,w
  6882  0A71  00FF               	movwf	btemp+1
  6883  0A72  1683               	bsf	3,5	;RP0=1, select bank1
  6884  0A73  1303               	bcf	3,6	;RP1=0, select bank1
  6885  0A74  0820               	movf	memset@p^(0+128),w
  6886  0A75  0084               	movwf	4
  6887  0A76  087F               	movf	btemp+1,w
  6888  0A77  1383               	bcf	3,7	;select IRP bank0
  6889  0A78  0080               	movwf	0
  6890  0A79                     l3268:
  6891  0A79  3001               	movlw	1
  6892  0A7A  00FF               	movwf	btemp+1
  6893  0A7B  087F               	movf	btemp+1,w
  6894  0A7C  07A0               	addwf	memset@p^(0+128),f
  6895  0A7D                     l3270:
  6896  0A7D  3001               	movlw	1
  6897  0A7E  1283               	bcf	3,5	;RP0=0, select bank0
  6898  0A7F  1303               	bcf	3,6	;RP1=0, select bank0
  6899  0A80  02BC               	subwf	memset@n,f
  6900  0A81  3000               	movlw	0
  6901  0A82  1C03               	skipc
  6902  0A83  03BD               	decf	memset@n+1,f
  6903  0A84  02BD               	subwf	memset@n+1,f
  6904  0A85  0A3C               	incf	memset@n,w
  6905  0A86  1D03               	skipz
  6906  0A87  2A8C               	goto	u4921
  6907  0A88  0A3D               	incf	memset@n+1,w
  6908  0A89  1D03               	btfss	3,2
  6909  0A8A  2A8C               	goto	u4921
  6910  0A8B  2A8D               	goto	u4920
  6911  0A8C                     u4921:
  6912  0A8C  2A70               	goto	l3266
  6913  0A8D                     u4920:
  6914  0A8D                     l934:
  6915  0A8D  0008               	return
  6916  0A8E                     __end_of_memset:
  6917                           
  6918                           	psect	text30
  6919  08F9                     __ptext30:	
  6920 ;; *************** function _On_Off_Init *****************
  6921 ;; Defined at:
  6922 ;;		line 12 in file "Buttons/Buttons.c"
  6923 ;; Parameters:    Size  Location     Type
  6924 ;;		None
  6925 ;; Auto vars:     Size  Location     Type
  6926 ;;		None
  6927 ;; Return value:  Size  Location     Type
  6928 ;;                  1    wreg      void 
  6929 ;; Registers used:
  6930 ;;		None
  6931 ;; Tracked objects:
  6932 ;;		On entry : 0/0
  6933 ;;		On exit  : 0/0
  6934 ;;		Unchanged: 0/0
  6935 ;; Data sizes:     COMMON   BANK0   BANK1   BANK3   BANK2
  6936 ;;      Params:         0       0       0       0       0
  6937 ;;      Locals:         0       0       0       0       0
  6938 ;;      Temps:          0       0       0       0       0
  6939 ;;      Totals:         0       0       0       0       0
  6940 ;;Total ram usage:        0 bytes
  6941 ;; Hardware stack levels used:    1
  6942 ;; Hardware stack levels required when called:    4
  6943 ;; This function calls:
  6944 ;;		Nothing
  6945 ;; This function is called by:
  6946 ;;		_main
  6947 ;; This function uses a non-reentrant model
  6948 ;;
  6949                           
  6950                           
  6951                           ;psect for function _On_Off_Init
  6952  08F9                     _On_Off_Init:
  6953  08F9                     l2590:	
  6954                           ;incstack = 0
  6955                           ; Regs used in _On_Off_Init: []
  6956                           
  6957                           
  6958                           ;Buttons/Buttons.c: 15:     INTCONbits.INTE=1;
  6959  08F9  160B               	bsf	11,4	;volatile
  6960                           
  6961                           ;Buttons/Buttons.c: 16:     INTEDG=1;
  6962  08FA  1683               	bsf	3,5	;RP0=1, select bank1
  6963  08FB  1303               	bcf	3,6	;RP1=0, select bank1
  6964  08FC  1701               	bsf	1,6	;volatile
  6965                           
  6966                           ;Buttons/Buttons.c: 17:     INTCONbits.INTF=0;
  6967  08FD  108B               	bcf	11,1	;volatile
  6968  08FE                     l93:
  6969  08FE  0008               	return
  6970  08FF                     __end_of_On_Off_Init:
  6971                           
  6972                           	psect	text31
  6973  0923                     __ptext31:	
  6974 ;; *************** function _Mode_Init *****************
  6975 ;; Defined at:
  6976 ;;		line 16 in file "WaterHeater_Mode/WaterHeater_Mode.c"
  6977 ;; Parameters:    Size  Location     Type
  6978 ;;		None
  6979 ;; Auto vars:     Size  Location     Type
  6980 ;;		None
  6981 ;; Return value:  Size  Location     Type
  6982 ;;                  1    wreg      void 
  6983 ;; Registers used:
  6984 ;;		wreg, status,2, btemp+1
  6985 ;; Tracked objects:
  6986 ;;		On entry : 0/0
  6987 ;;		On exit  : 0/0
  6988 ;;		Unchanged: 0/0
  6989 ;; Data sizes:     COMMON   BANK0   BANK1   BANK3   BANK2
  6990 ;;      Params:         0       0       0       0       0
  6991 ;;      Locals:         0       0       0       0       0
  6992 ;;      Temps:          0       0       0       0       0
  6993 ;;      Totals:         0       0       0       0       0
  6994 ;;Total ram usage:        0 bytes
  6995 ;; Hardware stack levels used:    1
  6996 ;; Hardware stack levels required when called:    4
  6997 ;; This function calls:
  6998 ;;		Nothing
  6999 ;; This function is called by:
  7000 ;;		_main
  7001 ;; This function uses a non-reentrant model
  7002 ;;
  7003                           
  7004                           
  7005                           ;psect for function _Mode_Init
  7006  0923                     _Mode_Init:
  7007  0923                     l2598:	
  7008                           ;incstack = 0
  7009                           ; Regs used in _Mode_Init: [wreg+status,2+btemp+1]
  7010                           
  7011                           
  7012                           ;WaterHeater_Mode/WaterHeater_Mode.c: 19:  Mode.Select_Mode=Off_Mode;
  7013  0923  1683               	bsf	3,5	;RP0=1, select bank1
  7014  0924  1303               	bcf	3,6	;RP1=0, select bank1
  7015  0925  01D6               	clrf	_Mode^(0+128)
  7016  0926                     l2600:
  7017                           
  7018                           ;WaterHeater_Mode/WaterHeater_Mode.c: 20:  Mode.Setting_Mode_Timer=1;
  7019  0926  01D7               	clrf	(_Mode^(0+128)+1)
  7020  0927  0AD7               	incf	(_Mode^(0+128)+1),f
  7021  0928                     l2602:
  7022                           
  7023                           ;WaterHeater_Mode/WaterHeater_Mode.c: 22:  Temperature.Set_Temp=(60U);
  7024  0928  303C               	movlw	60
  7025  0929  00FF               	movwf	btemp+1
  7026  092A  087F               	movf	btemp+1,w
  7027  092B  1283               	bcf	3,5	;RP0=0, select bank0
  7028  092C  1303               	bcf	3,6	;RP1=0, select bank0
  7029  092D  00CF               	movwf	_Temperature+2
  7030  092E                     l382:
  7031  092E  0008               	return
  7032  092F                     __end_of_Mode_Init:
  7033                           
  7034                           	psect	text32
  7035  0A23                     __ptext32:	
  7036 ;; *************** function _GPIO_Init *****************
  7037 ;; Defined at:
  7038 ;;		line 12 in file "gpio/gpio.c"
  7039 ;; Parameters:    Size  Location     Type
  7040 ;;		None
  7041 ;; Auto vars:     Size  Location     Type
  7042 ;;		None
  7043 ;; Return value:  Size  Location     Type
  7044 ;;                  1    wreg      void 
  7045 ;; Registers used:
  7046 ;;		wreg, status,2, status,0, btemp+1
  7047 ;; Tracked objects:
  7048 ;;		On entry : 0/0
  7049 ;;		On exit  : 0/0
  7050 ;;		Unchanged: 0/0
  7051 ;; Data sizes:     COMMON   BANK0   BANK1   BANK3   BANK2
  7052 ;;      Params:         0       0       0       0       0
  7053 ;;      Locals:         0       0       0       0       0
  7054 ;;      Temps:          0       0       0       0       0
  7055 ;;      Totals:         0       0       0       0       0
  7056 ;;Total ram usage:        0 bytes
  7057 ;; Hardware stack levels used:    1
  7058 ;; Hardware stack levels required when called:    4
  7059 ;; This function calls:
  7060 ;;		Nothing
  7061 ;; This function is called by:
  7062 ;;		_main
  7063 ;; This function uses a non-reentrant model
  7064 ;;
  7065                           
  7066                           
  7067                           ;psect for function _GPIO_Init
  7068  0A23                     _GPIO_Init:
  7069  0A23                     l2564:	
  7070                           ;incstack = 0
  7071                           ; Regs used in _GPIO_Init: [wreg+status,2+status,0+btemp+1]
  7072                           
  7073  0A23  30DF               	movlw	223
  7074  0A24  00FF               	movwf	btemp+1
  7075  0A25  087F               	movf	btemp+1,w
  7076  0A26  1683               	bsf	3,5	;RP0=1, select bank1
  7077  0A27  1303               	bcf	3,6	;RP1=0, select bank1
  7078  0A28  0587               	andwf	7,f	;volatile
  7079  0A29                     l2566:
  7080  0A29  30FB               	movlw	251
  7081  0A2A  00FF               	movwf	btemp+1
  7082  0A2B  087F               	movf	btemp+1,w
  7083  0A2C  0587               	andwf	7,f	;volatile
  7084  0A2D                     l2568:
  7085  0A2D  30EF               	movlw	239
  7086  0A2E  00FF               	movwf	btemp+1
  7087  0A2F  087F               	movf	btemp+1,w
  7088  0A30  0586               	andwf	6,f	;volatile
  7089  0A31                     l2570:
  7090  0A31  30DF               	movlw	223
  7091  0A32  00FF               	movwf	btemp+1
  7092  0A33  087F               	movf	btemp+1,w
  7093  0A34  0585               	andwf	5,f	;volatile
  7094  0A35                     l2572:
  7095  0A35  30EF               	movlw	239
  7096  0A36  00FF               	movwf	btemp+1
  7097  0A37  087F               	movf	btemp+1,w
  7098  0A38  0585               	andwf	5,f	;volatile
  7099  0A39                     l237:
  7100  0A39  1486               	bsf	6,1	;volatile
  7101  0A3A                     l241:
  7102  0A3A  1506               	bsf	6,2	;volatile
  7103  0A3B                     l245:
  7104  0A3B  1406               	bsf	6,0	;volatile
  7105  0A3C                     l249:
  7106  0A3C  1505               	bsf	5,2	;volatile
  7107  0A3D                     l2582:
  7108  0A3D  30F7               	movlw	247
  7109  0A3E  00FF               	movwf	btemp+1
  7110  0A3F  087F               	movf	btemp+1,w
  7111  0A40  0587               	andwf	7,f	;volatile
  7112  0A41                     l257:
  7113  0A41  1607               	bsf	7,4	;volatile
  7114  0A42                     l2586:
  7115  0A42  0188               	clrf	8	;volatile
  7116  0A43                     l264:
  7117  0A43  0008               	return
  7118  0A44                     __end_of_GPIO_Init:
  7119                           
  7120                           	psect	text33
  7121  0949                     __ptext33:	
  7122 ;; *************** function _Elements_Init *****************
  7123 ;; Defined at:
  7124 ;;		line 11 in file "Elements/Elements.c"
  7125 ;; Parameters:    Size  Location     Type
  7126 ;;		None
  7127 ;; Auto vars:     Size  Location     Type
  7128 ;;		None
  7129 ;; Return value:  Size  Location     Type
  7130 ;;                  1    wreg      void 
  7131 ;; Registers used:
  7132 ;;		wreg, status,2, status,0, btemp+1
  7133 ;; Tracked objects:
  7134 ;;		On entry : 0/0
  7135 ;;		On exit  : 0/0
  7136 ;;		Unchanged: 0/0
  7137 ;; Data sizes:     COMMON   BANK0   BANK1   BANK3   BANK2
  7138 ;;      Params:         0       0       0       0       0
  7139 ;;      Locals:         0       0       0       0       0
  7140 ;;      Temps:          0       0       0       0       0
  7141 ;;      Totals:         0       0       0       0       0
  7142 ;;Total ram usage:        0 bytes
  7143 ;; Hardware stack levels used:    1
  7144 ;; Hardware stack levels required when called:    4
  7145 ;; This function calls:
  7146 ;;		Nothing
  7147 ;; This function is called by:
  7148 ;;		_main
  7149 ;; This function uses a non-reentrant model
  7150 ;;
  7151                           
  7152                           
  7153                           ;psect for function _Elements_Init
  7154  0949                     _Elements_Init:
  7155  0949                     l2596:	
  7156                           ;incstack = 0
  7157                           ; Regs used in _Elements_Init: [wreg+status,2+status,0+btemp+1]
  7158                           
  7159                           
  7160                           ;Elements/Elements.c: 13:  (PORTB &= ~(1<<4));
  7161  0949  30EF               	movlw	239
  7162  094A  00FF               	movwf	btemp+1
  7163  094B  087F               	movf	btemp+1,w
  7164  094C  1283               	bcf	3,5	;RP0=0, select bank0
  7165  094D  1303               	bcf	3,6	;RP1=0, select bank0
  7166  094E  0586               	andwf	6,f	;volatile
  7167                           
  7168                           ;Elements/Elements.c: 14:  (PORTC &= ~(1<<5));
  7169  094F  30DF               	movlw	223
  7170  0950  00FF               	movwf	btemp+1
  7171  0951  087F               	movf	btemp+1,w
  7172  0952  0587               	andwf	7,f	;volatile
  7173                           
  7174                           ;Elements/Elements.c: 15:  (PORTC &= ~(1<<2));
  7175  0953  30FB               	movlw	251
  7176  0954  00FF               	movwf	btemp+1
  7177  0955  087F               	movf	btemp+1,w
  7178  0956  0587               	andwf	7,f	;volatile
  7179  0957                     l180:
  7180  0957  0008               	return
  7181  0958                     __end_of_Elements_Init:
  7182                           
  7183                           	psect	text34
  7184  093C                     __ptext34:	
  7185 ;; *************** function _Display_Init *****************
  7186 ;; Defined at:
  7187 ;;		line 15 in file "Display/Display.c"
  7188 ;; Parameters:    Size  Location     Type
  7189 ;;		None
  7190 ;; Auto vars:     Size  Location     Type
  7191 ;;		None
  7192 ;; Return value:  Size  Location     Type
  7193 ;;                  1    wreg      void 
  7194 ;; Registers used:
  7195 ;;		wreg, status,2, status,0, btemp+1
  7196 ;; Tracked objects:
  7197 ;;		On entry : 0/0
  7198 ;;		On exit  : 0/0
  7199 ;;		Unchanged: 0/0
  7200 ;; Data sizes:     COMMON   BANK0   BANK1   BANK3   BANK2
  7201 ;;      Params:         0       0       0       0       0
  7202 ;;      Locals:         0       0       0       0       0
  7203 ;;      Temps:          0       0       0       0       0
  7204 ;;      Totals:         0       0       0       0       0
  7205 ;;Total ram usage:        0 bytes
  7206 ;; Hardware stack levels used:    1
  7207 ;; Hardware stack levels required when called:    4
  7208 ;; This function calls:
  7209 ;;		Nothing
  7210 ;; This function is called by:
  7211 ;;		_main
  7212 ;; This function uses a non-reentrant model
  7213 ;;
  7214                           
  7215                           
  7216                           ;psect for function _Display_Init
  7217  093C                     _Display_Init:
  7218  093C                     l2592:	
  7219                           ;incstack = 0
  7220                           ; Regs used in _Display_Init: [wreg+status,2+status,0+btemp+1]
  7221                           
  7222                           
  7223                           ;Display/Display.c: 17:  (PORTA &= ~(1<<5)) ;
  7224  093C  30DF               	movlw	223
  7225  093D  00FF               	movwf	btemp+1
  7226  093E  087F               	movf	btemp+1,w
  7227  093F  1283               	bcf	3,5	;RP0=0, select bank0
  7228  0940  1303               	bcf	3,6	;RP1=0, select bank0
  7229  0941  0585               	andwf	5,f	;volatile
  7230                           
  7231                           ;Display/Display.c: 18:  (PORTA &= ~(1<<4)) ;
  7232  0942  30EF               	movlw	239
  7233  0943  00FF               	movwf	btemp+1
  7234  0944  087F               	movf	btemp+1,w
  7235  0945  0585               	andwf	5,f	;volatile
  7236  0946                     l2594:
  7237                           
  7238                           ;Display/Display.c: 19:  PORTD=0b00111111;
  7239  0946  303F               	movlw	63
  7240  0947  0088               	movwf	8	;volatile
  7241  0948                     l122:
  7242  0948  0008               	return
  7243  0949                     __end_of_Display_Init:
  7244                           
  7245                           	psect	text35
  7246  092F                     __ptext35:	
  7247 ;; *************** function _ADC_Start_Conv *****************
  7248 ;; Defined at:
  7249 ;;		line 38 in file "ADC/ADC.c"
  7250 ;; Parameters:    Size  Location     Type
  7251 ;;		None
  7252 ;; Auto vars:     Size  Location     Type
  7253 ;;		None
  7254 ;; Return value:  Size  Location     Type
  7255 ;;                  1    wreg      void 
  7256 ;; Registers used:
  7257 ;;		None
  7258 ;; Tracked objects:
  7259 ;;		On entry : 0/0
  7260 ;;		On exit  : 0/0
  7261 ;;		Unchanged: 0/0
  7262 ;; Data sizes:     COMMON   BANK0   BANK1   BANK3   BANK2
  7263 ;;      Params:         0       0       0       0       0
  7264 ;;      Locals:         0       0       0       0       0
  7265 ;;      Temps:          0       0       0       0       0
  7266 ;;      Totals:         0       0       0       0       0
  7267 ;;Total ram usage:        0 bytes
  7268 ;; Hardware stack levels used:    1
  7269 ;; Hardware stack levels required when called:    4
  7270 ;; This function calls:
  7271 ;;		Nothing
  7272 ;; This function is called by:
  7273 ;;		_main
  7274 ;; This function uses a non-reentrant model
  7275 ;;
  7276                           
  7277                           
  7278                           ;psect for function _ADC_Start_Conv
  7279  092F                     _ADC_Start_Conv:
  7280  092F                     l2560:	
  7281                           ;incstack = 0
  7282                           ; Regs used in _ADC_Start_Conv: []
  7283                           
  7284                           
  7285                           ;ADC/ADC.c: 40:  if (ADC_Info.ADC_INIT_FLAG==1)
  7286  092F  1683               	bsf	3,5	;RP0=1, select bank1
  7287  0930  1303               	bcf	3,6	;RP1=0, select bank1
  7288  0931  1C58               	btfss	_ADC_Info^(0+128),0
  7289  0932  2934               	goto	u3451
  7290  0933  2935               	goto	u3450
  7291  0934                     u3451:
  7292  0934  293B               	goto	l25
  7293  0935                     u3450:
  7294  0935                     l2562:
  7295                           
  7296                           ;ADC/ADC.c: 41:  {;ADC/ADC.c: 42:      ADCON0bits.GO_DONE=1 ;
  7297  0935  1283               	bcf	3,5	;RP0=0, select bank0
  7298  0936  1303               	bcf	3,6	;RP1=0, select bank0
  7299  0937  151F               	bsf	31,2	;volatile
  7300                           
  7301                           ;ADC/ADC.c: 43:      ADC_Info.ADC_START_FLAG=1;
  7302  0938  1683               	bsf	3,5	;RP0=1, select bank1
  7303  0939  1303               	bcf	3,6	;RP1=0, select bank1
  7304  093A  14D8               	bsf	_ADC_Info^(0+128),1
  7305  093B                     l25:
  7306  093B  0008               	return
  7307  093C                     __end_of_ADC_Start_Conv:
  7308                           
  7309                           	psect	text36
  7310  09CA                     __ptext36:	
  7311 ;; *************** function _ADC_Init *****************
  7312 ;; Defined at:
  7313 ;;		line 13 in file "ADC/ADC.c"
  7314 ;; Parameters:    Size  Location     Type
  7315 ;;		None
  7316 ;; Auto vars:     Size  Location     Type
  7317 ;;		None
  7318 ;; Return value:  Size  Location     Type
  7319 ;;                  1    wreg      void 
  7320 ;; Registers used:
  7321 ;;		None
  7322 ;; Tracked objects:
  7323 ;;		On entry : 0/0
  7324 ;;		On exit  : 0/0
  7325 ;;		Unchanged: 0/0
  7326 ;; Data sizes:     COMMON   BANK0   BANK1   BANK3   BANK2
  7327 ;;      Params:         0       0       0       0       0
  7328 ;;      Locals:         0       0       0       0       0
  7329 ;;      Temps:          0       0       0       0       0
  7330 ;;      Totals:         0       0       0       0       0
  7331 ;;Total ram usage:        0 bytes
  7332 ;; Hardware stack levels used:    1
  7333 ;; Hardware stack levels required when called:    4
  7334 ;; This function calls:
  7335 ;;		Nothing
  7336 ;; This function is called by:
  7337 ;;		_main
  7338 ;; This function uses a non-reentrant model
  7339 ;;
  7340                           
  7341                           
  7342                           ;psect for function _ADC_Init
  7343  09CA                     _ADC_Init:
  7344  09CA                     l2558:	
  7345                           ;incstack = 0
  7346                           ; Regs used in _ADC_Init: []
  7347                           
  7348                           
  7349                           ;ADC/ADC.c: 16:     ADCON1bits.ADFM=1;
  7350  09CA  1683               	bsf	3,5	;RP0=1, select bank1
  7351  09CB  1303               	bcf	3,6	;RP1=0, select bank1
  7352  09CC  179F               	bsf	31,7	;volatile
  7353                           
  7354                           ;ADC/ADC.c: 18:     ADCON0bits.ADCS0=1 ;
  7355  09CD  1283               	bcf	3,5	;RP0=0, select bank0
  7356  09CE  1303               	bcf	3,6	;RP1=0, select bank0
  7357  09CF  171F               	bsf	31,6	;volatile
  7358                           
  7359                           ;ADC/ADC.c: 19:     ADCON0bits.ADCS1=0;
  7360  09D0  139F               	bcf	31,7	;volatile
  7361                           
  7362                           ;ADC/ADC.c: 20:     ADCON1bits.ADCS2=1 ;
  7363  09D1  1683               	bsf	3,5	;RP0=1, select bank1
  7364  09D2  1303               	bcf	3,6	;RP1=0, select bank1
  7365  09D3  171F               	bsf	31,6	;volatile
  7366                           
  7367                           ;ADC/ADC.c: 23:     ADCON0bits.CHS0=0;
  7368  09D4  1283               	bcf	3,5	;RP0=0, select bank0
  7369  09D5  1303               	bcf	3,6	;RP1=0, select bank0
  7370  09D6  119F               	bcf	31,3	;volatile
  7371                           
  7372                           ;ADC/ADC.c: 24:     ADCON0bits.CHS1=1;
  7373  09D7  161F               	bsf	31,4	;volatile
  7374                           
  7375                           ;ADC/ADC.c: 25:     ADCON0bits.CHS2=0;
  7376  09D8  129F               	bcf	31,5	;volatile
  7377                           
  7378                           ;ADC/ADC.c: 28:     ADCON1bits.PCFG0=0;
  7379  09D9  1683               	bsf	3,5	;RP0=1, select bank1
  7380  09DA  1303               	bcf	3,6	;RP1=0, select bank1
  7381  09DB  101F               	bcf	31,0	;volatile
  7382                           
  7383                           ;ADC/ADC.c: 29:     ADCON1bits.PCFG1=1;
  7384  09DC  149F               	bsf	31,1	;volatile
  7385                           
  7386                           ;ADC/ADC.c: 30:     ADCON1bits.PCFG2=0;
  7387  09DD  111F               	bcf	31,2	;volatile
  7388                           
  7389                           ;ADC/ADC.c: 31:     ADCON1bits.PCFG3=0;
  7390  09DE  119F               	bcf	31,3	;volatile
  7391                           
  7392                           ;ADC/ADC.c: 33:     ADCON0bits.ADON=1;
  7393  09DF  1283               	bcf	3,5	;RP0=0, select bank0
  7394  09E0  1303               	bcf	3,6	;RP1=0, select bank0
  7395  09E1  141F               	bsf	31,0	;volatile
  7396                           
  7397                           ;ADC/ADC.c: 34:     ADCON0bits.GO_DONE=0;
  7398  09E2  111F               	bcf	31,2	;volatile
  7399                           
  7400                           ;ADC/ADC.c: 35:     ADC_Info.ADC_INIT_FLAG=1;
  7401  09E3  1683               	bsf	3,5	;RP0=1, select bank1
  7402  09E4  1303               	bcf	3,6	;RP1=0, select bank1
  7403  09E5  1458               	bsf	_ADC_Info^(0+128),0
  7404  09E6                     l21:
  7405  09E6  0008               	return
  7406  09E7                     __end_of_ADC_Init:
  7407                           
  7408                           	psect	text37
  7409  0A44                     __ptext37:	
  7410 ;; *************** function _myISR *****************
  7411 ;; Defined at:
  7412 ;;		line 11 in file "Interrupt/Interrupt.c"
  7413 ;; Parameters:    Size  Location     Type
  7414 ;;		None
  7415 ;; Auto vars:     Size  Location     Type
  7416 ;;		None
  7417 ;; Return value:  Size  Location     Type
  7418 ;;                  1    wreg      void 
  7419 ;; Registers used:
  7420 ;;		wreg, fsr0l, fsr0h, status,2, status,0, btemp+1, pclath, cstack
  7421 ;; Tracked objects:
  7422 ;;		On entry : 0/0
  7423 ;;		On exit  : 0/0
  7424 ;;		Unchanged: 0/0
  7425 ;; Data sizes:     COMMON   BANK0   BANK1   BANK3   BANK2
  7426 ;;      Params:         0       0       0       0       0
  7427 ;;      Locals:         0       0       0       0       0
  7428 ;;      Temps:          0       4       0       0       0
  7429 ;;      Totals:         0       4       0       0       0
  7430 ;;Total ram usage:        4 bytes
  7431 ;; Hardware stack levels used:    1
  7432 ;; Hardware stack levels required when called:    3
  7433 ;; This function calls:
  7434 ;;		_EXTI_On_Off_CallBack
  7435 ;;		_Timer0_CallBack
  7436 ;; This function is called by:
  7437 ;;		Interrupt level 1
  7438 ;; This function uses a non-reentrant model
  7439 ;;
  7440                           
  7441                           
  7442                           ;psect for function _myISR
  7443  0A44                     _myISR:
  7444  0A44                     i1l3332:
  7445                           
  7446                           ;Interrupt/Interrupt.c: 13:  if(INTCONbits.INTF)
  7447  0A44  1C8B               	btfss	11,1	;volatile
  7448  0A45  2A47               	goto	u497_21
  7449  0A46  2A48               	goto	u497_20
  7450  0A47                     u497_21:
  7451  0A47  2A4F               	goto	i1l277
  7452  0A48                     u497_20:
  7453  0A48                     i1l3334:
  7454                           
  7455                           ;Interrupt/Interrupt.c: 14:  {;Interrupt/Interrupt.c: 15:         INTCONbits.INTF=0;
  7456  0A48  108B               	bcf	11,1	;volatile
  7457  0A49                     i1l3336:
  7458                           
  7459                           ;Interrupt/Interrupt.c: 16:   EXTI_On_Off_CallBack();
  7460  0A49  120A  158A  219C  120A  158A  	fcall	_EXTI_On_Off_CallBack
  7461                           
  7462                           ;Interrupt/Interrupt.c: 18:  }
  7463  0A4E  2A5B               	goto	i1l280
  7464  0A4F                     i1l277:	
  7465                           ;Interrupt/Interrupt.c: 19:  else if(INTCONbits.TMR0IF)
  7466                           
  7467  0A4F  1D0B               	btfss	11,2	;volatile
  7468  0A50  2A52               	goto	u498_21
  7469  0A51  2A53               	goto	u498_20
  7470  0A52                     u498_21:
  7471  0A52  2A5B               	goto	i1l280
  7472  0A53                     u498_20:
  7473  0A53                     i1l3338:
  7474                           
  7475                           ;Interrupt/Interrupt.c: 20:  {;Interrupt/Interrupt.c: 21:         INTCONbits.TMR0IF=0;
  7476  0A53  110B               	bcf	11,2	;volatile
  7477  0A54                     i1l3340:
  7478                           
  7479                           ;Interrupt/Interrupt.c: 22:         TMR0=100;
  7480  0A54  3064               	movlw	100
  7481  0A55  0081               	movwf	1	;volatile
  7482  0A56                     i1l3342:
  7483                           
  7484                           ;Interrupt/Interrupt.c: 23:   Timer0_CallBack();
  7485  0A56  120A  158A  21E7  120A  158A  	fcall	_Timer0_CallBack
  7486  0A5B                     i1l280:
  7487  0A5B  1283               	bcf	3,5	;RP0=0, select bank0
  7488  0A5C  1303               	bcf	3,6	;RP1=0, select bank0
  7489  0A5D  0839               	movf	??_myISR+3,w
  7490  0A5E  00FF               	movwf	btemp+1
  7491  0A5F  0838               	movf	??_myISR+2,w
  7492  0A60  008A               	movwf	10
  7493  0A61  0837               	movf	??_myISR+1,w
  7494  0A62  0084               	movwf	4
  7495  0A63  0E36               	swapf	??_myISR^0,w
  7496  0A64  0083               	movwf	3
  7497  0A65  0EFE               	swapf	btemp,f
  7498  0A66  0E7E               	swapf	btemp,w
  7499  0A67  0009               	retfie
  7500  0A68                     __end_of_myISR:
  7501                           
  7502                           	psect	intentry
  7503  0004                     __pintentry:	
  7504                           ;incstack = 0
  7505 ;; hardware stack exceeded
  7506                           ; Regs used in _myISR: [wreg-fsr0h+status,2+status,0+btemp+1+pclath+cstack]
  7507                           
  7508  0004                     interrupt_function:
  7509  007E                     saved_w	set	btemp
  7510  0004  00FE               	movwf	btemp
  7511  0005  0E03               	swapf	3,w
  7512  0006  1283               	bcf	3,5	;RP0=0, select bank0
  7513  0007  1303               	bcf	3,6	;RP1=0, select bank0
  7514  0008  00B6               	movwf	??_myISR
  7515  0009  0804               	movf	4,w
  7516  000A  00B7               	movwf	??_myISR+1
  7517  000B  080A               	movf	10,w
  7518  000C  00B8               	movwf	??_myISR+2
  7519  000D  087F               	movf	btemp+1,w
  7520  000E  00B9               	movwf	??_myISR+3
  7521  000F  120A  158A  2A44   	ljmp	_myISR
  7522                           
  7523                           	psect	text38
  7524  09E7                     __ptext38:	
  7525 ;; *************** function _Timer0_CallBack *****************
  7526 ;; Defined at:
  7527 ;;		line 30 in file "Timer/Timer.c"
  7528 ;; Parameters:    Size  Location     Type
  7529 ;;		None
  7530 ;; Auto vars:     Size  Location     Type
  7531 ;;		None
  7532 ;; Return value:  Size  Location     Type
  7533 ;;                  1    wreg      void 
  7534 ;; Registers used:
  7535 ;;		wreg, fsr0l, fsr0h, status,2, status,0, btemp+1, pclath, cstack
  7536 ;; Tracked objects:
  7537 ;;		On entry : 0/0
  7538 ;;		On exit  : 0/0
  7539 ;;		Unchanged: 0/0
  7540 ;; Data sizes:     COMMON   BANK0   BANK1   BANK3   BANK2
  7541 ;;      Params:         0       0       0       0       0
  7542 ;;      Locals:         0       0       0       0       0
  7543 ;;      Temps:          0       0       0       0       0
  7544 ;;      Totals:         0       0       0       0       0
  7545 ;;Total ram usage:        0 bytes
  7546 ;; Hardware stack levels used:    1
  7547 ;; Hardware stack levels required when called:    2
  7548 ;; This function calls:
  7549 ;;		_Scheduler_ActivateTask
  7550 ;; This function is called by:
  7551 ;;		_myISR
  7552 ;; This function uses a non-reentrant model
  7553 ;;
  7554                           
  7555                           
  7556                           ;psect for function _Timer0_CallBack
  7557  09E7                     _Timer0_CallBack:
  7558  09E7                     i1l3314:	
  7559                           ;incstack = 0
  7560 ;; hardware stack exceeded
  7561                           ; Regs used in _Timer0_CallBack: [wreg-fsr0h+status,2+status,0+btemp+1+pclath+cstack]
  7562                           
  7563                           
  7564                           ;Timer/Timer.c: 32:  Tick_Num++;
  7565  09E7  3001               	movlw	1
  7566  09E8  1283               	bcf	3,5	;RP0=0, select bank0
  7567  09E9  1303               	bcf	3,6	;RP1=0, select bank0
  7568  09EA  07BF               	addwf	_Tick_Num,f
  7569  09EB  3000               	movlw	0
  7570  09EC  1803               	skipnc
  7571  09ED  3001               	movlw	1
  7572  09EE  07C0               	addwf	_Tick_Num+1,f
  7573  09EF  3000               	movlw	0
  7574  09F0  1803               	skipnc
  7575  09F1  3001               	movlw	1
  7576  09F2  07C1               	addwf	_Tick_Num+2,f
  7577  09F3  3000               	movlw	0
  7578  09F4  1803               	skipnc
  7579  09F5  3001               	movlw	1
  7580  09F6  07C2               	addwf	_Tick_Num+3,f
  7581  09F7                     i1l3316:
  7582                           
  7583                           ;Timer/Timer.c: 33:  Scheduler_ActivateTask(Tick_Num );
  7584  09F7  0842               	movf	_Tick_Num+3,w
  7585  09F8  00B0               	movwf	Scheduler_ActivateTask@SystemTick+3
  7586  09F9  0841               	movf	_Tick_Num+2,w
  7587  09FA  00AF               	movwf	Scheduler_ActivateTask@SystemTick+2
  7588  09FB  0840               	movf	_Tick_Num+1,w
  7589  09FC  00AE               	movwf	Scheduler_ActivateTask@SystemTick+1
  7590  09FD  083F               	movf	_Tick_Num,w
  7591  09FE  00AD               	movwf	Scheduler_ActivateTask@SystemTick
  7592  09FF  120A  158A  2630  120A  158A  	fcall	_Scheduler_ActivateTask
  7593  0A04                     i1l369:
  7594  0A04  0008               	return
  7595  0A05                     __end_of_Timer0_CallBack:
  7596                           
  7597                           	psect	text39
  7598  0E30                     __ptext39:	
  7599 ;; *************** function _Scheduler_ActivateTask *****************
  7600 ;; Defined at:
  7601 ;;		line 35 in file "Scheduler/Scheduler.c"
  7602 ;; Parameters:    Size  Location     Type
  7603 ;;  SystemTick      4   13[BANK0 ] unsigned long 
  7604 ;; Auto vars:     Size  Location     Type
  7605 ;;  IntityIndex     1   21[BANK0 ] unsigned char 
  7606 ;;  SystemTick_L    4   17[BANK0 ] unsigned long 
  7607 ;; Return value:  Size  Location     Type
  7608 ;;                  1    wreg      void 
  7609 ;; Registers used:
  7610 ;;		wreg, fsr0l, fsr0h, status,2, status,0, btemp+1, pclath, cstack
  7611 ;; Tracked objects:
  7612 ;;		On entry : 0/0
  7613 ;;		On exit  : 0/0
  7614 ;;		Unchanged: 0/0
  7615 ;; Data sizes:     COMMON   BANK0   BANK1   BANK3   BANK2
  7616 ;;      Params:         0       4       0       0       0
  7617 ;;      Locals:         0       5       0       0       0
  7618 ;;      Temps:          0       0       0       0       0
  7619 ;;      Totals:         0       9       0       0       0
  7620 ;;Total ram usage:        9 bytes
  7621 ;; Hardware stack levels used:    1
  7622 ;; Hardware stack levels required when called:    1
  7623 ;; This function calls:
  7624 ;;		___llmod
  7625 ;;		i1___bmul
  7626 ;;		i1___lldiv
  7627 ;; This function is called by:
  7628 ;;		_Timer0_CallBack
  7629 ;; This function uses a non-reentrant model
  7630 ;;
  7631                           
  7632                           
  7633                           ;psect for function _Scheduler_ActivateTask
  7634  0E30                     _Scheduler_ActivateTask:
  7635  0E30                     i1l3272:	
  7636                           ;incstack = 0
  7637 ;; hardware stack exceeded
  7638                           ; Regs used in _Scheduler_ActivateTask: [wreg-fsr0h+status,2+status,0+btemp+1+pclath+cst
      +                          ack]
  7639                           
  7640                           
  7641                           ;Scheduler/Scheduler.c: 35: void Scheduler_ActivateTask(uint32_t SystemTick);Scheduler/S
      +                          cheduler.c: 36: {;Scheduler/Scheduler.c: 37:   uint32_t SystemTick_Loc=SystemTick;
  7642  0E30  1283               	bcf	3,5	;RP0=0, select bank0
  7643  0E31  1303               	bcf	3,6	;RP1=0, select bank0
  7644  0E32  0830               	movf	Scheduler_ActivateTask@SystemTick+3,w
  7645  0E33  00B4               	movwf	Scheduler_ActivateTask@SystemTick_Loc+3
  7646  0E34  082F               	movf	Scheduler_ActivateTask@SystemTick+2,w
  7647  0E35  00B3               	movwf	Scheduler_ActivateTask@SystemTick_Loc+2
  7648  0E36  082E               	movf	Scheduler_ActivateTask@SystemTick+1,w
  7649  0E37  00B2               	movwf	Scheduler_ActivateTask@SystemTick_Loc+1
  7650  0E38  082D               	movf	Scheduler_ActivateTask@SystemTick,w
  7651  0E39  00B1               	movwf	Scheduler_ActivateTask@SystemTick_Loc
  7652  0E3A                     i1l3274:
  7653                           
  7654                           ;Scheduler/Scheduler.c: 39:   for( uint8_t IntityIndex = 0 ; IntityIndex < ( 3U ) ; Inti
      +                          tyIndex++ )
  7655  0E3A  01B5               	clrf	Scheduler_ActivateTask@IntityIndex
  7656  0E3B                     i1l3280:
  7657                           
  7658                           ;Scheduler/Scheduler.c: 40:   {;Scheduler/Scheduler.c: 41:     if( ( ((SystemTick_Loc)%(
      +                          Scheduler_Intitys[IntityIndex].Peroid/(20UL)))?0:1 ) )
  7659  0E3B  3000               	movlw	0
  7660  0E3C  00F6               	movwf	i1___lldiv@divisor+3
  7661  0E3D  3000               	movlw	0
  7662  0E3E  00F5               	movwf	i1___lldiv@divisor+2
  7663  0E3F  3000               	movlw	0
  7664  0E40  00F4               	movwf	i1___lldiv@divisor+1
  7665  0E41  3014               	movlw	20
  7666  0E42  00F3               	movwf	i1___lldiv@divisor
  7667  0E43  3005               	movlw	5
  7668  0E44  00FF               	movwf	btemp+1
  7669  0E45  087F               	movf	btemp+1,w
  7670  0E46  00F0               	movwf	i1___bmul@multiplicand
  7671  0E47  0835               	movf	Scheduler_ActivateTask@IntityIndex,w
  7672  0E48  120A  158A  2187  120A  158A  	fcall	i1___bmul
  7673  0E4D  3E02               	addlw	low (((_Scheduler_Intitys-__stringbase)| (0+32768)+1))
  7674  0E4E  0084               	movwf	4
  7675  0E4F  120A  158A  2000  120A  158A  	fcall	stringdir
  7676  0E54  00F7               	movwf	i1___lldiv@dividend
  7677  0E55  120A  158A  2000  120A  158A  	fcall	stringdir
  7678  0E5A  00F8               	movwf	i1___lldiv@dividend+1
  7679  0E5B  120A  158A  2000  120A  158A  	fcall	stringdir
  7680  0E60  00F9               	movwf	i1___lldiv@dividend+2
  7681  0E61  120A  158A  2000  120A  158A  	fcall	stringdir
  7682  0E66  00FA               	movwf	i1___lldiv@dividend+3
  7683  0E67  120A  158A  25C8  120A  158A  	fcall	i1___lldiv
  7684  0E6C  0876               	movf	?i1___lldiv+3,w
  7685  0E6D  1283               	bcf	3,5	;RP0=0, select bank0
  7686  0E6E  1303               	bcf	3,6	;RP1=0, select bank0
  7687  0E6F  00A8               	movwf	___llmod@divisor+3
  7688  0E70  0875               	movf	?i1___lldiv+2,w
  7689  0E71  00A7               	movwf	___llmod@divisor+2
  7690  0E72  0874               	movf	?i1___lldiv+1,w
  7691  0E73  00A6               	movwf	___llmod@divisor+1
  7692  0E74  0873               	movf	?i1___lldiv,w
  7693  0E75  00A5               	movwf	___llmod@divisor
  7694  0E76  0834               	movf	Scheduler_ActivateTask@SystemTick_Loc+3,w
  7695  0E77  00AC               	movwf	___llmod@dividend+3
  7696  0E78  0833               	movf	Scheduler_ActivateTask@SystemTick_Loc+2,w
  7697  0E79  00AB               	movwf	___llmod@dividend+2
  7698  0E7A  0832               	movf	Scheduler_ActivateTask@SystemTick_Loc+1,w
  7699  0E7B  00AA               	movwf	___llmod@dividend+1
  7700  0E7C  0831               	movf	Scheduler_ActivateTask@SystemTick_Loc,w
  7701  0E7D  00A9               	movwf	___llmod@dividend
  7702  0E7E  120A  158A  250D  120A  158A  	fcall	___llmod
  7703  0E83  1283               	bcf	3,5	;RP0=0, select bank0
  7704  0E84  1303               	bcf	3,6	;RP1=0, select bank0
  7705  0E85  0828               	movf	?___llmod+3,w
  7706  0E86  0427               	iorwf	?___llmod+2,w
  7707  0E87  0426               	iorwf	?___llmod+1,w
  7708  0E88  0425               	iorwf	?___llmod,w
  7709  0E89  1D03               	skipz
  7710  0E8A  2E8C               	goto	u493_21
  7711  0E8B  2E8D               	goto	u493_20
  7712  0E8C                     u493_21:
  7713  0E8C  2E93               	goto	i1l3284
  7714  0E8D                     u493_20:
  7715  0E8D                     i1l3282:
  7716                           
  7717                           ;Scheduler/Scheduler.c: 42:     {;Scheduler/Scheduler.c: 43:      Scheduler_ActivationFl
      +                          ags[IntityIndex] = 1 ;
  7718  0E8D  0835               	movf	Scheduler_ActivateTask@IntityIndex,w
  7719  0E8E  3ED9               	addlw	(low (_Scheduler_ActivationFlags| 0))& (0+255)
  7720  0E8F  0084               	movwf	4
  7721  0E90  1383               	bcf	3,7	;select IRP bank1
  7722  0E91  0180               	clrf	0
  7723  0E92  0A80               	incf	0,f
  7724  0E93                     i1l3284:
  7725                           
  7726                           ;Scheduler/Scheduler.c: 45:   }
  7727  0E93  3001               	movlw	1
  7728  0E94  00FF               	movwf	btemp+1
  7729  0E95  087F               	movf	btemp+1,w
  7730  0E96  07B5               	addwf	Scheduler_ActivateTask@IntityIndex,f
  7731  0E97                     i1l3286:
  7732  0E97  3003               	movlw	3
  7733  0E98  0235               	subwf	Scheduler_ActivateTask@IntityIndex,w
  7734  0E99  1C03               	skipc
  7735  0E9A  2E9C               	goto	u494_21
  7736  0E9B  2E9D               	goto	u494_20
  7737  0E9C                     u494_21:
  7738  0E9C  2E3B               	goto	i1l3280
  7739  0E9D                     u494_20:
  7740  0E9D                     i1l304:
  7741  0E9D  0008               	return
  7742  0E9E                     __end_of_Scheduler_ActivateTask:
  7743                           
  7744                           	psect	text40
  7745  0DC8                     __ptext40:	
  7746 ;; *************** function i1___lldiv *****************
  7747 ;; Defined at:
  7748 ;;		line 5 in file "C:\Program Files (x86)\Microchip\xc8\v2.20\pic\sources\c90\common\__lldiv.c"
  7749 ;; Parameters:    Size  Location     Type
  7750 ;;  divisor         4    3[COMMON] unsigned long 
  7751 ;;  dividend        4    7[COMMON] unsigned long 
  7752 ;; Auto vars:     Size  Location     Type
  7753 ;;  quotient        4    0[BANK0 ] unsigned long 
  7754 ;;  counter         1    4[BANK0 ] unsigned char 
  7755 ;; Return value:  Size  Location     Type
  7756 ;;                  4    3[COMMON] unsigned long 
  7757 ;; Registers used:
  7758 ;;		wreg, status,2, status,0, btemp+1
  7759 ;; Tracked objects:
  7760 ;;		On entry : 0/0
  7761 ;;		On exit  : 0/0
  7762 ;;		Unchanged: 0/0
  7763 ;; Data sizes:     COMMON   BANK0   BANK1   BANK3   BANK2
  7764 ;;      Params:         8       0       0       0       0
  7765 ;;      Locals:         0       5       0       0       0
  7766 ;;      Temps:          1       0       0       0       0
  7767 ;;      Totals:         9       5       0       0       0
  7768 ;;Total ram usage:       14 bytes
  7769 ;; Hardware stack levels used:    1
  7770 ;; This function calls:
  7771 ;;		Nothing
  7772 ;; This function is called by:
  7773 ;;		_Scheduler_ActivateTask
  7774 ;; This function uses a non-reentrant model
  7775 ;;
  7776                           
  7777                           
  7778                           ;psect for function i1___lldiv
  7779  0DC8                     i1___lldiv:
  7780  0DC8                     i1l2468:	
  7781                           ;incstack = 0
  7782 ;; hardware stack exceeded
  7783                           ; Regs used in i1___lldiv: [wreg+status,2+status,0+btemp+1]
  7784                           
  7785  0DC8  3000               	movlw	0
  7786  0DC9  1283               	bcf	3,5	;RP0=0, select bank0
  7787  0DCA  1303               	bcf	3,6	;RP1=0, select bank0
  7788  0DCB  00A3               	movwf	i1___lldiv@quotient+3
  7789  0DCC  3000               	movlw	0
  7790  0DCD  00A2               	movwf	i1___lldiv@quotient+2
  7791  0DCE  3000               	movlw	0
  7792  0DCF  00A1               	movwf	i1___lldiv@quotient+1
  7793  0DD0  3000               	movlw	0
  7794  0DD1  00A0               	movwf	i1___lldiv@quotient
  7795  0DD2  0876               	movf	i1___lldiv@divisor+3,w
  7796  0DD3  0475               	iorwf	i1___lldiv@divisor+2,w
  7797  0DD4  0474               	iorwf	i1___lldiv@divisor+1,w
  7798  0DD5  0473               	iorwf	i1___lldiv@divisor,w
  7799  0DD6  1903               	skipnz
  7800  0DD7  2DD9               	goto	u331_21
  7801  0DD8  2DDA               	goto	u331_20
  7802  0DD9                     u331_21:
  7803  0DD9  2E27               	goto	i1l2490
  7804  0DDA                     u331_20:
  7805  0DDA                     i1l2470:
  7806  0DDA  01A4               	clrf	i1___lldiv@counter
  7807  0DDB  0AA4               	incf	i1___lldiv@counter,f
  7808  0DDC  2DEA               	goto	i1l2476
  7809  0DDD                     i1l2472:
  7810  0DDD  3001               	movlw	1
  7811  0DDE  00FB               	movwf	??i1___lldiv
  7812  0DDF                     u332_25:
  7813  0DDF  1003               	clrc
  7814  0DE0  0DF3               	rlf	i1___lldiv@divisor,f
  7815  0DE1  0DF4               	rlf	i1___lldiv@divisor+1,f
  7816  0DE2  0DF5               	rlf	i1___lldiv@divisor+2,f
  7817  0DE3  0DF6               	rlf	i1___lldiv@divisor+3,f
  7818  0DE4  0BFB               	decfsz	??i1___lldiv,f
  7819  0DE5  2DDF               	goto	u332_25
  7820  0DE6                     i1l2474:
  7821  0DE6  3001               	movlw	1
  7822  0DE7  00FF               	movwf	btemp+1
  7823  0DE8  087F               	movf	btemp+1,w
  7824  0DE9  07A4               	addwf	i1___lldiv@counter,f
  7825  0DEA                     i1l2476:
  7826  0DEA  1FF6               	btfss	i1___lldiv@divisor+3,7
  7827  0DEB  2DED               	goto	u333_21
  7828  0DEC  2DEE               	goto	u333_20
  7829  0DED                     u333_21:
  7830  0DED  2DDD               	goto	i1l2472
  7831  0DEE                     u333_20:
  7832  0DEE                     i1l2478:
  7833  0DEE  3001               	movlw	1
  7834  0DEF  00FB               	movwf	??i1___lldiv
  7835  0DF0                     u334_25:
  7836  0DF0  1003               	clrc
  7837  0DF1  0DA0               	rlf	i1___lldiv@quotient,f
  7838  0DF2  0DA1               	rlf	i1___lldiv@quotient+1,f
  7839  0DF3  0DA2               	rlf	i1___lldiv@quotient+2,f
  7840  0DF4  0DA3               	rlf	i1___lldiv@quotient+3,f
  7841  0DF5  0BFB               	decfsz	??i1___lldiv,f
  7842  0DF6  2DF0               	goto	u334_25
  7843  0DF7                     i1l2480:
  7844  0DF7  0876               	movf	i1___lldiv@divisor+3,w
  7845  0DF8  027A               	subwf	i1___lldiv@dividend+3,w
  7846  0DF9  1D03               	skipz
  7847  0DFA  2E05               	goto	u335_25
  7848  0DFB  0875               	movf	i1___lldiv@divisor+2,w
  7849  0DFC  0279               	subwf	i1___lldiv@dividend+2,w
  7850  0DFD  1D03               	skipz
  7851  0DFE  2E05               	goto	u335_25
  7852  0DFF  0874               	movf	i1___lldiv@divisor+1,w
  7853  0E00  0278               	subwf	i1___lldiv@dividend+1,w
  7854  0E01  1D03               	skipz
  7855  0E02  2E05               	goto	u335_25
  7856  0E03  0873               	movf	i1___lldiv@divisor,w
  7857  0E04  0277               	subwf	i1___lldiv@dividend,w
  7858  0E05                     u335_25:
  7859  0E05  1C03               	skipc
  7860  0E06  2E08               	goto	u335_21
  7861  0E07  2E09               	goto	u335_20
  7862  0E08                     u335_21:
  7863  0E08  2E18               	goto	i1l2486
  7864  0E09                     u335_20:
  7865  0E09                     i1l2482:
  7866  0E09  0873               	movf	i1___lldiv@divisor,w
  7867  0E0A  02F7               	subwf	i1___lldiv@dividend,f
  7868  0E0B  0874               	movf	i1___lldiv@divisor+1,w
  7869  0E0C  1C03               	skipc
  7870  0E0D  0F74               	incfsz	i1___lldiv@divisor+1,w
  7871  0E0E  02F8               	subwf	i1___lldiv@dividend+1,f
  7872  0E0F  0875               	movf	i1___lldiv@divisor+2,w
  7873  0E10  1C03               	skipc
  7874  0E11  0F75               	incfsz	i1___lldiv@divisor+2,w
  7875  0E12  02F9               	subwf	i1___lldiv@dividend+2,f
  7876  0E13  0876               	movf	i1___lldiv@divisor+3,w
  7877  0E14  1C03               	skipc
  7878  0E15  0F76               	incfsz	i1___lldiv@divisor+3,w
  7879  0E16  02FA               	subwf	i1___lldiv@dividend+3,f
  7880  0E17                     i1l2484:
  7881  0E17  1420               	bsf	i1___lldiv@quotient,0
  7882  0E18                     i1l2486:
  7883  0E18  3001               	movlw	1
  7884  0E19                     u336_25:
  7885  0E19  1003               	clrc
  7886  0E1A  0CF6               	rrf	i1___lldiv@divisor+3,f
  7887  0E1B  0CF5               	rrf	i1___lldiv@divisor+2,f
  7888  0E1C  0CF4               	rrf	i1___lldiv@divisor+1,f
  7889  0E1D  0CF3               	rrf	i1___lldiv@divisor,f
  7890  0E1E  3EFF               	addlw	-1
  7891  0E1F  1D03               	skipz
  7892  0E20  2E19               	goto	u336_25
  7893  0E21                     i1l2488:
  7894  0E21  3001               	movlw	1
  7895  0E22  02A4               	subwf	i1___lldiv@counter,f
  7896  0E23  1D03               	btfss	3,2
  7897  0E24  2E26               	goto	u337_21
  7898  0E25  2E27               	goto	u337_20
  7899  0E26                     u337_21:
  7900  0E26  2DEE               	goto	i1l2478
  7901  0E27                     u337_20:
  7902  0E27                     i1l2490:
  7903  0E27  0823               	movf	i1___lldiv@quotient+3,w
  7904  0E28  00F6               	movwf	?i1___lldiv+3
  7905  0E29  0822               	movf	i1___lldiv@quotient+2,w
  7906  0E2A  00F5               	movwf	?i1___lldiv+2
  7907  0E2B  0821               	movf	i1___lldiv@quotient+1,w
  7908  0E2C  00F4               	movwf	?i1___lldiv+1
  7909  0E2D  0820               	movf	i1___lldiv@quotient,w
  7910  0E2E  00F3               	movwf	?i1___lldiv
  7911  0E2F                     i1l516:
  7912  0E2F  0008               	return
  7913  0E30                     __end_ofi1___lldiv:
  7914                           
  7915                           	psect	text41
  7916  0987                     __ptext41:	
  7917 ;; *************** function i1___bmul *****************
  7918 ;; Defined at:
  7919 ;;		line 4 in file "C:\Program Files (x86)\Microchip\xc8\v2.20\pic\sources\c90\common\Umul8.c"
  7920 ;; Parameters:    Size  Location     Type
  7921 ;;  multiplier      1    wreg     unsigned char 
  7922 ;;  multiplicand    1    0[COMMON] unsigned char 
  7923 ;; Auto vars:     Size  Location     Type
  7924 ;;  multiplier      1    2[COMMON] unsigned char 
  7925 ;;  product         1    1[COMMON] unsigned char 
  7926 ;; Return value:  Size  Location     Type
  7927 ;;                  1    wreg      unsigned char 
  7928 ;; Registers used:
  7929 ;;		wreg, status,2, status,0, btemp+1
  7930 ;; Tracked objects:
  7931 ;;		On entry : 0/0
  7932 ;;		On exit  : 0/0
  7933 ;;		Unchanged: 0/0
  7934 ;; Data sizes:     COMMON   BANK0   BANK1   BANK3   BANK2
  7935 ;;      Params:         1       0       0       0       0
  7936 ;;      Locals:         2       0       0       0       0
  7937 ;;      Temps:          0       0       0       0       0
  7938 ;;      Totals:         3       0       0       0       0
  7939 ;;Total ram usage:        3 bytes
  7940 ;; Hardware stack levels used:    1
  7941 ;; This function calls:
  7942 ;;		Nothing
  7943 ;; This function is called by:
  7944 ;;		_Scheduler_ActivateTask
  7945 ;; This function uses a non-reentrant model
  7946 ;;
  7947                           
  7948                           
  7949                           ;psect for function i1___bmul
  7950  0987                     i1___bmul:
  7951                           
  7952                           ;incstack = 0
  7953 ;; hardware stack exceeded
  7954                           ; Regs used in i1___bmul: [wreg+status,2+status,0+btemp+1]
  7955                           ;i1___bmul@multiplier stored from wreg
  7956  0987  00F2               	movwf	i1___bmul@multiplier
  7957  0988                     i1l2494:
  7958  0988  01F1               	clrf	i1___bmul@product
  7959  0989                     i1l2496:
  7960  0989  1C72               	btfss	i1___bmul@multiplier,0
  7961  098A  298C               	goto	u338_21
  7962  098B  298D               	goto	u338_20
  7963  098C                     u338_21:
  7964  098C  2991               	goto	i1l2500
  7965  098D                     u338_20:
  7966  098D                     i1l2498:
  7967  098D  0870               	movf	i1___bmul@multiplicand,w
  7968  098E  00FF               	movwf	btemp+1
  7969  098F  087F               	movf	btemp+1,w
  7970  0990  07F1               	addwf	i1___bmul@product,f
  7971  0991                     i1l2500:
  7972  0991  1003               	clrc
  7973  0992  0DF0               	rlf	i1___bmul@multiplicand,f
  7974  0993                     i1l2502:
  7975  0993  1003               	clrc
  7976  0994  0CF2               	rrf	i1___bmul@multiplier,f
  7977  0995                     i1l2504:
  7978  0995  0872               	movf	i1___bmul@multiplier,w
  7979  0996  1D03               	btfss	3,2
  7980  0997  2999               	goto	u339_21
  7981  0998  299A               	goto	u339_20
  7982  0999                     u339_21:
  7983  0999  2989               	goto	i1l2496
  7984  099A                     u339_20:
  7985  099A                     i1l2506:
  7986  099A  0871               	movf	i1___bmul@product,w
  7987  099B                     i1l506:
  7988  099B  0008               	return
  7989  099C                     __end_ofi1___bmul:
  7990                           
  7991                           	psect	text42
  7992  0D0D                     __ptext42:	
  7993 ;; *************** function ___llmod *****************
  7994 ;; Defined at:
  7995 ;;		line 5 in file "C:\Program Files (x86)\Microchip\xc8\v2.20\pic\sources\c90\common\llmod.c"
  7996 ;; Parameters:    Size  Location     Type
  7997 ;;  divisor         4    5[BANK0 ] unsigned long 
  7998 ;;  dividend        4    9[BANK0 ] unsigned long 
  7999 ;; Auto vars:     Size  Location     Type
  8000 ;;  counter         1   13[COMMON] unsigned char 
  8001 ;; Return value:  Size  Location     Type
  8002 ;;                  4    5[BANK0 ] unsigned long 
  8003 ;; Registers used:
  8004 ;;		wreg, status,2, status,0, btemp+1
  8005 ;; Tracked objects:
  8006 ;;		On entry : 0/0
  8007 ;;		On exit  : 0/0
  8008 ;;		Unchanged: 0/0
  8009 ;; Data sizes:     COMMON   BANK0   BANK1   BANK3   BANK2
  8010 ;;      Params:         0       8       0       0       0
  8011 ;;      Locals:         1       0       0       0       0
  8012 ;;      Temps:          1       0       0       0       0
  8013 ;;      Totals:         2       8       0       0       0
  8014 ;;Total ram usage:       10 bytes
  8015 ;; Hardware stack levels used:    1
  8016 ;; This function calls:
  8017 ;;		Nothing
  8018 ;; This function is called by:
  8019 ;;		_Scheduler_ActivateTask
  8020 ;; This function uses a non-reentrant model
  8021 ;;
  8022                           
  8023                           
  8024                           ;psect for function ___llmod
  8025  0D0D                     ___llmod:
  8026  0D0D                     i1l2446:	
  8027                           ;incstack = 0
  8028 ;; hardware stack exceeded
  8029                           ; Regs used in ___llmod: [wreg+status,2+status,0+btemp+1]
  8030                           
  8031  0D0D  1283               	bcf	3,5	;RP0=0, select bank0
  8032  0D0E  1303               	bcf	3,6	;RP1=0, select bank0
  8033  0D0F  0828               	movf	___llmod@divisor+3,w
  8034  0D10  0427               	iorwf	___llmod@divisor+2,w
  8035  0D11  0426               	iorwf	___llmod@divisor+1,w
  8036  0D12  0425               	iorwf	___llmod@divisor,w
  8037  0D13  1903               	skipnz
  8038  0D14  2D16               	goto	u325_21
  8039  0D15  2D17               	goto	u325_20
  8040  0D16                     u325_21:
  8041  0D16  2D5A               	goto	i1l2464
  8042  0D17                     u325_20:
  8043  0D17                     i1l2448:
  8044  0D17  01FD               	clrf	___llmod@counter
  8045  0D18  0AFD               	incf	___llmod@counter,f
  8046  0D19  2D27               	goto	i1l2454
  8047  0D1A                     i1l2450:
  8048  0D1A  3001               	movlw	1
  8049  0D1B  00FC               	movwf	??___llmod
  8050  0D1C                     u326_25:
  8051  0D1C  1003               	clrc
  8052  0D1D  0DA5               	rlf	___llmod@divisor,f
  8053  0D1E  0DA6               	rlf	___llmod@divisor+1,f
  8054  0D1F  0DA7               	rlf	___llmod@divisor+2,f
  8055  0D20  0DA8               	rlf	___llmod@divisor+3,f
  8056  0D21  0BFC               	decfsz	??___llmod,f
  8057  0D22  2D1C               	goto	u326_25
  8058  0D23                     i1l2452:
  8059  0D23  3001               	movlw	1
  8060  0D24  00FF               	movwf	btemp+1
  8061  0D25  087F               	movf	btemp+1,w
  8062  0D26  07FD               	addwf	___llmod@counter,f
  8063  0D27                     i1l2454:
  8064  0D27  1FA8               	btfss	___llmod@divisor+3,7
  8065  0D28  2D2A               	goto	u327_21
  8066  0D29  2D2B               	goto	u327_20
  8067  0D2A                     u327_21:
  8068  0D2A  2D1A               	goto	i1l2450
  8069  0D2B                     u327_20:
  8070  0D2B                     i1l2456:
  8071  0D2B  0828               	movf	___llmod@divisor+3,w
  8072  0D2C  022C               	subwf	___llmod@dividend+3,w
  8073  0D2D  1D03               	skipz
  8074  0D2E  2D39               	goto	u328_25
  8075  0D2F  0827               	movf	___llmod@divisor+2,w
  8076  0D30  022B               	subwf	___llmod@dividend+2,w
  8077  0D31  1D03               	skipz
  8078  0D32  2D39               	goto	u328_25
  8079  0D33  0826               	movf	___llmod@divisor+1,w
  8080  0D34  022A               	subwf	___llmod@dividend+1,w
  8081  0D35  1D03               	skipz
  8082  0D36  2D39               	goto	u328_25
  8083  0D37  0825               	movf	___llmod@divisor,w
  8084  0D38  0229               	subwf	___llmod@dividend,w
  8085  0D39                     u328_25:
  8086  0D39  1C03               	skipc
  8087  0D3A  2D3C               	goto	u328_21
  8088  0D3B  2D3D               	goto	u328_20
  8089  0D3C                     u328_21:
  8090  0D3C  2D4B               	goto	i1l2460
  8091  0D3D                     u328_20:
  8092  0D3D                     i1l2458:
  8093  0D3D  0825               	movf	___llmod@divisor,w
  8094  0D3E  02A9               	subwf	___llmod@dividend,f
  8095  0D3F  0826               	movf	___llmod@divisor+1,w
  8096  0D40  1C03               	skipc
  8097  0D41  0F26               	incfsz	___llmod@divisor+1,w
  8098  0D42  02AA               	subwf	___llmod@dividend+1,f
  8099  0D43  0827               	movf	___llmod@divisor+2,w
  8100  0D44  1C03               	skipc
  8101  0D45  0F27               	incfsz	___llmod@divisor+2,w
  8102  0D46  02AB               	subwf	___llmod@dividend+2,f
  8103  0D47  0828               	movf	___llmod@divisor+3,w
  8104  0D48  1C03               	skipc
  8105  0D49  0F28               	incfsz	___llmod@divisor+3,w
  8106  0D4A  02AC               	subwf	___llmod@dividend+3,f
  8107  0D4B                     i1l2460:
  8108  0D4B  3001               	movlw	1
  8109  0D4C                     u329_25:
  8110  0D4C  1003               	clrc
  8111  0D4D  0CA8               	rrf	___llmod@divisor+3,f
  8112  0D4E  0CA7               	rrf	___llmod@divisor+2,f
  8113  0D4F  0CA6               	rrf	___llmod@divisor+1,f
  8114  0D50  0CA5               	rrf	___llmod@divisor,f
  8115  0D51  3EFF               	addlw	-1
  8116  0D52  1D03               	skipz
  8117  0D53  2D4C               	goto	u329_25
  8118  0D54                     i1l2462:
  8119  0D54  3001               	movlw	1
  8120  0D55  02FD               	subwf	___llmod@counter,f
  8121  0D56  1D03               	btfss	3,2
  8122  0D57  2D59               	goto	u330_21
  8123  0D58  2D5A               	goto	u330_20
  8124  0D59                     u330_21:
  8125  0D59  2D2B               	goto	i1l2456
  8126  0D5A                     u330_20:
  8127  0D5A                     i1l2464:
  8128  0D5A  082C               	movf	___llmod@dividend+3,w
  8129  0D5B  00A8               	movwf	?___llmod+3
  8130  0D5C  082B               	movf	___llmod@dividend+2,w
  8131  0D5D  00A7               	movwf	?___llmod+2
  8132  0D5E  082A               	movf	___llmod@dividend+1,w
  8133  0D5F  00A6               	movwf	?___llmod+1
  8134  0D60  0829               	movf	___llmod@dividend,w
  8135  0D61  00A5               	movwf	?___llmod
  8136  0D62                     i1l702:
  8137  0D62  0008               	return
  8138  0D63                     __end_of___llmod:
  8139                           
  8140                           	psect	text43
  8141  099C                     __ptext43:	
  8142 ;; *************** function _EXTI_On_Off_CallBack *****************
  8143 ;; Defined at:
  8144 ;;		line 23 in file "Buttons/Buttons.c"
  8145 ;; Parameters:    Size  Location     Type
  8146 ;;		None
  8147 ;; Auto vars:     Size  Location     Type
  8148 ;;		None
  8149 ;; Return value:  Size  Location     Type
  8150 ;;                  1    wreg      void 
  8151 ;; Registers used:
  8152 ;;		wreg, status,2, status,0
  8153 ;; Tracked objects:
  8154 ;;		On entry : 0/0
  8155 ;;		On exit  : 0/0
  8156 ;;		Unchanged: 0/0
  8157 ;; Data sizes:     COMMON   BANK0   BANK1   BANK3   BANK2
  8158 ;;      Params:         0       0       0       0       0
  8159 ;;      Locals:         0       0       0       0       0
  8160 ;;      Temps:          0       0       0       0       0
  8161 ;;      Totals:         0       0       0       0       0
  8162 ;;Total ram usage:        0 bytes
  8163 ;; Hardware stack levels used:    1
  8164 ;; This function calls:
  8165 ;;		Nothing
  8166 ;; This function is called by:
  8167 ;;		_myISR
  8168 ;; This function uses a non-reentrant model
  8169 ;;
  8170                           
  8171                           
  8172                           ;psect for function _EXTI_On_Off_CallBack
  8173  099C                     _EXTI_On_Off_CallBack:
  8174  099C                     i1l2628:	
  8175                           ;incstack = 0
  8176 ;; hardware stack exceeded
  8177                           ; Regs used in _EXTI_On_Off_CallBack: [wreg+status,2+status,0]
  8178                           
  8179                           
  8180                           ;Buttons/Buttons.c: 25:  if((Mode.Select_Mode==Setting_Mode) || (Mode.Select_Mode==Norma
      +                          l_Mode))
  8181  099C  3002               	movlw	2
  8182  099D  1683               	bsf	3,5	;RP0=1, select bank1
  8183  099E  1303               	bcf	3,6	;RP1=0, select bank1
  8184  099F  0656               	xorwf	_Mode^(0+128),w
  8185  09A0  1903               	btfsc	3,2
  8186  09A1  29A3               	goto	u348_21
  8187  09A2  29A4               	goto	u348_20
  8188  09A3                     u348_21:
  8189  09A3  29A9               	goto	i1l2632
  8190  09A4                     u348_20:
  8191  09A4                     i1l2630:
  8192  09A4  0356               	decf	_Mode^(0+128),w
  8193  09A5  1D03               	btfss	3,2
  8194  09A6  29A8               	goto	u349_21
  8195  09A7  29A9               	goto	u349_20
  8196  09A8                     u349_21:
  8197  09A8  29AB               	goto	i1l2634
  8198  09A9                     u349_20:
  8199  09A9                     i1l2632:
  8200                           
  8201                           ;Buttons/Buttons.c: 26:   {;Buttons/Buttons.c: 28:     Mode.Select_Mode=Off_Mode;
  8202  09A9  01D6               	clrf	_Mode^(0+128)
  8203                           
  8204                           ;Buttons/Buttons.c: 30:   }
  8205  09AA  29B2               	goto	i1l101
  8206  09AB                     i1l2634:
  8207  09AB  0856               	movf	_Mode^(0+128),w
  8208  09AC  1D03               	btfss	3,2
  8209  09AD  29AF               	goto	u350_21
  8210  09AE  29B0               	goto	u350_20
  8211  09AF                     u350_21:
  8212  09AF  29B2               	goto	i1l101
  8213  09B0                     u350_20:
  8214  09B0                     i1l2636:
  8215                           
  8216                           ;Buttons/Buttons.c: 32:   {;Buttons/Buttons.c: 34:    Mode.Select_Mode=Normal_Mode;
  8217  09B0  01D6               	clrf	_Mode^(0+128)
  8218  09B1  0AD6               	incf	_Mode^(0+128),f
  8219  09B2                     i1l101:
  8220  09B2  0008               	return
  8221  09B3                     __end_of_EXTI_On_Off_CallBack:
  8222  0006                     
  8223                           	psect	functab
  8224  004B                     __pfunctab:
  8225  004B                     __fptable:
  8226  004B                     fptable:
  8227  004B  00FF               	movwf	(btemp+1)& (0+127)
  8228  004C  3000               	movlw	high fptable
  8229  004D  008A               	movwf	10
  8230  004E  087F               	movf	(btemp+1)& (0+127),w
  8231  004F  0782               	addwf	2,f
  8232  0050                     fpbase:
  8233  0050  2850               	goto	fpbase	; Call via a null pointer and you will get stuck here.
  8234  0051                     fp__Scheduler_Task3:
  8235  0051  120A  158A  290D   	ljmp	_Scheduler_Task3
  8236  0054                     fp__Scheduler_Task1:
  8237  0054  120A  158A  28FF   	ljmp	_Scheduler_Task1
  8238  0057                     fp__Scheduler_Task2:
  8239  0057  120A  158A  2918   	ljmp	_Scheduler_Task2
  8240  005A                     __end_of__fptable:
  8241  007E                     btemp	set	126	;btemp
  8242  007E                     wtemp0	set	126
  8243                           
  8244                           	psect	config
  8245                           
  8246                           ;Config register CONFIG @ 0x2007
  8247                           ;	Oscillator Selection bits
  8248                           ;	FOSC = HS, HS oscillator
  8249                           ;	Watchdog Timer Enable bit
  8250                           ;	WDTE = OFF, WDT disabled
  8251                           ;	Power-up Timer Enable bit
  8252                           ;	PWRTE = OFF, PWRT disabled
  8253                           ;	Brown-out Reset Enable bit
  8254                           ;	BOREN = OFF, BOR disabled
  8255                           ;	Low-Voltage (Single-Supply) In-Circuit Serial Programming Enable bit
  8256                           ;	LVP = OFF, RB3 is digital I/O, HV on MCLR must be used for programming
  8257                           ;	Data EEPROM Memory Code Protection bit
  8258                           ;	CPD = OFF, Data EEPROM code protection off
  8259                           ;	Flash Program Memory Write Enable bits
  8260                           ;	WRT = OFF, Write protection off; all program memory may be written to by EECON control
  8261                           ;	In-Circuit Debugger Mode bit
  8262                           ;	DEBUG = 0x1, unprogrammed default
  8263                           ;	Flash Program Memory Code Protection bit
  8264                           ;	CP = OFF, Code protection off
  8265  2007                     	org	8199
  8266  2007  3F3A               	dw	16186

Data Sizes:
    Strings     0
    Constant    15
    Data        4
    BSS         65
    Persistent  0
    Stack       0

Auto Spaces:
    Space          Size  Autos    Used
    COMMON           14     14      14
    BANK0            80     31      54
    BANK1            80     54      60
    BANK3            96      0      40
    BANK2            96      0       0

Pointer List with Targets:

    Scheduler_Start$1186	const PTR FTN()void  size(1) Largest target is 1
		 -> Scheduler_Task3(), Scheduler_Task2(), Scheduler_Task1(), 

    memset@p1	PTR void  size(1) Largest target is 3
		 -> Scheduler_ActivationFlags(BANK1[3]), 

    memset@p	PTR unsigned char  size(1) Largest target is 3
		 -> Scheduler_ActivationFlags(BANK1[3]), 

    sp__memset	PTR void  size(1) Largest target is 3
		 -> Scheduler_ActivationFlags(BANK1[3]), 

    S392$fuction_ptr	PTR FTN()void  size(1) Largest target is 1
		 -> Scheduler_Task3(), Scheduler_Task2(), Scheduler_Task1(), 

    Scheduler_Intitys.fuction_ptr	PTR FTN()void  size(1) Largest target is 1
		 -> Scheduler_Task3(), Scheduler_Task2(), Scheduler_Task1(), 

    Average_Value@Avrage_Values	PTR unsigned char  size(1) Largest target is 5
		 -> Temperature(BANK0[5]), 


Critical Paths under _main in COMMON

    None.

Critical Paths under _myISR in COMMON

    _Scheduler_ActivateTask->___llmod
    i1___lldiv->i1___bmul
    ___llmod->i1___lldiv

Critical Paths under _main in BANK0

    _Scheduler_Task3->_Mode_MainFunction
    _Start_Setting_Timer->___wmul
    _LED_BLINKING->___wmul
    _Temperature_Calc->___lwmod
    ___fltol->___xxtofl
    ___flmul->__Umul8_16
    ___flmul->___xxtofl
    _Average_Value->___lwmod
    _Display_MainFunction->___awdiv
    _Display_MainFunction->___awmod
    _Display_Blink->___wmul
    _Scheduler_Init->_memset

Critical Paths under _myISR in BANK0

    _Timer0_CallBack->_Scheduler_ActivateTask
    _Scheduler_ActivateTask->___llmod
    ___llmod->i1___lldiv

Critical Paths under _main in BANK1

    _main->_Scheduler_Start
    _Mode_MainFunction->_Start_Setting_Timer
    _Start_Setting_Timer->___wmul
    _LED_MainFunction->_LED_BLINKING
    _LED_BLINKING->___wmul
    _ADC_Conv_MainFunction->_ADC_Value_Ready_CallBack
    _ADC_Value_Ready_CallBack->_Temperature_Calc
    _Temperature_Calc->___fltol
    ___fltol->___flmul
    ___flmul->___xxtofl
    _Average_Value->___lldiv
    _Scheduler_Task1->_Display_MainFunction
    _Display_MainFunction->_Display_Blink
    _Display_Blink->___wmul
    _Scheduler_Init->_memset

Critical Paths under _myISR in BANK1

    None.

Critical Paths under _main in BANK3

    None.

Critical Paths under _myISR in BANK3

    None.

Critical Paths under _main in BANK2

    None.

Critical Paths under _myISR in BANK2

    None.

Call Graph Tables:

 ---------------------------------------------------------------------------------
 (Depth) Function   	        Calls       Base Space   Used Autos Params    Refs
 ---------------------------------------------------------------------------------
 (0) _main                                                 0     0      0   11718
                           _ADC_Init
                     _ADC_Start_Conv
                       _Display_Init
                      _Elements_Init
                          _GPIO_Init
                          _Mode_Init
                        _On_Off_Init
                     _Scheduler_Init
                    _Scheduler_Start
                        _Timer0_Init
 ---------------------------------------------------------------------------------
 (1) _Timer0_Init                                          0     0      0       0
 ---------------------------------------------------------------------------------
 (1) _Scheduler_Start                                      1     1      0   11315
                                             53 BANK1      1     1      0
                    _Scheduler_Task1 *
                    _Scheduler_Task2 *
                    _Scheduler_Task3 *
                             ___bmul
 ---------------------------------------------------------------------------------
 (2) ___bmul                                               3     2      1     125
                                             26 BANK0      3     2      1
 ---------------------------------------------------------------------------------
 (2) _Scheduler_Task3                                      0     0      0    1138
              _Elements_MainFunction
                  _Mode_MainFunction
 ---------------------------------------------------------------------------------
 (3) _Mode_MainFunction                                    1     1      0    1138
                                             30 BANK0      1     1      0
               _Read_UP_DOWN_BUTTONS
                _Start_Setting_Timer
 ---------------------------------------------------------------------------------
 (4) _Start_Setting_Timer                                  6     2      4    1138
                                              2 BANK1      6     2      4
                             ___wmul
 ---------------------------------------------------------------------------------
 (4) _Read_UP_DOWN_BUTTONS                                 1     1      0       0
                                             26 BANK0      1     1      0
 ---------------------------------------------------------------------------------
 (3) _Elements_MainFunction                                4     4      0       0
                                             26 BANK0      4     4      0
 ---------------------------------------------------------------------------------
 (2) _Scheduler_Task2                                      0     0      0    7515
              _ADC_Conv_MainFunction
                   _LED_MainFunction
 ---------------------------------------------------------------------------------
 (3) _LED_MainFunction                                     0     0      0    1138
                       _LED_BLINKING
 ---------------------------------------------------------------------------------
 (4) _LED_BLINKING                                         6     2      4    1138
                                              2 BANK1      6     2      4
                             ___wmul
 ---------------------------------------------------------------------------------
 (3) _ADC_Conv_MainFunction                                0     0      0    6377
           _ADC_Value_Ready_CallBack
 ---------------------------------------------------------------------------------
 (4) _ADC_Value_Ready_CallBack                             2     2      0    6377
                                             51 BANK1      2     2      0
                   _Temperature_Calc
 ---------------------------------------------------------------------------------
 (5) _Temperature_Calc                                     5     5      0    6343
                                             46 BANK1      5     5      0
                      _Average_Value
                            ___flmul
                            ___fltol
                            ___lwmod
                           ___xxtofl
 ---------------------------------------------------------------------------------
 (6) ___xxtofl                                            14    10      4     566
                                             26 BANK0      4     0      4
                                              0 BANK1     10    10      0
 ---------------------------------------------------------------------------------
 (6) ___fltol                                             10     6      4     427
                                             36 BANK1     10     6      4
                            ___flmul (ARG)
                           ___xxtofl (ARG)
 ---------------------------------------------------------------------------------
 (6) ___flmul                                             26    18      8    3353
                                             10 BANK1     26    18      8
                          __Umul8_16
                           ___xxtofl (ARG)
 ---------------------------------------------------------------------------------
 (7) __Umul8_16                                            9     7      2     980
                                             26 BANK0      4     2      2
                                              0 BANK1      5     5      0
 ---------------------------------------------------------------------------------
 (6) _Average_Value                                        8     7      1    1374
                                             13 BANK1      8     7      1
                            ___lldiv
                            ___lwmod
 ---------------------------------------------------------------------------------
 (6) ___lwmod                                              5     1      4     592
                                             26 BANK0      5     1      4
 ---------------------------------------------------------------------------------
 (7) ___lldiv                                             14     6      8     531
                                             26 BANK0      1     1      0
                                              0 BANK1     13     5      8
 ---------------------------------------------------------------------------------
 (2) _Scheduler_Task1                                      0     0      0    2376
               _Display_MainFunction
 ---------------------------------------------------------------------------------
 (3) _Display_MainFunction                                 2     2      0    2376
                                              8 BANK1      2     2      0
                      _Display_Blink
                            ___awdiv
                            ___awmod
 ---------------------------------------------------------------------------------
 (4) ___awmod                                              6     2      4     613
                                             26 BANK0      4     0      4
                                              0 BANK1      2     2      0
 ---------------------------------------------------------------------------------
 (4) ___awdiv                                              8     4      4     625
                                             26 BANK0      4     0      4
                                              0 BANK1      4     4      0
 ---------------------------------------------------------------------------------
 (4) _Display_Blink                                        6     2      4    1138
                                              2 BANK1      6     2      4
                             ___wmul
 ---------------------------------------------------------------------------------
 (5) ___wmul                                               6     2      4     896
                                             26 BANK0      4     0      4
                                              0 BANK1      2     2      0
 ---------------------------------------------------------------------------------
 (1) _Scheduler_Init                                       0     0      0     403
                             _memset
 ---------------------------------------------------------------------------------
 (2) _memset                                               6     2      4     403
                                             26 BANK0      4     0      4
                                              0 BANK1      2     2      0
 ---------------------------------------------------------------------------------
 (1) _On_Off_Init                                          0     0      0       0
 ---------------------------------------------------------------------------------
 (1) _Mode_Init                                            0     0      0       0
 ---------------------------------------------------------------------------------
 (1) _GPIO_Init                                            0     0      0       0
 ---------------------------------------------------------------------------------
 (1) _Elements_Init                                        0     0      0       0
 ---------------------------------------------------------------------------------
 (1) _Display_Init                                         0     0      0       0
 ---------------------------------------------------------------------------------
 (1) _ADC_Start_Conv                                       0     0      0       0
 ---------------------------------------------------------------------------------
 (1) _ADC_Init                                             0     0      0       0
 ---------------------------------------------------------------------------------
 Estimated maximum stack depth 7
 ---------------------------------------------------------------------------------
 (Depth) Function   	        Calls       Base Space   Used Autos Params    Refs
 ---------------------------------------------------------------------------------
 (8) _myISR                                                4     4      0     897
                                             22 BANK0      4     4      0
               _EXTI_On_Off_CallBack
                    _Timer0_CallBack
 ---------------------------------------------------------------------------------
 (9) _Timer0_CallBack                                      0     0      0     897
             _Scheduler_ActivateTask
 ---------------------------------------------------------------------------------
 (10) _Scheduler_ActivateTask                              9     5      4     897
                                             13 BANK0      9     5      4
                            ___llmod
                           i1___bmul
                          i1___lldiv
 ---------------------------------------------------------------------------------
 (11) i1___lldiv                                          14     6      8     214
                                              3 COMMON     9     1      8
                                              0 BANK0      5     5      0
                           i1___bmul (ARG)
 ---------------------------------------------------------------------------------
 (11) i1___bmul                                            3     2      1      87
                                              0 COMMON     3     2      1
 ---------------------------------------------------------------------------------
 (11) ___llmod                                            10     2      8     311
                                             12 COMMON     2     2      0
                                              5 BANK0      8     0      8
                           i1___bmul (ARG)
                          i1___lldiv (ARG)
 ---------------------------------------------------------------------------------
 (9) _EXTI_On_Off_CallBack                                 0     0      0       0
 ---------------------------------------------------------------------------------
 Estimated maximum stack depth 11
 ---------------------------------------------------------------------------------

 Call Graph Graphs:

 _main (ROOT)
   _ADC_Init
   _ADC_Start_Conv
   _Display_Init
   _Elements_Init
   _GPIO_Init
   _Mode_Init
   _On_Off_Init
   _Scheduler_Init
     _memset
   _Scheduler_Start
     _Scheduler_Task1 *
       _Display_MainFunction
         _Display_Blink
           ___wmul
         ___awdiv
         ___awmod
     _Scheduler_Task2 *
       _ADC_Conv_MainFunction
         _ADC_Value_Ready_CallBack
           _Temperature_Calc
             _Average_Value
               ___lldiv
               ___lwmod
             ___flmul
               __Umul8_16
               ___xxtofl (ARG)
             ___fltol
               ___flmul (ARG)
                 __Umul8_16
                 ___xxtofl (ARG)
               ___xxtofl (ARG)
             ___lwmod
             ___xxtofl
       _LED_MainFunction
         _LED_BLINKING
           ___wmul
     _Scheduler_Task3 *
       _Elements_MainFunction
       _Mode_MainFunction
         _Read_UP_DOWN_BUTTONS
         _Start_Setting_Timer
           ___wmul
     ___bmul *
   _Timer0_Init

 _myISR (ROOT)
   _EXTI_On_Off_CallBack
   _Timer0_CallBack
     _Scheduler_ActivateTask
       ___llmod
         i1___bmul (ARG)
         i1___lldiv (ARG)
           i1___bmul (ARG)
       i1___bmul
       i1___lldiv
         i1___bmul (ARG)

 Address spaces:
Name               Size   Autos  Total    Cost      Usage
BANK3               60      0      28       9       41.7%
BITBANK3            60      0       0       8        0.0%
SFR3                 0      0       0       4        0.0%
BITSFR3              0      0       0       4        0.0%
BANK2               60      0       0      11        0.0%
BITBANK2            60      0       0      10        0.0%
SFR2                 0      0       0       5        0.0%
BITSFR2              0      0       0       5        0.0%
BANK1               50     36      3C       7       75.0%
BITBANK1            50      0       0       6        0.0%
SFR1                 0      0       0       2        0.0%
BITSFR1              0      0       0       2        0.0%
BANK0               50     1F      36       5       67.5%
BITBANK0            50      0       0       4        0.0%
SFR0                 0      0       0       1        0.0%
BITSFR0              0      0       0       1        0.0%
COMMON               E      E       E       1      100.0%
BITCOMMON            E      0       0       0        0.0%
CODE                 0      0       0       0        0.0%
DATA                 0      0      A8      12        0.0%
ABS                  0      0      A8       3        0.0%
NULL                 0      0       0       0        0.0%
STACK                0      0       0       2        0.0%
EEDATA             100      0       0       0        0.0%


Microchip Technology PIC Macro Assembler V2.20 build 20200408173844 
Symbol Table                                                                                   Sun Jul 12 18:06:59 2020

                                        pc 0002                             ___bmul@product 003B  
                                       l21 09E6                                         l30 0A22  
                                       l25 093B                                         l33 0966  
                                       l82 06BD                                         l68 0AC0  
                                       l93 08FE                                         l69 0AC0  
                             ___awdiv@sign 00A1                                         fsr 0004  
                      ___wmul@multiplicand 003C                        __Umul8_16@word_mpld 00A2  
                         ??_ADC_Start_Conv 003A                                        l122 0948  
                                      l107 07FC                                        l205 0D0C  
                                      l241 0A3A                                        l180 0957  
                                      l340 0922                                        l245 0A3B  
                                      l237 0A39                                        l165 0CB3  
                                      l158 051E                                        l167 0CB9  
                                      l343 0917                                        l264 0A43  
                                      l257 0A41                                        l249 0A3C  
                                      l353 074B                                        l337 0904  
                                      l506 09C9                                        l187 0BE6  
                                      l516 0F83                                        l197 0C68  
                                      l382 092E                                        l366 0986  
                                      l480 0AD9                                        l633 07D6  
                                      l289 0B32                                        l298 0976  
                                      l482 0AFA                                        l394 0C26  
                                      l389 0DC7                                        l646 0F0B  
                                      l673 0FEA                                        l913 0562  
                                      l762 0BA6                                        l666 0FFF  
                                      l915 0611                                        l676 0FFF  
                                      l934 0A8D                                        l926 05C7  
                                      l927 05D3                                        l881 0408  
                                      l890 0B31                                        l875 0380  
                                      l869 0414                                        l888 0B19  
                                      fsr0 0004                                        indf 0000  
                             ___awmod@sign 00A1                               ___flmul@aexp 00B8  
                             ___flmul@bexp 00BD                               ___flmul@sign 00B7  
                             ___flmul@temp 00C2                               ___flmul@prod 00BE  
                             ___fltol@exp1 00CD                                       l3000 071E  
                                     l3010 0AC8                                       l3002 072C  
                                     l3012 0ACD                                       l3100 0E9E  
                                     l3004 0744                                       l3014 0AE1  
                                     l3030 0CA2                                       l3110 0EB5  
                                     l3102 0EA1                                       l3006 074A  
                                     l3022 0958                                       l3016 0AE8  
                                     l3008 0AC4                                       l3032 0CA3  
                                     l3040 0CB5                                       l3120 0ED2  
                                     l3112 0EBA                                       l3104 0EA7  
                                     l3200 04CB                                       l3024 0960  
                                     l2400 0CC0                                       l3018 0AEE  
                                     l3034 0CA7                                       l3026 0C69  
                                     l3122 0ED8                                       l3114 0EC0  
                                     l3130 0EF8                                       l3106 0EAC  
                                     l3202 04D0                                       l3210 04DF  
                                     l3042 0BA7                                       l2410 0CE7  
                                     l2402 0CC7                                       l3050 0BE7  
                                     l3036 0CAC                                       l3028 0C9D  
                                     l3060 0755                                       l3132 0EFF  
                                     l3124 0EE3                                       l3116 0EC5  
                                     l3108 0EB0                                       l3204 04D5  
                                     l3212 0509                                       l3140 0A0B  
                                     l3044 0BDB                                       l3220 0C27  
                                     l2412 0CFB                                       l2404 0CDD  
                                     l2180 07E5                                       l3052 0C19  
                                     l3038 0CB1                                       l3070 076E  
                                     l3062 075A                                       l3134 0F06  
                                     l3126 0EE9                                       l3118 0ECC  
                                     l3214 0511                                       l3206 04DA  
                                     l3150 0415                                       l3142 0A0F  
                                     l3046 0BDF                                       l3230 0C51  
                                     l3222 0C2F                                       l2414 0CFF  
                                     l2406 0CE1                                       l2182 07F1  
                                     l3054 0C20                                       l3310 0B5F  
                                     l2600 0926                                       l3080 078C  
                                     l3072 0772                                       l3064 075E  
                                     l3056 074C                                       l3128 0EF0  
                                     l3160 0432                                       l3152 041C  
                                     l3144 0A14                                       l3048 0BE2  
                                     l3232 0C55                                       l3224 0C36  
                                     l2416 0D00                                       l2408 0CE2  
                                     l2184 07F8                                       l3240 0D68  
                                     l3312 0B63                                       l3304 0B35  
                                     l3320 0A93                                       l2602 0928  
                                     l3090 07B8                                       l3082 0792  
                                     l3074 077A                                       l3066 0763  
                                     l3058 074F                                       l3170 048B  
                                     l3162 0437                                       l3154 0422  
                                     l3146 0A1A                                       l3138 0A05  
                                     l3234 0C5C                                       l3226 0C44  
                                     l2418 0D03                                       l2178 07D7  
                                     l3250 0D9D                                       l3242 0D70  
                                     l3306 0B3E                                       l2610 0985  
                                     l3330 0ABB                                       l3322 0A98  
                                     l3084 07A7                                       l3076 077F  
                                     l3092 07C0                                       l3068 0768  
                                     l3180 049E                                       l3172 048F  
                                     l3164 0441                                       l3156 0425  
                                     l2700 0F49                                       l3148 0A1F  
                                     l3236 0C62                                       l3228 0C4A  
                                     l3260 0DC4                                       l3252 0DA1  
                                     l3244 0D7D                                       l3308 0B58  
                                     l3324 0AAC                                       l3270 0A7D  
                                     l3094 07C7                                       l3086 07AD  
                                     l3078 0786                                       l3190 04B2  
                                     l3182 04A3                                       l3174 0494  
                                     l3166 0448                                       l3158 042B  
                                     l2702 0F5D                                       l2710 0F7B  
                                     l3246 0D8B                                       l3254 0DA6  
                                     l3238 0D63                                       l2550 09C1  
                                     l2542 09B6                                       l2606 0977  
                                     l3326 0AB1                                       l3318 0A8E  
                                     l2560 092F                                       l3264 0A6B  
                                     l3096 07CC                                       l3088 07B0  
                                     l3192 04B7                                       l3184 04A7  
                                     l3176 0498                                       l3168 044F  
                                     l2704 0F6B                                       l2720 0B7D  
                                     l3256 0DB2                                       l3248 0D97  
                                     l2552 09C3                                       l2544 09B7  
                                     l2608 0981                                       l3328 0AB6  
                                     l2562 0935                                       l2570 0A31  
                                     l3266 0A70                                       l3194 04BC  
                                     l3186 04AB                                       l3178 049C  
                                     l2706 0F6C                                       l2730 0B9C  
                                     l2722 0B81                                       l2714 0B6B  
                                     l2810 0061                                       l2802 0FDF  
                                     l3258 0DBE                                       l3290 0918  
                                     l2554 09C8                                       l2546 09BB  
                                     l2572 0A35                                       l2564 0A23  
                                     l3268 0A79                                       l3364 04E9  
                                     l3196 04C1                                       l3188 04AD  
                                     l2708 0F75                                       l2724 0B85  
                                     l2716 0B73                                       l2732 0BA2  
                                     l2740 0B0F                                       l2900 0351  
                                     l2820 0076                                       l2812 0067  
                                     l2804 0FEF                                       l3292 091D  
                                     l2548 09BF                                       l2558 09CA  
                                     l2582 0A3D                                       l2566 0A29  
                                     l2590 08F9                                       l3198 04C6  
                                     l2726 0B8F                                       l2718 0B76  
                                     l2750 0615                                       l2742 0B13  
                                     l2910 0369                                       l2902 035A  
                                     l2830 0093                                       l2822 007E  
                                     l2814 006B                                       l2806 0FF4  
                                     l2398 0CBA                                       l3294 090D  
                                     l2592 093C                                       l2568 0A2D  
                                     l3296 0967                                       l2728 0B95  
                                     l2752 061F                                       l2744 0B22  
                                     l2736 0AFE                                       l2920 0398  
                                     l2912 037D                                       l2904 0360  
                                     l2840 00AA                                       l2832 0097  
                                     l2824 0080                                       l2816 006C  
                                     l2808 005A                                       l3288 08FF  
                                     l2594 0946                                       l2586 0A42  
                                     l2690 0F1E                                       l2762 065D  
                                     l2754 0642                                       l2746 0B27  
                                     l2738 0B00                                       l2930 03D3  
                                     l2922 039C                                       l2906 0364  
                                     l2842 00AC                                       l2834 0098  
                                     l2826 0088                                       l2818 0071  
                                     l2770 0F84                                       l3298 0B32  
                                     l2596 0949                                       l2692 0F21  
                                     l2764 0683                                       l2756 065A  
                                     l2940 03FC                                       l2932 03E2  
                                     l2924 03B5                                       l2916 0385  
                                     l2908 0365                                       l2860 0131  
                                     l2852 00C7                                       l2844 00B4  
                                     l2836 009D                                       l2828 008D  
                                     l2780 0FB0                                       l2772 0F91  
                                     l2598 0923                                       l2694 0F30  
                                     l2766 0689                                       l2942 0400  
                                     l2934 03EC                                       l2918 038A  
                                     l2926 03BB                                       l2870 01C2  
                                     l2862 0167                                       l2854 00E1  
                                     l2846 00B9                                       l2838 00A2  
                                     l2782 0FB8                                       l2950 0522  
                                     l2696 0F36                                       l2688 0F0C  
                                     l2768 068F                                       l2944 0401  
                                     l2936 03EE                                       l2928 03C8  
                                     l2880 0256                                       l2872 01DF  
                                     l2864 0183                                       l2856 00EE  
                                     l2848 00BE                                       l2792 0FC6  
                                     l2784 0FBA                                       l2776 0F9A  
                                     l2952 0527                                       l2698 0F3A  
                                     l2946 040C                                       l2938 03F4  
                                     l2890 032C                                       l2882 028D  
                                     l2874 01F9                                       l2866 019F  
                                     l2858 0115                                       l2794 0FCF  
                                     l2786 0FBE                                       l2778 0FAF  
                                     l2970 0590                                       l2962 0575  
                                     l2954 052D                                       l2892 0335  
                                     l2884 02A7                                       l2876 0216  
                                     l2868 01A8                                       l2796 0FD8  
                                     l2980 05BD                                       l2972 0594  
                                     l2964 057C                                       l2956 054B  
                                     l2894 0343                                       l2886 02DE  
                                     l2878 0239                                       l2990 05F0  
                                     l2982 05C1                                       l2974 05A2  
                                     l2966 0580                                       l2958 056C  
                                     l2896 034C                                       l2888 0304  
                                     l2992 05F6                                       l2984 05CB  
                                     l2976 05AB                                       l2968 0589  
                                     l2898 0350                                       l2994 05F9  
                                     l2986 05D5                                       l2978 05B2  
                                     l2988 05EB                                       l2998 06C1  
                                     u3100 0CC0                                       u3101 0CBF  
                                     u3110 0CC7                             ??_LED_BLINKING 00A6  
                                     u3111 0CC6                                       u3120 0CDD  
                                     u4001 027F                                       u3121 0CDC  
                                     u4002 0286                                       u3130 0CFB  
                                     u4011 02B6                                       u4003 028D  
                                     u3131 0CFA                                       u4100 0364  
                                     u4020 02EA                                       u4012 02BD  
                                     u4101 0363                                       u4013 02C4  
                                     u3125 0CD9                                       u4110 0369  
                                     u4111 0368                                       u4031 02F6  
                                     u3135 0CF7                                       u4120 037D  
                                     u4040 0312                                       u4032 02FD  
                                     u4200 0527                                       u4121 037C  
                                     u4033 0304                                       u4025 02E5  
                                     u4201 0526                                       u4130 0384  
                                     u4210 052D                                       u4131 0383  
                                     u4051 031E                                       u4211 052C  
                                     u4140 038A                                       u4052 0325  
                                     u4300 05CB                                       u4220 056C  
                                     u4141 0389                                       u4053 032C  
                                     u4045 030D                                       u4301 05CA  
                                     u4221 056B                                       u4150 039C  
                                     u4310 05E0                                       u3430 09BB  
                                     u4151 039B                                       u3431 09BA  
                                     u4400 0CA2                                       u3600 0B73  
                                     u4160 03AB                                       u4080 0350  
                                     u4320 05F0                                       u4240 058F  
                                     u2640 07E5                                       u3440 09C8  
                                     u4401 0CA1                                       u3601 0B72  
                                     u4081 034F                                       u4065 032E  
                                     u4321 05EF                                       u4241 058E  
                                     u2641 07E4                                       u3441 09C7  
                                     u3450 0935                                       u4410 0CB1  
                                     u3530 0F1E                                       u4170 03C8  
                                     u4330 05F6                                       u3451 0934  
                                     u4411 0CB0                                       u3531 0F1D  
                                     u4171 03C7                                       u4075 0345  
                                     u4331 05F5                                       u4315 05DB  
                                     u4235 0581                                       u2635 07DC  
                                     u4500 07A7                                       u3620 0B85  
                                     u4180 03E2                                       u4260 05B1  
                                     u4340 074A                                       u4420 0BDB  
                                     u2660 07F1                                       u4501 07A6  
                                     u3621 0B84                                       u4181 03E1  
                                     u4165 03A6                                       u4261 05B0  
                                     u4341 0749                                       u4421 0BDA  
                                     u2661 07F0                                       u4350 0ACD  
                                     u3550 0F3A                                       u3630 0B8F  
                                     u4190 0400                                       u2670 07F8  
                                     u4430 0C19                                       u4351 0ACC  
                                     u3551 0F39                                       u3631 0B8E  
                                     u3615 0B77                                       u3711 0674  
                                     u4191 03FF                                       u4175 03C4  
                                     u4095 0353                                       u4255 05A3  
                                     u2671 07F7                                       u2655 07E8  
                                     u4431 0C18                                       u4520 07C0  
                                     u4440 0755                                       u3720 068F  
                                     u3712 0675                                       u4280 05C1  
                                     u4521 07BF                                       u4505 07A3  
                                     u4441 0754                                       u3545 0F25  
                                     u3721 068E                                       u3713 067B  
                                     u3705 0660                                       u4185 03DE  
                                     u4281 05C0                                       u4425 0BD7  
                                     u4530 07C7                                       u4450 0763  
                                     u4610 0EF8                                       u3570 0F5D  
                                     u3650 0BA2                                       u3714 067C  
                                     u3810 0FEF                                       u3730 0F91  
                                     u4290 05C7                                       u4531 07C6  
                                     u4515 07B2                                       u4451 0762  
                                     u4611 0EF7                                       u3571 0F5C  
                                     u3651 0BA1                                       u3635 0B8B  
                                     u3715 0682                                       u3811 0FEE  
                                     u3731 0F90                                       u4291 05C6  
                                     u4275 05B6                                       u4435 0C15  
                                     u4380 0AEE                                       u4460 077A  
                                     u4620 0EFF                                       u4540 0EA7  
                                     u4700 0448                                       u3716 0683  
                                     u3660 0B13                                       u3900 00BE  
                                     u3820 0FF4                                       u3740 0FA8  
                                     u4381 0AED                                       u4365 0ADB  
                                     u4461 0779                                       u4621 0EFE  
                                     u4605 0EEA                                       u4541 0EA6  
                                     u4701 0447                                       u3565 0F3E  
                                     u3645 0B96                                       u3661 0B12  
                                     u3901 00BD                                       u3821 0FF3  
                                     u3805 0FE1                                       u4390 0C9D  
                                     u4550 0EB5                                       u4710 044F  
                                     u3590 0F7B                                       u3830 006B  
                                     u3750 0FBE                                       u4630 0A0B  
                                     u4375 0AE2                                       u4391 0C9C  
                                     u4551 0EB4                                       u4711 044E  
                                     u3591 0F7A                                       u3575 0F59  
                                     u3911 0123                                       u3831 006A  
                                     u3751 0FBD                                       u4631 0A0A  
                                     u4480 0792                                       u4560 0EC0  
                                     u4720 0494                                       u3680 0B27  
                                     u3912 012A                                       u3840 0071  
                                     u3760 0FC5                                       u4640 0A0F  
                                     u4800 0C62                                       u4481 0791  
                                     u4561 0EBF                                       u4721 0493  
                                     u3585 0F6D                                       u3681 0B26  
                                     u3921 013F                                       u3913 0131  
                                     u3841 0070                                       u3761 0FC4  
                                     u3745 0FA3                                       u4641 0A0E  
                                     u4801 0C61                                       u4730 04A3  
                                     u3922 0146                                       u3850 0076  
                                     u4650 0A14                                       u4810 0D70  
                                     u4395 0C99                                       u4475 0780  
                                     u4731 04A2                                       u3675 0B1A  
                                     u3931 0175                                       u3923 014D  
                                     u3851 0075                                       u4651 0A13  
                                     u4811 0D6F                                       u4580 0ED8  
                                     u4740 0511                                       u3932 017C  
                                     u3860 0097                                       u3780 0FD7  
                                     u4660 0A1A                                       u4900 0DBE  
                                     u4581 0ED7                                       u4741 0510  
                                     u3941 0191                                       u3933 0183  
                                     u3861 0096                                       u3781 0FD6  
                                     u4661 0A19                                       u4901 0DBD  
                                     u4590 0EE3                                       u4670 041C  
                                     u3942 0198                                       u3870 009D  
                                     u3790 0FDE                                       u4750 0C2F  
                                     u4910 0DC4                                       u4830 0D8B  
                                     u4495 0795                                       u4591 0EE2  
                                     u4575 0EC6                                       u4671 041B  
                                     u3695 062D                                       u3943 019F  
                                     u3871 009C                                       u3791 0FDD  
                                     u3775 0FC7                                       u4751 0C2E  
                                     u4911 0DC3                                       u4831 0D8A  
                                     u4920 0A8D                                       u4680 042B  
                                     u3880 00A2                                       u4760 0C36  
                                     u4921 0A8C                                       u4681 042A  
                                     u3961 01D1                                       u3881 00A1  
                                     u4761 0C35                                       u4825 0D82  
                                     u4690 0437                                       u3962 01D8  
                                     u3890 00B9                                       u4770 0C4A  
                                     u4850 0D97                                       u4595 0EDF  
                                     u4691 0436                                       u3971 0208  
                                     u3963 01DF                                       u3955 01A1  
                                     u3891 00B8                                       u4771 0C49  
                                     u4851 0D96                                       u3972 020F  
                                     u4780 0C51                                       u4860 0D9D  
                                     u3973 0216                                       u4781 0C50  
                                     u4861 0D9C                                       u4845 0D8E  
                                     u4790 0C5C                                       u4950 0B3E  
                                     u3991 0248                                       u4791 0C5B  
                                     u4951 0B3D                                       u3992 024F  
                                     u4880 0DB2                                       u4960 0B69  
                                     u3993 0256                                       u3985 0218  
                                     u4881 0DB1                                       u4961 0B68  
                                     u4875 0DA9                                       u4895 0DB5  
                                     _TMR0 0001                                       _Mode 00D6  
                __size_of_Temperature_Calc 008E                          i1___lldiv@divisor 0073  
                                     _main 0A8E                   ??_Scheduler_ActivateTask 007E  
                                     btemp 007E                          i1___lldiv@counter 0024  
                         __end_of_ADC_Init 09E7                                       start 0012  
                       __size_of_GPIO_Init 0021                              ??_On_Off_Init 003A  
                        ___bmul@multiplier 003C                           ??_Scheduler_Init 003E  
                        ??_Timer0_CallBack 007E                            _Average_Nvalues 0055  
                            ___fltol@sign1 00CC                                      ?_main 0070  
                          __end_of___awdiv 07D7                            __end_of___awmod 0F0C  
                          __end_of___flmul 0415                            __end_of___fltol 1000  
                          __end_of___lldiv 0F84                            ___awdiv@divisor 003A  
                          __end_of___llmod 0D63                                      i1l101 09B2  
                                    i1l304 0E9D                                      i1l280 0A5B  
                          __end_of___lwmod 0BA7                                      i1l506 099B  
                                    i1l516 0E2F                                      i1l277 0A4F  
                                    i1l702 0D62                                      i1l369 0A04  
                          ___awdiv@counter 00A0                                      _PORTA 0005  
                                    _PORTB 0006                                      _PORTC 0007  
                                    _PORTD 0008                                      _TRISA 0085  
                                    _TRISB 0086                                      _TRISC 0087  
                                    _TRISD 0088                         i1___lldiv@dividend 0077  
                                    _myISR 0A44                                      fpbase 0050  
                    Display_Blink@Times_Ms 00A2                 Average_Value@Avrage_Values 00AD  
                         __end_ofi1___bmul 099C                                      pclath 000A  
                                    status 0003                                      wtemp0 007E  
                       __size_ofi1___lldiv 0068                 ??_ADC_Value_Ready_CallBack 003F  
             __size_of_Start_Setting_Timer 0040                            __initialization 0015  
                        ??_Scheduler_Task1 003E                          ??_Scheduler_Task2 003F  
                        ??_Scheduler_Task3 003F                               __end_of_main 0AC4  
                        ??_Scheduler_Start 003F                         i1___lldiv@quotient 0020  
                  ??_Elements_MainFunction 003A                        __end_of_On_Off_Init 08FF  
                                   ??_main 003F                          __end_of_GPIO_Init 0A44  
                     __end_of_Display_Init 0949                       _Display_MainFunction 0415  
                                   ?_myISR 0070                           ___llmod@dividend 0029  
                                   _ADRESH 001E                                     _ADRESL 009E  
                         ___awdiv@dividend 003C                                     i1l2500 0991  
                                   i1l2502 0993                                     i1l2504 0995  
                                   i1l2450 0D1A                                     i1l2506 099A  
                                   i1l3314 09E7                                     i1l2460 0D4B  
                                   i1l2452 0D23                                     i1l3316 09F7  
                                   i1l3340 0A54                                     i1l3332 0A44  
                                   i1l2630 09A4                                     i1l2462 0D54  
                                   i1l2454 0D27                                     i1l2446 0D0D  
                                   i1l2470 0DDA                                     i1l3342 0A56  
                                   i1l3334 0A48                                     i1l2632 09A9  
                                   i1l2456 0D2B                                     i1l2448 0D17  
                                   i1l2464 0D5A                                     i1l2480 0DF7  
                                   i1l2472 0DDD                                     i1l3280 0E3B  
                                   i1l3272 0E30                                     i1l3336 0A49  
                                   i1l2634 09AB                                     i1l2458 0D3D  
                                   i1l2482 0E09                                     i1l2474 0DE6  
                                   i1l2490 0E27                                     i1l3282 0E8D  
                                   i1l3274 0E3A                                     i1l3338 0A53  
                                   i1l2636 09B0                                     i1l2628 099C  
                                   i1l2484 0E17                                     i1l2476 0DEA  
                                   i1l2468 0DC8                                     i1l3284 0E93  
                                   i1l2494 0988                                     i1l2486 0E18  
                                   i1l2478 0DEE                                     i1l3286 0E97  
                                   i1l2496 0989                                     i1l2488 0E21  
                                   i1l2498 098D                                     _INTEDG 040E  
                                   u330_20 0D5A                                     u330_21 0D59  
                                   u331_20 0DDA                                     u331_21 0DD9  
                                   u332_25 0DDF                                     u325_20 0D17  
                                   u333_20 0DEE                                     u325_21 0D16  
                                   u333_21 0DED                                     u350_20 09B0  
                                   u350_21 09AF                                     u326_25 0D1C  
                                   u334_25 0DF0                                     u327_20 0D2B  
                                   u335_20 0E09                                     u327_21 0D2A  
                                   u335_21 0E08                                     u335_25 0E05  
                                   u328_20 0D3D                                     u328_21 0D3C  
                                   u328_25 0D39                                     u336_25 0E19  
                                   u337_20 0E27                                     u337_21 0E26  
                                   u329_25 0D4C                                     u338_20 098D  
                                   u338_21 098C                                     u339_20 099A  
                                   u339_21 0999                                     u348_20 09A4  
                                   u348_21 09A3                                     u349_20 09A9  
                                   u349_21 09A8                                     u493_20 0E8D  
                                   u493_21 0E8C                                     u494_20 0E9D  
                                   u494_21 0E9C                                     u497_20 0A48  
                                   u497_21 0A47                                     u498_20 0A53  
                                   u498_21 0A52                           __end_of__fptable 005A  
                         __end_of___xxtofl 0612            __size_of_Scheduler_ActivateTask 006E  
                       __size_of_Mode_Init 000C                             _Enable_Display 004C  
                            ??_Timer0_Init 003A               __end_of_EXTI_On_Off_CallBack 09B3  
     Scheduler_ActivateTask@SystemTick_Loc 0031                                     ___bmul 09B3  
                __size_of_LED_MainFunction 0042                                     ___wmul 0AC4  
                                ??___awdiv 003E                                  ??___awmod 003E  
                                ??___flmul 00B2                                  ??___fltol 00C8  
                                ??___lldiv 003A                                  ??___llmod 007C  
                                ??___lwmod 003E                                     _memset 0A68  
                     __end_of_LED_BLINKING 0BE7                           ___awdiv@quotient 00A2  
                          ___awmod@divisor 003A                            ___awmod@counter 00A0  
        Scheduler_ActivateTask@IntityIndex 0035             __size_of_ADC_Conv_MainFunction 001E  
                                   fptable 004B              __end_of_ADC_Conv_MainFunction 0A23  
                        __end_ofi1___lldiv 0E30                                     fptotal 0006  
                       __size_of__Umul8_16 0037                                  ?_ADC_Init 0070  
                                   saved_w 007E               __end_of_Read_UP_DOWN_BUTTONS 07FD  
                    ?_Display_MainFunction 0070           Scheduler_ActivateTask@SystemTick 002D  
                    __end_of_Elements_Init 0958                               ___xxtofl@arg 00A6  
                             ___xxtofl@exp 00A5                               ___xxtofl@val 003A  
                         _Temperature_Calc 06BE                    __end_of__initialization 0047  
                               ___fltol@f1 00C4                        ___bmul@multiplicand 003A  
                              _On_Off_Init 08F9                             __pcstackCOMMON 0070  
                             __pidataBANK0 08F5                              __end_of_myISR 0A68  
                      __end_of_Timer0_Init 0987                                  ?i1___bmul 0070  
                   _Scheduler_ActivateTask 0E30             Start_Setting_Timer@Peroid_Task 00A4  
                           _OPTION_REGbits 0081                          __end_of_Mode_Init 092F  
                               ??_ADC_Init 003A                      __end_of_Average_Value 06BE  
                         i1___bmul@product 0071                                    ??_myISR 0036  
                               __pbssBANK0 003F                                 __pbssBANK1 00D6  
                               __pbssBANK3 0190                            _Timer0_CallBack 09E7  
                        __end_of__Umul8_16 0B32                                 __pmaintext 0A8E  
                    __end_of_Display_Blink 0CBA                                    ?___bmul 003A  
                                  ?___wmul 003A                                 __pintentry 0004  
                                  ?_memset 003A                                 ??i1___bmul 0071  
                    __size_of_Display_Init 000D                    LED_BLINKING@Task_Peroid 00A4  
              Display_MainFunction@Digit_1 004A                Display_MainFunction@Digit_2 0049  
                                ?___xxtofl 003A                     ??_Display_MainFunction 00A8  
              Display_MainFunction@Display 0047                        _Start_Setting_Timer 0BE7  
                     _EXTI_On_Off_CallBack 099C             Display_MainFunction@Tempreture 0048  
                               __stringtab 0800                            _Scheduler_Task1 08FF  
                          _Scheduler_Task2 0918                            _Scheduler_Task3 090D  
                          _Scheduler_Start 0B32                                _Timer0_Init 0977  
                     ?_Start_Setting_Timer 00A2                      __size_of_LED_BLINKING 0040  
                             _Display_Init 093C                       _Read_UP_DOWN_BUTTONS 07D7  
                         _LED_MainFunction 0C27                            __size_of___bmul 0017  
                                  ___awdiv 074C                                    ___awmod 0E9E  
                                  ___flmul 005A                                    ___fltol 0F84  
                                  ___lldiv 0F0C                            __size_of___wmul 0037  
                                  ___llmod 0D0D                                    ___lwmod 0B6B  
                              _Temperature 004D                            __size_of_memset 0026  
           __size_of_Elements_MainFunction 0053                                    __ptext1 0977  
                                  __ptext2 0B32                                    __ptext3 09B3  
                                  __ptext4 0918                                    __ptext5 08FF  
                                  __ptext6 090D                                    __ptext7 0D63  
                                  __ptext8 0BE7                                    __ptext9 07D7  
              Start_Setting_Timer@Timer_Ms 00A2              __end_of_Elements_MainFunction 0D0D  
        ADC_Value_Ready_CallBack@ADC_Value 00D3                                 ??___xxtofl 00A0  
                         ___awmod@dividend 003C                        i1___bmul@multiplier 0072  
                    ?_EXTI_On_Off_CallBack 0070                    __end_of_Timer0_CallBack 0A05  
                                  clrloop0 0906                                  _GPIO_Init 0A23  
                     end_of_initialization 0047                    __size_of_ADC_Start_Conv 000D  
                             _LED_BLINKING 0BA7                                    memset@c 003A  
                                  memset@n 003C                                    memset@p 00A0  
                          ___lldiv@divisor 00A0                      ??_Start_Setting_Timer 00A6  
                          ___lldiv@counter 00AC                      ?_Read_UP_DOWN_BUTTONS 0070  
                 __end_of_Temperature_Calc 074C                    __size_of_Scheduler_Init 0010  
                            ___xxtofl@sign 00A4                    __end_of_Scheduler_Task1 0905  
                  __end_of_Scheduler_Task2 0923                    __end_of_Scheduler_Task3 0918  
        __size_of_ADC_Value_Ready_CallBack 000F                  ?_ADC_Value_Ready_CallBack 0070  
                  __end_of_Scheduler_Start 0B6B                                  i1___lldiv 0DC8  
                        __size_of_ADC_Init 001D                                 ?_GPIO_Init 0070  
                      LED_BLINKING@Counter 0052                                ___flmul@grs 00B9  
                Temperature_Calc@ADC_VALUE 00D2                          _Scheduler_Intitys 0806  
                      LED_BLINKING@Time_Ms 00A2                               ?_On_Off_Init 0070  
                  ?_Scheduler_ActivateTask 002D                             __end_of___bmul 09CA  
                     Display_Blink@Counter 0053                             __end_of___wmul 0AFB  
                           __end_of_memset 0A8E                          __size_ofi1___bmul 0015  
                      start_initialization 0015                     ??_EXTI_On_Off_CallBack 0070  
                    _ADC_Conv_MainFunction 0A05                          _Mode_MainFunction 0D63  
                               ?i1___lldiv 0073                           ?_Timer0_CallBack 0070  
                                _Mode_Init 0923                         ?_Mode_MainFunction 0070  
                __end_of_Scheduler_Intitys 0815                            ___llmod@divisor 0025  
                          ___llmod@counter 007D                        ??_Mode_MainFunction 003E  
                   ??_Read_UP_DOWN_BUTTONS 003A             __end_of_Scheduler_ActivateTask 0E9E  
                                 ??___bmul 003B                                   ??___wmul 003E  
                                __Umul8_16 0AFB                                __pdataBANK0 0052  
                                 ??_memset 003E                     __size_of_Elements_Init 000F  
                __end_of_Mode_MainFunction 0DC8                                  ___flmul@a 00AE  
                                ___flmul@b 00AA                                  ___latbits 0002  
                            __pcstackBANK0 0020                              __pcstackBANK1 00A0  
                         ?_Scheduler_Task1 0070                           ?_Scheduler_Task2 0070  
                         ?_Scheduler_Task3 0070                           ?_Scheduler_Start 0070  
                        __size_of__fptable 000F                          __size_of___xxtofl 00F3  
                 __end_of_LED_MainFunction 0C69                                 ?_Mode_Init 0070  
                              ??_GPIO_Init 003A                             _ADC_Start_Conv 092F  
                             ?_Timer0_Init 0070                                  __pfunctab 004B  
                   __size_of_Average_Value 00AC                                   ?___awdiv 003A  
                                 ?___awmod 003A                                   ?___flmul 00AA  
                                 ?___fltol 00C4                                   ?___lldiv 00A0  
                                 ?___llmod 0025                                 ?__Umul8_16 003A  
                                 ?___lwmod 003A                                  __pstrings 0800  
                           _Scheduler_Init 0967                     ?_ADC_Conv_MainFunction 0070  
                                 _ADC_Info 00D8                                   _ADC_Init 09CA  
                   __end_of_ADC_Start_Conv 093C              __size_of_Display_MainFunction 010A  
                              ??i1___lldiv 007B                     __size_of_Display_Blink 0051  
                           __size_of_myISR 0024  Display_MainFunction@Enable_Digit_Selector 0054  
                        interrupt_function 0004                              _Elements_Init 0949  
                           ___wmul@product 00A0                                  clear_ram0 0905  
                    i1___bmul@multiplicand 0070           __end_of_ADC_Value_Ready_CallBack 0967  
                     __size_of_On_Off_Init 0006                     __end_of_Scheduler_Init 0977  
                                 i1___bmul 0987                                 _ADCON0bits 001F  
                              __stringbase 0805                                 _ADCON1bits 009F  
                        ___wmul@multiplier 003A                          ?_Temperature_Calc 0070  
               __size_of_Mode_MainFunction 0065                      _Elements_MainFunction 0CBA  
                       ??_Temperature_Calc 00CE                            ?_ADC_Start_Conv 0070  
                            _Average_Value 0612                                ??_Mode_Init 003A  
                           ?_Elements_Init 0070                __end_of_Start_Setting_Timer 0C27  
                                 _Tick_Num 003F                              _Display_Blink 0C69  
                              ??__Umul8_16 003C                           __size_of___awdiv 008B  
                         __size_of___awmod 006E                           __size_of___flmul 03BB  
                         __size_of___fltol 007C                           __size_of___lldiv 0078  
                         __size_of___llmod 0056                           __size_of___lwmod 003C  
                          ?_Scheduler_Init 0070                         __end_of__stringtab 0806  
                                 __fptable 004B                                   ___xxtofl 051F  
                 Display_Blink@Task_Peroid 00A4                             ?_Average_Value 00AD  
                                 __ptext10 0CBA                                   __ptext11 0C27  
                                 __ptext20 0612                                   __ptext12 0BA7  
                                 __ptext21 0B6B                                   __ptext13 0A05  
                                 __ptext30 08F9                                   __ptext22 0F0C  
                                 __ptext14 0958                                   __ptext31 0923  
                                 __ptext23 0415                                   __ptext15 06BE  
                                 __ptext40 0DC8                                   __ptext32 0A23  
                                 __ptext24 0E9E                                   __ptext16 051F  
                                 __ptext41 0987                                   __ptext33 0949  
                                 __ptext25 074C                                   __ptext17 0F84  
                                 __ptext42 0D0D                                   __ptext34 093C  
                                 __ptext26 0C69                                   __ptext18 005A  
                                 __ptext43 099C                                   __ptext35 092F  
                                 __ptext27 0AC4                                   __ptext19 0AFB  
                                 __ptext36 09CA                                   __ptext28 0967  
                                 __ptext37 0A44                                   __ptext29 0A68  
                                 __ptext38 09E7                                   __ptext39 0E30  
                            __size_of_main 0036                                   _temb_val 0190  
                           ?_Display_Blink 00A2                              _Avrage_buffer 0043  
                     __size_of_Timer0_Init 0010                   _ADC_Value_Ready_CallBack 0958  
                   ?_Elements_MainFunction 0070                                 _LED_Status 004B  
                               _INTCONbits 000B                                   memset@p1 00A1  
            __size_of_EXTI_On_Off_CallBack 0017                            ??_Elements_Init 003A  
                        ?_LED_MainFunction 0070                                   intlevel1 004B  
                       ??_LED_MainFunction 003E                           ___lwmod@dividend 003C  
                         ___lldiv@dividend 00A4                 Scheduler_Start@IntityIndex 00D5  
                _Scheduler_ActivationFlags 00D9                   __size_of_Timer0_CallBack 001E  
                                stringcode 0800                              ?_Display_Init 0070  
            __size_of_Read_UP_DOWN_BUTTONS 0026                    ??_ADC_Conv_MainFunction 003F  
                   __Umul8_16@multiplicand 003A                            ??_Average_Value 00AE  
                         ___lldiv@quotient 00A8                            ___lwmod@divisor 003A  
                          ___lwmod@counter 003E                                   stringdir 0800  
                                 stringtab 0800                         Average_Value@Value 00B3  
                       Average_Value@index 00B4                              ?_LED_BLINKING 00A2  
                 __size_of_Scheduler_Task1 0006                   __size_of_Scheduler_Task2 000B  
                 __size_of_Scheduler_Task3 000B                         fp__Scheduler_Task1 0054  
                       fp__Scheduler_Task2 0057                         fp__Scheduler_Task3 0051  
                 __size_of_Scheduler_Start 0039                       __Umul8_16@multiplier 00A4  
                          ??_Display_Blink 00A6                             ??_Display_Init 003A  
             __end_of_Display_MainFunction 051F                          __Umul8_16@product 00A0  
