

Microchip MPLAB XC8 Assembler V2.20 build 20200408173844 
                                                                                               Sat Jul 18 05:36:54 2020

Microchip MPLAB XC8 C Compiler v2.20 (Free license) build 20200408173844 Og1 
     1                           	processor	16F877A
     2                           	pagewidth 120
     3                           	opt	flic
     4                           	psect	idataBANK0,global,class=CODE,delta=2,noexec
     5                           	psect	strings,global,class=STRING,delta=2,noexec
     6                           	psect	cinit,global,class=CODE,merge=1,delta=2
     7                           	psect	bssBANK0,global,class=BANK0,space=1,delta=1,noexec
     8                           	psect	dataBANK0,global,class=BANK0,space=1,delta=1,noexec
     9                           	psect	bssBANK1,global,class=BANK1,space=1,delta=1,noexec
    10                           	psect	bssBANK3,global,class=BANK3,space=1,delta=1,noexec
    11                           	psect	clrtext,global,class=CODE,delta=2
    12                           	psect	cstackBANK1,global,class=BANK1,space=1,delta=1,noexec
    13                           	psect	cstackCOMMON,global,class=COMMON,space=1,delta=1,noexec
    14                           	psect	cstackBANK0,global,class=BANK0,space=1,delta=1,noexec
    15                           	psect	maintext,global,class=CODE,split=1,delta=2
    16                           	psect	text1,local,class=CODE,merge=1,delta=2
    17                           	psect	text2,local,class=CODE,merge=1,delta=2
    18                           	psect	text3,local,class=CODE,merge=1,delta=2,group=1
    19                           	psect	text4,local,class=CODE,merge=1,delta=2
    20                           	psect	text5,local,class=CODE,merge=1,delta=2
    21                           	psect	text6,local,class=CODE,merge=1,delta=2
    22                           	psect	text7,local,class=CODE,merge=1,delta=2
    23                           	psect	text8,local,class=CODE,merge=1,delta=2
    24                           	psect	text9,local,class=CODE,merge=1,delta=2
    25                           	psect	text10,local,class=CODE,merge=1,delta=2
    26                           	psect	text11,local,class=CODE,merge=1,delta=2
    27                           	psect	text12,local,class=CODE,merge=1,delta=2
    28                           	psect	text13,local,class=CODE,merge=1,delta=2,group=1
    29                           	psect	text14,local,class=CODE,merge=1,delta=2,group=1
    30                           	psect	text15,local,class=CODE,merge=1,delta=2,group=1
    31                           	psect	text16,local,class=CODE,merge=1,delta=2,group=1
    32                           	psect	text17,local,class=CODE,merge=1,delta=2
    33                           	psect	text18,local,class=CODE,merge=1,delta=2,group=1
    34                           	psect	text19,local,class=CODE,merge=1,delta=2,group=1
    35                           	psect	text20,local,class=CODE,merge=1,delta=2
    36                           	psect	text21,local,class=CODE,merge=1,delta=2
    37                           	psect	text22,local,class=CODE,merge=1,delta=2
    38                           	psect	text23,local,class=CODE,merge=1,delta=2
    39                           	psect	text24,local,class=CODE,merge=1,delta=2
    40                           	psect	text25,local,class=CODE,merge=1,delta=2
    41                           	psect	text26,local,class=CODE,merge=1,delta=2
    42                           	psect	text27,local,class=CODE,merge=1,delta=2,group=1
    43                           	psect	text28,local,class=CODE,merge=1,delta=2
    44                           	psect	text29,local,class=CODE,merge=1,delta=2,group=1
    45                           	psect	text30,local,class=CODE,merge=1,delta=2
    46                           	psect	text31,local,class=CODE,merge=1,delta=2
    47                           	psect	text32,local,class=CODE,merge=1,delta=2,group=2
    48                           	psect	text33,local,class=CODE,merge=1,delta=2
    49                           	psect	text34,local,class=CODE,merge=1,delta=2
    50                           	psect	text35,local,class=CODE,merge=1,delta=2
    51                           	psect	text36,local,class=CODE,merge=1,delta=2
    52                           	psect	text37,local,class=CODE,merge=1,delta=2
    53                           	psect	text38,local,class=CODE,merge=1,delta=2,group=1
    54                           	psect	text39,local,class=CODE,merge=1,delta=2
    55                           	psect	text40,local,class=CODE,merge=1,delta=2
    56                           	psect	text41,local,class=CODE,merge=1,delta=2
    57                           	psect	text42,local,class=CODE,merge=1,delta=2
    58                           	psect	text43,local,class=CODE,merge=1,delta=2
    59                           	psect	text44,local,class=CODE,merge=1,delta=2
    60                           	psect	text45,local,class=CODE,merge=1,delta=2
    61                           	psect	text46,local,class=CODE,merge=1,delta=2
    62                           	psect	text47,local,class=CODE,merge=1,delta=2
    63                           	psect	text48,local,class=CODE,merge=1,delta=2
    64                           	psect	text49,local,class=CODE,merge=1,delta=2
    65                           	psect	text50,local,class=CODE,merge=1,delta=2
    66                           	psect	intentry,global,class=CODE,delta=2
    67                           	psect	text51,local,class=CODE,merge=1,delta=2
    68                           	psect	text52,local,class=CODE,merge=1,delta=2
    69                           	psect	text53,local,class=CODE,merge=1,delta=2
    70                           	psect	text54,local,class=CODE,merge=1,delta=2
    71                           	psect	text55,local,class=CODE,merge=1,delta=2,group=1
    72                           	psect	text56,local,class=CODE,merge=1,delta=2
    73                           	psect	functab,global,class=ENTRY,delta=2
    74                           	psect	config,global,abs,ovrld,class=CONFIG,space=4,delta=2,noexec
    75                           	dabs	1,0x7E,2
    76  0000                     
    77                           ; Version 2.20
    78                           ; Generated 12/02/2020 GMT
    79                           ; 
    80                           ; Copyright © 2020, Microchip Technology Inc. and its subsidiaries ("Microchip")
    81                           ; All rights reserved.
    82                           ; 
    83                           ; This software is developed by Microchip Technology Inc. and its subsidiaries ("Microch
      +                          ip").
    84                           ; 
    85                           ; Redistribution and use in source and binary forms, with or without modification, are
    86                           ; permitted provided that the following conditions are met:
    87                           ; 
    88                           ;     1. Redistributions of source code must retain the above copyright notice, this lis
      +                          t of
    89                           ;        conditions and the following disclaimer.
    90                           ; 
    91                           ;     2. Redistributions in binary form must reproduce the above copyright notice, this 
      +                          list
    92                           ;        of conditions and the following disclaimer in the documentation and/or other
    93                           ;        materials provided with the distribution.
    94                           ; 
    95                           ;     3. Microchip's name may not be used to endorse or promote products derived from th
      +                          is
    96                           ;        software without specific prior written permission.
    97                           ; 
    98                           ; THIS SOFTWARE IS PROVIDED BY MICROCHIP "AS IS" AND ANY EXPRESS OR IMPLIED WARRANTIES,
    99                           ; INCLUDING, BUT NOT LIMITED TO, THE IMPLIED WARRANTIES OF MERCHANTABILITY AND FITNESS F
      +                          OR
   100                           ; PURPOSE ARE DISCLAIMED.  IN NO EVENT SHALL MICROCHIP BE LIABLE FOR ANY DIRECT, INDIREC
      +                          T,
   101                           ; INCIDENTAL, SPECIAL, EXEMPLARY, OR CONSEQUENTIAL DAMAGES (INCLUDING BUT NOT LIMITED TO
   102                           ; PROCUREMENT OF SUBSTITUTE GOODS OR SERVICES; LOSS OF USE, DATA OR PROFITS; OR BUSINESS
   103                           ; INTERRUPTION) HOWSOEVER CAUSED AND ON ANY THEORY OF LIABILITY, WHETHER IN CONTRACT, ST
      +                          RICT
   104                           ; LIABILITY, OR TORT (INCLUDING NEGLIGENCE OR OTHERWISE) ARISING IN ANY WAY OUT OF THE U
      +                          SE OF
   105                           ; THIS SOFTWARE, EVEN IF ADVISED OF THE POSSIBILITY OF SUCH DAMAGE.
   106                           ; 
   107                           ; 
   108                           ; Code-generator required, PIC16F877A Definitions
   109                           ; 
   110                           ; SFR Addresses
   111  0000                     	;# 
   112  0001                     	;# 
   113  0002                     	;# 
   114  0003                     	;# 
   115  0004                     	;# 
   116  0005                     	;# 
   117  0006                     	;# 
   118  0007                     	;# 
   119  0008                     	;# 
   120  0009                     	;# 
   121  000A                     	;# 
   122  000B                     	;# 
   123  000C                     	;# 
   124  000D                     	;# 
   125  000E                     	;# 
   126  000E                     	;# 
   127  000F                     	;# 
   128  0010                     	;# 
   129  0011                     	;# 
   130  0012                     	;# 
   131  0013                     	;# 
   132  0014                     	;# 
   133  0015                     	;# 
   134  0015                     	;# 
   135  0016                     	;# 
   136  0017                     	;# 
   137  0018                     	;# 
   138  0019                     	;# 
   139  001A                     	;# 
   140  001B                     	;# 
   141  001B                     	;# 
   142  001C                     	;# 
   143  001D                     	;# 
   144  001E                     	;# 
   145  001F                     	;# 
   146  0081                     	;# 
   147  0085                     	;# 
   148  0086                     	;# 
   149  0087                     	;# 
   150  0088                     	;# 
   151  0089                     	;# 
   152  008C                     	;# 
   153  008D                     	;# 
   154  008E                     	;# 
   155  0091                     	;# 
   156  0092                     	;# 
   157  0093                     	;# 
   158  0094                     	;# 
   159  0098                     	;# 
   160  0099                     	;# 
   161  009C                     	;# 
   162  009D                     	;# 
   163  009E                     	;# 
   164  009F                     	;# 
   165  010C                     	;# 
   166  010D                     	;# 
   167  010E                     	;# 
   168  010F                     	;# 
   169  018C                     	;# 
   170  018D                     	;# 
   171  0000                     	;# 
   172  0001                     	;# 
   173  0002                     	;# 
   174  0003                     	;# 
   175  0004                     	;# 
   176  0005                     	;# 
   177  0006                     	;# 
   178  0007                     	;# 
   179  0008                     	;# 
   180  0009                     	;# 
   181  000A                     	;# 
   182  000B                     	;# 
   183  000C                     	;# 
   184  000D                     	;# 
   185  000E                     	;# 
   186  000E                     	;# 
   187  000F                     	;# 
   188  0010                     	;# 
   189  0011                     	;# 
   190  0012                     	;# 
   191  0013                     	;# 
   192  0014                     	;# 
   193  0015                     	;# 
   194  0015                     	;# 
   195  0016                     	;# 
   196  0017                     	;# 
   197  0018                     	;# 
   198  0019                     	;# 
   199  001A                     	;# 
   200  001B                     	;# 
   201  001B                     	;# 
   202  001C                     	;# 
   203  001D                     	;# 
   204  001E                     	;# 
   205  001F                     	;# 
   206  0081                     	;# 
   207  0085                     	;# 
   208  0086                     	;# 
   209  0087                     	;# 
   210  0088                     	;# 
   211  0089                     	;# 
   212  008C                     	;# 
   213  008D                     	;# 
   214  008E                     	;# 
   215  0091                     	;# 
   216  0092                     	;# 
   217  0093                     	;# 
   218  0094                     	;# 
   219  0098                     	;# 
   220  0099                     	;# 
   221  009C                     	;# 
   222  009D                     	;# 
   223  009E                     	;# 
   224  009F                     	;# 
   225  010C                     	;# 
   226  010D                     	;# 
   227  010E                     	;# 
   228  010F                     	;# 
   229  018C                     	;# 
   230  018D                     	;# 
   231  0000                     	;# 
   232  0001                     	;# 
   233  0002                     	;# 
   234  0003                     	;# 
   235  0004                     	;# 
   236  0005                     	;# 
   237  0006                     	;# 
   238  0007                     	;# 
   239  0008                     	;# 
   240  0009                     	;# 
   241  000A                     	;# 
   242  000B                     	;# 
   243  000C                     	;# 
   244  000D                     	;# 
   245  000E                     	;# 
   246  000E                     	;# 
   247  000F                     	;# 
   248  0010                     	;# 
   249  0011                     	;# 
   250  0012                     	;# 
   251  0013                     	;# 
   252  0014                     	;# 
   253  0015                     	;# 
   254  0015                     	;# 
   255  0016                     	;# 
   256  0017                     	;# 
   257  0018                     	;# 
   258  0019                     	;# 
   259  001A                     	;# 
   260  001B                     	;# 
   261  001B                     	;# 
   262  001C                     	;# 
   263  001D                     	;# 
   264  001E                     	;# 
   265  001F                     	;# 
   266  0081                     	;# 
   267  0085                     	;# 
   268  0086                     	;# 
   269  0087                     	;# 
   270  0088                     	;# 
   271  0089                     	;# 
   272  008C                     	;# 
   273  008D                     	;# 
   274  008E                     	;# 
   275  0091                     	;# 
   276  0092                     	;# 
   277  0093                     	;# 
   278  0094                     	;# 
   279  0098                     	;# 
   280  0099                     	;# 
   281  009C                     	;# 
   282  009D                     	;# 
   283  009E                     	;# 
   284  009F                     	;# 
   285  010C                     	;# 
   286  010D                     	;# 
   287  010E                     	;# 
   288  010F                     	;# 
   289  018C                     	;# 
   290  018D                     	;# 
   291  0000                     	;# 
   292  0001                     	;# 
   293  0002                     	;# 
   294  0003                     	;# 
   295  0004                     	;# 
   296  0005                     	;# 
   297  0006                     	;# 
   298  0007                     	;# 
   299  0008                     	;# 
   300  0009                     	;# 
   301  000A                     	;# 
   302  000B                     	;# 
   303  000C                     	;# 
   304  000D                     	;# 
   305  000E                     	;# 
   306  000E                     	;# 
   307  000F                     	;# 
   308  0010                     	;# 
   309  0011                     	;# 
   310  0012                     	;# 
   311  0013                     	;# 
   312  0014                     	;# 
   313  0015                     	;# 
   314  0015                     	;# 
   315  0016                     	;# 
   316  0017                     	;# 
   317  0018                     	;# 
   318  0019                     	;# 
   319  001A                     	;# 
   320  001B                     	;# 
   321  001B                     	;# 
   322  001C                     	;# 
   323  001D                     	;# 
   324  001E                     	;# 
   325  001F                     	;# 
   326  0081                     	;# 
   327  0085                     	;# 
   328  0086                     	;# 
   329  0087                     	;# 
   330  0088                     	;# 
   331  0089                     	;# 
   332  008C                     	;# 
   333  008D                     	;# 
   334  008E                     	;# 
   335  0091                     	;# 
   336  0092                     	;# 
   337  0093                     	;# 
   338  0094                     	;# 
   339  0098                     	;# 
   340  0099                     	;# 
   341  009C                     	;# 
   342  009D                     	;# 
   343  009E                     	;# 
   344  009F                     	;# 
   345  010C                     	;# 
   346  010D                     	;# 
   347  010E                     	;# 
   348  010F                     	;# 
   349  018C                     	;# 
   350  018D                     	;# 
   351  0000                     	;# 
   352  0001                     	;# 
   353  0002                     	;# 
   354  0003                     	;# 
   355  0004                     	;# 
   356  0005                     	;# 
   357  0006                     	;# 
   358  0007                     	;# 
   359  0008                     	;# 
   360  0009                     	;# 
   361  000A                     	;# 
   362  000B                     	;# 
   363  000C                     	;# 
   364  000D                     	;# 
   365  000E                     	;# 
   366  000E                     	;# 
   367  000F                     	;# 
   368  0010                     	;# 
   369  0011                     	;# 
   370  0012                     	;# 
   371  0013                     	;# 
   372  0014                     	;# 
   373  0015                     	;# 
   374  0015                     	;# 
   375  0016                     	;# 
   376  0017                     	;# 
   377  0018                     	;# 
   378  0019                     	;# 
   379  001A                     	;# 
   380  001B                     	;# 
   381  001B                     	;# 
   382  001C                     	;# 
   383  001D                     	;# 
   384  001E                     	;# 
   385  001F                     	;# 
   386  0081                     	;# 
   387  0085                     	;# 
   388  0086                     	;# 
   389  0087                     	;# 
   390  0088                     	;# 
   391  0089                     	;# 
   392  008C                     	;# 
   393  008D                     	;# 
   394  008E                     	;# 
   395  0091                     	;# 
   396  0092                     	;# 
   397  0093                     	;# 
   398  0094                     	;# 
   399  0098                     	;# 
   400  0099                     	;# 
   401  009C                     	;# 
   402  009D                     	;# 
   403  009E                     	;# 
   404  009F                     	;# 
   405  010C                     	;# 
   406  010D                     	;# 
   407  010E                     	;# 
   408  010F                     	;# 
   409  018C                     	;# 
   410  018D                     	;# 
   411  0000                     	;# 
   412  0001                     	;# 
   413  0002                     	;# 
   414  0003                     	;# 
   415  0004                     	;# 
   416  0005                     	;# 
   417  0006                     	;# 
   418  0007                     	;# 
   419  0008                     	;# 
   420  0009                     	;# 
   421  000A                     	;# 
   422  000B                     	;# 
   423  000C                     	;# 
   424  000D                     	;# 
   425  000E                     	;# 
   426  000E                     	;# 
   427  000F                     	;# 
   428  0010                     	;# 
   429  0011                     	;# 
   430  0012                     	;# 
   431  0013                     	;# 
   432  0014                     	;# 
   433  0015                     	;# 
   434  0015                     	;# 
   435  0016                     	;# 
   436  0017                     	;# 
   437  0018                     	;# 
   438  0019                     	;# 
   439  001A                     	;# 
   440  001B                     	;# 
   441  001B                     	;# 
   442  001C                     	;# 
   443  001D                     	;# 
   444  001E                     	;# 
   445  001F                     	;# 
   446  0081                     	;# 
   447  0085                     	;# 
   448  0086                     	;# 
   449  0087                     	;# 
   450  0088                     	;# 
   451  0089                     	;# 
   452  008C                     	;# 
   453  008D                     	;# 
   454  008E                     	;# 
   455  0091                     	;# 
   456  0092                     	;# 
   457  0093                     	;# 
   458  0094                     	;# 
   459  0098                     	;# 
   460  0099                     	;# 
   461  009C                     	;# 
   462  009D                     	;# 
   463  009E                     	;# 
   464  009F                     	;# 
   465  010C                     	;# 
   466  010D                     	;# 
   467  010E                     	;# 
   468  010F                     	;# 
   469  018C                     	;# 
   470  018D                     	;# 
   471  0000                     	;# 
   472  0001                     	;# 
   473  0002                     	;# 
   474  0003                     	;# 
   475  0004                     	;# 
   476  0005                     	;# 
   477  0006                     	;# 
   478  0007                     	;# 
   479  0008                     	;# 
   480  0009                     	;# 
   481  000A                     	;# 
   482  000B                     	;# 
   483  000C                     	;# 
   484  000D                     	;# 
   485  000E                     	;# 
   486  000E                     	;# 
   487  000F                     	;# 
   488  0010                     	;# 
   489  0011                     	;# 
   490  0012                     	;# 
   491  0013                     	;# 
   492  0014                     	;# 
   493  0015                     	;# 
   494  0015                     	;# 
   495  0016                     	;# 
   496  0017                     	;# 
   497  0018                     	;# 
   498  0019                     	;# 
   499  001A                     	;# 
   500  001B                     	;# 
   501  001B                     	;# 
   502  001C                     	;# 
   503  001D                     	;# 
   504  001E                     	;# 
   505  001F                     	;# 
   506  0081                     	;# 
   507  0085                     	;# 
   508  0086                     	;# 
   509  0087                     	;# 
   510  0088                     	;# 
   511  0089                     	;# 
   512  008C                     	;# 
   513  008D                     	;# 
   514  008E                     	;# 
   515  0091                     	;# 
   516  0092                     	;# 
   517  0093                     	;# 
   518  0094                     	;# 
   519  0098                     	;# 
   520  0099                     	;# 
   521  009C                     	;# 
   522  009D                     	;# 
   523  009E                     	;# 
   524  009F                     	;# 
   525  010C                     	;# 
   526  010D                     	;# 
   527  010E                     	;# 
   528  010F                     	;# 
   529  018C                     	;# 
   530  018D                     	;# 
   531  0000                     	;# 
   532  0001                     	;# 
   533  0002                     	;# 
   534  0003                     	;# 
   535  0004                     	;# 
   536  0005                     	;# 
   537  0006                     	;# 
   538  0007                     	;# 
   539  0008                     	;# 
   540  0009                     	;# 
   541  000A                     	;# 
   542  000B                     	;# 
   543  000C                     	;# 
   544  000D                     	;# 
   545  000E                     	;# 
   546  000E                     	;# 
   547  000F                     	;# 
   548  0010                     	;# 
   549  0011                     	;# 
   550  0012                     	;# 
   551  0013                     	;# 
   552  0014                     	;# 
   553  0015                     	;# 
   554  0015                     	;# 
   555  0016                     	;# 
   556  0017                     	;# 
   557  0018                     	;# 
   558  0019                     	;# 
   559  001A                     	;# 
   560  001B                     	;# 
   561  001B                     	;# 
   562  001C                     	;# 
   563  001D                     	;# 
   564  001E                     	;# 
   565  001F                     	;# 
   566  0081                     	;# 
   567  0085                     	;# 
   568  0086                     	;# 
   569  0087                     	;# 
   570  0088                     	;# 
   571  0089                     	;# 
   572  008C                     	;# 
   573  008D                     	;# 
   574  008E                     	;# 
   575  0091                     	;# 
   576  0092                     	;# 
   577  0093                     	;# 
   578  0094                     	;# 
   579  0098                     	;# 
   580  0099                     	;# 
   581  009C                     	;# 
   582  009D                     	;# 
   583  009E                     	;# 
   584  009F                     	;# 
   585  010C                     	;# 
   586  010D                     	;# 
   587  010E                     	;# 
   588  010F                     	;# 
   589  018C                     	;# 
   590  018D                     	;# 
   591  0000                     	;# 
   592  0001                     	;# 
   593  0002                     	;# 
   594  0003                     	;# 
   595  0004                     	;# 
   596  0005                     	;# 
   597  0006                     	;# 
   598  0007                     	;# 
   599  0008                     	;# 
   600  0009                     	;# 
   601  000A                     	;# 
   602  000B                     	;# 
   603  000C                     	;# 
   604  000D                     	;# 
   605  000E                     	;# 
   606  000E                     	;# 
   607  000F                     	;# 
   608  0010                     	;# 
   609  0011                     	;# 
   610  0012                     	;# 
   611  0013                     	;# 
   612  0014                     	;# 
   613  0015                     	;# 
   614  0015                     	;# 
   615  0016                     	;# 
   616  0017                     	;# 
   617  0018                     	;# 
   618  0019                     	;# 
   619  001A                     	;# 
   620  001B                     	;# 
   621  001B                     	;# 
   622  001C                     	;# 
   623  001D                     	;# 
   624  001E                     	;# 
   625  001F                     	;# 
   626  0081                     	;# 
   627  0085                     	;# 
   628  0086                     	;# 
   629  0087                     	;# 
   630  0088                     	;# 
   631  0089                     	;# 
   632  008C                     	;# 
   633  008D                     	;# 
   634  008E                     	;# 
   635  0091                     	;# 
   636  0092                     	;# 
   637  0093                     	;# 
   638  0094                     	;# 
   639  0098                     	;# 
   640  0099                     	;# 
   641  009C                     	;# 
   642  009D                     	;# 
   643  009E                     	;# 
   644  009F                     	;# 
   645  010C                     	;# 
   646  010D                     	;# 
   647  010E                     	;# 
   648  010F                     	;# 
   649  018C                     	;# 
   650  018D                     	;# 
   651  0000                     	;# 
   652  0001                     	;# 
   653  0002                     	;# 
   654  0003                     	;# 
   655  0004                     	;# 
   656  0005                     	;# 
   657  0006                     	;# 
   658  0007                     	;# 
   659  0008                     	;# 
   660  0009                     	;# 
   661  000A                     	;# 
   662  000B                     	;# 
   663  000C                     	;# 
   664  000D                     	;# 
   665  000E                     	;# 
   666  000E                     	;# 
   667  000F                     	;# 
   668  0010                     	;# 
   669  0011                     	;# 
   670  0012                     	;# 
   671  0013                     	;# 
   672  0014                     	;# 
   673  0015                     	;# 
   674  0015                     	;# 
   675  0016                     	;# 
   676  0017                     	;# 
   677  0018                     	;# 
   678  0019                     	;# 
   679  001A                     	;# 
   680  001B                     	;# 
   681  001B                     	;# 
   682  001C                     	;# 
   683  001D                     	;# 
   684  001E                     	;# 
   685  001F                     	;# 
   686  0081                     	;# 
   687  0085                     	;# 
   688  0086                     	;# 
   689  0087                     	;# 
   690  0088                     	;# 
   691  0089                     	;# 
   692  008C                     	;# 
   693  008D                     	;# 
   694  008E                     	;# 
   695  0091                     	;# 
   696  0092                     	;# 
   697  0093                     	;# 
   698  0094                     	;# 
   699  0098                     	;# 
   700  0099                     	;# 
   701  009C                     	;# 
   702  009D                     	;# 
   703  009E                     	;# 
   704  009F                     	;# 
   705  010C                     	;# 
   706  010D                     	;# 
   707  010E                     	;# 
   708  010F                     	;# 
   709  018C                     	;# 
   710  018D                     	;# 
   711  0000                     	;# 
   712  0001                     	;# 
   713  0002                     	;# 
   714  0003                     	;# 
   715  0004                     	;# 
   716  0005                     	;# 
   717  0006                     	;# 
   718  0007                     	;# 
   719  0008                     	;# 
   720  0009                     	;# 
   721  000A                     	;# 
   722  000B                     	;# 
   723  000C                     	;# 
   724  000D                     	;# 
   725  000E                     	;# 
   726  000E                     	;# 
   727  000F                     	;# 
   728  0010                     	;# 
   729  0011                     	;# 
   730  0012                     	;# 
   731  0013                     	;# 
   732  0014                     	;# 
   733  0015                     	;# 
   734  0015                     	;# 
   735  0016                     	;# 
   736  0017                     	;# 
   737  0018                     	;# 
   738  0019                     	;# 
   739  001A                     	;# 
   740  001B                     	;# 
   741  001B                     	;# 
   742  001C                     	;# 
   743  001D                     	;# 
   744  001E                     	;# 
   745  001F                     	;# 
   746  0081                     	;# 
   747  0085                     	;# 
   748  0086                     	;# 
   749  0087                     	;# 
   750  0088                     	;# 
   751  0089                     	;# 
   752  008C                     	;# 
   753  008D                     	;# 
   754  008E                     	;# 
   755  0091                     	;# 
   756  0092                     	;# 
   757  0093                     	;# 
   758  0094                     	;# 
   759  0098                     	;# 
   760  0099                     	;# 
   761  009C                     	;# 
   762  009D                     	;# 
   763  009E                     	;# 
   764  009F                     	;# 
   765  010C                     	;# 
   766  010D                     	;# 
   767  010E                     	;# 
   768  010F                     	;# 
   769  018C                     	;# 
   770  018D                     	;# 
   771  0000                     	;# 
   772  0001                     	;# 
   773  0002                     	;# 
   774  0003                     	;# 
   775  0004                     	;# 
   776  0005                     	;# 
   777  0006                     	;# 
   778  0007                     	;# 
   779  0008                     	;# 
   780  0009                     	;# 
   781  000A                     	;# 
   782  000B                     	;# 
   783  000C                     	;# 
   784  000D                     	;# 
   785  000E                     	;# 
   786  000E                     	;# 
   787  000F                     	;# 
   788  0010                     	;# 
   789  0011                     	;# 
   790  0012                     	;# 
   791  0013                     	;# 
   792  0014                     	;# 
   793  0015                     	;# 
   794  0015                     	;# 
   795  0016                     	;# 
   796  0017                     	;# 
   797  0018                     	;# 
   798  0019                     	;# 
   799  001A                     	;# 
   800  001B                     	;# 
   801  001B                     	;# 
   802  001C                     	;# 
   803  001D                     	;# 
   804  001E                     	;# 
   805  001F                     	;# 
   806  0081                     	;# 
   807  0085                     	;# 
   808  0086                     	;# 
   809  0087                     	;# 
   810  0088                     	;# 
   811  0089                     	;# 
   812  008C                     	;# 
   813  008D                     	;# 
   814  008E                     	;# 
   815  0091                     	;# 
   816  0092                     	;# 
   817  0093                     	;# 
   818  0094                     	;# 
   819  0098                     	;# 
   820  0099                     	;# 
   821  009C                     	;# 
   822  009D                     	;# 
   823  009E                     	;# 
   824  009F                     	;# 
   825  010C                     	;# 
   826  010D                     	;# 
   827  010E                     	;# 
   828  010F                     	;# 
   829  018C                     	;# 
   830  018D                     	;# 
   831  0000                     	;# 
   832  0001                     	;# 
   833  0002                     	;# 
   834  0003                     	;# 
   835  0004                     	;# 
   836  0005                     	;# 
   837  0006                     	;# 
   838  0007                     	;# 
   839  0008                     	;# 
   840  0009                     	;# 
   841  000A                     	;# 
   842  000B                     	;# 
   843  000C                     	;# 
   844  000D                     	;# 
   845  000E                     	;# 
   846  000E                     	;# 
   847  000F                     	;# 
   848  0010                     	;# 
   849  0011                     	;# 
   850  0012                     	;# 
   851  0013                     	;# 
   852  0014                     	;# 
   853  0015                     	;# 
   854  0015                     	;# 
   855  0016                     	;# 
   856  0017                     	;# 
   857  0018                     	;# 
   858  0019                     	;# 
   859  001A                     	;# 
   860  001B                     	;# 
   861  001B                     	;# 
   862  001C                     	;# 
   863  001D                     	;# 
   864  001E                     	;# 
   865  001F                     	;# 
   866  0081                     	;# 
   867  0085                     	;# 
   868  0086                     	;# 
   869  0087                     	;# 
   870  0088                     	;# 
   871  0089                     	;# 
   872  008C                     	;# 
   873  008D                     	;# 
   874  008E                     	;# 
   875  0091                     	;# 
   876  0092                     	;# 
   877  0093                     	;# 
   878  0094                     	;# 
   879  0098                     	;# 
   880  0099                     	;# 
   881  009C                     	;# 
   882  009D                     	;# 
   883  009E                     	;# 
   884  009F                     	;# 
   885  010C                     	;# 
   886  010D                     	;# 
   887  010E                     	;# 
   888  010F                     	;# 
   889  018C                     	;# 
   890  018D                     	;# 
   891  0000                     	;# 
   892  0001                     	;# 
   893  0002                     	;# 
   894  0003                     	;# 
   895  0004                     	;# 
   896  0005                     	;# 
   897  0006                     	;# 
   898  0007                     	;# 
   899  0008                     	;# 
   900  0009                     	;# 
   901  000A                     	;# 
   902  000B                     	;# 
   903  000C                     	;# 
   904  000D                     	;# 
   905  000E                     	;# 
   906  000E                     	;# 
   907  000F                     	;# 
   908  0010                     	;# 
   909  0011                     	;# 
   910  0012                     	;# 
   911  0013                     	;# 
   912  0014                     	;# 
   913  0015                     	;# 
   914  0015                     	;# 
   915  0016                     	;# 
   916  0017                     	;# 
   917  0018                     	;# 
   918  0019                     	;# 
   919  001A                     	;# 
   920  001B                     	;# 
   921  001B                     	;# 
   922  001C                     	;# 
   923  001D                     	;# 
   924  001E                     	;# 
   925  001F                     	;# 
   926  0081                     	;# 
   927  0085                     	;# 
   928  0086                     	;# 
   929  0087                     	;# 
   930  0088                     	;# 
   931  0089                     	;# 
   932  008C                     	;# 
   933  008D                     	;# 
   934  008E                     	;# 
   935  0091                     	;# 
   936  0092                     	;# 
   937  0093                     	;# 
   938  0094                     	;# 
   939  0098                     	;# 
   940  0099                     	;# 
   941  009C                     	;# 
   942  009D                     	;# 
   943  009E                     	;# 
   944  009F                     	;# 
   945  010C                     	;# 
   946  010D                     	;# 
   947  010E                     	;# 
   948  010F                     	;# 
   949  018C                     	;# 
   950  018D                     	;# 
   951  0000                     	;# 
   952  0001                     	;# 
   953  0002                     	;# 
   954  0003                     	;# 
   955  0004                     	;# 
   956  0005                     	;# 
   957  0006                     	;# 
   958  0007                     	;# 
   959  0008                     	;# 
   960  0009                     	;# 
   961  000A                     	;# 
   962  000B                     	;# 
   963  000C                     	;# 
   964  000D                     	;# 
   965  000E                     	;# 
   966  000E                     	;# 
   967  000F                     	;# 
   968  0010                     	;# 
   969  0011                     	;# 
   970  0012                     	;# 
   971  0013                     	;# 
   972  0014                     	;# 
   973  0015                     	;# 
   974  0015                     	;# 
   975  0016                     	;# 
   976  0017                     	;# 
   977  0018                     	;# 
   978  0019                     	;# 
   979  001A                     	;# 
   980  001B                     	;# 
   981  001B                     	;# 
   982  001C                     	;# 
   983  001D                     	;# 
   984  001E                     	;# 
   985  001F                     	;# 
   986  0081                     	;# 
   987  0085                     	;# 
   988  0086                     	;# 
   989  0087                     	;# 
   990  0088                     	;# 
   991  0089                     	;# 
   992  008C                     	;# 
   993  008D                     	;# 
   994  008E                     	;# 
   995  0091                     	;# 
   996  0092                     	;# 
   997  0093                     	;# 
   998  0094                     	;# 
   999  0098                     	;# 
  1000  0099                     	;# 
  1001  009C                     	;# 
  1002  009D                     	;# 
  1003  009E                     	;# 
  1004  009F                     	;# 
  1005  010C                     	;# 
  1006  010D                     	;# 
  1007  010E                     	;# 
  1008  010F                     	;# 
  1009  018C                     	;# 
  1010  018D                     	;# 
  1011  0000                     	;# 
  1012  0001                     	;# 
  1013  0002                     	;# 
  1014  0003                     	;# 
  1015  0004                     	;# 
  1016  0005                     	;# 
  1017  0006                     	;# 
  1018  0007                     	;# 
  1019  0008                     	;# 
  1020  0009                     	;# 
  1021  000A                     	;# 
  1022  000B                     	;# 
  1023  000C                     	;# 
  1024  000D                     	;# 
  1025  000E                     	;# 
  1026  000E                     	;# 
  1027  000F                     	;# 
  1028  0010                     	;# 
  1029  0011                     	;# 
  1030  0012                     	;# 
  1031  0013                     	;# 
  1032  0014                     	;# 
  1033  0015                     	;# 
  1034  0015                     	;# 
  1035  0016                     	;# 
  1036  0017                     	;# 
  1037  0018                     	;# 
  1038  0019                     	;# 
  1039  001A                     	;# 
  1040  001B                     	;# 
  1041  001B                     	;# 
  1042  001C                     	;# 
  1043  001D                     	;# 
  1044  001E                     	;# 
  1045  001F                     	;# 
  1046  0081                     	;# 
  1047  0085                     	;# 
  1048  0086                     	;# 
  1049  0087                     	;# 
  1050  0088                     	;# 
  1051  0089                     	;# 
  1052  008C                     	;# 
  1053  008D                     	;# 
  1054  008E                     	;# 
  1055  0091                     	;# 
  1056  0092                     	;# 
  1057  0093                     	;# 
  1058  0094                     	;# 
  1059  0098                     	;# 
  1060  0099                     	;# 
  1061  009C                     	;# 
  1062  009D                     	;# 
  1063  009E                     	;# 
  1064  009F                     	;# 
  1065  010C                     	;# 
  1066  010D                     	;# 
  1067  010E                     	;# 
  1068  010F                     	;# 
  1069  018C                     	;# 
  1070  018D                     	;# 
  1071                           
  1072                           	psect	idataBANK0
  1073  17E0                     __pidataBANK0:
  1074                           
  1075                           ;initializer for SSD_SelectDigit@Enable_Digit_Selector
  1076  17E0  3401               	retlw	1
  1077                           
  1078                           ;initializer for _Counter
  1079  17E1  3401               	retlw	1
  1080                           
  1081                           ;initializer for _Average_Nvalues
  1082  17E2  340A               	retlw	10
  1083                           
  1084                           ;initializer for LED_BLINKING@Counter
  1085  17E3  3401               	retlw	1
  1086                           
  1087                           	psect	strings
  1088  0800                     __pstrings:
  1089  0800                     stringtab:
  1090  0800                     __stringtab:
  1091  0800                     stringcode:	
  1092                           ;	String table - string pointers are 1 byte each
  1093                           
  1094  0800                     stringdir:
  1095  0800  3008               	movlw	high stringdir
  1096  0801  008A               	movwf	10
  1097  0802  0804               	movf	4,w
  1098  0803  0A84               	incf	4,f
  1099  0804  0782               	addwf	2,f
  1100  0805                     __stringbase:
  1101  0805  3400               	retlw	0
  1102  0806                     __end_of__stringtab:
  1103  0806                     _Scheduler_Intitys:
  1104  0806  3406               	retlw	low (fp__Scheduler_Task1-fpbase)
  1105  0807  3414               	retlw	20
  1106  0808  3400               	retlw	0
  1107  0809  3400               	retlw	0
  1108  080A  3400               	retlw	0
  1109  080B  3409               	retlw	low (fp__Scheduler_Task2-fpbase)
  1110  080C  3464               	retlw	100
  1111  080D  3400               	retlw	0
  1112  080E  3400               	retlw	0
  1113  080F  3400               	retlw	0
  1114  0810  3403               	retlw	low (fp__Scheduler_Task3-fpbase)
  1115  0811  34F4               	retlw	244
  1116  0812  3401               	retlw	1
  1117  0813  3400               	retlw	0
  1118  0814  3400               	retlw	0
  1119  0815                     __end_of_Scheduler_Intitys:
  1120  0815                     _Interrupt_CallBack:
  1121  0815  3401               	retlw	low (fp__EXTI_On_Off_CallBack-i1fpbase)
  1122  0816  3404               	retlw	low (fp__Timer0_CallBack-i1fpbase)
  1123  0817                     __end_of_Interrupt_CallBack:
  1124  0008                     _PORTD	set	8
  1125  0005                     _PORTA	set	5
  1126  0013                     _SSPBUF	set	19
  1127  0001                     _TMR0	set	1
  1128  0007                     _PORTC	set	7
  1129  0006                     _PORTB	set	6
  1130  000B                     _INTCONbits	set	11
  1131  001F                     _ADCON0bits	set	31
  1132  0063                     _SSPIF	set	99
  1133  00A5                     _SSPEN	set	165
  1134  00A3                     _SSPM3	set	163
  1135  00A2                     _SSPM2	set	162
  1136  00A1                     _SSPM1	set	161
  1137  00A0                     _SSPM0	set	160
  1138  0093                     _SSPADD	set	147
  1139  0081                     _OPTION_REGbits	set	129
  1140  0088                     _TRISD	set	136
  1141  0085                     _TRISA	set	133
  1142  0086                     _TRISB	set	134
  1143  0087                     _TRISC	set	135
  1144  009E                     _ADRESL	set	158
  1145  009F                     _ADCON1bits	set	159
  1146  048A                     _PEN	set	1162
  1147  048C                     _ACKEN	set	1164
  1148  048D                     _ACKDT	set	1165
  1149  04A0                     _BF	set	1184
  1150  048B                     _RCEN	set	1163
  1151  0488                     _SEN	set	1160
  1152  040E                     _INTEDG	set	1038
  1153                           
  1154                           	psect	cinit
  1155  0015                     start_initialization:	
  1156                           ; #config settings
  1157                           
  1158  0015                     __initialization:
  1159                           
  1160                           ; Initialize objects allocated to BANK0
  1161  0015  160A  118A  27E0  120A  118A  	fcall	__pidataBANK0	;fetch initializer
  1162  001A  00D6               	movwf	__pdataBANK0& (0+127)
  1163  001B  160A  118A  27E1  120A  118A  	fcall	__pidataBANK0+1	;fetch initializer
  1164  0020  00D7               	movwf	(__pdataBANK0+1)& (0+127)
  1165  0021  160A  118A  27E2  120A  118A  	fcall	__pidataBANK0+2	;fetch initializer
  1166  0026  00D8               	movwf	(__pdataBANK0+2)& (0+127)
  1167  0027  160A  118A  27E3  120A  118A  	fcall	__pidataBANK0+3	;fetch initializer
  1168  002C  00D9               	movwf	(__pdataBANK0+3)& (0+127)
  1169                           
  1170                           ; Clear objects allocated to BANK3
  1171  002D  1783               	bsf	3,7	;select IRP bank2
  1172  002E  3090               	movlw	low __pbssBANK3
  1173  002F  0084               	movwf	4
  1174  0030  30B8               	movlw	low (__pbssBANK3+40)
  1175  0031  160A  118A  27F8  120A  118A  	fcall	clear_ram0
  1176                           
  1177                           ; Clear objects allocated to BANK1
  1178  0036  1383               	bcf	3,7	;select IRP bank0
  1179  0037  30CD               	movlw	low __pbssBANK1
  1180  0038  0084               	movwf	4
  1181  0039  30DE               	movlw	low (__pbssBANK1+17)
  1182  003A  160A  118A  27F8  120A  118A  	fcall	clear_ram0
  1183                           
  1184                           ; Clear objects allocated to BANK0
  1185  003F  3042               	movlw	low __pbssBANK0
  1186  0040  0084               	movwf	4
  1187  0041  3056               	movlw	low (__pbssBANK0+20)
  1188  0042  160A  118A  27F8  120A  118A  	fcall	clear_ram0
  1189  0047                     end_of_initialization:	
  1190                           ;End of C runtime variable initialization code
  1191                           
  1192  0047                     __end_of__initialization:
  1193  0047  0183               	clrf	3
  1194  0048  120A  158A  2C0D   	ljmp	_main	;jump to C main() function
  1195                           
  1196                           	psect	bssBANK0
  1197  0042                     __pbssBANK0:
  1198  0042                     SSD_SelectDigit@Digit_2:
  1199  0042                     	ds	1
  1200  0043                     SSD_SelectDigit@Digit_1:
  1201  0043                     	ds	1
  1202  0044                     _Tempreture:
  1203  0044                     	ds	1
  1204  0045                     _SSD:
  1205  0045                     	ds	1
  1206  0046                     EEPROM_Read@Data:
  1207  0046                     	ds	1
  1208  0047                     _EEPROM_Data:
  1209  0047                     	ds	1
  1210  0048                     Debouncer@Counter_Down:
  1211  0048                     	ds	1
  1212  0049                     Debouncer@Counter_Up:
  1213  0049                     	ds	1
  1214  004A                     _Buttons:
  1215  004A                     	ds	1
  1216  004B                     _LED_Status:
  1217  004B                     	ds	1
  1218  004C                     _Enable_SSD:
  1219  004C                     	ds	1
  1220  004D                     _ADC_Info:
  1221  004D                     	ds	1
  1222  004E                     _Temperature:
  1223  004E                     	ds	6
  1224  0054                     _Mode:
  1225  0054                     	ds	2
  1226                           
  1227                           	psect	dataBANK0
  1228  0056                     __pdataBANK0:
  1229  0056                     SSD_SelectDigit@Enable_Digit_Selector:
  1230  0056                     	ds	1
  1231  0057                     _Counter:
  1232  0057                     	ds	1
  1233  0058                     _Average_Nvalues:
  1234  0058                     	ds	1
  1235  0059                     LED_BLINKING@Counter:
  1236  0059                     	ds	1
  1237                           
  1238                           	psect	bssBANK1
  1239  00CD                     __pbssBANK1:
  1240  00CD                     _Tick_Num:
  1241  00CD                     	ds	4
  1242  00D1                     _Avrage_buffer:
  1243  00D1                     	ds	4
  1244  00D5                     Debouncer@Depounce_Down:
  1245  00D5                     	ds	3
  1246  00D8                     Debouncer@Depounce_Up:
  1247  00D8                     	ds	3
  1248  00DB                     _Scheduler_ActivationFlags:
  1249  00DB                     	ds	3
  1250                           
  1251                           	psect	bssBANK3
  1252  0190                     __pbssBANK3:
  1253  0190                     _temb_val:
  1254  0190                     	ds	40
  1255                           
  1256                           	psect	clrtext
  1257  17F8                     clear_ram0:	
  1258                           ;	Called with FSR containing the base address, and
  1259                           ;	W with the last address+1
  1260                           
  1261  17F8  0064               	clrwdt	;clear the watchdog before getting into this loop
  1262  17F9                     clrloop0:
  1263  17F9  0180               	clrf	0	;clear RAM location pointed to by FSR
  1264  17FA  0A84               	incf	4,f	;increment pointer
  1265  17FB  0604               	xorwf	4,w	;XOR with final address
  1266  17FC  1903               	btfsc	3,2	;have we reached the end yet?
  1267  17FD  3400               	retlw	0	;all done for this memory range, return
  1268  17FE  0604               	xorwf	4,w	;XOR again to restore value
  1269  17FF  2FF9               	goto	clrloop0	;do the next byte
  1270                           
  1271                           	psect	cstackBANK1
  1272  00A0                     __pcstackBANK1:
  1273  00A0                     ??_Elements_MainFunction:
  1274  00A0                     ___xxtofl@sign:	
  1275                           ; 1 bytes @ 0x0
  1276                           
  1277  00A0                     ___lldiv@quotient:	
  1278                           ; 1 bytes @ 0x0
  1279                           
  1280                           
  1281                           ; 4 bytes @ 0x0
  1282  00A0                     	ds	1
  1283  00A1                     ___xxtofl@exp:
  1284                           
  1285                           ; 1 bytes @ 0x1
  1286  00A1                     	ds	1
  1287  00A2                     ___xxtofl@arg:
  1288                           
  1289                           ; 4 bytes @ 0x2
  1290  00A2                     	ds	2
  1291  00A4                     ___lldiv@counter:
  1292                           
  1293                           ; 1 bytes @ 0x4
  1294  00A4                     	ds	1
  1295  00A5                     ??_Average_Value:
  1296                           
  1297                           ; 1 bytes @ 0x5
  1298  00A5                     	ds	1
  1299  00A6                     ?___flmul:
  1300  00A6                     ___flmul@b:	
  1301                           ; 4 bytes @ 0x6
  1302                           
  1303                           
  1304                           ; 4 bytes @ 0x6
  1305  00A6                     	ds	4
  1306  00AA                     ___flmul@a:
  1307                           
  1308                           ; 4 bytes @ 0xA
  1309  00AA                     	ds	4
  1310  00AE                     ??___flmul:
  1311                           
  1312                           ; 1 bytes @ 0xE
  1313  00AE                     	ds	5
  1314  00B3                     ___flmul@sign:
  1315                           
  1316                           ; 1 bytes @ 0x13
  1317  00B3                     	ds	1
  1318  00B4                     ___flmul@aexp:
  1319                           
  1320                           ; 1 bytes @ 0x14
  1321  00B4                     	ds	1
  1322  00B5                     ___flmul@grs:
  1323                           
  1324                           ; 4 bytes @ 0x15
  1325  00B5                     	ds	4
  1326  00B9                     ___flmul@bexp:
  1327                           
  1328                           ; 1 bytes @ 0x19
  1329  00B9                     	ds	1
  1330  00BA                     ___flmul@prod:
  1331                           
  1332                           ; 4 bytes @ 0x1A
  1333  00BA                     	ds	4
  1334  00BE                     ___flmul@temp:
  1335                           
  1336                           ; 2 bytes @ 0x1E
  1337  00BE                     	ds	2
  1338  00C0                     ?___fltol:
  1339  00C0                     ___fltol@f1:	
  1340                           ; 4 bytes @ 0x20
  1341                           
  1342                           
  1343                           ; 4 bytes @ 0x20
  1344  00C0                     	ds	4
  1345  00C4                     ??___fltol:
  1346                           
  1347                           ; 1 bytes @ 0x24
  1348  00C4                     	ds	4
  1349  00C8                     ??_Temperature_Calc:
  1350                           
  1351                           ; 1 bytes @ 0x28
  1352  00C8                     	ds	4
  1353  00CC                     Scheduler_Start@IntityIndex:
  1354                           
  1355                           ; 1 bytes @ 0x2C
  1356  00CC                     	ds	1
  1357                           
  1358                           	psect	cstackCOMMON
  1359  0070                     __pcstackCOMMON:
  1360  0070                     ?_EXTI_On_Off_CallBack:
  1361  0070                     ??_EXTI_On_Off_CallBack:	
  1362                           ; 1 bytes @ 0x0
  1363                           
  1364  0070                     ?_Timer0_CallBack:	
  1365                           ; 1 bytes @ 0x0
  1366                           
  1367  0070                     ?_GPIO_Init:	
  1368                           ; 1 bytes @ 0x0
  1369                           
  1370  0070                     ?_I2c_Init:	
  1371                           ; 1 bytes @ 0x0
  1372                           
  1373  0070                     ?_On_Off_Init:	
  1374                           ; 1 bytes @ 0x0
  1375                           
  1376  0070                     ?_SSD_Init:	
  1377                           ; 1 bytes @ 0x0
  1378                           
  1379  0070                     ?_Elements_Init:	
  1380                           ; 1 bytes @ 0x0
  1381                           
  1382  0070                     ?_ModeManager_Init:	
  1383                           ; 1 bytes @ 0x0
  1384                           
  1385  0070                     ?_Get_EEPROM_Data:	
  1386                           ; 1 bytes @ 0x0
  1387                           
  1388  0070                     ?_Scheduler_Init:	
  1389                           ; 1 bytes @ 0x0
  1390                           
  1391  0070                     ?_Timer0_Init:	
  1392                           ; 1 bytes @ 0x0
  1393                           
  1394  0070                     ?_Scheduler_Start:	
  1395                           ; 1 bytes @ 0x0
  1396                           
  1397  0070                     ?_Scheduler_Task1:	
  1398                           ; 1 bytes @ 0x0
  1399                           
  1400  0070                     ?_Scheduler_Task2:	
  1401                           ; 1 bytes @ 0x0
  1402                           
  1403  0070                     ?_Scheduler_Task3:	
  1404                           ; 1 bytes @ 0x0
  1405                           
  1406  0070                     ?_SSD_MainFunction:	
  1407                           ; 1 bytes @ 0x0
  1408                           
  1409  0070                     ?_Temperature_MainFunction:	
  1410                           ; 1 bytes @ 0x0
  1411                           
  1412  0070                     ?_ModeManager_MainFunction:	
  1413                           ; 1 bytes @ 0x0
  1414                           
  1415  0070                     ?_Set_EEPROM_Data:	
  1416                           ; 1 bytes @ 0x0
  1417                           
  1418  0070                     ?_Temperature_Calc:	
  1419                           ; 1 bytes @ 0x0
  1420                           
  1421  0070                     ?_EEPROM_Read:	
  1422                           ; 1 bytes @ 0x0
  1423                           
  1424  0070                     ?_SSD_SelectDisplay:	
  1425                           ; 1 bytes @ 0x0
  1426                           
  1427  0070                     ?_SSD_SelectDigit:	
  1428                           ; 1 bytes @ 0x0
  1429                           
  1430  0070                     ?_ADC_Init:	
  1431                           ; 1 bytes @ 0x0
  1432                           
  1433  0070                     ?_ADC_Start_Conv:	
  1434                           ; 1 bytes @ 0x0
  1435                           
  1436  0070                     ?_ADC_Get_Value:	
  1437                           ; 1 bytes @ 0x0
  1438                           
  1439  0070                     ?_main:	
  1440                           ; 1 bytes @ 0x0
  1441                           
  1442  0070                     ?_Debouncer:	
  1443                           ; 1 bytes @ 0x0
  1444                           
  1445  0070                     ?_LED_Control:	
  1446                           ; 1 bytes @ 0x0
  1447                           
  1448  0070                     ?_Elements_MainFunction:	
  1449                           ; 1 bytes @ 0x0
  1450                           
  1451  0070                     ?_myISR:	
  1452                           ; 1 bytes @ 0x0
  1453                           
  1454  0070                     ?_I2c_Start:	
  1455                           ; 1 bytes @ 0x0
  1456                           
  1457  0070                     ?_I2c_Read:	
  1458                           ; 1 bytes @ 0x0
  1459                           
  1460  0070                     ?_I2c_Send_NAck:	
  1461                           ; 1 bytes @ 0x0
  1462                           
  1463  0070                     ?_I2c_Stop:	
  1464                           ; 1 bytes @ 0x0
  1465                           
  1466  0070                     ?_I2c_Write:	
  1467                           ; 1 bytes @ 0x0
  1468                           
  1469  0070                     ?_I2c_WaitAck:	
  1470                           ; 1 bytes @ 0x0
  1471                           
  1472  0070                     ?i1___bmul:	
  1473                           ; 1 bytes @ 0x0
  1474                           
  1475  0070                     i1___bmul@multiplicand:	
  1476                           ; 1 bytes @ 0x0
  1477                           
  1478                           
  1479                           ; 1 bytes @ 0x0
  1480  0070                     	ds	1
  1481  0071                     ??i1___bmul:
  1482  0071                     i1___bmul@product:	
  1483                           ; 1 bytes @ 0x1
  1484                           
  1485                           
  1486                           ; 1 bytes @ 0x1
  1487  0071                     	ds	1
  1488  0072                     i1___bmul@multiplier:
  1489                           
  1490                           ; 1 bytes @ 0x2
  1491  0072                     	ds	1
  1492  0073                     ?i1___lldiv:
  1493  0073                     i1___lldiv@divisor:	
  1494                           ; 4 bytes @ 0x3
  1495                           
  1496                           
  1497                           ; 4 bytes @ 0x3
  1498  0073                     	ds	4
  1499  0077                     i1___lldiv@dividend:
  1500                           
  1501                           ; 4 bytes @ 0x7
  1502  0077                     	ds	4
  1503  007B                     ??i1___lldiv:
  1504                           
  1505                           ; 1 bytes @ 0xB
  1506  007B                     	ds	1
  1507  007C                     ??___llmod:
  1508                           
  1509                           ; 1 bytes @ 0xC
  1510  007C                     	ds	1
  1511  007D                     ___llmod@counter:
  1512                           
  1513                           ; 1 bytes @ 0xD
  1514  007D                     	ds	1
  1515  007E                     ??_Timer0_CallBack:
  1516  007E                     ??_Scheduler_ActivateTask:	
  1517                           ; 1 bytes @ 0xE
  1518                           
  1519                           
  1520                           	psect	cstackBANK0
  1521  0020                     __pcstackBANK0:	
  1522                           ; 1 bytes @ 0xE
  1523                           
  1524  0020                     i1___lldiv@quotient:
  1525                           
  1526                           ; 4 bytes @ 0x0
  1527  0020                     	ds	4
  1528  0024                     i1___lldiv@counter:
  1529                           
  1530                           ; 1 bytes @ 0x4
  1531  0024                     	ds	1
  1532  0025                     ?___llmod:
  1533  0025                     ___llmod@divisor:	
  1534                           ; 4 bytes @ 0x5
  1535                           
  1536                           
  1537                           ; 4 bytes @ 0x5
  1538  0025                     	ds	4
  1539  0029                     ___llmod@dividend:
  1540                           
  1541                           ; 4 bytes @ 0x9
  1542  0029                     	ds	4
  1543  002D                     ?_Scheduler_ActivateTask:
  1544  002D                     Scheduler_ActivateTask@SystemTick:	
  1545                           ; 1 bytes @ 0xD
  1546                           
  1547                           
  1548                           ; 4 bytes @ 0xD
  1549  002D                     	ds	4
  1550  0031                     Scheduler_ActivateTask@IntityIndex:
  1551                           
  1552                           ; 1 bytes @ 0x11
  1553  0031                     	ds	1
  1554  0032                     ??_myISR:
  1555                           
  1556                           ; 1 bytes @ 0x12
  1557  0032                     	ds	4
  1558  0036                     ??_GPIO_Init:
  1559  0036                     ??_I2c_Init:	
  1560                           ; 1 bytes @ 0x16
  1561                           
  1562  0036                     ??_On_Off_Init:	
  1563                           ; 1 bytes @ 0x16
  1564                           
  1565  0036                     ??_SSD_Init:	
  1566                           ; 1 bytes @ 0x16
  1567                           
  1568  0036                     ??_Elements_Init:	
  1569                           ; 1 bytes @ 0x16
  1570                           
  1571  0036                     ??_ModeManager_Init:	
  1572                           ; 1 bytes @ 0x16
  1573                           
  1574  0036                     ??_Timer0_Init:	
  1575                           ; 1 bytes @ 0x16
  1576                           
  1577  0036                     ?_memset:	
  1578                           ; 1 bytes @ 0x16
  1579                           
  1580  0036                     ??_ADC_Init:	
  1581                           ; 1 bytes @ 0x16
  1582                           
  1583  0036                     ??_ADC_Start_Conv:	
  1584                           ; 1 bytes @ 0x16
  1585                           
  1586  0036                     ??_ADC_Get_Value:	
  1587                           ; 1 bytes @ 0x16
  1588                           
  1589  0036                     ??_Debouncer:	
  1590                           ; 1 bytes @ 0x16
  1591                           
  1592  0036                     ??_I2c_Start:	
  1593                           ; 1 bytes @ 0x16
  1594                           
  1595  0036                     ??_I2c_Read:	
  1596                           ; 1 bytes @ 0x16
  1597                           
  1598  0036                     ??_I2c_Send_NAck:	
  1599                           ; 1 bytes @ 0x16
  1600                           
  1601  0036                     ??_I2c_Stop:	
  1602                           ; 1 bytes @ 0x16
  1603                           
  1604  0036                     ??_I2c_Write:	
  1605                           ; 1 bytes @ 0x16
  1606                           
  1607  0036                     ??_I2c_WaitAck:	
  1608                           ; 1 bytes @ 0x16
  1609                           
  1610  0036                     ?___bmul:	
  1611                           ; 1 bytes @ 0x16
  1612                           
  1613  0036                     ?__Umul8_16:	
  1614                           ; 1 bytes @ 0x16
  1615                           
  1616  0036                     ?___wmul:	
  1617                           ; 2 bytes @ 0x16
  1618                           
  1619  0036                     ?___awdiv:	
  1620                           ; 2 bytes @ 0x16
  1621                           
  1622  0036                     ?___awmod:	
  1623                           ; 2 bytes @ 0x16
  1624                           
  1625  0036                     ?___lwmod:	
  1626                           ; 2 bytes @ 0x16
  1627                           
  1628  0036                     ?___lldiv:	
  1629                           ; 2 bytes @ 0x16
  1630                           
  1631  0036                     ?___xxtofl:	
  1632                           ; 4 bytes @ 0x16
  1633                           
  1634  0036                     ADC_Get_Value@Buffer:	
  1635                           ; 4 bytes @ 0x16
  1636                           
  1637  0036                     I2c_Read@data:	
  1638                           ; 1 bytes @ 0x16
  1639                           
  1640  0036                     I2c_Write@data:	
  1641                           ; 1 bytes @ 0x16
  1642                           
  1643  0036                     ___bmul@multiplicand:	
  1644                           ; 1 bytes @ 0x16
  1645                           
  1646  0036                     __Umul8_16@multiplicand:	
  1647                           ; 1 bytes @ 0x16
  1648                           
  1649  0036                     ___wmul@multiplier:	
  1650                           ; 1 bytes @ 0x16
  1651                           
  1652  0036                     ___awdiv@divisor:	
  1653                           ; 2 bytes @ 0x16
  1654                           
  1655  0036                     ___awmod@divisor:	
  1656                           ; 2 bytes @ 0x16
  1657                           
  1658  0036                     ___lwmod@divisor:	
  1659                           ; 2 bytes @ 0x16
  1660                           
  1661  0036                     memset@c:	
  1662                           ; 2 bytes @ 0x16
  1663                           
  1664  0036                     ___lldiv@divisor:	
  1665                           ; 2 bytes @ 0x16
  1666                           
  1667  0036                     ___xxtofl@val:	
  1668                           ; 4 bytes @ 0x16
  1669                           
  1670                           
  1671                           ; 4 bytes @ 0x16
  1672  0036                     	ds	1
  1673  0037                     ??_EEPROM_Read:
  1674  0037                     ?_EEPROM_Write:	
  1675                           ; 1 bytes @ 0x17
  1676                           
  1677  0037                     ??___bmul:	
  1678                           ; 1 bytes @ 0x17
  1679                           
  1680  0037                     EEPROM_Write@Addr:	
  1681                           ; 1 bytes @ 0x17
  1682                           
  1683  0037                     EEPROM_Read@Addr:	
  1684                           ; 1 bytes @ 0x17
  1685                           
  1686  0037                     ___bmul@product:	
  1687                           ; 1 bytes @ 0x17
  1688                           
  1689                           
  1690                           ; 1 bytes @ 0x17
  1691  0037                     	ds	1
  1692  0038                     ??_EEPROM_Write:
  1693  0038                     ??__Umul8_16:	
  1694                           ; 1 bytes @ 0x18
  1695                           
  1696  0038                     EEPROM_Write@Data:	
  1697                           ; 1 bytes @ 0x18
  1698                           
  1699  0038                     ___bmul@multiplier:	
  1700                           ; 1 bytes @ 0x18
  1701                           
  1702  0038                     ___wmul@multiplicand:	
  1703                           ; 1 bytes @ 0x18
  1704                           
  1705  0038                     ___awdiv@dividend:	
  1706                           ; 2 bytes @ 0x18
  1707                           
  1708  0038                     ___awmod@dividend:	
  1709                           ; 2 bytes @ 0x18
  1710                           
  1711  0038                     ___lwmod@dividend:	
  1712                           ; 2 bytes @ 0x18
  1713                           
  1714  0038                     memset@n:	
  1715                           ; 2 bytes @ 0x18
  1716                           
  1717                           
  1718                           ; 2 bytes @ 0x18
  1719  0038                     	ds	1
  1720  0039                     ??_Set_EEPROM_Data:
  1721                           
  1722                           ; 1 bytes @ 0x19
  1723  0039                     	ds	1
  1724  003A                     ??_memset:
  1725  003A                     ??___wmul:	
  1726                           ; 1 bytes @ 0x1A
  1727                           
  1728  003A                     ??___awdiv:	
  1729                           ; 1 bytes @ 0x1A
  1730                           
  1731  003A                     ??___awmod:	
  1732                           ; 1 bytes @ 0x1A
  1733                           
  1734  003A                     ??___lwmod:	
  1735                           ; 1 bytes @ 0x1A
  1736                           
  1737  003A                     ??___xxtofl:	
  1738                           ; 1 bytes @ 0x1A
  1739                           
  1740  003A                     ___awdiv@counter:	
  1741                           ; 1 bytes @ 0x1A
  1742                           
  1743  003A                     ___awmod@counter:	
  1744                           ; 1 bytes @ 0x1A
  1745                           
  1746  003A                     ___lwmod@counter:	
  1747                           ; 1 bytes @ 0x1A
  1748                           
  1749  003A                     memset@p:	
  1750                           ; 1 bytes @ 0x1A
  1751                           
  1752  003A                     ___wmul@product:	
  1753                           ; 1 bytes @ 0x1A
  1754                           
  1755  003A                     __Umul8_16@product:	
  1756                           ; 2 bytes @ 0x1A
  1757                           
  1758  003A                     ___lldiv@dividend:	
  1759                           ; 2 bytes @ 0x1A
  1760                           
  1761                           
  1762                           ; 4 bytes @ 0x1A
  1763  003A                     	ds	1
  1764  003B                     ___awdiv@sign:
  1765  003B                     ___awmod@sign:	
  1766                           ; 1 bytes @ 0x1B
  1767                           
  1768  003B                     memset@p1:	
  1769                           ; 1 bytes @ 0x1B
  1770                           
  1771                           
  1772                           ; 1 bytes @ 0x1B
  1773  003B                     	ds	1
  1774  003C                     ??_Get_EEPROM_Data:
  1775  003C                     ??_Scheduler_Init:	
  1776                           ; 1 bytes @ 0x1C
  1777                           
  1778  003C                     ?_Mode_Setting_Timer:	
  1779                           ; 1 bytes @ 0x1C
  1780                           
  1781  003C                     ?_LED_BLINKING:	
  1782                           ; 1 bytes @ 0x1C
  1783                           
  1784  003C                     ?_SSD_Blink:	
  1785                           ; 1 bytes @ 0x1C
  1786                           
  1787  003C                     LED_BLINKING@Time_Ms:	
  1788                           ; 1 bytes @ 0x1C
  1789                           
  1790  003C                     Mode_Setting_Timer@Timer_Ms:	
  1791                           ; 2 bytes @ 0x1C
  1792                           
  1793  003C                     SSD_Blink@Times_Ms:	
  1794                           ; 2 bytes @ 0x1C
  1795                           
  1796  003C                     ___awdiv@quotient:	
  1797                           ; 2 bytes @ 0x1C
  1798                           
  1799  003C                     __Umul8_16@word_mpld:	
  1800                           ; 2 bytes @ 0x1C
  1801                           
  1802                           
  1803                           ; 2 bytes @ 0x1C
  1804  003C                     	ds	2
  1805  003E                     ??_Mode_Setting_Timer:
  1806  003E                     ??_SSD_SelectDigit:	
  1807                           ; 1 bytes @ 0x1E
  1808                           
  1809  003E                     ??_LED_BLINKING:	
  1810                           ; 1 bytes @ 0x1E
  1811                           
  1812  003E                     ??_SSD_Blink:	
  1813                           ; 1 bytes @ 0x1E
  1814                           
  1815  003E                     ??___lldiv:	
  1816                           ; 1 bytes @ 0x1E
  1817                           
  1818  003E                     __Umul8_16@multiplier:	
  1819                           ; 1 bytes @ 0x1E
  1820                           
  1821                           
  1822                           ; 1 bytes @ 0x1E
  1823  003E                     	ds	1
  1824  003F                     ?_Average_Value:
  1825  003F                     Average_Value@Avrage_Values:	
  1826                           ; 1 bytes @ 0x1F
  1827                           
  1828  003F                     ___fltol@sign1:	
  1829                           ; 1 bytes @ 0x1F
  1830                           
  1831                           
  1832                           ; 1 bytes @ 0x1F
  1833  003F                     	ds	1
  1834  0040                     ??_Scheduler_Task3:
  1835  0040                     ??_SSD_MainFunction:	
  1836                           ; 1 bytes @ 0x20
  1837                           
  1838  0040                     ??_ModeManager_MainFunction:	
  1839                           ; 1 bytes @ 0x20
  1840                           
  1841  0040                     ??_SSD_SelectDisplay:	
  1842                           ; 1 bytes @ 0x20
  1843                           
  1844  0040                     ??_LED_Control:	
  1845                           ; 1 bytes @ 0x20
  1846                           
  1847  0040                     Average_Value@Value:	
  1848                           ; 1 bytes @ 0x20
  1849                           
  1850  0040                     ___fltol@exp1:	
  1851                           ; 1 bytes @ 0x20
  1852                           
  1853                           
  1854                           ; 1 bytes @ 0x20
  1855  0040                     	ds	1
  1856  0041                     Average_Value@index:
  1857                           
  1858                           ; 1 bytes @ 0x21
  1859  0041                     	ds	1
  1860  0042                     ??_Scheduler_Start:
  1861  0042                     ??_Scheduler_Task1:	
  1862                           ; 1 bytes @ 0x22
  1863                           
  1864  0042                     ??_Scheduler_Task2:	
  1865                           ; 1 bytes @ 0x22
  1866                           
  1867  0042                     ??_Temperature_MainFunction:	
  1868                           ; 1 bytes @ 0x22
  1869                           
  1870  0042                     ??_main:	
  1871                           ; 1 bytes @ 0x22
  1872                           
  1873                           
  1874                           	psect	maintext
  1875  0C0D                     __pmaintext:	
  1876                           ; 1 bytes @ 0x22
  1877 ;;
  1878 ;;Main: autosize = 0, tempsize = 0, incstack = 0, save=0
  1879 ;;
  1880 ;; *************** function _main *****************
  1881 ;; Defined at:
  1882 ;;		line 30 in file "main.c"
  1883 ;; Parameters:    Size  Location     Type
  1884 ;;		None
  1885 ;; Auto vars:     Size  Location     Type
  1886 ;;		None
  1887 ;; Return value:  Size  Location     Type
  1888 ;;                  1    wreg      void 
  1889 ;; Registers used:
  1890 ;;		wreg, fsr0l, fsr0h, status,2, status,0, btemp+1, pclath, cstack
  1891 ;; Tracked objects:
  1892 ;;		On entry : B00/0
  1893 ;;		On exit  : 0/0
  1894 ;;		Unchanged: 0/0
  1895 ;; Data sizes:     COMMON   BANK0   BANK1   BANK3   BANK2
  1896 ;;      Params:         0       0       0       0       0
  1897 ;;      Locals:         0       0       0       0       0
  1898 ;;      Temps:          0       0       0       0       0
  1899 ;;      Totals:         0       0       0       0       0
  1900 ;;Total ram usage:        0 bytes
  1901 ;; Hardware stack levels required when called:   10
  1902 ;; This function calls:
  1903 ;;		_ADC_Init
  1904 ;;		_ADC_Start_Conv
  1905 ;;		_Elements_Init
  1906 ;;		_GPIO_Init
  1907 ;;		_Get_EEPROM_Data
  1908 ;;		_I2c_Init
  1909 ;;		_ModeManager_Init
  1910 ;;		_On_Off_Init
  1911 ;;		_SSD_Init
  1912 ;;		_Scheduler_Init
  1913 ;;		_Scheduler_Start
  1914 ;;		_Timer0_Init
  1915 ;; This function is called by:
  1916 ;;		Startup code after reset
  1917 ;; This function uses a non-reentrant model
  1918 ;;
  1919                           
  1920                           
  1921                           ;psect for function _main
  1922  0C0D                     _main:
  1923  0C0D                     l3953:	
  1924                           ;incstack = 0
  1925 ;; hardware stack exceeded
  1926                           ; Regs used in _main: [wreg-fsr0h+status,2+status,0+btemp+1+pclath+cstack]
  1927                           
  1928                           
  1929                           ;main.c: 32:   GPIO_Init();
  1930  0C0D  120A  158A  2156  120A  158A  	fcall	_GPIO_Init
  1931  0C12                     l3955:
  1932                           
  1933                           ;main.c: 33:   I2c_Init();
  1934  0C12  120A  158A  206E  120A  158A  	fcall	_I2c_Init
  1935  0C17                     l3957:
  1936                           
  1937                           ;main.c: 34:   ADC_Init();
  1938  0C17  120A  158A  213B  120A  158A  	fcall	_ADC_Init
  1939  0C1C                     l3959:
  1940                           
  1941                           ;main.c: 35:   On_Off_Init();
  1942  0C1C  160A  118A  27EA  120A  158A  	fcall	_On_Off_Init
  1943  0C21                     l3961:
  1944                           
  1945                           ;main.c: 36:   SSD_Init();
  1946  0C21  120A  158A  207A  120A  158A  	fcall	_SSD_Init
  1947  0C26                     l3963:
  1948                           
  1949                           ;main.c: 37:   Elements_Init();
  1950  0C26  120A  158A  2062  120A  158A  	fcall	_Elements_Init
  1951  0C2B                     l3965:
  1952                           
  1953                           ;main.c: 38:   ModeManager_Init();
  1954  0C2B  160A  118A  27DC  120A  158A  	fcall	_ModeManager_Init
  1955  0C30                     l3967:
  1956                           
  1957                           ;main.c: 39:   Get_EEPROM_Data();
  1958  0C30  120A  158A  2324  120A  158A  	fcall	_Get_EEPROM_Data
  1959  0C35                     l3969:
  1960                           
  1961                           ;main.c: 40:   ADC_Start_Conv();
  1962  0C35  120A  158A  2019  120A  158A  	fcall	_ADC_Start_Conv
  1963  0C3A                     l3971:
  1964                           
  1965                           ;main.c: 41:   Scheduler_Init();
  1966  0C3A  120A  158A  2095  120A  158A  	fcall	_Scheduler_Init
  1967  0C3F                     l3973:
  1968                           
  1969                           ;main.c: 42:   Timer0_Init();
  1970  0C3F  120A  158A  20A5  120A  158A  	fcall	_Timer0_Init
  1971                           
  1972                           ;main.c: 43:   Scheduler_Start();
  1973  0C44  120A  158A  235D  120A  158A  	fcall	_Scheduler_Start
  1974  0C49                     l68:
  1975  0C49  120A  118A  2812   	ljmp	start
  1976  0C4C                     __end_of_main:
  1977                           
  1978                           	psect	text1
  1979  08A5                     __ptext1:	
  1980 ;; *************** function _Timer0_Init *****************
  1981 ;; Defined at:
  1982 ;;		line 22 in file "Timer/Timer.c"
  1983 ;; Parameters:    Size  Location     Type
  1984 ;;		None
  1985 ;; Auto vars:     Size  Location     Type
  1986 ;;		None
  1987 ;; Return value:  Size  Location     Type
  1988 ;;                  1    wreg      void 
  1989 ;; Registers used:
  1990 ;;		wreg
  1991 ;; Tracked objects:
  1992 ;;		On entry : 0/0
  1993 ;;		On exit  : 0/0
  1994 ;;		Unchanged: 0/0
  1995 ;; Data sizes:     COMMON   BANK0   BANK1   BANK3   BANK2
  1996 ;;      Params:         0       0       0       0       0
  1997 ;;      Locals:         0       0       0       0       0
  1998 ;;      Temps:          0       0       0       0       0
  1999 ;;      Totals:         0       0       0       0       0
  2000 ;;Total ram usage:        0 bytes
  2001 ;; Hardware stack levels used:    1
  2002 ;; Hardware stack levels required when called:    4
  2003 ;; This function calls:
  2004 ;;		Nothing
  2005 ;; This function is called by:
  2006 ;;		_main
  2007 ;; This function uses a non-reentrant model
  2008 ;;
  2009                           
  2010                           
  2011                           ;psect for function _Timer0_Init
  2012  08A5                     _Timer0_Init:
  2013  08A5                     l3053:	
  2014                           ;incstack = 0
  2015                           ; Regs used in _Timer0_Init: [wreg]
  2016                           
  2017                           
  2018                           ;Timer/Timer.c: 25:      OPTION_REGbits.T0CS=0;
  2019  08A5  1683               	bsf	3,5	;RP0=1, select bank1
  2020  08A6  1303               	bcf	3,6	;RP1=0, select bank1
  2021  08A7  1281               	bcf	1,5	;volatile
  2022                           
  2023                           ;Timer/Timer.c: 26:      OPTION_REGbits.PSA=0;
  2024  08A8  1181               	bcf	1,3	;volatile
  2025                           
  2026                           ;Timer/Timer.c: 29:      OPTION_REGbits.PS0=1;
  2027  08A9  1401               	bsf	1,0	;volatile
  2028                           
  2029                           ;Timer/Timer.c: 30:      OPTION_REGbits.PS1=1;
  2030  08AA  1481               	bsf	1,1	;volatile
  2031                           
  2032                           ;Timer/Timer.c: 31:      OPTION_REGbits.PS2=1;
  2033  08AB  1501               	bsf	1,2	;volatile
  2034                           
  2035                           ;Timer/Timer.c: 34:         INTCONbits.TMR0IE=1;
  2036  08AC  168B               	bsf	11,5	;volatile
  2037                           
  2038                           ;Timer/Timer.c: 35:         INTCONbits.PEIE=1;
  2039  08AD  170B               	bsf	11,6	;volatile
  2040                           
  2041                           ;Timer/Timer.c: 36:         INTCONbits.GIE=1;
  2042  08AE  178B               	bsf	11,7	;volatile
  2043  08AF                     l3055:
  2044                           
  2045                           ;Timer/Timer.c: 38:      TMR0=100;
  2046  08AF  3064               	movlw	100
  2047  08B0  1283               	bcf	3,5	;RP0=0, select bank0
  2048  08B1  1303               	bcf	3,6	;RP1=0, select bank0
  2049  08B2  0081               	movwf	1	;volatile
  2050  08B3                     l3057:
  2051                           
  2052                           ;Timer/Timer.c: 39:         INTCONbits.TMR0IF=0;
  2053  08B3  110B               	bcf	11,2	;volatile
  2054  08B4                     l353:
  2055  08B4  0008               	return
  2056  08B5                     __end_of_Timer0_Init:
  2057                           
  2058                           	psect	text2
  2059  0B5D                     __ptext2:	
  2060 ;; *************** function _Scheduler_Start *****************
  2061 ;; Defined at:
  2062 ;;		line 13 in file "Scheduler/Scheduler.c"
  2063 ;; Parameters:    Size  Location     Type
  2064 ;;		None
  2065 ;; Auto vars:     Size  Location     Type
  2066 ;;  IntityIndex     1   44[BANK1 ] unsigned char 
  2067 ;; Return value:  Size  Location     Type
  2068 ;;                  1    wreg      void 
  2069 ;; Registers used:
  2070 ;;		wreg, fsr0l, fsr0h, status,2, status,0, btemp+1, pclath, cstack
  2071 ;; Tracked objects:
  2072 ;;		On entry : 0/0
  2073 ;;		On exit  : 0/0
  2074 ;;		Unchanged: 0/0
  2075 ;; Data sizes:     COMMON   BANK0   BANK1   BANK3   BANK2
  2076 ;;      Params:         0       0       0       0       0
  2077 ;;      Locals:         0       0       1       0       0
  2078 ;;      Temps:          0       0       0       0       0
  2079 ;;      Totals:         0       0       1       0       0
  2080 ;;Total ram usage:        1 bytes
  2081 ;; Hardware stack levels used:    1
  2082 ;; Hardware stack levels required when called:    9
  2083 ;; This function calls:
  2084 ;;		_Scheduler_Task1
  2085 ;;		_Scheduler_Task2
  2086 ;;		_Scheduler_Task3
  2087 ;;		___bmul
  2088 ;; This function is called by:
  2089 ;;		_main
  2090 ;; This function uses a non-reentrant model
  2091 ;;
  2092                           
  2093                           
  2094                           ;psect for function _Scheduler_Start
  2095  0B5D                     _Scheduler_Start:
  2096  0B5D                     l262:	
  2097                           ;incstack = 0
  2098 ;; hardware stack exceeded
  2099                           ; Regs used in _Scheduler_Start: [wreg-fsr0h+status,2+status,0+btemp+1+pclath+cstack]
  2100                           ;Scheduler/Scheduler.c: 15:   while(1)
  2101                           
  2102  0B5D                     l3933:
  2103                           
  2104                           ;Scheduler/Scheduler.c: 16:   {;Scheduler/Scheduler.c: 17:  for( uint8_t IntityIndex = 0
      +                           ; IntityIndex < ( 3U ) ; IntityIndex++ )
  2105  0B5D  1683               	bsf	3,5	;RP0=1, select bank1
  2106  0B5E  1303               	bcf	3,6	;RP1=0, select bank1
  2107  0B5F  01CC               	clrf	Scheduler_Start@IntityIndex^(0+128)
  2108  0B60                     l3939:
  2109                           
  2110                           ;Scheduler/Scheduler.c: 18:  {;Scheduler/Scheduler.c: 19:   if( Scheduler_ActivationFlag
      +                          s[IntityIndex] == 1 )
  2111  0B60  084C               	movf	Scheduler_Start@IntityIndex^(0+128),w
  2112  0B61  3EDB               	addlw	(low (_Scheduler_ActivationFlags| 0))& (0+255)
  2113  0B62  0084               	movwf	4
  2114  0B63  1383               	bcf	3,7	;select IRP bank1
  2115  0B64  0300               	decf	0,w
  2116  0B65  1D03               	btfss	3,2
  2117  0B66  2B68               	goto	u5551
  2118  0B67  2B69               	goto	u5550
  2119  0B68                     u5551:
  2120  0B68  2B8A               	goto	l3945
  2121  0B69                     u5550:
  2122  0B69                     l3941:
  2123                           
  2124                           ;Scheduler/Scheduler.c: 20:   {;Scheduler/Scheduler.c: 21:    (*Scheduler_Intitys[Intity
      +                          Index].fuction_ptr)();
  2125  0B69  3005               	movlw	5
  2126  0B6A  00FF               	movwf	btemp+1
  2127  0B6B  087F               	movf	btemp+1,w
  2128  0B6C  1283               	bcf	3,5	;RP0=0, select bank0
  2129  0B6D  1303               	bcf	3,6	;RP1=0, select bank0
  2130  0B6E  00B6               	movwf	___bmul@multiplicand
  2131  0B6F  1683               	bsf	3,5	;RP0=1, select bank1
  2132  0B70  1303               	bcf	3,6	;RP1=0, select bank1
  2133  0B71  084C               	movf	Scheduler_Start@IntityIndex^(0+128),w
  2134  0B72  120A  158A  20F4  120A  158A  	fcall	___bmul
  2135  0B77  3E01               	addlw	low ((_Scheduler_Intitys-__stringbase)| (0+32768))
  2136  0B78  0084               	movwf	4
  2137  0B79  120A  158A  2000  120A  158A  	fcall	stringdir
  2138  0B7E  120A  118A  204B  120A  158A  	fcall	fptable
  2139  0B83                     l3943:
  2140                           
  2141                           ;Scheduler/Scheduler.c: 22:    Scheduler_ActivationFlags[IntityIndex] = 0 ;
  2142  0B83  1683               	bsf	3,5	;RP0=1, select bank1
  2143  0B84  1303               	bcf	3,6	;RP1=0, select bank1
  2144  0B85  084C               	movf	Scheduler_Start@IntityIndex^(0+128),w
  2145  0B86  3EDB               	addlw	(low (_Scheduler_ActivationFlags| 0))& (0+255)
  2146  0B87  0084               	movwf	4
  2147  0B88  1383               	bcf	3,7	;select IRP bank1
  2148  0B89  0180               	clrf	0
  2149  0B8A                     l3945:
  2150                           
  2151                           ;Scheduler/Scheduler.c: 24:  }
  2152  0B8A  3001               	movlw	1
  2153  0B8B  00FF               	movwf	btemp+1
  2154  0B8C  087F               	movf	btemp+1,w
  2155  0B8D  07CC               	addwf	Scheduler_Start@IntityIndex^(0+128),f
  2156  0B8E                     l3947:
  2157  0B8E  3003               	movlw	3
  2158  0B8F  024C               	subwf	Scheduler_Start@IntityIndex^(0+128),w
  2159  0B90  1C03               	skipc
  2160  0B91  2B93               	goto	u5561
  2161  0B92  2B94               	goto	u5560
  2162  0B93                     u5561:
  2163  0B93  2B60               	goto	l3939
  2164  0B94                     u5560:
  2165  0B94  2B5D               	goto	l262
  2166  0B95  0008               	return
  2167  0B96                     __end_of_Scheduler_Start:
  2168                           
  2169                           	psect	text3
  2170  08F4                     __ptext3:	
  2171 ;; *************** function ___bmul *****************
  2172 ;; Defined at:
  2173 ;;		line 4 in file "C:\Program Files (x86)\Microchip\xc8\v2.20\pic\sources\c90\common\Umul8.c"
  2174 ;; Parameters:    Size  Location     Type
  2175 ;;  multiplier      1    wreg     unsigned char 
  2176 ;;  multiplicand    1   22[BANK0 ] unsigned char 
  2177 ;; Auto vars:     Size  Location     Type
  2178 ;;  multiplier      1   24[BANK0 ] unsigned char 
  2179 ;;  product         1   23[BANK0 ] unsigned char 
  2180 ;; Return value:  Size  Location     Type
  2181 ;;                  1    wreg      unsigned char 
  2182 ;; Registers used:
  2183 ;;		wreg, status,2, status,0, btemp+1
  2184 ;; Tracked objects:
  2185 ;;		On entry : 0/0
  2186 ;;		On exit  : 0/0
  2187 ;;		Unchanged: 0/0
  2188 ;; Data sizes:     COMMON   BANK0   BANK1   BANK3   BANK2
  2189 ;;      Params:         0       1       0       0       0
  2190 ;;      Locals:         0       2       0       0       0
  2191 ;;      Temps:          0       0       0       0       0
  2192 ;;      Totals:         0       3       0       0       0
  2193 ;;Total ram usage:        3 bytes
  2194 ;; Hardware stack levels used:    1
  2195 ;; Hardware stack levels required when called:    4
  2196 ;; This function calls:
  2197 ;;		Nothing
  2198 ;; This function is called by:
  2199 ;;		_Scheduler_Start
  2200 ;;		_Scheduler_ActivateTask
  2201 ;; This function uses a non-reentrant model
  2202 ;;
  2203                           
  2204                           
  2205                           ;psect for function ___bmul
  2206  08F4                     ___bmul:
  2207                           
  2208                           ;incstack = 0
  2209                           ; Regs used in ___bmul: [wreg+status,2+status,0+btemp+1]
  2210                           ;___bmul@multiplier stored from wreg
  2211  08F4  1283               	bcf	3,5	;RP0=0, select bank0
  2212  08F5  1303               	bcf	3,6	;RP1=0, select bank0
  2213  08F6  00B8               	movwf	___bmul@multiplier
  2214  08F7                     l3903:
  2215  08F7  01B7               	clrf	___bmul@product
  2216  08F8                     l3905:
  2217  08F8  1C38               	btfss	___bmul@multiplier,0
  2218  08F9  28FB               	goto	u5501
  2219  08FA  28FC               	goto	u5500
  2220  08FB                     u5501:
  2221  08FB  2900               	goto	l3909
  2222  08FC                     u5500:
  2223  08FC                     l3907:
  2224  08FC  0836               	movf	___bmul@multiplicand,w
  2225  08FD  00FF               	movwf	btemp+1
  2226  08FE  087F               	movf	btemp+1,w
  2227  08FF  07B7               	addwf	___bmul@product,f
  2228  0900                     l3909:
  2229  0900  1003               	clrc
  2230  0901  0DB6               	rlf	___bmul@multiplicand,f
  2231  0902                     l3911:
  2232  0902  1003               	clrc
  2233  0903  0CB8               	rrf	___bmul@multiplier,f
  2234  0904                     l3913:
  2235  0904  0838               	movf	___bmul@multiplier,w
  2236  0905  1D03               	btfss	3,2
  2237  0906  2908               	goto	u5511
  2238  0907  2909               	goto	u5510
  2239  0908                     u5511:
  2240  0908  28F8               	goto	l3905
  2241  0909                     u5510:
  2242  0909                     l3915:
  2243  0909  0837               	movf	___bmul@product,w
  2244  090A                     l673:
  2245  090A  0008               	return
  2246  090B                     __end_of___bmul:
  2247                           
  2248                           	psect	text4
  2249  0857                     __ptext4:	
  2250 ;; *************** function _Scheduler_Task2 *****************
  2251 ;; Defined at:
  2252 ;;		line 27 in file "Scheduler/Tasks.c"
  2253 ;; Parameters:    Size  Location     Type
  2254 ;;		None
  2255 ;; Auto vars:     Size  Location     Type
  2256 ;;		None
  2257 ;; Return value:  Size  Location     Type
  2258 ;;                  1    wreg      void 
  2259 ;; Registers used:
  2260 ;;		wreg, fsr0l, fsr0h, status,2, status,0, btemp+1, pclath, cstack
  2261 ;; Tracked objects:
  2262 ;;		On entry : 0/0
  2263 ;;		On exit  : 0/0
  2264 ;;		Unchanged: 0/0
  2265 ;; Data sizes:     COMMON   BANK0   BANK1   BANK3   BANK2
  2266 ;;      Params:         0       0       0       0       0
  2267 ;;      Locals:         0       0       0       0       0
  2268 ;;      Temps:          0       0       0       0       0
  2269 ;;      Totals:         0       0       0       0       0
  2270 ;;Total ram usage:        0 bytes
  2271 ;; Hardware stack levels used:    1
  2272 ;; Hardware stack levels required when called:    8
  2273 ;; This function calls:
  2274 ;;		_Elements_MainFunction
  2275 ;;		_Temperature_MainFunction
  2276 ;; This function is called by:
  2277 ;;		_Scheduler_Start
  2278 ;; This function uses a non-reentrant model
  2279 ;;
  2280                           
  2281                           
  2282                           ;psect for function _Scheduler_Task2
  2283  0857                     _Scheduler_Task2:
  2284  0857                     l3877:	
  2285                           ;incstack = 0
  2286 ;; hardware stack exceeded
  2287                           ; Regs used in _Scheduler_Task2: [wreg-fsr0h+status,2+status,0+btemp+1+pclath+cstack]
  2288                           
  2289                           
  2290                           ;Scheduler/Tasks.c: 30:  Temperature_MainFunction();
  2291  0857  120A  158A  20B5  120A  158A  	fcall	_Temperature_MainFunction
  2292                           
  2293                           ;Scheduler/Tasks.c: 31:  Elements_MainFunction();
  2294  085C  120A  158A  26A8  120A  158A  	fcall	_Elements_MainFunction
  2295  0861                     l317:
  2296  0861  0008               	return
  2297  0862                     __end_of_Scheduler_Task2:
  2298                           
  2299                           	psect	text5
  2300  084C                     __ptext5:	
  2301 ;; *************** function _Scheduler_Task1 *****************
  2302 ;; Defined at:
  2303 ;;		line 19 in file "Scheduler/Tasks.c"
  2304 ;; Parameters:    Size  Location     Type
  2305 ;;		None
  2306 ;; Auto vars:     Size  Location     Type
  2307 ;;		None
  2308 ;; Return value:  Size  Location     Type
  2309 ;;                  1    wreg      void 
  2310 ;; Registers used:
  2311 ;;		wreg, fsr0l, fsr0h, status,2, status,0, btemp+1, pclath, cstack
  2312 ;; Tracked objects:
  2313 ;;		On entry : 0/0
  2314 ;;		On exit  : 0/0
  2315 ;;		Unchanged: 0/0
  2316 ;; Data sizes:     COMMON   BANK0   BANK1   BANK3   BANK2
  2317 ;;      Params:         0       0       0       0       0
  2318 ;;      Locals:         0       0       0       0       0
  2319 ;;      Temps:          0       0       0       0       0
  2320 ;;      Totals:         0       0       0       0       0
  2321 ;;Total ram usage:        0 bytes
  2322 ;; Hardware stack levels used:    1
  2323 ;; Hardware stack levels required when called:    8
  2324 ;; This function calls:
  2325 ;;		_Debouncer
  2326 ;;		_SSD_MainFunction
  2327 ;; This function is called by:
  2328 ;;		_Scheduler_Start
  2329 ;; This function uses a non-reentrant model
  2330 ;;
  2331                           
  2332                           
  2333                           ;psect for function _Scheduler_Task1
  2334  084C                     _Scheduler_Task1:
  2335  084C                     l3875:	
  2336                           ;incstack = 0
  2337 ;; hardware stack exceeded
  2338                           ; Regs used in _Scheduler_Task1: [wreg-fsr0h+status,2+status,0+btemp+1+pclath+cstack]
  2339                           
  2340                           
  2341                           ;Scheduler/Tasks.c: 21:     Debouncer();
  2342  084C  120A  118A  25DA  120A  158A  	fcall	_Debouncer
  2343                           
  2344                           ;Scheduler/Tasks.c: 22:  SSD_MainFunction();
  2345  0851  120A  158A  252E  120A  158A  	fcall	_SSD_MainFunction
  2346  0856                     l314:
  2347  0856  0008               	return
  2348  0857                     __end_of_Scheduler_Task1:
  2349                           
  2350                           	psect	text6
  2351  0841                     __ptext6:	
  2352 ;; *************** function _Scheduler_Task3 *****************
  2353 ;; Defined at:
  2354 ;;		line 34 in file "Scheduler/Tasks.c"
  2355 ;; Parameters:    Size  Location     Type
  2356 ;;		None
  2357 ;; Auto vars:     Size  Location     Type
  2358 ;;		None
  2359 ;; Return value:  Size  Location     Type
  2360 ;;                  1    wreg      void 
  2361 ;; Registers used:
  2362 ;;		wreg, status,2, status,0, btemp+1, pclath, cstack
  2363 ;; Tracked objects:
  2364 ;;		On entry : 0/0
  2365 ;;		On exit  : 0/0
  2366 ;;		Unchanged: 0/0
  2367 ;; Data sizes:     COMMON   BANK0   BANK1   BANK3   BANK2
  2368 ;;      Params:         0       0       0       0       0
  2369 ;;      Locals:         0       0       0       0       0
  2370 ;;      Temps:          0       0       0       0       0
  2371 ;;      Totals:         0       0       0       0       0
  2372 ;;Total ram usage:        0 bytes
  2373 ;; Hardware stack levels used:    1
  2374 ;; Hardware stack levels required when called:    7
  2375 ;; This function calls:
  2376 ;;		_ModeManager_MainFunction
  2377 ;;		_Set_EEPROM_Data
  2378 ;; This function is called by:
  2379 ;;		_Scheduler_Start
  2380 ;; This function uses a non-reentrant model
  2381 ;;
  2382                           
  2383                           
  2384                           ;psect for function _Scheduler_Task3
  2385  0841                     _Scheduler_Task3:
  2386  0841                     l3879:	
  2387                           ;incstack = 0
  2388 ;; hardware stack exceeded
  2389                           ; Regs used in _Scheduler_Task3: [wreg+status,2+status,0+btemp+1+pclath+cstack]
  2390                           
  2391                           
  2392                           ;Scheduler/Tasks.c: 36:     ModeManager_MainFunction();
  2393  0841  120A  158A  244C  120A  158A  	fcall	_ModeManager_MainFunction
  2394                           
  2395                           ;Scheduler/Tasks.c: 37:     Set_EEPROM_Data();
  2396  0846  120A  158A  2123  120A  158A  	fcall	_Set_EEPROM_Data
  2397  084B                     l320:
  2398  084B  0008               	return
  2399  084C                     __end_of_Scheduler_Task3:
  2400                           
  2401                           	psect	text7
  2402  0923                     __ptext7:	
  2403 ;; *************** function _Set_EEPROM_Data *****************
  2404 ;; Defined at:
  2405 ;;		line 56 in file "EEPROM/EEPROM.c"
  2406 ;; Parameters:    Size  Location     Type
  2407 ;;		None
  2408 ;; Auto vars:     Size  Location     Type
  2409 ;;		None
  2410 ;; Return value:  Size  Location     Type
  2411 ;;                  1    wreg      void 
  2412 ;; Registers used:
  2413 ;;		wreg, status,2, status,0, btemp+1, pclath, cstack
  2414 ;; Tracked objects:
  2415 ;;		On entry : 0/0
  2416 ;;		On exit  : 0/0
  2417 ;;		Unchanged: 0/0
  2418 ;; Data sizes:     COMMON   BANK0   BANK1   BANK3   BANK2
  2419 ;;      Params:         0       0       0       0       0
  2420 ;;      Locals:         0       0       0       0       0
  2421 ;;      Temps:          0       0       0       0       0
  2422 ;;      Totals:         0       0       0       0       0
  2423 ;;Total ram usage:        0 bytes
  2424 ;; Hardware stack levels used:    1
  2425 ;; Hardware stack levels required when called:    6
  2426 ;; This function calls:
  2427 ;;		_EEPROM_Write
  2428 ;; This function is called by:
  2429 ;;		_Scheduler_Task3
  2430 ;; This function uses a non-reentrant model
  2431 ;;
  2432                           
  2433                           
  2434                           ;psect for function _Set_EEPROM_Data
  2435  0923                     _Set_EEPROM_Data:
  2436  0923                     l3845:	
  2437                           ;incstack = 0
  2438 ;; hardware stack exceeded
  2439                           ; Regs used in _Set_EEPROM_Data: [wreg+status,2+status,0+btemp+1+pclath+cstack]
  2440                           
  2441                           
  2442                           ;EEPROM/EEPROM.c: 60:  if(Temperature.Store_Set_Temp_Flag==1)
  2443  0923  1283               	bcf	3,5	;RP0=0, select bank0
  2444  0924  1303               	bcf	3,6	;RP1=0, select bank0
  2445  0925  1CD2               	btfss	_Temperature+4,1
  2446  0926  2928               	goto	u5461
  2447  0927  2929               	goto	u5460
  2448  0928                     u5461:
  2449  0928  293A               	goto	l482
  2450  0929                     u5460:
  2451  0929                     l3847:
  2452                           
  2453                           ;EEPROM/EEPROM.c: 61:  {;EEPROM/EEPROM.c: 62:     EEPROM_Data=Temperature.Set_Temp;
  2454  0929  0851               	movf	_Temperature+3,w
  2455  092A  00FF               	movwf	btemp+1
  2456  092B  087F               	movf	btemp+1,w
  2457  092C  00C7               	movwf	_EEPROM_Data
  2458  092D                     l3849:
  2459                           
  2460                           ;EEPROM/EEPROM.c: 63:     EEPROM_Write(EEPROM_Data,0x0A);
  2461  092D  300A               	movlw	10
  2462  092E  00FF               	movwf	btemp+1
  2463  092F  087F               	movf	btemp+1,w
  2464  0930  00B7               	movwf	EEPROM_Write@Addr
  2465  0931  0847               	movf	_EEPROM_Data,w
  2466  0932  120A  158A  22F1  120A  158A  	fcall	_EEPROM_Write
  2467  0937                     l3851:
  2468                           
  2469                           ;EEPROM/EEPROM.c: 64:     Temperature.Store_Set_Temp_Flag=0;
  2470  0937  1283               	bcf	3,5	;RP0=0, select bank0
  2471  0938  1303               	bcf	3,6	;RP1=0, select bank0
  2472  0939  10D2               	bcf	_Temperature+4,1
  2473  093A                     l482:
  2474  093A  0008               	return
  2475  093B                     __end_of_Set_EEPROM_Data:
  2476                           
  2477                           	psect	text8
  2478  0AF1                     __ptext8:	
  2479 ;; *************** function _EEPROM_Write *****************
  2480 ;; Defined at:
  2481 ;;		line 80 in file "EEPROM/EEPROM.c"
  2482 ;; Parameters:    Size  Location     Type
  2483 ;;  Data            1    wreg     unsigned char 
  2484 ;;  Addr            1   23[BANK0 ] unsigned char 
  2485 ;; Auto vars:     Size  Location     Type
  2486 ;;  Data            1   24[BANK0 ] unsigned char 
  2487 ;; Return value:  Size  Location     Type
  2488 ;;                  1    wreg      void 
  2489 ;; Registers used:
  2490 ;;		wreg, status,2, status,0, pclath, cstack
  2491 ;; Tracked objects:
  2492 ;;		On entry : 0/0
  2493 ;;		On exit  : 0/0
  2494 ;;		Unchanged: 0/0
  2495 ;; Data sizes:     COMMON   BANK0   BANK1   BANK3   BANK2
  2496 ;;      Params:         0       1       0       0       0
  2497 ;;      Locals:         0       1       0       0       0
  2498 ;;      Temps:          0       0       0       0       0
  2499 ;;      Totals:         0       2       0       0       0
  2500 ;;Total ram usage:        2 bytes
  2501 ;; Hardware stack levels used:    1
  2502 ;; Hardware stack levels required when called:    5
  2503 ;; This function calls:
  2504 ;;		_I2c_Start
  2505 ;;		_I2c_Stop
  2506 ;;		_I2c_WaitAck
  2507 ;;		_I2c_Write
  2508 ;; This function is called by:
  2509 ;;		_Set_EEPROM_Data
  2510 ;; This function uses a non-reentrant model
  2511 ;;
  2512                           
  2513                           
  2514                           ;psect for function _EEPROM_Write
  2515  0AF1                     _EEPROM_Write:
  2516                           
  2517                           ;incstack = 0
  2518 ;; hardware stack exceeded
  2519                           ; Regs used in _EEPROM_Write: [wreg+status,2+status,0+pclath+cstack]
  2520                           ;EEPROM_Write@Data stored from wreg
  2521  0AF1  1283               	bcf	3,5	;RP0=0, select bank0
  2522  0AF2  1303               	bcf	3,6	;RP1=0, select bank0
  2523  0AF3  00B8               	movwf	EEPROM_Write@Data
  2524  0AF4                     l3657:
  2525                           
  2526                           ;EEPROM/EEPROM.c: 80: void EEPROM_Write(uint8_t Data,uint8_t Addr);EEPROM/EEPROM.c: 81: 
      +                          {;EEPROM/EEPROM.c: 82:  I2c_Start();
  2527  0AF4  120A  158A  202B  120A  158A  	fcall	_I2c_Start
  2528  0AF9                     l3659:
  2529                           
  2530                           ;EEPROM/EEPROM.c: 83:  I2c_Write(0xA0);
  2531  0AF9  30A0               	movlw	160
  2532  0AFA  160A  118A  27E4  120A  158A  	fcall	_I2c_Write
  2533  0AFF                     l3661:
  2534                           
  2535                           ;EEPROM/EEPROM.c: 84:  I2c_WaitAck();
  2536  0AFF  160A  118A  27F0  120A  158A  	fcall	_I2c_WaitAck
  2537                           
  2538                           ;EEPROM/EEPROM.c: 85:  I2c_Write(Addr);
  2539  0B04  1283               	bcf	3,5	;RP0=0, select bank0
  2540  0B05  1303               	bcf	3,6	;RP1=0, select bank0
  2541  0B06  0837               	movf	EEPROM_Write@Addr,w
  2542  0B07  160A  118A  27E4  120A  158A  	fcall	_I2c_Write
  2543  0B0C                     l3663:
  2544                           
  2545                           ;EEPROM/EEPROM.c: 86:  I2c_WaitAck();
  2546  0B0C  160A  118A  27F0  120A  158A  	fcall	_I2c_WaitAck
  2547  0B11                     l3665:
  2548                           
  2549                           ;EEPROM/EEPROM.c: 87:  I2c_Write(Data);
  2550  0B11  1283               	bcf	3,5	;RP0=0, select bank0
  2551  0B12  1303               	bcf	3,6	;RP1=0, select bank0
  2552  0B13  0838               	movf	EEPROM_Write@Data,w
  2553  0B14  160A  118A  27E4  120A  158A  	fcall	_I2c_Write
  2554                           
  2555                           ;EEPROM/EEPROM.c: 88:  I2c_WaitAck();
  2556  0B19  160A  118A  27F0  120A  158A  	fcall	_I2c_WaitAck
  2557                           
  2558                           ;EEPROM/EEPROM.c: 89:  I2c_Stop();
  2559  0B1E  120A  158A  2036  120A  158A  	fcall	_I2c_Stop
  2560  0B23                     l485:
  2561  0B23  0008               	return
  2562  0B24                     __end_of_EEPROM_Write:
  2563                           
  2564                           	psect	text9
  2565  0C4C                     __ptext9:	
  2566 ;; *************** function _ModeManager_MainFunction *****************
  2567 ;; Defined at:
  2568 ;;		line 48 in file "WaterHeater_Mode/WaterHeater_Mode.c"
  2569 ;; Parameters:    Size  Location     Type
  2570 ;;		None
  2571 ;; Auto vars:     Size  Location     Type
  2572 ;;		None
  2573 ;; Return value:  Size  Location     Type
  2574 ;;                  1    wreg      void 
  2575 ;; Registers used:
  2576 ;;		wreg, status,2, status,0, btemp+1, pclath, cstack
  2577 ;; Tracked objects:
  2578 ;;		On entry : 0/0
  2579 ;;		On exit  : 0/0
  2580 ;;		Unchanged: 0/0
  2581 ;; Data sizes:     COMMON   BANK0   BANK1   BANK3   BANK2
  2582 ;;      Params:         0       0       0       0       0
  2583 ;;      Locals:         0       0       0       0       0
  2584 ;;      Temps:          0       0       0       0       0
  2585 ;;      Totals:         0       0       0       0       0
  2586 ;;Total ram usage:        0 bytes
  2587 ;; Hardware stack levels used:    1
  2588 ;; Hardware stack levels required when called:    6
  2589 ;; This function calls:
  2590 ;;		_Mode_Setting_Timer
  2591 ;; This function is called by:
  2592 ;;		_Scheduler_Task3
  2593 ;; This function uses a non-reentrant model
  2594 ;;
  2595                           
  2596                           
  2597                           ;psect for function _ModeManager_MainFunction
  2598  0C4C                     _ModeManager_MainFunction:
  2599  0C4C                     l3807:	
  2600                           ;incstack = 0
  2601 ;; hardware stack exceeded
  2602                           ; Regs used in _ModeManager_MainFunction: [wreg+status,2+status,0+btemp+1+pclath+cstack]
  2603                           
  2604                           
  2605                           ;WaterHeater_Mode/WaterHeater_Mode.c: 51:    if(Mode.Select_Mode==Setting_Mode)
  2606  0C4C  3002               	movlw	2
  2607  0C4D  1283               	bcf	3,5	;RP0=0, select bank0
  2608  0C4E  1303               	bcf	3,6	;RP1=0, select bank0
  2609  0C4F  0654               	xorwf	_Mode,w
  2610  0C50  1D03               	btfss	3,2
  2611  0C51  2C53               	goto	u5391
  2612  0C52  2C54               	goto	u5390
  2613  0C53                     u5391:
  2614  0C53  2C8F               	goto	l380
  2615  0C54                     u5390:
  2616  0C54                     l3809:
  2617                           
  2618                           ;WaterHeater_Mode/WaterHeater_Mode.c: 52:    {;WaterHeater_Mode/WaterHeater_Mode.c: 54: 
      +                              Mode_Setting_Timer(5000);
  2619  0C54  3088               	movlw	136
  2620  0C55  00BC               	movwf	Mode_Setting_Timer@Timer_Ms
  2621  0C56  3013               	movlw	19
  2622  0C57  00BD               	movwf	Mode_Setting_Timer@Timer_Ms+1
  2623  0C58  120A  158A  2238  120A  158A  	fcall	_Mode_Setting_Timer
  2624  0C5D                     l3811:
  2625                           
  2626                           ;WaterHeater_Mode/WaterHeater_Mode.c: 55:     if(Buttons.UpFlag &&!Buttons.DownFlag && T
      +                          emperature.Set_Temp !=(75U))
  2627  0C5D  1283               	bcf	3,5	;RP0=0, select bank0
  2628  0C5E  1303               	bcf	3,6	;RP1=0, select bank0
  2629  0C5F  1C4A               	btfss	_Buttons,0
  2630  0C60  2C62               	goto	u5401
  2631  0C61  2C63               	goto	u5400
  2632  0C62                     u5401:
  2633  0C62  2C7A               	goto	l377
  2634  0C63                     u5400:
  2635  0C63                     l3813:
  2636  0C63  18CA               	btfsc	_Buttons,1
  2637  0C64  2C66               	goto	u5411
  2638  0C65  2C67               	goto	u5410
  2639  0C66                     u5411:
  2640  0C66  2C7A               	goto	l377
  2641  0C67                     u5410:
  2642  0C67                     l3815:
  2643  0C67  304B               	movlw	75
  2644  0C68  0651               	xorwf	_Temperature+3,w
  2645  0C69  1903               	btfsc	3,2
  2646  0C6A  2C6C               	goto	u5421
  2647  0C6B  2C6D               	goto	u5420
  2648  0C6C                     u5421:
  2649  0C6C  2C7A               	goto	l377
  2650  0C6D                     u5420:
  2651  0C6D                     l3817:
  2652                           
  2653                           ;WaterHeater_Mode/WaterHeater_Mode.c: 56:      {;WaterHeater_Mode/WaterHeater_Mode.c: 58
      +                          :       Temperature.Set_Temp += (5U);
  2654  0C6D  3005               	movlw	5
  2655  0C6E  00FF               	movwf	btemp+1
  2656  0C6F  087F               	movf	btemp+1,w
  2657  0C70  07D1               	addwf	_Temperature+3,f
  2658  0C71                     l3819:
  2659                           
  2660                           ;WaterHeater_Mode/WaterHeater_Mode.c: 59:       Mode.Setting_Mode_Timer=1;
  2661  0C71  01D5               	clrf	_Mode+1
  2662  0C72  0AD5               	incf	_Mode+1,f
  2663  0C73                     l3821:
  2664                           
  2665                           ;WaterHeater_Mode/WaterHeater_Mode.c: 60:           Buttons.UpFlag=0;
  2666  0C73  104A               	bcf	_Buttons,0
  2667  0C74                     l3823:
  2668                           
  2669                           ;WaterHeater_Mode/WaterHeater_Mode.c: 61:           Buttons.DownFlag=0;
  2670  0C74  10CA               	bcf	_Buttons,1
  2671  0C75                     l3825:
  2672                           
  2673                           ;WaterHeater_Mode/WaterHeater_Mode.c: 62:           Enable_SSD=Enable_SSD_On;
  2674  0C75  01CC               	clrf	_Enable_SSD
  2675  0C76  0ACC               	incf	_Enable_SSD,f
  2676  0C77                     l3827:
  2677                           
  2678                           ;WaterHeater_Mode/WaterHeater_Mode.c: 63:                Counter =1;
  2679  0C77  01D7               	clrf	_Counter
  2680  0C78  0AD7               	incf	_Counter,f
  2681                           
  2682                           ;WaterHeater_Mode/WaterHeater_Mode.c: 64:      }
  2683  0C79  2C8F               	goto	l380
  2684  0C7A                     l377:	
  2685                           ;WaterHeater_Mode/WaterHeater_Mode.c: 65:      else if(Buttons.DownFlag &&!Buttons.UpFla
      +                          g&& Temperature.Set_Temp !=(35U))
  2686                           
  2687  0C7A  1CCA               	btfss	_Buttons,1
  2688  0C7B  2C7D               	goto	u5431
  2689  0C7C  2C7E               	goto	u5430
  2690  0C7D                     u5431:
  2691  0C7D  2C8F               	goto	l380
  2692  0C7E                     u5430:
  2693  0C7E                     l3829:
  2694  0C7E  184A               	btfsc	_Buttons,0
  2695  0C7F  2C81               	goto	u5441
  2696  0C80  2C82               	goto	u5440
  2697  0C81                     u5441:
  2698  0C81  2C8F               	goto	l380
  2699  0C82                     u5440:
  2700  0C82                     l3831:
  2701  0C82  3023               	movlw	35
  2702  0C83  0651               	xorwf	_Temperature+3,w
  2703  0C84  1903               	btfsc	3,2
  2704  0C85  2C87               	goto	u5451
  2705  0C86  2C88               	goto	u5450
  2706  0C87                     u5451:
  2707  0C87  2C8F               	goto	l380
  2708  0C88                     u5450:
  2709  0C88                     l3833:
  2710                           
  2711                           ;WaterHeater_Mode/WaterHeater_Mode.c: 66:      {;WaterHeater_Mode/WaterHeater_Mode.c: 67
      +                          :       Temperature.Set_Temp -= (5U);
  2712  0C88  3005               	movlw	5
  2713  0C89  02D1               	subwf	_Temperature+3,f
  2714  0C8A                     l3835:
  2715                           
  2716                           ;WaterHeater_Mode/WaterHeater_Mode.c: 68:       Mode.Setting_Mode_Timer=1;
  2717  0C8A  01D5               	clrf	_Mode+1
  2718  0C8B  0AD5               	incf	_Mode+1,f
  2719  0C8C                     l3837:
  2720                           
  2721                           ;WaterHeater_Mode/WaterHeater_Mode.c: 69:           Buttons.DownFlag=0;
  2722  0C8C  10CA               	bcf	_Buttons,1
  2723  0C8D                     l3839:
  2724                           
  2725                           ;WaterHeater_Mode/WaterHeater_Mode.c: 70:           Buttons.UpFlag=0;
  2726  0C8D  104A               	bcf	_Buttons,0
  2727  0C8E  2C75               	goto	l3825
  2728  0C8F                     l380:
  2729  0C8F  0008               	return
  2730  0C90                     __end_of_ModeManager_MainFunction:
  2731                           
  2732                           	psect	text10
  2733  0A38                     __ptext10:	
  2734 ;; *************** function _Mode_Setting_Timer *****************
  2735 ;; Defined at:
  2736 ;;		line 90 in file "WaterHeater_Mode/WaterHeater_Mode.c"
  2737 ;; Parameters:    Size  Location     Type
  2738 ;;  Timer_Ms        2   28[BANK0 ] unsigned int 
  2739 ;; Auto vars:     Size  Location     Type
  2740 ;;		None
  2741 ;; Return value:  Size  Location     Type
  2742 ;;                  1    wreg      void 
  2743 ;; Registers used:
  2744 ;;		wreg, status,2, status,0, btemp+1, pclath, cstack
  2745 ;; Tracked objects:
  2746 ;;		On entry : 0/0
  2747 ;;		On exit  : 0/0
  2748 ;;		Unchanged: 0/0
  2749 ;; Data sizes:     COMMON   BANK0   BANK1   BANK3   BANK2
  2750 ;;      Params:         0       2       0       0       0
  2751 ;;      Locals:         0       0       0       0       0
  2752 ;;      Temps:          0       2       0       0       0
  2753 ;;      Totals:         0       4       0       0       0
  2754 ;;Total ram usage:        4 bytes
  2755 ;; Hardware stack levels used:    1
  2756 ;; Hardware stack levels required when called:    5
  2757 ;; This function calls:
  2758 ;;		___wmul
  2759 ;; This function is called by:
  2760 ;;		_ModeManager_MainFunction
  2761 ;; This function uses a non-reentrant model
  2762 ;;
  2763                           
  2764                           
  2765                           ;psect for function _Mode_Setting_Timer
  2766  0A38                     _Mode_Setting_Timer:
  2767  0A38                     l3651:	
  2768                           ;incstack = 0
  2769 ;; hardware stack exceeded
  2770                           ; Regs used in _Mode_Setting_Timer: [wreg+status,2+status,0+btemp+1+pclath+cstack]
  2771                           
  2772                           
  2773                           ;WaterHeater_Mode/WaterHeater_Mode.c: 90: void Mode_Setting_Timer(uint16_t Timer_Ms);Wat
      +                          erHeater_Mode/WaterHeater_Mode.c: 91: {;WaterHeater_Mode/WaterHeater_Mode.c: 92:  if(Mod
      +                          e.Setting_Mode_Timer*500==Timer_Ms)
  2774  0A38  1283               	bcf	3,5	;RP0=0, select bank0
  2775  0A39  1303               	bcf	3,6	;RP1=0, select bank0
  2776  0A3A  0855               	movf	_Mode+1,w
  2777  0A3B  00BE               	movwf	??_Mode_Setting_Timer
  2778  0A3C  01BF               	clrf	??_Mode_Setting_Timer+1
  2779  0A3D  083E               	movf	??_Mode_Setting_Timer,w
  2780  0A3E  00B6               	movwf	___wmul@multiplier
  2781  0A3F  083F               	movf	??_Mode_Setting_Timer+1,w
  2782  0A40  00B7               	movwf	___wmul@multiplier+1
  2783  0A41  30F4               	movlw	244
  2784  0A42  00B8               	movwf	___wmul@multiplicand
  2785  0A43  3001               	movlw	1
  2786  0A44  00B9               	movwf	___wmul@multiplicand+1
  2787  0A45  120A  158A  2196  120A  158A  	fcall	___wmul
  2788  0A4A  1283               	bcf	3,5	;RP0=0, select bank0
  2789  0A4B  1303               	bcf	3,6	;RP1=0, select bank0
  2790  0A4C  083D               	movf	Mode_Setting_Timer@Timer_Ms+1,w
  2791  0A4D  0637               	xorwf	?___wmul+1,w
  2792  0A4E  1D03               	skipz
  2793  0A4F  2A52               	goto	u5105
  2794  0A50  083C               	movf	Mode_Setting_Timer@Timer_Ms,w
  2795  0A51  0636               	xorwf	?___wmul,w
  2796  0A52                     u5105:
  2797  0A52  1D03               	skipz
  2798  0A53  2A55               	goto	u5101
  2799  0A54  2A56               	goto	u5100
  2800  0A55                     u5101:
  2801  0A55  2A5E               	goto	l3655
  2802  0A56                     u5100:
  2803  0A56                     l3653:
  2804                           
  2805                           ;WaterHeater_Mode/WaterHeater_Mode.c: 93:  {;WaterHeater_Mode/WaterHeater_Mode.c: 94:   
      +                          Temperature.Store_Set_Temp_Flag=1;
  2806  0A56  14D2               	bsf	_Temperature+4,1
  2807                           
  2808                           ;WaterHeater_Mode/WaterHeater_Mode.c: 95:   Mode.Select_Mode=Normal_Mode;
  2809  0A57  01D4               	clrf	_Mode
  2810  0A58  0AD4               	incf	_Mode,f
  2811                           
  2812                           ;WaterHeater_Mode/WaterHeater_Mode.c: 96:   Mode.Setting_Mode_Timer=1;
  2813  0A59  01D5               	clrf	_Mode+1
  2814  0A5A  0AD5               	incf	_Mode+1,f
  2815                           
  2816                           ;WaterHeater_Mode/WaterHeater_Mode.c: 97:         Buttons.UpFlag=0;
  2817  0A5B  104A               	bcf	_Buttons,0
  2818                           
  2819                           ;WaterHeater_Mode/WaterHeater_Mode.c: 98:         Buttons.DownFlag=0;
  2820  0A5C  10CA               	bcf	_Buttons,1
  2821                           
  2822                           ;WaterHeater_Mode/WaterHeater_Mode.c: 100:  }
  2823  0A5D  2A62               	goto	l385
  2824  0A5E                     l3655:
  2825                           
  2826                           ;WaterHeater_Mode/WaterHeater_Mode.c: 102:  {;WaterHeater_Mode/WaterHeater_Mode.c: 103: 
      +                            Mode.Setting_Mode_Timer++;
  2827  0A5E  3001               	movlw	1
  2828  0A5F  00FF               	movwf	btemp+1
  2829  0A60  087F               	movf	btemp+1,w
  2830  0A61  07D5               	addwf	_Mode+1,f
  2831  0A62                     l385:
  2832  0A62  0008               	return
  2833  0A63                     __end_of_Mode_Setting_Timer:
  2834                           
  2835                           	psect	text11
  2836  08B5                     __ptext11:	
  2837 ;; *************** function _Temperature_MainFunction *****************
  2838 ;; Defined at:
  2839 ;;		line 24 in file "Temperature/Temperature.c"
  2840 ;; Parameters:    Size  Location     Type
  2841 ;;		None
  2842 ;; Auto vars:     Size  Location     Type
  2843 ;;		None
  2844 ;; Return value:  Size  Location     Type
  2845 ;;                  1    wreg      void 
  2846 ;; Registers used:
  2847 ;;		wreg, fsr0l, fsr0h, status,2, status,0, btemp+1, pclath, cstack
  2848 ;; Tracked objects:
  2849 ;;		On entry : 0/0
  2850 ;;		On exit  : 0/0
  2851 ;;		Unchanged: 0/0
  2852 ;; Data sizes:     COMMON   BANK0   BANK1   BANK3   BANK2
  2853 ;;      Params:         0       0       0       0       0
  2854 ;;      Locals:         0       0       0       0       0
  2855 ;;      Temps:          0       0       0       0       0
  2856 ;;      Totals:         0       0       0       0       0
  2857 ;;Total ram usage:        0 bytes
  2858 ;; Hardware stack levels used:    1
  2859 ;; Hardware stack levels required when called:    7
  2860 ;; This function calls:
  2861 ;;		_ADC_Get_Value
  2862 ;;		_Temperature_Calc
  2863 ;; This function is called by:
  2864 ;;		_Scheduler_Task2
  2865 ;; This function uses a non-reentrant model
  2866 ;;
  2867                           
  2868                           
  2869                           ;psect for function _Temperature_MainFunction
  2870  08B5                     _Temperature_MainFunction:
  2871  08B5                     l3803:	
  2872                           ;incstack = 0
  2873 ;; hardware stack exceeded
  2874                           ; Regs used in _Temperature_MainFunction: [wreg-fsr0h+status,2+status,0+btemp+1+pclath+c
      +                          stack]
  2875                           
  2876                           
  2877                           ;Temperature/Temperature.c: 26:   if(Mode.Select_Mode==Normal_Mode)
  2878  08B5  1283               	bcf	3,5	;RP0=0, select bank0
  2879  08B6  1303               	bcf	3,6	;RP1=0, select bank0
  2880  08B7  0354               	decf	_Mode,w
  2881  08B8  1D03               	btfss	3,2
  2882  08B9  28BB               	goto	u5381
  2883  08BA  28BC               	goto	u5380
  2884  08BB                     u5381:
  2885  08BB  28C2               	goto	l335
  2886  08BC                     u5380:
  2887  08BC                     l3805:
  2888                           
  2889                           ;Temperature/Temperature.c: 27:   {;Temperature/Temperature.c: 28:    ADC_Get_Value(&Tem
      +                          perature.ADC_Value);
  2890  08BC  3050               	movlw	(low ((_Temperature| 0+2)))& (0+255)
  2891  08BD  120A  158A  210B  120A  158A  	fcall	_ADC_Get_Value
  2892  08C2                     l335:	
  2893                           ;Temperature/Temperature.c: 29:   }
  2894                           
  2895                           
  2896                           ;Temperature/Temperature.c: 30:   Temperature_Calc();
  2897  08C2  120A  118A  2709  120A  158A  	fcall	_Temperature_Calc
  2898  08C7                     l336:
  2899  08C7  0008               	return
  2900  08C8                     __end_of_Temperature_MainFunction:
  2901                           
  2902                           	psect	text12
  2903  0709                     __ptext12:	
  2904 ;; *************** function _Temperature_Calc *****************
  2905 ;; Defined at:
  2906 ;;		line 45 in file "Temperature/Temperature.c"
  2907 ;; Parameters:    Size  Location     Type
  2908 ;;		None
  2909 ;; Auto vars:     Size  Location     Type
  2910 ;;		None
  2911 ;; Return value:  Size  Location     Type
  2912 ;;                  1    wreg      void 
  2913 ;; Registers used:
  2914 ;;		wreg, fsr0l, fsr0h, status,2, status,0, btemp+1, pclath, cstack
  2915 ;; Tracked objects:
  2916 ;;		On entry : 0/0
  2917 ;;		On exit  : 0/0
  2918 ;;		Unchanged: 0/0
  2919 ;; Data sizes:     COMMON   BANK0   BANK1   BANK3   BANK2
  2920 ;;      Params:         0       0       0       0       0
  2921 ;;      Locals:         0       0       0       0       0
  2922 ;;      Temps:          0       0       4       0       0
  2923 ;;      Totals:         0       0       4       0       0
  2924 ;;Total ram usage:        4 bytes
  2925 ;; Hardware stack levels used:    1
  2926 ;; Hardware stack levels required when called:    6
  2927 ;; This function calls:
  2928 ;;		_Average_Value
  2929 ;;		___flmul
  2930 ;;		___fltol
  2931 ;;		___lwmod
  2932 ;;		___xxtofl
  2933 ;; This function is called by:
  2934 ;;		_Temperature_MainFunction
  2935 ;; This function uses a non-reentrant model
  2936 ;;
  2937                           
  2938                           
  2939                           ;psect for function _Temperature_Calc
  2940  0709                     _Temperature_Calc:
  2941  0709                     l3641:	
  2942                           ;incstack = 0
  2943 ;; hardware stack exceeded
  2944                           ; Regs used in _Temperature_Calc: [wreg-fsr0h+status,2+status,0+btemp+1+pclath+cstack]
  2945                           
  2946                           
  2947                           ;Temperature/Temperature.c: 47:  Temperature.Temp_Value=Temperature.ADC_Value * 0.4882;
  2948  0709  1283               	bcf	3,5	;RP0=0, select bank0
  2949  070A  1303               	bcf	3,6	;RP1=0, select bank0
  2950  070B  0850               	movf	_Temperature+2,w
  2951  070C  1683               	bsf	3,5	;RP0=1, select bank1
  2952  070D  1303               	bcf	3,6	;RP1=0, select bank1
  2953  070E  00C8               	movwf	??_Temperature_Calc^(0+128)
  2954  070F  01C9               	clrf	(??_Temperature_Calc^(0+128)+1)
  2955  0710  01CA               	clrf	(??_Temperature_Calc^(0+128)+2)
  2956  0711  01CB               	clrf	(??_Temperature_Calc^(0+128)+3)
  2957  0712  084B               	movf	(??_Temperature_Calc+3)^(0+128),w
  2958  0713  1283               	bcf	3,5	;RP0=0, select bank0
  2959  0714  1303               	bcf	3,6	;RP1=0, select bank0
  2960  0715  00B9               	movwf	___xxtofl@val+3
  2961  0716  1683               	bsf	3,5	;RP0=1, select bank1
  2962  0717  1303               	bcf	3,6	;RP1=0, select bank1
  2963  0718  084A               	movf	(??_Temperature_Calc+2)^(0+128),w
  2964  0719  1283               	bcf	3,5	;RP0=0, select bank0
  2965  071A  1303               	bcf	3,6	;RP1=0, select bank0
  2966  071B  00B8               	movwf	___xxtofl@val+2
  2967  071C  1683               	bsf	3,5	;RP0=1, select bank1
  2968  071D  1303               	bcf	3,6	;RP1=0, select bank1
  2969  071E  0849               	movf	(??_Temperature_Calc+1)^(0+128),w
  2970  071F  1283               	bcf	3,5	;RP0=0, select bank0
  2971  0720  1303               	bcf	3,6	;RP1=0, select bank0
  2972  0721  00B7               	movwf	___xxtofl@val+1
  2973  0722  1683               	bsf	3,5	;RP0=1, select bank1
  2974  0723  1303               	bcf	3,6	;RP1=0, select bank1
  2975  0724  0848               	movf	??_Temperature_Calc^(0+128),w
  2976  0725  1283               	bcf	3,5	;RP0=0, select bank0
  2977  0726  1303               	bcf	3,6	;RP1=0, select bank0
  2978  0727  00B6               	movwf	___xxtofl@val
  2979  0728  3001               	movlw	1
  2980  0729  120A  118A  2423  120A  118A  	fcall	___xxtofl
  2981  072E  1283               	bcf	3,5	;RP0=0, select bank0
  2982  072F  1303               	bcf	3,6	;RP1=0, select bank0
  2983  0730  0839               	movf	?___xxtofl+3,w
  2984  0731  1683               	bsf	3,5	;RP0=1, select bank1
  2985  0732  1303               	bcf	3,6	;RP1=0, select bank1
  2986  0733  00AD               	movwf	(___flmul@a+3)^(0+128)
  2987  0734  1283               	bcf	3,5	;RP0=0, select bank0
  2988  0735  1303               	bcf	3,6	;RP1=0, select bank0
  2989  0736  0838               	movf	?___xxtofl+2,w
  2990  0737  1683               	bsf	3,5	;RP0=1, select bank1
  2991  0738  1303               	bcf	3,6	;RP1=0, select bank1
  2992  0739  00AC               	movwf	(___flmul@a+2)^(0+128)
  2993  073A  1283               	bcf	3,5	;RP0=0, select bank0
  2994  073B  1303               	bcf	3,6	;RP1=0, select bank0
  2995  073C  0837               	movf	?___xxtofl+1,w
  2996  073D  1683               	bsf	3,5	;RP0=1, select bank1
  2997  073E  1303               	bcf	3,6	;RP1=0, select bank1
  2998  073F  00AB               	movwf	(___flmul@a+1)^(0+128)
  2999  0740  1283               	bcf	3,5	;RP0=0, select bank0
  3000  0741  1303               	bcf	3,6	;RP1=0, select bank0
  3001  0742  0836               	movf	?___xxtofl,w
  3002  0743  1683               	bsf	3,5	;RP0=1, select bank1
  3003  0744  1303               	bcf	3,6	;RP1=0, select bank1
  3004  0745  00AA               	movwf	___flmul@a^(0+128)
  3005  0746  303E               	movlw	62
  3006  0747  00A9               	movwf	(___flmul@b+3)^(0+128)
  3007  0748  30F9               	movlw	249
  3008  0749  00A8               	movwf	(___flmul@b+2)^(0+128)
  3009  074A  30F5               	movlw	245
  3010  074B  00A7               	movwf	(___flmul@b+1)^(0+128)
  3011  074C  305A               	movlw	90
  3012  074D  00A6               	movwf	___flmul@b^(0+128)
  3013  074E  120A  118A  2068  120A  118A  	fcall	___flmul
  3014  0753  1683               	bsf	3,5	;RP0=1, select bank1
  3015  0754  1303               	bcf	3,6	;RP1=0, select bank1
  3016  0755  0829               	movf	(?___flmul+3)^(0+128),w
  3017  0756  00C3               	movwf	(___fltol@f1+3)^(0+128)
  3018  0757  0828               	movf	(?___flmul+2)^(0+128),w
  3019  0758  00C2               	movwf	(___fltol@f1+2)^(0+128)
  3020  0759  0827               	movf	(?___flmul+1)^(0+128),w
  3021  075A  00C1               	movwf	(___fltol@f1+1)^(0+128)
  3022  075B  0826               	movf	?___flmul^(0+128),w
  3023  075C  00C0               	movwf	___fltol@f1^(0+128)
  3024  075D  120A  118A  2677  120A  118A  	fcall	___fltol
  3025  0762  1683               	bsf	3,5	;RP0=1, select bank1
  3026  0763  1303               	bcf	3,6	;RP1=0, select bank1
  3027  0764  0840               	movf	?___fltol^(0+128),w
  3028  0765  00FF               	movwf	btemp+1
  3029  0766  087F               	movf	btemp+1,w
  3030  0767  1283               	bcf	3,5	;RP0=0, select bank0
  3031  0768  1303               	bcf	3,6	;RP1=0, select bank0
  3032  0769  00CE               	movwf	_Temperature
  3033  076A                     l3643:
  3034                           
  3035                           ;Temperature/Temperature.c: 48:  Average_Value(Temperature.Temp_Value, &Temperature.Aver
      +                          age_Value);
  3036  076A  304F               	movlw	(low ((_Temperature| 0+1)))& (0+255)
  3037  076B  00FF               	movwf	btemp+1
  3038  076C  087F               	movf	btemp+1,w
  3039  076D  00BF               	movwf	Average_Value@Avrage_Values
  3040  076E  084E               	movf	_Temperature,w
  3041  076F  120A  118A  252E  120A  118A  	fcall	_Average_Value
  3042  0774                     l3645:
  3043                           
  3044                           ;Temperature/Temperature.c: 49:  Temperature.Average_NValues=(Temperature.Average_NValue
      +                          s+1)%10U;
  3045  0774  300A               	movlw	10
  3046  0775  1283               	bcf	3,5	;RP0=0, select bank0
  3047  0776  1303               	bcf	3,6	;RP1=0, select bank0
  3048  0777  00B6               	movwf	___lwmod@divisor
  3049  0778  3000               	movlw	0
  3050  0779  00B7               	movwf	___lwmod@divisor+1
  3051  077A  0853               	movf	_Temperature+5,w
  3052  077B  3E01               	addlw	1
  3053  077C  00B8               	movwf	___lwmod@dividend
  3054  077D  3000               	movlw	0
  3055  077E  1803               	skipnc
  3056  077F  3001               	movlw	1
  3057  0780  00B9               	movwf	___lwmod@dividend+1
  3058  0781  120A  158A  23D1  120A  118A  	fcall	___lwmod
  3059  0786  1283               	bcf	3,5	;RP0=0, select bank0
  3060  0787  1303               	bcf	3,6	;RP1=0, select bank0
  3061  0788  0836               	movf	?___lwmod,w
  3062  0789  00FF               	movwf	btemp+1
  3063  078A  087F               	movf	btemp+1,w
  3064  078B  00D3               	movwf	_Temperature+5
  3065  078C                     l3647:
  3066                           
  3067                           ;Temperature/Temperature.c: 51:  if(Temperature.Average_NValues==9)
  3068  078C  3009               	movlw	9
  3069  078D  0653               	xorwf	_Temperature+5,w
  3070  078E  1D03               	btfss	3,2
  3071  078F  2F91               	goto	u5091
  3072  0790  2F92               	goto	u5090
  3073  0791                     u5091:
  3074  0791  2F93               	goto	l340
  3075  0792                     u5090:
  3076  0792                     l3649:
  3077                           
  3078                           ;Temperature/Temperature.c: 52:  {;Temperature/Temperature.c: 53:        Temperature.Ave
      +                          rage_Value_Ready_Flag=1;
  3079  0792  1452               	bsf	_Temperature+4,0
  3080  0793                     l340:
  3081  0793  0008               	return
  3082  0794                     __end_of_Temperature_Calc:
  3083                           
  3084                           	psect	text13
  3085  0423                     __ptext13:	
  3086 ;; *************** function ___xxtofl *****************
  3087 ;; Defined at:
  3088 ;;		line 10 in file "C:\Program Files (x86)\Microchip\xc8\v2.20\pic\sources\c90\common\xxtofl.c"
  3089 ;; Parameters:    Size  Location     Type
  3090 ;;  sign            1    wreg     unsigned char 
  3091 ;;  val             4   22[BANK0 ] long 
  3092 ;; Auto vars:     Size  Location     Type
  3093 ;;  sign            1    0[BANK1 ] unsigned char 
  3094 ;;  arg             4    2[BANK1 ] unsigned long 
  3095 ;;  exp             1    1[BANK1 ] unsigned char 
  3096 ;; Return value:  Size  Location     Type
  3097 ;;                  4   22[BANK0 ] unsigned char 
  3098 ;; Registers used:
  3099 ;;		wreg, status,2, status,0, btemp+1
  3100 ;; Tracked objects:
  3101 ;;		On entry : 0/0
  3102 ;;		On exit  : 0/0
  3103 ;;		Unchanged: 0/0
  3104 ;; Data sizes:     COMMON   BANK0   BANK1   BANK3   BANK2
  3105 ;;      Params:         0       4       0       0       0
  3106 ;;      Locals:         0       0       6       0       0
  3107 ;;      Temps:          0       4       0       0       0
  3108 ;;      Totals:         0       8       6       0       0
  3109 ;;Total ram usage:       14 bytes
  3110 ;; Hardware stack levels used:    1
  3111 ;; Hardware stack levels required when called:    4
  3112 ;; This function calls:
  3113 ;;		Nothing
  3114 ;; This function is called by:
  3115 ;;		_Temperature_Calc
  3116 ;; This function uses a non-reentrant model
  3117 ;;
  3118                           
  3119                           
  3120                           ;psect for function ___xxtofl
  3121  0423                     ___xxtofl:
  3122                           
  3123                           ;incstack = 0
  3124 ;; hardware stack exceeded
  3125                           ; Regs used in ___xxtofl: [wreg+status,2+status,0+btemp+1]
  3126                           ;___xxtofl@sign stored from wreg
  3127  0423  1683               	bsf	3,5	;RP0=1, select bank1
  3128  0424  1303               	bcf	3,6	;RP1=0, select bank1
  3129  0425  00A0               	movwf	___xxtofl@sign^(0+128)
  3130  0426                     l3571:
  3131  0426  0820               	movf	___xxtofl@sign^(0+128),w
  3132  0427  1903               	btfsc	3,2
  3133  0428  2C2A               	goto	u4931
  3134  0429  2C2B               	goto	u4930
  3135  042A                     u4931:
  3136  042A  2C4F               	goto	l3577
  3137  042B                     u4930:
  3138  042B                     l3573:
  3139  042B  1283               	bcf	3,5	;RP0=0, select bank0
  3140  042C  1303               	bcf	3,6	;RP1=0, select bank0
  3141  042D  1FB9               	btfss	___xxtofl@val+3,7
  3142  042E  2C30               	goto	u4941
  3143  042F  2C31               	goto	u4940
  3144  0430                     u4941:
  3145  0430  2C4F               	goto	l3577
  3146  0431                     u4940:
  3147  0431                     l3575:
  3148  0431  0936               	comf	___xxtofl@val,w
  3149  0432  1683               	bsf	3,5	;RP0=1, select bank1
  3150  0433  1303               	bcf	3,6	;RP1=0, select bank1
  3151  0434  00A2               	movwf	___xxtofl@arg^(0+128)
  3152  0435  1283               	bcf	3,5	;RP0=0, select bank0
  3153  0436  1303               	bcf	3,6	;RP1=0, select bank0
  3154  0437  0937               	comf	___xxtofl@val+1,w
  3155  0438  1683               	bsf	3,5	;RP0=1, select bank1
  3156  0439  1303               	bcf	3,6	;RP1=0, select bank1
  3157  043A  00A3               	movwf	(___xxtofl@arg+1)^(0+128)
  3158  043B  1283               	bcf	3,5	;RP0=0, select bank0
  3159  043C  1303               	bcf	3,6	;RP1=0, select bank0
  3160  043D  0938               	comf	___xxtofl@val+2,w
  3161  043E  1683               	bsf	3,5	;RP0=1, select bank1
  3162  043F  1303               	bcf	3,6	;RP1=0, select bank1
  3163  0440  00A4               	movwf	(___xxtofl@arg+2)^(0+128)
  3164  0441  1283               	bcf	3,5	;RP0=0, select bank0
  3165  0442  1303               	bcf	3,6	;RP1=0, select bank0
  3166  0443  0939               	comf	___xxtofl@val+3,w
  3167  0444  1683               	bsf	3,5	;RP0=1, select bank1
  3168  0445  1303               	bcf	3,6	;RP1=0, select bank1
  3169  0446  00A5               	movwf	(___xxtofl@arg+3)^(0+128)
  3170  0447  0AA2               	incf	___xxtofl@arg^(0+128),f
  3171  0448  1903               	skipnz
  3172  0449  0AA3               	incf	(___xxtofl@arg+1)^(0+128),f
  3173  044A  1903               	skipnz
  3174  044B  0AA4               	incf	(___xxtofl@arg+2)^(0+128),f
  3175  044C  1903               	skipnz
  3176  044D  0AA5               	incf	(___xxtofl@arg+3)^(0+128),f
  3177  044E  2C66               	goto	l1080
  3178  044F                     l3577:
  3179  044F  1283               	bcf	3,5	;RP0=0, select bank0
  3180  0450  0839               	movf	___xxtofl@val+3,w
  3181  0451  1683               	bsf	3,5	;RP0=1, select bank1
  3182  0452  1303               	bcf	3,6	;RP1=0, select bank1
  3183  0453  00A5               	movwf	(___xxtofl@arg+3)^(0+128)
  3184  0454  1283               	bcf	3,5	;RP0=0, select bank0
  3185  0455  1303               	bcf	3,6	;RP1=0, select bank0
  3186  0456  0838               	movf	___xxtofl@val+2,w
  3187  0457  1683               	bsf	3,5	;RP0=1, select bank1
  3188  0458  1303               	bcf	3,6	;RP1=0, select bank1
  3189  0459  00A4               	movwf	(___xxtofl@arg+2)^(0+128)
  3190  045A  1283               	bcf	3,5	;RP0=0, select bank0
  3191  045B  1303               	bcf	3,6	;RP1=0, select bank0
  3192  045C  0837               	movf	___xxtofl@val+1,w
  3193  045D  1683               	bsf	3,5	;RP0=1, select bank1
  3194  045E  1303               	bcf	3,6	;RP1=0, select bank1
  3195  045F  00A3               	movwf	(___xxtofl@arg+1)^(0+128)
  3196  0460  1283               	bcf	3,5	;RP0=0, select bank0
  3197  0461  1303               	bcf	3,6	;RP1=0, select bank0
  3198  0462  0836               	movf	___xxtofl@val,w
  3199  0463  1683               	bsf	3,5	;RP0=1, select bank1
  3200  0464  1303               	bcf	3,6	;RP1=0, select bank1
  3201  0465  00A2               	movwf	___xxtofl@arg^(0+128)
  3202  0466                     l1080:
  3203  0466  1283               	bcf	3,5	;RP0=0, select bank0
  3204  0467  1303               	bcf	3,6	;RP1=0, select bank0
  3205  0468  0839               	movf	___xxtofl@val+3,w
  3206  0469  0438               	iorwf	___xxtofl@val+2,w
  3207  046A  0437               	iorwf	___xxtofl@val+1,w
  3208  046B  0436               	iorwf	___xxtofl@val,w
  3209  046C  1D03               	skipz
  3210  046D  2C6F               	goto	u4951
  3211  046E  2C70               	goto	u4950
  3212  046F                     u4951:
  3213  046F  2C79               	goto	l3583
  3214  0470                     u4950:
  3215  0470                     l3579:
  3216  0470  3000               	movlw	0
  3217  0471  00B9               	movwf	?___xxtofl+3
  3218  0472  3000               	movlw	0
  3219  0473  00B8               	movwf	?___xxtofl+2
  3220  0474  3000               	movlw	0
  3221  0475  00B7               	movwf	?___xxtofl+1
  3222  0476  3000               	movlw	0
  3223  0477  00B6               	movwf	?___xxtofl
  3224  0478  2D2D               	goto	l1082
  3225  0479                     l3583:
  3226  0479  3096               	movlw	150
  3227  047A  00FF               	movwf	btemp+1
  3228  047B  087F               	movf	btemp+1,w
  3229  047C  1683               	bsf	3,5	;RP0=1, select bank1
  3230  047D  1303               	bcf	3,6	;RP1=0, select bank1
  3231  047E  00A1               	movwf	___xxtofl@exp^(0+128)
  3232  047F  2C8D               	goto	l3589
  3233  0480                     l3585:
  3234  0480  3001               	movlw	1
  3235  0481  00FF               	movwf	btemp+1
  3236  0482  087F               	movf	btemp+1,w
  3237  0483  07A1               	addwf	___xxtofl@exp^(0+128),f
  3238  0484                     l3587:
  3239  0484  3001               	movlw	1
  3240  0485                     u4965:
  3241  0485  1003               	clrc
  3242  0486  0CA5               	rrf	(___xxtofl@arg+3)^(0+128),f
  3243  0487  0CA4               	rrf	(___xxtofl@arg+2)^(0+128),f
  3244  0488  0CA3               	rrf	(___xxtofl@arg+1)^(0+128),f
  3245  0489  0CA2               	rrf	___xxtofl@arg^(0+128),f
  3246  048A  3EFF               	addlw	-1
  3247  048B  1D03               	skipz
  3248  048C  2C85               	goto	u4965
  3249  048D                     l3589:
  3250  048D  30FE               	movlw	254
  3251  048E  0525               	andwf	(___xxtofl@arg+3)^(0+128),w
  3252  048F  1D03               	btfss	3,2
  3253  0490  2C92               	goto	u4971
  3254  0491  2C93               	goto	u4970
  3255  0492                     u4971:
  3256  0492  2C80               	goto	l3585
  3257  0493                     u4970:
  3258  0493  2CAF               	goto	l3597
  3259  0494                     l3591:
  3260  0494  3001               	movlw	1
  3261  0495  00FF               	movwf	btemp+1
  3262  0496  087F               	movf	btemp+1,w
  3263  0497  07A1               	addwf	___xxtofl@exp^(0+128),f
  3264  0498                     l3593:
  3265  0498  3001               	movlw	1
  3266  0499  07A2               	addwf	___xxtofl@arg^(0+128),f
  3267  049A  3000               	movlw	0
  3268  049B  1803               	skipnc
  3269  049C  3001               	movlw	1
  3270  049D  07A3               	addwf	(___xxtofl@arg+1)^(0+128),f
  3271  049E  3000               	movlw	0
  3272  049F  1803               	skipnc
  3273  04A0  3001               	movlw	1
  3274  04A1  07A4               	addwf	(___xxtofl@arg+2)^(0+128),f
  3275  04A2  3000               	movlw	0
  3276  04A3  1803               	skipnc
  3277  04A4  3001               	movlw	1
  3278  04A5  07A5               	addwf	(___xxtofl@arg+3)^(0+128),f
  3279  04A6                     l3595:
  3280  04A6  3001               	movlw	1
  3281  04A7                     u4985:
  3282  04A7  1003               	clrc
  3283  04A8  0CA5               	rrf	(___xxtofl@arg+3)^(0+128),f
  3284  04A9  0CA4               	rrf	(___xxtofl@arg+2)^(0+128),f
  3285  04AA  0CA3               	rrf	(___xxtofl@arg+1)^(0+128),f
  3286  04AB  0CA2               	rrf	___xxtofl@arg^(0+128),f
  3287  04AC  3EFF               	addlw	-1
  3288  04AD  1D03               	skipz
  3289  04AE  2CA7               	goto	u4985
  3290  04AF                     l3597:
  3291  04AF  30FF               	movlw	255
  3292  04B0  0525               	andwf	(___xxtofl@arg+3)^(0+128),w
  3293  04B1  1D03               	btfss	3,2
  3294  04B2  2CB4               	goto	u4991
  3295  04B3  2CB5               	goto	u4990
  3296  04B4                     u4991:
  3297  04B4  2C94               	goto	l3591
  3298  04B5                     u4990:
  3299  04B5  2CC7               	goto	l3601
  3300  04B6                     l3599:
  3301  04B6  3001               	movlw	1
  3302  04B7  02A1               	subwf	___xxtofl@exp^(0+128),f
  3303  04B8  3001               	movlw	1
  3304  04B9  1283               	bcf	3,5	;RP0=0, select bank0
  3305  04BA  1303               	bcf	3,6	;RP1=0, select bank0
  3306  04BB  00BA               	movwf	??___xxtofl
  3307  04BC                     u5005:
  3308  04BC  1003               	clrc
  3309  04BD  1683               	bsf	3,5	;RP0=1, select bank1
  3310  04BE  1303               	bcf	3,6	;RP1=0, select bank1
  3311  04BF  0DA2               	rlf	___xxtofl@arg^(0+128),f
  3312  04C0  0DA3               	rlf	(___xxtofl@arg+1)^(0+128),f
  3313  04C1  0DA4               	rlf	(___xxtofl@arg+2)^(0+128),f
  3314  04C2  0DA5               	rlf	(___xxtofl@arg+3)^(0+128),f
  3315  04C3  1283               	bcf	3,5	;RP0=0, select bank0
  3316  04C4  1303               	bcf	3,6	;RP1=0, select bank0
  3317  04C5  0BBA               	decfsz	??___xxtofl,f
  3318  04C6  2CBC               	goto	u5005
  3319  04C7                     l3601:
  3320  04C7  1683               	bsf	3,5	;RP0=1, select bank1
  3321  04C8  1303               	bcf	3,6	;RP1=0, select bank1
  3322  04C9  1BA4               	btfsc	(___xxtofl@arg+2)^(0+128),7
  3323  04CA  2CCC               	goto	u5011
  3324  04CB  2CCD               	goto	u5010
  3325  04CC                     u5011:
  3326  04CC  2CD3               	goto	l1093
  3327  04CD                     u5010:
  3328  04CD                     l3603:
  3329  04CD  3002               	movlw	2
  3330  04CE  0221               	subwf	___xxtofl@exp^(0+128),w
  3331  04CF  1803               	skipnc
  3332  04D0  2CD2               	goto	u5021
  3333  04D1  2CD3               	goto	u5020
  3334  04D2                     u5021:
  3335  04D2  2CB6               	goto	l3599
  3336  04D3                     u5020:
  3337  04D3                     l1093:
  3338  04D3  1821               	btfsc	___xxtofl@exp^(0+128),0
  3339  04D4  2CD6               	goto	u5031
  3340  04D5  2CD7               	goto	u5030
  3341  04D6                     u5031:
  3342  04D6  2CDF               	goto	l1094
  3343  04D7                     u5030:
  3344  04D7                     l3605:
  3345  04D7  30FF               	movlw	255
  3346  04D8  05A2               	andwf	___xxtofl@arg^(0+128),f
  3347  04D9  30FF               	movlw	255
  3348  04DA  05A3               	andwf	(___xxtofl@arg+1)^(0+128),f
  3349  04DB  307F               	movlw	127
  3350  04DC  05A4               	andwf	(___xxtofl@arg+2)^(0+128),f
  3351  04DD  30FF               	movlw	255
  3352  04DE  05A5               	andwf	(___xxtofl@arg+3)^(0+128),f
  3353  04DF                     l1094:
  3354  04DF  1003               	clrc
  3355  04E0  0CA1               	rrf	___xxtofl@exp^(0+128),f
  3356  04E1                     l3607:
  3357  04E1  0821               	movf	___xxtofl@exp^(0+128),w
  3358  04E2  1283               	bcf	3,5	;RP0=0, select bank0
  3359  04E3  1303               	bcf	3,6	;RP1=0, select bank0
  3360  04E4  00BA               	movwf	??___xxtofl
  3361  04E5  01BB               	clrf	??___xxtofl+1
  3362  04E6  01BC               	clrf	??___xxtofl+2
  3363  04E7  01BD               	clrf	??___xxtofl+3
  3364  04E8  3018               	movlw	24
  3365  04E9                     u5045:
  3366  04E9  1003               	clrc
  3367  04EA  0DBA               	rlf	??___xxtofl,f
  3368  04EB  0DBB               	rlf	??___xxtofl+1,f
  3369  04EC  0DBC               	rlf	??___xxtofl+2,f
  3370  04ED  0DBD               	rlf	??___xxtofl+3,f
  3371  04EE                     u5040:
  3372  04EE  3EFF               	addlw	-1
  3373  04EF  1D03               	skipz
  3374  04F0  2CE9               	goto	u5045
  3375  04F1  083A               	movf	??___xxtofl,w
  3376  04F2  1683               	bsf	3,5	;RP0=1, select bank1
  3377  04F3  1303               	bcf	3,6	;RP1=0, select bank1
  3378  04F4  04A2               	iorwf	___xxtofl@arg^(0+128),f
  3379  04F5  1283               	bcf	3,5	;RP0=0, select bank0
  3380  04F6  1303               	bcf	3,6	;RP1=0, select bank0
  3381  04F7  083B               	movf	??___xxtofl+1,w
  3382  04F8  1683               	bsf	3,5	;RP0=1, select bank1
  3383  04F9  1303               	bcf	3,6	;RP1=0, select bank1
  3384  04FA  04A3               	iorwf	(___xxtofl@arg+1)^(0+128),f
  3385  04FB  1283               	bcf	3,5	;RP0=0, select bank0
  3386  04FC  1303               	bcf	3,6	;RP1=0, select bank0
  3387  04FD  083C               	movf	??___xxtofl+2,w
  3388  04FE  1683               	bsf	3,5	;RP0=1, select bank1
  3389  04FF  1303               	bcf	3,6	;RP1=0, select bank1
  3390  0500  04A4               	iorwf	(___xxtofl@arg+2)^(0+128),f
  3391  0501  1283               	bcf	3,5	;RP0=0, select bank0
  3392  0502  1303               	bcf	3,6	;RP1=0, select bank0
  3393  0503  083D               	movf	??___xxtofl+3,w
  3394  0504  1683               	bsf	3,5	;RP0=1, select bank1
  3395  0505  1303               	bcf	3,6	;RP1=0, select bank1
  3396  0506  04A5               	iorwf	(___xxtofl@arg+3)^(0+128),f
  3397  0507                     l3609:
  3398  0507  0820               	movf	___xxtofl@sign^(0+128),w
  3399  0508  1903               	btfsc	3,2
  3400  0509  2D0B               	goto	u5051
  3401  050A  2D0C               	goto	u5050
  3402  050B                     u5051:
  3403  050B  2D15               	goto	l3615
  3404  050C                     u5050:
  3405  050C                     l3611:
  3406  050C  1283               	bcf	3,5	;RP0=0, select bank0
  3407  050D  1303               	bcf	3,6	;RP1=0, select bank0
  3408  050E  1FB9               	btfss	___xxtofl@val+3,7
  3409  050F  2D11               	goto	u5061
  3410  0510  2D12               	goto	u5060
  3411  0511                     u5061:
  3412  0511  2D15               	goto	l3615
  3413  0512                     u5060:
  3414  0512                     l3613:
  3415  0512  1683               	bsf	3,5	;RP0=1, select bank1
  3416  0513  1303               	bcf	3,6	;RP1=0, select bank1
  3417  0514  17A5               	bsf	(___xxtofl@arg^(0+128)+3),7
  3418  0515                     l3615:
  3419  0515  1683               	bsf	3,5	;RP0=1, select bank1
  3420  0516  1303               	bcf	3,6	;RP1=0, select bank1
  3421  0517  0825               	movf	(___xxtofl@arg+3)^(0+128),w
  3422  0518  1283               	bcf	3,5	;RP0=0, select bank0
  3423  0519  1303               	bcf	3,6	;RP1=0, select bank0
  3424  051A  00B9               	movwf	?___xxtofl+3
  3425  051B  1683               	bsf	3,5	;RP0=1, select bank1
  3426  051C  1303               	bcf	3,6	;RP1=0, select bank1
  3427  051D  0824               	movf	(___xxtofl@arg+2)^(0+128),w
  3428  051E  1283               	bcf	3,5	;RP0=0, select bank0
  3429  051F  1303               	bcf	3,6	;RP1=0, select bank0
  3430  0520  00B8               	movwf	?___xxtofl+2
  3431  0521  1683               	bsf	3,5	;RP0=1, select bank1
  3432  0522  1303               	bcf	3,6	;RP1=0, select bank1
  3433  0523  0823               	movf	(___xxtofl@arg+1)^(0+128),w
  3434  0524  1283               	bcf	3,5	;RP0=0, select bank0
  3435  0525  1303               	bcf	3,6	;RP1=0, select bank0
  3436  0526  00B7               	movwf	?___xxtofl+1
  3437  0527  1683               	bsf	3,5	;RP0=1, select bank1
  3438  0528  1303               	bcf	3,6	;RP1=0, select bank1
  3439  0529  0822               	movf	___xxtofl@arg^(0+128),w
  3440  052A  1283               	bcf	3,5	;RP0=0, select bank0
  3441  052B  1303               	bcf	3,6	;RP1=0, select bank0
  3442  052C  00B6               	movwf	?___xxtofl
  3443  052D                     l1082:
  3444  052D  0008               	return
  3445  052E                     __end_of___xxtofl:
  3446                           
  3447                           	psect	text14
  3448  0677                     __ptext14:	
  3449 ;; *************** function ___fltol *****************
  3450 ;; Defined at:
  3451 ;;		line 43 in file "C:\Program Files (x86)\Microchip\xc8\v2.20\pic\sources\c90\common\fltol.c"
  3452 ;; Parameters:    Size  Location     Type
  3453 ;;  f1              4   32[BANK1 ] unsigned char 
  3454 ;; Auto vars:     Size  Location     Type
  3455 ;;  exp1            1   32[BANK0 ] unsigned char 
  3456 ;;  sign1           1   31[BANK0 ] unsigned char 
  3457 ;; Return value:  Size  Location     Type
  3458 ;;                  4   32[BANK1 ] long 
  3459 ;; Registers used:
  3460 ;;		wreg, status,2, status,0, btemp+1
  3461 ;; Tracked objects:
  3462 ;;		On entry : 0/0
  3463 ;;		On exit  : 0/0
  3464 ;;		Unchanged: 0/0
  3465 ;; Data sizes:     COMMON   BANK0   BANK1   BANK3   BANK2
  3466 ;;      Params:         0       0       4       0       0
  3467 ;;      Locals:         0       2       0       0       0
  3468 ;;      Temps:          0       0       4       0       0
  3469 ;;      Totals:         0       2       8       0       0
  3470 ;;Total ram usage:       10 bytes
  3471 ;; Hardware stack levels used:    1
  3472 ;; Hardware stack levels required when called:    4
  3473 ;; This function calls:
  3474 ;;		Nothing
  3475 ;; This function is called by:
  3476 ;;		_Temperature_Calc
  3477 ;; This function uses a non-reentrant model
  3478 ;;
  3479                           
  3480                           
  3481                           ;psect for function ___fltol
  3482  0677                     ___fltol:
  3483  0677                     l3391:	
  3484                           ;incstack = 0
  3485 ;; hardware stack exceeded
  3486                           ; Regs used in ___fltol: [wreg+status,2+status,0+btemp+1]
  3487                           
  3488  0677  1003               	clrc
  3489  0678  1683               	bsf	3,5	;RP0=1, select bank1
  3490  0679  1303               	bcf	3,6	;RP1=0, select bank1
  3491  067A  0D42               	rlf	(___fltol@f1+2)^(0+128),w
  3492  067B  0D43               	rlf	(___fltol@f1+3)^(0+128),w
  3493  067C  00FF               	movwf	btemp+1
  3494  067D  087F               	movf	btemp+1,w
  3495  067E  1283               	bcf	3,5	;RP0=0, select bank0
  3496  067F  1303               	bcf	3,6	;RP1=0, select bank0
  3497  0680  00C0               	movwf	___fltol@exp1
  3498  0681  0840               	movf	___fltol@exp1,w
  3499  0682  1D03               	btfss	3,2
  3500  0683  2E85               	goto	u4461
  3501  0684  2E86               	goto	u4460
  3502  0685                     u4461:
  3503  0685  2E91               	goto	l3397
  3504  0686                     u4460:
  3505  0686                     l3393:
  3506  0686  3000               	movlw	0
  3507  0687  1683               	bsf	3,5	;RP0=1, select bank1
  3508  0688  1303               	bcf	3,6	;RP1=0, select bank1
  3509  0689  00C3               	movwf	(?___fltol+3)^(0+128)
  3510  068A  3000               	movlw	0
  3511  068B  00C2               	movwf	(?___fltol+2)^(0+128)
  3512  068C  3000               	movlw	0
  3513  068D  00C1               	movwf	(?___fltol+1)^(0+128)
  3514  068E  3000               	movlw	0
  3515  068F  00C0               	movwf	?___fltol^(0+128)
  3516  0690  2F08               	goto	l833
  3517  0691                     l3397:
  3518  0691  1683               	bsf	3,5	;RP0=1, select bank1
  3519  0692  1303               	bcf	3,6	;RP1=0, select bank1
  3520  0693  0840               	movf	___fltol@f1^(0+128),w
  3521  0694  00C4               	movwf	??___fltol^(0+128)
  3522  0695  0841               	movf	(___fltol@f1+1)^(0+128),w
  3523  0696  00C5               	movwf	(??___fltol^(0+128)+1)
  3524  0697  0842               	movf	(___fltol@f1+2)^(0+128),w
  3525  0698  00C6               	movwf	(??___fltol^(0+128)+2)
  3526  0699  0843               	movf	(___fltol@f1+3)^(0+128),w
  3527  069A  00C7               	movwf	(??___fltol^(0+128)+3)
  3528  069B  301F               	movlw	31
  3529  069C                     u4475:
  3530  069C  1003               	clrc
  3531  069D  0CC7               	rrf	(??___fltol^(0+128)+3),f
  3532  069E  0CC6               	rrf	(??___fltol^(0+128)+2),f
  3533  069F  0CC5               	rrf	(??___fltol^(0+128)+1),f
  3534  06A0  0CC4               	rrf	??___fltol^(0+128),f
  3535  06A1                     u4470:
  3536  06A1  3EFF               	addlw	-1
  3537  06A2  1D03               	skipz
  3538  06A3  2E9C               	goto	u4475
  3539  06A4  0844               	movf	??___fltol^(0+128),w
  3540  06A5  00FF               	movwf	btemp+1
  3541  06A6  087F               	movf	btemp+1,w
  3542  06A7  1283               	bcf	3,5	;RP0=0, select bank0
  3543  06A8  1303               	bcf	3,6	;RP1=0, select bank0
  3544  06A9  00BF               	movwf	___fltol@sign1
  3545  06AA                     l3399:
  3546  06AA  1683               	bsf	3,5	;RP0=1, select bank1
  3547  06AB  1303               	bcf	3,6	;RP1=0, select bank1
  3548  06AC  17C2               	bsf	(___fltol@f1^(0+128)+2),7
  3549  06AD                     l3401:
  3550  06AD  30FF               	movlw	255
  3551  06AE  05C0               	andwf	___fltol@f1^(0+128),f
  3552  06AF  30FF               	movlw	255
  3553  06B0  05C1               	andwf	(___fltol@f1+1)^(0+128),f
  3554  06B1  30FF               	movlw	255
  3555  06B2  05C2               	andwf	(___fltol@f1+2)^(0+128),f
  3556  06B3  3000               	movlw	0
  3557  06B4  05C3               	andwf	(___fltol@f1+3)^(0+128),f
  3558  06B5                     l3403:
  3559  06B5  3096               	movlw	150
  3560  06B6  1283               	bcf	3,5	;RP0=0, select bank0
  3561  06B7  1303               	bcf	3,6	;RP1=0, select bank0
  3562  06B8  02C0               	subwf	___fltol@exp1,f
  3563  06B9                     l3405:
  3564  06B9  1FC0               	btfss	___fltol@exp1,7
  3565  06BA  2EBC               	goto	u4481
  3566  06BB  2EBD               	goto	u4480
  3567  06BC                     u4481:
  3568  06BC  2EDB               	goto	l3417
  3569  06BD                     u4480:
  3570  06BD                     l3407:
  3571  06BD  0840               	movf	___fltol@exp1,w
  3572  06BE  3A80               	xorlw	128
  3573  06BF  3E97               	addlw	151
  3574  06C0  1803               	skipnc
  3575  06C1  2EC3               	goto	u4491
  3576  06C2  2EC4               	goto	u4490
  3577  06C3                     u4491:
  3578  06C3  2EC5               	goto	l3413
  3579  06C4                     u4490:
  3580  06C4  2E86               	goto	l3393
  3581  06C5                     l3413:
  3582  06C5  3001               	movlw	1
  3583  06C6                     u4505:
  3584  06C6  1003               	clrc
  3585  06C7  1683               	bsf	3,5	;RP0=1, select bank1
  3586  06C8  1303               	bcf	3,6	;RP1=0, select bank1
  3587  06C9  0CC3               	rrf	(___fltol@f1+3)^(0+128),f
  3588  06CA  0CC2               	rrf	(___fltol@f1+2)^(0+128),f
  3589  06CB  0CC1               	rrf	(___fltol@f1+1)^(0+128),f
  3590  06CC  0CC0               	rrf	___fltol@f1^(0+128),f
  3591  06CD  3EFF               	addlw	-1
  3592  06CE  1D03               	skipz
  3593  06CF  2EC6               	goto	u4505
  3594  06D0                     l3415:
  3595  06D0  3001               	movlw	1
  3596  06D1  00FF               	movwf	btemp+1
  3597  06D2  087F               	movf	btemp+1,w
  3598  06D3  1283               	bcf	3,5	;RP0=0, select bank0
  3599  06D4  1303               	bcf	3,6	;RP1=0, select bank0
  3600  06D5  07C0               	addwf	___fltol@exp1,f
  3601  06D6  1D03               	btfss	3,2
  3602  06D7  2ED9               	goto	u4511
  3603  06D8  2EDA               	goto	u4510
  3604  06D9                     u4511:
  3605  06D9  2EC5               	goto	l3413
  3606  06DA                     u4510:
  3607  06DA  2EF6               	goto	l3425
  3608  06DB                     l3417:
  3609  06DB  3020               	movlw	32
  3610  06DC  0240               	subwf	___fltol@exp1,w
  3611  06DD  1C03               	skipc
  3612  06DE  2EE0               	goto	u4521
  3613  06DF  2EE1               	goto	u4520
  3614  06E0                     u4521:
  3615  06E0  2EF1               	goto	l840
  3616  06E1                     u4520:
  3617  06E1  2E86               	goto	l3393
  3618  06E2                     l3423:
  3619  06E2  3001               	movlw	1
  3620  06E3  1683               	bsf	3,5	;RP0=1, select bank1
  3621  06E4  1303               	bcf	3,6	;RP1=0, select bank1
  3622  06E5  00C4               	movwf	??___fltol^(0+128)
  3623  06E6                     u4535:
  3624  06E6  1003               	clrc
  3625  06E7  0DC0               	rlf	___fltol@f1^(0+128),f
  3626  06E8  0DC1               	rlf	(___fltol@f1+1)^(0+128),f
  3627  06E9  0DC2               	rlf	(___fltol@f1+2)^(0+128),f
  3628  06EA  0DC3               	rlf	(___fltol@f1+3)^(0+128),f
  3629  06EB  0BC4               	decfsz	??___fltol^(0+128),f
  3630  06EC  2EE6               	goto	u4535
  3631  06ED  3001               	movlw	1
  3632  06EE  1283               	bcf	3,5	;RP0=0, select bank0
  3633  06EF  1303               	bcf	3,6	;RP1=0, select bank0
  3634  06F0  02C0               	subwf	___fltol@exp1,f
  3635  06F1                     l840:
  3636  06F1  0840               	movf	___fltol@exp1,w
  3637  06F2  1D03               	btfss	3,2
  3638  06F3  2EF5               	goto	u4541
  3639  06F4  2EF6               	goto	u4540
  3640  06F5                     u4541:
  3641  06F5  2EE2               	goto	l3423
  3642  06F6                     u4540:
  3643  06F6                     l3425:
  3644  06F6  083F               	movf	___fltol@sign1,w
  3645  06F7  1903               	btfsc	3,2
  3646  06F8  2EFA               	goto	u4551
  3647  06F9  2EFB               	goto	u4550
  3648  06FA                     u4551:
  3649  06FA  2F08               	goto	l843
  3650  06FB                     u4550:
  3651  06FB                     l3427:
  3652  06FB  1683               	bsf	3,5	;RP0=1, select bank1
  3653  06FC  1303               	bcf	3,6	;RP1=0, select bank1
  3654  06FD  09C0               	comf	___fltol@f1^(0+128),f
  3655  06FE  09C1               	comf	(___fltol@f1+1)^(0+128),f
  3656  06FF  09C2               	comf	(___fltol@f1+2)^(0+128),f
  3657  0700  09C3               	comf	(___fltol@f1+3)^(0+128),f
  3658  0701  0AC0               	incf	___fltol@f1^(0+128),f
  3659  0702  1903               	skipnz
  3660  0703  0AC1               	incf	(___fltol@f1+1)^(0+128),f
  3661  0704  1903               	skipnz
  3662  0705  0AC2               	incf	(___fltol@f1+2)^(0+128),f
  3663  0706  1903               	skipnz
  3664  0707  0AC3               	incf	(___fltol@f1+3)^(0+128),f
  3665  0708                     l843:
  3666  0708                     l833:
  3667  0708  0008               	return
  3668  0709                     __end_of___fltol:
  3669                           
  3670                           	psect	text15
  3671  0068                     __ptext15:	
  3672 ;; *************** function ___flmul *****************
  3673 ;; Defined at:
  3674 ;;		line 8 in file "C:\Program Files (x86)\Microchip\xc8\v2.20\pic\sources\c90\common\sprcmul.c"
  3675 ;; Parameters:    Size  Location     Type
  3676 ;;  b               4    6[BANK1 ] long 
  3677 ;;  a               4   10[BANK1 ] long 
  3678 ;; Auto vars:     Size  Location     Type
  3679 ;;  prod            4   26[BANK1 ] struct .
  3680 ;;  grs             4   21[BANK1 ] unsigned long 
  3681 ;;  temp            2   30[BANK1 ] struct .
  3682 ;;  bexp            1   25[BANK1 ] unsigned char 
  3683 ;;  aexp            1   20[BANK1 ] unsigned char 
  3684 ;;  sign            1   19[BANK1 ] unsigned char 
  3685 ;; Return value:  Size  Location     Type
  3686 ;;                  4    6[BANK1 ] unsigned char 
  3687 ;; Registers used:
  3688 ;;		wreg, status,2, status,0, btemp+1, pclath, cstack
  3689 ;; Tracked objects:
  3690 ;;		On entry : 0/0
  3691 ;;		On exit  : 0/0
  3692 ;;		Unchanged: 0/0
  3693 ;; Data sizes:     COMMON   BANK0   BANK1   BANK3   BANK2
  3694 ;;      Params:         0       0       8       0       0
  3695 ;;      Locals:         0       0      13       0       0
  3696 ;;      Temps:          0       0       5       0       0
  3697 ;;      Totals:         0       0      26       0       0
  3698 ;;Total ram usage:       26 bytes
  3699 ;; Hardware stack levels used:    1
  3700 ;; Hardware stack levels required when called:    5
  3701 ;; This function calls:
  3702 ;;		__Umul8_16
  3703 ;; This function is called by:
  3704 ;;		_Temperature_Calc
  3705 ;; This function uses a non-reentrant model
  3706 ;;
  3707                           
  3708                           
  3709                           ;psect for function ___flmul
  3710  0068                     ___flmul:
  3711  0068                     l3429:	
  3712                           ;incstack = 0
  3713 ;; hardware stack exceeded
  3714                           ; Regs used in ___flmul: [wreg+status,2+status,0+btemp+1+pclath+cstack]
  3715                           
  3716  0068  1683               	bsf	3,5	;RP0=1, select bank1
  3717  0069  1303               	bcf	3,6	;RP1=0, select bank1
  3718  006A  0829               	movf	(___flmul@b^(0+128)+3),w
  3719  006B  3980               	andlw	128
  3720  006C  00FF               	movwf	btemp+1
  3721  006D  087F               	movf	btemp+1,w
  3722  006E  00B3               	movwf	___flmul@sign^(0+128)
  3723  006F                     l3431:
  3724  006F  0829               	movf	(___flmul@b^(0+128)+3),w
  3725  0070  00AE               	movwf	??___flmul^(0+128)
  3726  0071  072E               	addwf	??___flmul^(0+128),w
  3727  0072  00FF               	movwf	btemp+1
  3728  0073  087F               	movf	btemp+1,w
  3729  0074  00B9               	movwf	___flmul@bexp^(0+128)
  3730  0075                     l3433:
  3731  0075  1FA8               	btfss	(___flmul@b^(0+128)+2),7
  3732  0076  2878               	goto	u4561
  3733  0077  2879               	goto	u4560
  3734  0078                     u4561:
  3735  0078  287A               	goto	l3437
  3736  0079                     u4560:
  3737  0079                     l3435:
  3738  0079  1439               	bsf	___flmul@bexp^(0+128),0
  3739  007A                     l3437:
  3740  007A  0839               	movf	___flmul@bexp^(0+128),w
  3741  007B  1903               	btfsc	3,2
  3742  007C  287E               	goto	u4571
  3743  007D  287F               	goto	u4570
  3744  007E                     u4571:
  3745  007E  288E               	goto	l3445
  3746  007F                     u4570:
  3747  007F                     l3439:
  3748  007F  0A39               	incf	___flmul@bexp^(0+128),w
  3749  0080  1D03               	btfss	3,2
  3750  0081  2883               	goto	u4581
  3751  0082  2884               	goto	u4580
  3752  0083                     u4581:
  3753  0083  288C               	goto	l3443
  3754  0084                     u4580:
  3755  0084                     l3441:
  3756  0084  3000               	movlw	0
  3757  0085  00A9               	movwf	(___flmul@b+3)^(0+128)
  3758  0086  3000               	movlw	0
  3759  0087  00A8               	movwf	(___flmul@b+2)^(0+128)
  3760  0088  3000               	movlw	0
  3761  0089  00A7               	movwf	(___flmul@b+1)^(0+128)
  3762  008A  3000               	movlw	0
  3763  008B  00A6               	movwf	___flmul@b^(0+128)
  3764  008C                     l3443:
  3765  008C  17A8               	bsf	(___flmul@b^(0+128)+2),7
  3766  008D  2896               	goto	l3447
  3767  008E                     l3445:
  3768  008E  3000               	movlw	0
  3769  008F  00A9               	movwf	(___flmul@b+3)^(0+128)
  3770  0090  3000               	movlw	0
  3771  0091  00A8               	movwf	(___flmul@b+2)^(0+128)
  3772  0092  3000               	movlw	0
  3773  0093  00A7               	movwf	(___flmul@b+1)^(0+128)
  3774  0094  3000               	movlw	0
  3775  0095  00A6               	movwf	___flmul@b^(0+128)
  3776  0096                     l3447:
  3777  0096  082D               	movf	(___flmul@a^(0+128)+3),w
  3778  0097  3980               	andlw	128
  3779  0098  00FF               	movwf	btemp+1
  3780  0099  087F               	movf	btemp+1,w
  3781  009A  06B3               	xorwf	___flmul@sign^(0+128),f
  3782  009B                     l3449:
  3783  009B  082D               	movf	(___flmul@a^(0+128)+3),w
  3784  009C  00AE               	movwf	??___flmul^(0+128)
  3785  009D  072E               	addwf	??___flmul^(0+128),w
  3786  009E  00FF               	movwf	btemp+1
  3787  009F  087F               	movf	btemp+1,w
  3788  00A0  00B4               	movwf	___flmul@aexp^(0+128)
  3789  00A1                     l3451:
  3790  00A1  1FAC               	btfss	(___flmul@a^(0+128)+2),7
  3791  00A2  28A4               	goto	u4591
  3792  00A3  28A5               	goto	u4590
  3793  00A4                     u4591:
  3794  00A4  28A6               	goto	l3455
  3795  00A5                     u4590:
  3796  00A5                     l3453:
  3797  00A5  1434               	bsf	___flmul@aexp^(0+128),0
  3798  00A6                     l3455:
  3799  00A6  0834               	movf	___flmul@aexp^(0+128),w
  3800  00A7  1903               	btfsc	3,2
  3801  00A8  28AA               	goto	u4601
  3802  00A9  28AB               	goto	u4600
  3803  00AA                     u4601:
  3804  00AA  28BA               	goto	l3463
  3805  00AB                     u4600:
  3806  00AB                     l3457:
  3807  00AB  0A34               	incf	___flmul@aexp^(0+128),w
  3808  00AC  1D03               	btfss	3,2
  3809  00AD  28AF               	goto	u4611
  3810  00AE  28B0               	goto	u4610
  3811  00AF                     u4611:
  3812  00AF  28B8               	goto	l3461
  3813  00B0                     u4610:
  3814  00B0                     l3459:
  3815  00B0  3000               	movlw	0
  3816  00B1  00AD               	movwf	(___flmul@a+3)^(0+128)
  3817  00B2  3000               	movlw	0
  3818  00B3  00AC               	movwf	(___flmul@a+2)^(0+128)
  3819  00B4  3000               	movlw	0
  3820  00B5  00AB               	movwf	(___flmul@a+1)^(0+128)
  3821  00B6  3000               	movlw	0
  3822  00B7  00AA               	movwf	___flmul@a^(0+128)
  3823  00B8                     l3461:
  3824  00B8  17AC               	bsf	(___flmul@a^(0+128)+2),7
  3825  00B9  28C2               	goto	l3465
  3826  00BA                     l3463:
  3827  00BA  3000               	movlw	0
  3828  00BB  00AD               	movwf	(___flmul@a+3)^(0+128)
  3829  00BC  3000               	movlw	0
  3830  00BD  00AC               	movwf	(___flmul@a+2)^(0+128)
  3831  00BE  3000               	movlw	0
  3832  00BF  00AB               	movwf	(___flmul@a+1)^(0+128)
  3833  00C0  3000               	movlw	0
  3834  00C1  00AA               	movwf	___flmul@a^(0+128)
  3835  00C2                     l3465:
  3836  00C2  0834               	movf	___flmul@aexp^(0+128),w
  3837  00C3  1903               	btfsc	3,2
  3838  00C4  28C6               	goto	u4621
  3839  00C5  28C7               	goto	u4620
  3840  00C6                     u4621:
  3841  00C6  28CC               	goto	l3469
  3842  00C7                     u4620:
  3843  00C7                     l3467:
  3844  00C7  0839               	movf	___flmul@bexp^(0+128),w
  3845  00C8  1D03               	btfss	3,2
  3846  00C9  28CB               	goto	u4631
  3847  00CA  28CC               	goto	u4630
  3848  00CB                     u4631:
  3849  00CB  28D5               	goto	l3473
  3850  00CC                     u4630:
  3851  00CC                     l3469:
  3852  00CC  3000               	movlw	0
  3853  00CD  00A9               	movwf	(?___flmul+3)^(0+128)
  3854  00CE  3000               	movlw	0
  3855  00CF  00A8               	movwf	(?___flmul+2)^(0+128)
  3856  00D0  3000               	movlw	0
  3857  00D1  00A7               	movwf	(?___flmul+1)^(0+128)
  3858  00D2  3000               	movlw	0
  3859  00D3  00A6               	movwf	?___flmul^(0+128)
  3860  00D4  2C22               	goto	l1036
  3861  00D5                     l3473:
  3862  00D5  0826               	movf	___flmul@b^(0+128),w
  3863  00D6  00FF               	movwf	btemp+1
  3864  00D7  087F               	movf	btemp+1,w
  3865  00D8  1283               	bcf	3,5	;RP0=0, select bank0
  3866  00D9  1303               	bcf	3,6	;RP1=0, select bank0
  3867  00DA  00B6               	movwf	__Umul8_16@multiplicand
  3868  00DB  1683               	bsf	3,5	;RP0=1, select bank1
  3869  00DC  1303               	bcf	3,6	;RP1=0, select bank1
  3870  00DD  082C               	movf	(___flmul@a^(0+128)+2),w
  3871  00DE  120A  158A  21E5  120A  118A  	fcall	__Umul8_16
  3872  00E3  1283               	bcf	3,5	;RP0=0, select bank0
  3873  00E4  1303               	bcf	3,6	;RP1=0, select bank0
  3874  00E5  0837               	movf	?__Umul8_16+1,w
  3875  00E6  1683               	bsf	3,5	;RP0=1, select bank1
  3876  00E7  1303               	bcf	3,6	;RP1=0, select bank1
  3877  00E8  00BF               	movwf	(___flmul@temp+1)^(0+128)
  3878  00E9  1283               	bcf	3,5	;RP0=0, select bank0
  3879  00EA  1303               	bcf	3,6	;RP1=0, select bank0
  3880  00EB  0836               	movf	?__Umul8_16,w
  3881  00EC  1683               	bsf	3,5	;RP0=1, select bank1
  3882  00ED  1303               	bcf	3,6	;RP1=0, select bank1
  3883  00EE  00BE               	movwf	___flmul@temp^(0+128)
  3884  00EF                     l3475:
  3885  00EF  083E               	movf	___flmul@temp^(0+128),w
  3886  00F0  00AE               	movwf	??___flmul^(0+128)
  3887  00F1  01AF               	clrf	(??___flmul^(0+128)+1)
  3888  00F2  01B0               	clrf	(??___flmul^(0+128)+2)
  3889  00F3  01B1               	clrf	(??___flmul^(0+128)+3)
  3890  00F4  0831               	movf	(??___flmul+3)^(0+128),w
  3891  00F5  00B8               	movwf	(___flmul@grs+3)^(0+128)
  3892  00F6  0830               	movf	(??___flmul+2)^(0+128),w
  3893  00F7  00B7               	movwf	(___flmul@grs+2)^(0+128)
  3894  00F8  082F               	movf	(??___flmul+1)^(0+128),w
  3895  00F9  00B6               	movwf	(___flmul@grs+1)^(0+128)
  3896  00FA  082E               	movf	??___flmul^(0+128),w
  3897  00FB  00B5               	movwf	___flmul@grs^(0+128)
  3898  00FC                     l3477:
  3899  00FC  083F               	movf	(___flmul@temp^(0+128)+1),w
  3900  00FD  00AE               	movwf	??___flmul^(0+128)
  3901  00FE  01AF               	clrf	(??___flmul^(0+128)+1)
  3902  00FF  01B0               	clrf	(??___flmul^(0+128)+2)
  3903  0100  01B1               	clrf	(??___flmul^(0+128)+3)
  3904  0101  0831               	movf	(??___flmul+3)^(0+128),w
  3905  0102  00BD               	movwf	(___flmul@prod+3)^(0+128)
  3906  0103  0830               	movf	(??___flmul+2)^(0+128),w
  3907  0104  00BC               	movwf	(___flmul@prod+2)^(0+128)
  3908  0105  082F               	movf	(??___flmul+1)^(0+128),w
  3909  0106  00BB               	movwf	(___flmul@prod+1)^(0+128)
  3910  0107  082E               	movf	??___flmul^(0+128),w
  3911  0108  00BA               	movwf	___flmul@prod^(0+128)
  3912  0109  0827               	movf	(___flmul@b^(0+128)+1),w
  3913  010A  00FF               	movwf	btemp+1
  3914  010B  087F               	movf	btemp+1,w
  3915  010C  1283               	bcf	3,5	;RP0=0, select bank0
  3916  010D  1303               	bcf	3,6	;RP1=0, select bank0
  3917  010E  00B6               	movwf	__Umul8_16@multiplicand
  3918  010F  1683               	bsf	3,5	;RP0=1, select bank1
  3919  0110  1303               	bcf	3,6	;RP1=0, select bank1
  3920  0111  082B               	movf	(___flmul@a^(0+128)+1),w
  3921  0112  120A  158A  21E5  120A  118A  	fcall	__Umul8_16
  3922  0117  1283               	bcf	3,5	;RP0=0, select bank0
  3923  0118  1303               	bcf	3,6	;RP1=0, select bank0
  3924  0119  0837               	movf	?__Umul8_16+1,w
  3925  011A  1683               	bsf	3,5	;RP0=1, select bank1
  3926  011B  1303               	bcf	3,6	;RP1=0, select bank1
  3927  011C  00BF               	movwf	(___flmul@temp+1)^(0+128)
  3928  011D  1283               	bcf	3,5	;RP0=0, select bank0
  3929  011E  1303               	bcf	3,6	;RP1=0, select bank0
  3930  011F  0836               	movf	?__Umul8_16,w
  3931  0120  1683               	bsf	3,5	;RP0=1, select bank1
  3932  0121  1303               	bcf	3,6	;RP1=0, select bank1
  3933  0122  00BE               	movwf	___flmul@temp^(0+128)
  3934  0123                     l3479:
  3935  0123  083E               	movf	___flmul@temp^(0+128),w
  3936  0124  00AE               	movwf	??___flmul^(0+128)
  3937  0125  01AF               	clrf	(??___flmul^(0+128)+1)
  3938  0126  01B0               	clrf	(??___flmul^(0+128)+2)
  3939  0127  01B1               	clrf	(??___flmul^(0+128)+3)
  3940  0128  082E               	movf	??___flmul^(0+128),w
  3941  0129  07B5               	addwf	___flmul@grs^(0+128),f
  3942  012A  082F               	movf	(??___flmul+1)^(0+128),w
  3943  012B  1103               	clrz
  3944  012C  1803               	skipnc
  3945  012D  3E01               	addlw	1
  3946  012E  1903               	skipnz
  3947  012F  2931               	goto	u4641
  3948  0130  07B6               	addwf	(___flmul@grs+1)^(0+128),f
  3949  0131                     u4641:
  3950  0131  0830               	movf	(??___flmul+2)^(0+128),w
  3951  0132  1103               	clrz
  3952  0133  1803               	skipnc
  3953  0134  3E01               	addlw	1
  3954  0135  1903               	skipnz
  3955  0136  2938               	goto	u4642
  3956  0137  07B7               	addwf	(___flmul@grs+2)^(0+128),f
  3957  0138                     u4642:
  3958  0138  0831               	movf	(??___flmul+3)^(0+128),w
  3959  0139  1103               	clrz
  3960  013A  1803               	skipnc
  3961  013B  3E01               	addlw	1
  3962  013C  1903               	skipnz
  3963  013D  293F               	goto	u4643
  3964  013E  07B8               	addwf	(___flmul@grs+3)^(0+128),f
  3965  013F                     u4643:
  3966  013F                     l3481:
  3967  013F  083F               	movf	(___flmul@temp^(0+128)+1),w
  3968  0140  00AE               	movwf	??___flmul^(0+128)
  3969  0141  01AF               	clrf	(??___flmul^(0+128)+1)
  3970  0142  01B0               	clrf	(??___flmul^(0+128)+2)
  3971  0143  01B1               	clrf	(??___flmul^(0+128)+3)
  3972  0144  082E               	movf	??___flmul^(0+128),w
  3973  0145  07BA               	addwf	___flmul@prod^(0+128),f
  3974  0146  082F               	movf	(??___flmul+1)^(0+128),w
  3975  0147  1103               	clrz
  3976  0148  1803               	skipnc
  3977  0149  3E01               	addlw	1
  3978  014A  1903               	skipnz
  3979  014B  294D               	goto	u4651
  3980  014C  07BB               	addwf	(___flmul@prod+1)^(0+128),f
  3981  014D                     u4651:
  3982  014D  0830               	movf	(??___flmul+2)^(0+128),w
  3983  014E  1103               	clrz
  3984  014F  1803               	skipnc
  3985  0150  3E01               	addlw	1
  3986  0151  1903               	skipnz
  3987  0152  2954               	goto	u4652
  3988  0153  07BC               	addwf	(___flmul@prod+2)^(0+128),f
  3989  0154                     u4652:
  3990  0154  0831               	movf	(??___flmul+3)^(0+128),w
  3991  0155  1103               	clrz
  3992  0156  1803               	skipnc
  3993  0157  3E01               	addlw	1
  3994  0158  1903               	skipnz
  3995  0159  295B               	goto	u4653
  3996  015A  07BD               	addwf	(___flmul@prod+3)^(0+128),f
  3997  015B                     u4653:
  3998  015B  0828               	movf	(___flmul@b^(0+128)+2),w
  3999  015C  00FF               	movwf	btemp+1
  4000  015D  087F               	movf	btemp+1,w
  4001  015E  1283               	bcf	3,5	;RP0=0, select bank0
  4002  015F  1303               	bcf	3,6	;RP1=0, select bank0
  4003  0160  00B6               	movwf	__Umul8_16@multiplicand
  4004  0161  1683               	bsf	3,5	;RP0=1, select bank1
  4005  0162  1303               	bcf	3,6	;RP1=0, select bank1
  4006  0163  082A               	movf	___flmul@a^(0+128),w
  4007  0164  120A  158A  21E5  120A  118A  	fcall	__Umul8_16
  4008  0169  1283               	bcf	3,5	;RP0=0, select bank0
  4009  016A  1303               	bcf	3,6	;RP1=0, select bank0
  4010  016B  0837               	movf	?__Umul8_16+1,w
  4011  016C  1683               	bsf	3,5	;RP0=1, select bank1
  4012  016D  1303               	bcf	3,6	;RP1=0, select bank1
  4013  016E  00BF               	movwf	(___flmul@temp+1)^(0+128)
  4014  016F  1283               	bcf	3,5	;RP0=0, select bank0
  4015  0170  1303               	bcf	3,6	;RP1=0, select bank0
  4016  0171  0836               	movf	?__Umul8_16,w
  4017  0172  1683               	bsf	3,5	;RP0=1, select bank1
  4018  0173  1303               	bcf	3,6	;RP1=0, select bank1
  4019  0174  00BE               	movwf	___flmul@temp^(0+128)
  4020  0175                     l3483:
  4021  0175  083E               	movf	___flmul@temp^(0+128),w
  4022  0176  00AE               	movwf	??___flmul^(0+128)
  4023  0177  01AF               	clrf	(??___flmul^(0+128)+1)
  4024  0178  01B0               	clrf	(??___flmul^(0+128)+2)
  4025  0179  01B1               	clrf	(??___flmul^(0+128)+3)
  4026  017A  082E               	movf	??___flmul^(0+128),w
  4027  017B  07B5               	addwf	___flmul@grs^(0+128),f
  4028  017C  082F               	movf	(??___flmul+1)^(0+128),w
  4029  017D  1103               	clrz
  4030  017E  1803               	skipnc
  4031  017F  3E01               	addlw	1
  4032  0180  1903               	skipnz
  4033  0181  2983               	goto	u4661
  4034  0182  07B6               	addwf	(___flmul@grs+1)^(0+128),f
  4035  0183                     u4661:
  4036  0183  0830               	movf	(??___flmul+2)^(0+128),w
  4037  0184  1103               	clrz
  4038  0185  1803               	skipnc
  4039  0186  3E01               	addlw	1
  4040  0187  1903               	skipnz
  4041  0188  298A               	goto	u4662
  4042  0189  07B7               	addwf	(___flmul@grs+2)^(0+128),f
  4043  018A                     u4662:
  4044  018A  0831               	movf	(??___flmul+3)^(0+128),w
  4045  018B  1103               	clrz
  4046  018C  1803               	skipnc
  4047  018D  3E01               	addlw	1
  4048  018E  1903               	skipnz
  4049  018F  2991               	goto	u4663
  4050  0190  07B8               	addwf	(___flmul@grs+3)^(0+128),f
  4051  0191                     u4663:
  4052  0191                     l3485:
  4053  0191  083F               	movf	(___flmul@temp^(0+128)+1),w
  4054  0192  00AE               	movwf	??___flmul^(0+128)
  4055  0193  01AF               	clrf	(??___flmul^(0+128)+1)
  4056  0194  01B0               	clrf	(??___flmul^(0+128)+2)
  4057  0195  01B1               	clrf	(??___flmul^(0+128)+3)
  4058  0196  082E               	movf	??___flmul^(0+128),w
  4059  0197  07BA               	addwf	___flmul@prod^(0+128),f
  4060  0198  082F               	movf	(??___flmul+1)^(0+128),w
  4061  0199  1103               	clrz
  4062  019A  1803               	skipnc
  4063  019B  3E01               	addlw	1
  4064  019C  1903               	skipnz
  4065  019D  299F               	goto	u4671
  4066  019E  07BB               	addwf	(___flmul@prod+1)^(0+128),f
  4067  019F                     u4671:
  4068  019F  0830               	movf	(??___flmul+2)^(0+128),w
  4069  01A0  1103               	clrz
  4070  01A1  1803               	skipnc
  4071  01A2  3E01               	addlw	1
  4072  01A3  1903               	skipnz
  4073  01A4  29A6               	goto	u4672
  4074  01A5  07BC               	addwf	(___flmul@prod+2)^(0+128),f
  4075  01A6                     u4672:
  4076  01A6  0831               	movf	(??___flmul+3)^(0+128),w
  4077  01A7  1103               	clrz
  4078  01A8  1803               	skipnc
  4079  01A9  3E01               	addlw	1
  4080  01AA  1903               	skipnz
  4081  01AB  29AD               	goto	u4673
  4082  01AC  07BD               	addwf	(___flmul@prod+3)^(0+128),f
  4083  01AD                     u4673:
  4084  01AD                     l3487:
  4085  01AD  3008               	movlw	8
  4086  01AE  00AE               	movwf	??___flmul^(0+128)
  4087  01AF                     u4685:
  4088  01AF  1003               	clrc
  4089  01B0  0DB5               	rlf	___flmul@grs^(0+128),f
  4090  01B1  0DB6               	rlf	(___flmul@grs+1)^(0+128),f
  4091  01B2  0DB7               	rlf	(___flmul@grs+2)^(0+128),f
  4092  01B3  0DB8               	rlf	(___flmul@grs+3)^(0+128),f
  4093  01B4  0BAE               	decfsz	??___flmul^(0+128),f
  4094  01B5  29AF               	goto	u4685
  4095  01B6                     l3489:
  4096  01B6  0827               	movf	(___flmul@b^(0+128)+1),w
  4097  01B7  00FF               	movwf	btemp+1
  4098  01B8  087F               	movf	btemp+1,w
  4099  01B9  1283               	bcf	3,5	;RP0=0, select bank0
  4100  01BA  1303               	bcf	3,6	;RP1=0, select bank0
  4101  01BB  00B6               	movwf	__Umul8_16@multiplicand
  4102  01BC  1683               	bsf	3,5	;RP0=1, select bank1
  4103  01BD  1303               	bcf	3,6	;RP1=0, select bank1
  4104  01BE  082A               	movf	___flmul@a^(0+128),w
  4105  01BF  120A  158A  21E5  120A  118A  	fcall	__Umul8_16
  4106  01C4  1283               	bcf	3,5	;RP0=0, select bank0
  4107  01C5  1303               	bcf	3,6	;RP1=0, select bank0
  4108  01C6  0837               	movf	?__Umul8_16+1,w
  4109  01C7  1683               	bsf	3,5	;RP0=1, select bank1
  4110  01C8  1303               	bcf	3,6	;RP1=0, select bank1
  4111  01C9  00BF               	movwf	(___flmul@temp+1)^(0+128)
  4112  01CA  1283               	bcf	3,5	;RP0=0, select bank0
  4113  01CB  1303               	bcf	3,6	;RP1=0, select bank0
  4114  01CC  0836               	movf	?__Umul8_16,w
  4115  01CD  1683               	bsf	3,5	;RP0=1, select bank1
  4116  01CE  1303               	bcf	3,6	;RP1=0, select bank1
  4117  01CF  00BE               	movwf	___flmul@temp^(0+128)
  4118  01D0                     l3491:
  4119  01D0  083E               	movf	___flmul@temp^(0+128),w
  4120  01D1  00AE               	movwf	??___flmul^(0+128)
  4121  01D2  083F               	movf	(___flmul@temp+1)^(0+128),w
  4122  01D3  00AF               	movwf	(??___flmul^(0+128)+1)
  4123  01D4  01B0               	clrf	(??___flmul^(0+128)+2)
  4124  01D5  01B1               	clrf	(??___flmul^(0+128)+3)
  4125  01D6  082E               	movf	??___flmul^(0+128),w
  4126  01D7  07B5               	addwf	___flmul@grs^(0+128),f
  4127  01D8  082F               	movf	(??___flmul+1)^(0+128),w
  4128  01D9  1103               	clrz
  4129  01DA  1803               	skipnc
  4130  01DB  3E01               	addlw	1
  4131  01DC  1903               	skipnz
  4132  01DD  29DF               	goto	u4691
  4133  01DE  07B6               	addwf	(___flmul@grs+1)^(0+128),f
  4134  01DF                     u4691:
  4135  01DF  0830               	movf	(??___flmul+2)^(0+128),w
  4136  01E0  1103               	clrz
  4137  01E1  1803               	skipnc
  4138  01E2  3E01               	addlw	1
  4139  01E3  1903               	skipnz
  4140  01E4  29E6               	goto	u4692
  4141  01E5  07B7               	addwf	(___flmul@grs+2)^(0+128),f
  4142  01E6                     u4692:
  4143  01E6  0831               	movf	(??___flmul+3)^(0+128),w
  4144  01E7  1103               	clrz
  4145  01E8  1803               	skipnc
  4146  01E9  3E01               	addlw	1
  4147  01EA  1903               	skipnz
  4148  01EB  29ED               	goto	u4693
  4149  01EC  07B8               	addwf	(___flmul@grs+3)^(0+128),f
  4150  01ED                     u4693:
  4151  01ED                     l3493:
  4152  01ED  0826               	movf	___flmul@b^(0+128),w
  4153  01EE  00FF               	movwf	btemp+1
  4154  01EF  087F               	movf	btemp+1,w
  4155  01F0  1283               	bcf	3,5	;RP0=0, select bank0
  4156  01F1  1303               	bcf	3,6	;RP1=0, select bank0
  4157  01F2  00B6               	movwf	__Umul8_16@multiplicand
  4158  01F3  1683               	bsf	3,5	;RP0=1, select bank1
  4159  01F4  1303               	bcf	3,6	;RP1=0, select bank1
  4160  01F5  082B               	movf	(___flmul@a^(0+128)+1),w
  4161  01F6  120A  158A  21E5  120A  118A  	fcall	__Umul8_16
  4162  01FB  1283               	bcf	3,5	;RP0=0, select bank0
  4163  01FC  1303               	bcf	3,6	;RP1=0, select bank0
  4164  01FD  0837               	movf	?__Umul8_16+1,w
  4165  01FE  1683               	bsf	3,5	;RP0=1, select bank1
  4166  01FF  1303               	bcf	3,6	;RP1=0, select bank1
  4167  0200  00BF               	movwf	(___flmul@temp+1)^(0+128)
  4168  0201  1283               	bcf	3,5	;RP0=0, select bank0
  4169  0202  1303               	bcf	3,6	;RP1=0, select bank0
  4170  0203  0836               	movf	?__Umul8_16,w
  4171  0204  1683               	bsf	3,5	;RP0=1, select bank1
  4172  0205  1303               	bcf	3,6	;RP1=0, select bank1
  4173  0206  00BE               	movwf	___flmul@temp^(0+128)
  4174  0207                     l3495:
  4175  0207  083E               	movf	___flmul@temp^(0+128),w
  4176  0208  00AE               	movwf	??___flmul^(0+128)
  4177  0209  083F               	movf	(___flmul@temp+1)^(0+128),w
  4178  020A  00AF               	movwf	(??___flmul^(0+128)+1)
  4179  020B  01B0               	clrf	(??___flmul^(0+128)+2)
  4180  020C  01B1               	clrf	(??___flmul^(0+128)+3)
  4181  020D  082E               	movf	??___flmul^(0+128),w
  4182  020E  07B5               	addwf	___flmul@grs^(0+128),f
  4183  020F  082F               	movf	(??___flmul+1)^(0+128),w
  4184  0210  1103               	clrz
  4185  0211  1803               	skipnc
  4186  0212  3E01               	addlw	1
  4187  0213  1903               	skipnz
  4188  0214  2A16               	goto	u4701
  4189  0215  07B6               	addwf	(___flmul@grs+1)^(0+128),f
  4190  0216                     u4701:
  4191  0216  0830               	movf	(??___flmul+2)^(0+128),w
  4192  0217  1103               	clrz
  4193  0218  1803               	skipnc
  4194  0219  3E01               	addlw	1
  4195  021A  1903               	skipnz
  4196  021B  2A1D               	goto	u4702
  4197  021C  07B7               	addwf	(___flmul@grs+2)^(0+128),f
  4198  021D                     u4702:
  4199  021D  0831               	movf	(??___flmul+3)^(0+128),w
  4200  021E  1103               	clrz
  4201  021F  1803               	skipnc
  4202  0220  3E01               	addlw	1
  4203  0221  1903               	skipnz
  4204  0222  2A24               	goto	u4703
  4205  0223  07B8               	addwf	(___flmul@grs+3)^(0+128),f
  4206  0224                     u4703:
  4207  0224                     l3497:
  4208  0224  3008               	movlw	8
  4209  0225  00AE               	movwf	??___flmul^(0+128)
  4210  0226                     u4715:
  4211  0226  1003               	clrc
  4212  0227  0DB5               	rlf	___flmul@grs^(0+128),f
  4213  0228  0DB6               	rlf	(___flmul@grs+1)^(0+128),f
  4214  0229  0DB7               	rlf	(___flmul@grs+2)^(0+128),f
  4215  022A  0DB8               	rlf	(___flmul@grs+3)^(0+128),f
  4216  022B  0BAE               	decfsz	??___flmul^(0+128),f
  4217  022C  2A26               	goto	u4715
  4218  022D  0826               	movf	___flmul@b^(0+128),w
  4219  022E  00FF               	movwf	btemp+1
  4220  022F  087F               	movf	btemp+1,w
  4221  0230  1283               	bcf	3,5	;RP0=0, select bank0
  4222  0231  1303               	bcf	3,6	;RP1=0, select bank0
  4223  0232  00B6               	movwf	__Umul8_16@multiplicand
  4224  0233  1683               	bsf	3,5	;RP0=1, select bank1
  4225  0234  1303               	bcf	3,6	;RP1=0, select bank1
  4226  0235  082A               	movf	___flmul@a^(0+128),w
  4227  0236  120A  158A  21E5  120A  118A  	fcall	__Umul8_16
  4228  023B  1283               	bcf	3,5	;RP0=0, select bank0
  4229  023C  1303               	bcf	3,6	;RP1=0, select bank0
  4230  023D  0837               	movf	?__Umul8_16+1,w
  4231  023E  1683               	bsf	3,5	;RP0=1, select bank1
  4232  023F  1303               	bcf	3,6	;RP1=0, select bank1
  4233  0240  00BF               	movwf	(___flmul@temp+1)^(0+128)
  4234  0241  1283               	bcf	3,5	;RP0=0, select bank0
  4235  0242  1303               	bcf	3,6	;RP1=0, select bank0
  4236  0243  0836               	movf	?__Umul8_16,w
  4237  0244  1683               	bsf	3,5	;RP0=1, select bank1
  4238  0245  1303               	bcf	3,6	;RP1=0, select bank1
  4239  0246  00BE               	movwf	___flmul@temp^(0+128)
  4240  0247                     l3499:
  4241  0247  083E               	movf	___flmul@temp^(0+128),w
  4242  0248  00AE               	movwf	??___flmul^(0+128)
  4243  0249  083F               	movf	(___flmul@temp+1)^(0+128),w
  4244  024A  00AF               	movwf	(??___flmul^(0+128)+1)
  4245  024B  01B0               	clrf	(??___flmul^(0+128)+2)
  4246  024C  01B1               	clrf	(??___flmul^(0+128)+3)
  4247  024D  082E               	movf	??___flmul^(0+128),w
  4248  024E  07B5               	addwf	___flmul@grs^(0+128),f
  4249  024F  082F               	movf	(??___flmul+1)^(0+128),w
  4250  0250  1103               	clrz
  4251  0251  1803               	skipnc
  4252  0252  3E01               	addlw	1
  4253  0253  1903               	skipnz
  4254  0254  2A56               	goto	u4721
  4255  0255  07B6               	addwf	(___flmul@grs+1)^(0+128),f
  4256  0256                     u4721:
  4257  0256  0830               	movf	(??___flmul+2)^(0+128),w
  4258  0257  1103               	clrz
  4259  0258  1803               	skipnc
  4260  0259  3E01               	addlw	1
  4261  025A  1903               	skipnz
  4262  025B  2A5D               	goto	u4722
  4263  025C  07B7               	addwf	(___flmul@grs+2)^(0+128),f
  4264  025D                     u4722:
  4265  025D  0831               	movf	(??___flmul+3)^(0+128),w
  4266  025E  1103               	clrz
  4267  025F  1803               	skipnc
  4268  0260  3E01               	addlw	1
  4269  0261  1903               	skipnz
  4270  0262  2A64               	goto	u4723
  4271  0263  07B8               	addwf	(___flmul@grs+3)^(0+128),f
  4272  0264                     u4723:
  4273  0264                     l3501:
  4274  0264  0827               	movf	(___flmul@b^(0+128)+1),w
  4275  0265  00FF               	movwf	btemp+1
  4276  0266  087F               	movf	btemp+1,w
  4277  0267  1283               	bcf	3,5	;RP0=0, select bank0
  4278  0268  1303               	bcf	3,6	;RP1=0, select bank0
  4279  0269  00B6               	movwf	__Umul8_16@multiplicand
  4280  026A  1683               	bsf	3,5	;RP0=1, select bank1
  4281  026B  1303               	bcf	3,6	;RP1=0, select bank1
  4282  026C  082C               	movf	(___flmul@a^(0+128)+2),w
  4283  026D  120A  158A  21E5  120A  118A  	fcall	__Umul8_16
  4284  0272  1283               	bcf	3,5	;RP0=0, select bank0
  4285  0273  1303               	bcf	3,6	;RP1=0, select bank0
  4286  0274  0837               	movf	?__Umul8_16+1,w
  4287  0275  1683               	bsf	3,5	;RP0=1, select bank1
  4288  0276  1303               	bcf	3,6	;RP1=0, select bank1
  4289  0277  00BF               	movwf	(___flmul@temp+1)^(0+128)
  4290  0278  1283               	bcf	3,5	;RP0=0, select bank0
  4291  0279  1303               	bcf	3,6	;RP1=0, select bank0
  4292  027A  0836               	movf	?__Umul8_16,w
  4293  027B  1683               	bsf	3,5	;RP0=1, select bank1
  4294  027C  1303               	bcf	3,6	;RP1=0, select bank1
  4295  027D  00BE               	movwf	___flmul@temp^(0+128)
  4296  027E  083E               	movf	___flmul@temp^(0+128),w
  4297  027F  00AE               	movwf	??___flmul^(0+128)
  4298  0280  083F               	movf	(___flmul@temp+1)^(0+128),w
  4299  0281  00AF               	movwf	(??___flmul^(0+128)+1)
  4300  0282  01B0               	clrf	(??___flmul^(0+128)+2)
  4301  0283  01B1               	clrf	(??___flmul^(0+128)+3)
  4302  0284  082E               	movf	??___flmul^(0+128),w
  4303  0285  07BA               	addwf	___flmul@prod^(0+128),f
  4304  0286  082F               	movf	(??___flmul+1)^(0+128),w
  4305  0287  1103               	clrz
  4306  0288  1803               	skipnc
  4307  0289  3E01               	addlw	1
  4308  028A  1903               	skipnz
  4309  028B  2A8D               	goto	u4731
  4310  028C  07BB               	addwf	(___flmul@prod+1)^(0+128),f
  4311  028D                     u4731:
  4312  028D  0830               	movf	(??___flmul+2)^(0+128),w
  4313  028E  1103               	clrz
  4314  028F  1803               	skipnc
  4315  0290  3E01               	addlw	1
  4316  0291  1903               	skipnz
  4317  0292  2A94               	goto	u4732
  4318  0293  07BC               	addwf	(___flmul@prod+2)^(0+128),f
  4319  0294                     u4732:
  4320  0294  0831               	movf	(??___flmul+3)^(0+128),w
  4321  0295  1103               	clrz
  4322  0296  1803               	skipnc
  4323  0297  3E01               	addlw	1
  4324  0298  1903               	skipnz
  4325  0299  2A9B               	goto	u4733
  4326  029A  07BD               	addwf	(___flmul@prod+3)^(0+128),f
  4327  029B                     u4733:
  4328  029B                     l3503:
  4329  029B  0828               	movf	(___flmul@b^(0+128)+2),w
  4330  029C  00FF               	movwf	btemp+1
  4331  029D  087F               	movf	btemp+1,w
  4332  029E  1283               	bcf	3,5	;RP0=0, select bank0
  4333  029F  1303               	bcf	3,6	;RP1=0, select bank0
  4334  02A0  00B6               	movwf	__Umul8_16@multiplicand
  4335  02A1  1683               	bsf	3,5	;RP0=1, select bank1
  4336  02A2  1303               	bcf	3,6	;RP1=0, select bank1
  4337  02A3  082B               	movf	(___flmul@a^(0+128)+1),w
  4338  02A4  120A  158A  21E5  120A  118A  	fcall	__Umul8_16
  4339  02A9  1283               	bcf	3,5	;RP0=0, select bank0
  4340  02AA  1303               	bcf	3,6	;RP1=0, select bank0
  4341  02AB  0837               	movf	?__Umul8_16+1,w
  4342  02AC  1683               	bsf	3,5	;RP0=1, select bank1
  4343  02AD  1303               	bcf	3,6	;RP1=0, select bank1
  4344  02AE  00BF               	movwf	(___flmul@temp+1)^(0+128)
  4345  02AF  1283               	bcf	3,5	;RP0=0, select bank0
  4346  02B0  1303               	bcf	3,6	;RP1=0, select bank0
  4347  02B1  0836               	movf	?__Umul8_16,w
  4348  02B2  1683               	bsf	3,5	;RP0=1, select bank1
  4349  02B3  1303               	bcf	3,6	;RP1=0, select bank1
  4350  02B4  00BE               	movwf	___flmul@temp^(0+128)
  4351  02B5                     l3505:
  4352  02B5  083E               	movf	___flmul@temp^(0+128),w
  4353  02B6  00AE               	movwf	??___flmul^(0+128)
  4354  02B7  083F               	movf	(___flmul@temp+1)^(0+128),w
  4355  02B8  00AF               	movwf	(??___flmul^(0+128)+1)
  4356  02B9  01B0               	clrf	(??___flmul^(0+128)+2)
  4357  02BA  01B1               	clrf	(??___flmul^(0+128)+3)
  4358  02BB  082E               	movf	??___flmul^(0+128),w
  4359  02BC  07BA               	addwf	___flmul@prod^(0+128),f
  4360  02BD  082F               	movf	(??___flmul+1)^(0+128),w
  4361  02BE  1103               	clrz
  4362  02BF  1803               	skipnc
  4363  02C0  3E01               	addlw	1
  4364  02C1  1903               	skipnz
  4365  02C2  2AC4               	goto	u4741
  4366  02C3  07BB               	addwf	(___flmul@prod+1)^(0+128),f
  4367  02C4                     u4741:
  4368  02C4  0830               	movf	(??___flmul+2)^(0+128),w
  4369  02C5  1103               	clrz
  4370  02C6  1803               	skipnc
  4371  02C7  3E01               	addlw	1
  4372  02C8  1903               	skipnz
  4373  02C9  2ACB               	goto	u4742
  4374  02CA  07BC               	addwf	(___flmul@prod+2)^(0+128),f
  4375  02CB                     u4742:
  4376  02CB  0831               	movf	(??___flmul+3)^(0+128),w
  4377  02CC  1103               	clrz
  4378  02CD  1803               	skipnc
  4379  02CE  3E01               	addlw	1
  4380  02CF  1903               	skipnz
  4381  02D0  2AD2               	goto	u4743
  4382  02D1  07BD               	addwf	(___flmul@prod+3)^(0+128),f
  4383  02D2                     u4743:
  4384  02D2  0828               	movf	(___flmul@b^(0+128)+2),w
  4385  02D3  00FF               	movwf	btemp+1
  4386  02D4  087F               	movf	btemp+1,w
  4387  02D5  1283               	bcf	3,5	;RP0=0, select bank0
  4388  02D6  1303               	bcf	3,6	;RP1=0, select bank0
  4389  02D7  00B6               	movwf	__Umul8_16@multiplicand
  4390  02D8  1683               	bsf	3,5	;RP0=1, select bank1
  4391  02D9  1303               	bcf	3,6	;RP1=0, select bank1
  4392  02DA  082C               	movf	(___flmul@a^(0+128)+2),w
  4393  02DB  120A  158A  21E5  120A  118A  	fcall	__Umul8_16
  4394  02E0  1283               	bcf	3,5	;RP0=0, select bank0
  4395  02E1  1303               	bcf	3,6	;RP1=0, select bank0
  4396  02E2  0837               	movf	?__Umul8_16+1,w
  4397  02E3  1683               	bsf	3,5	;RP0=1, select bank1
  4398  02E4  1303               	bcf	3,6	;RP1=0, select bank1
  4399  02E5  00BF               	movwf	(___flmul@temp+1)^(0+128)
  4400  02E6  1283               	bcf	3,5	;RP0=0, select bank0
  4401  02E7  1303               	bcf	3,6	;RP1=0, select bank0
  4402  02E8  0836               	movf	?__Umul8_16,w
  4403  02E9  1683               	bsf	3,5	;RP0=1, select bank1
  4404  02EA  1303               	bcf	3,6	;RP1=0, select bank1
  4405  02EB  00BE               	movwf	___flmul@temp^(0+128)
  4406  02EC                     l3507:
  4407  02EC  083E               	movf	___flmul@temp^(0+128),w
  4408  02ED  00AE               	movwf	??___flmul^(0+128)
  4409  02EE  083F               	movf	(___flmul@temp+1)^(0+128),w
  4410  02EF  00AF               	movwf	(??___flmul^(0+128)+1)
  4411  02F0  01B0               	clrf	(??___flmul^(0+128)+2)
  4412  02F1  01B1               	clrf	(??___flmul^(0+128)+3)
  4413  02F2  3008               	movlw	8
  4414  02F3                     u4755:
  4415  02F3  1003               	clrc
  4416  02F4  0DAE               	rlf	??___flmul^(0+128),f
  4417  02F5  0DAF               	rlf	(??___flmul^(0+128)+1),f
  4418  02F6  0DB0               	rlf	(??___flmul^(0+128)+2),f
  4419  02F7  0DB1               	rlf	(??___flmul^(0+128)+3),f
  4420  02F8                     u4750:
  4421  02F8  3EFF               	addlw	-1
  4422  02F9  1D03               	skipz
  4423  02FA  2AF3               	goto	u4755
  4424  02FB  082E               	movf	??___flmul^(0+128),w
  4425  02FC  07BA               	addwf	___flmul@prod^(0+128),f
  4426  02FD  082F               	movf	(??___flmul+1)^(0+128),w
  4427  02FE  1103               	clrz
  4428  02FF  1803               	skipnc
  4429  0300  3E01               	addlw	1
  4430  0301  1903               	skipnz
  4431  0302  2B04               	goto	u4761
  4432  0303  07BB               	addwf	(___flmul@prod+1)^(0+128),f
  4433  0304                     u4761:
  4434  0304  0830               	movf	(??___flmul+2)^(0+128),w
  4435  0305  1103               	clrz
  4436  0306  1803               	skipnc
  4437  0307  3E01               	addlw	1
  4438  0308  1903               	skipnz
  4439  0309  2B0B               	goto	u4762
  4440  030A  07BC               	addwf	(___flmul@prod+2)^(0+128),f
  4441  030B                     u4762:
  4442  030B  0831               	movf	(??___flmul+3)^(0+128),w
  4443  030C  1103               	clrz
  4444  030D  1803               	skipnc
  4445  030E  3E01               	addlw	1
  4446  030F  1903               	skipnz
  4447  0310  2B12               	goto	u4763
  4448  0311  07BD               	addwf	(___flmul@prod+3)^(0+128),f
  4449  0312                     u4763:
  4450  0312                     l3509:
  4451  0312  0835               	movf	___flmul@grs^(0+128),w
  4452  0313  00AE               	movwf	??___flmul^(0+128)
  4453  0314  0836               	movf	(___flmul@grs+1)^(0+128),w
  4454  0315  00AF               	movwf	(??___flmul^(0+128)+1)
  4455  0316  0837               	movf	(___flmul@grs+2)^(0+128),w
  4456  0317  00B0               	movwf	(??___flmul^(0+128)+2)
  4457  0318  0838               	movf	(___flmul@grs+3)^(0+128),w
  4458  0319  00B1               	movwf	(??___flmul^(0+128)+3)
  4459  031A  3018               	movlw	24
  4460  031B                     u4775:
  4461  031B  1003               	clrc
  4462  031C  0CB1               	rrf	(??___flmul^(0+128)+3),f
  4463  031D  0CB0               	rrf	(??___flmul^(0+128)+2),f
  4464  031E  0CAF               	rrf	(??___flmul^(0+128)+1),f
  4465  031F  0CAE               	rrf	??___flmul^(0+128),f
  4466  0320                     u4770:
  4467  0320  3EFF               	addlw	-1
  4468  0321  1D03               	skipz
  4469  0322  2B1B               	goto	u4775
  4470  0323  082E               	movf	??___flmul^(0+128),w
  4471  0324  07BA               	addwf	___flmul@prod^(0+128),f
  4472  0325  082F               	movf	(??___flmul+1)^(0+128),w
  4473  0326  1103               	clrz
  4474  0327  1803               	skipnc
  4475  0328  3E01               	addlw	1
  4476  0329  1903               	skipnz
  4477  032A  2B2C               	goto	u4781
  4478  032B  07BB               	addwf	(___flmul@prod+1)^(0+128),f
  4479  032C                     u4781:
  4480  032C  0830               	movf	(??___flmul+2)^(0+128),w
  4481  032D  1103               	clrz
  4482  032E  1803               	skipnc
  4483  032F  3E01               	addlw	1
  4484  0330  1903               	skipnz
  4485  0331  2B33               	goto	u4782
  4486  0332  07BC               	addwf	(___flmul@prod+2)^(0+128),f
  4487  0333                     u4782:
  4488  0333  0831               	movf	(??___flmul+3)^(0+128),w
  4489  0334  1103               	clrz
  4490  0335  1803               	skipnc
  4491  0336  3E01               	addlw	1
  4492  0337  1903               	skipnz
  4493  0338  2B3A               	goto	u4783
  4494  0339  07BD               	addwf	(___flmul@prod+3)^(0+128),f
  4495  033A                     u4783:
  4496  033A                     l3511:
  4497  033A  3008               	movlw	8
  4498  033B  00AE               	movwf	??___flmul^(0+128)
  4499  033C                     u4795:
  4500  033C  1003               	clrc
  4501  033D  0DB5               	rlf	___flmul@grs^(0+128),f
  4502  033E  0DB6               	rlf	(___flmul@grs+1)^(0+128),f
  4503  033F  0DB7               	rlf	(___flmul@grs+2)^(0+128),f
  4504  0340  0DB8               	rlf	(___flmul@grs+3)^(0+128),f
  4505  0341  0BAE               	decfsz	??___flmul^(0+128),f
  4506  0342  2B3C               	goto	u4795
  4507  0343                     l3513:
  4508  0343  0839               	movf	___flmul@bexp^(0+128),w
  4509  0344  0734               	addwf	___flmul@aexp^(0+128),w
  4510  0345  00AE               	movwf	??___flmul^(0+128)
  4511  0346  01AF               	clrf	(??___flmul^(0+128)+1)
  4512  0347  0DAF               	rlf	(??___flmul+1)^(0+128),f
  4513  0348  082E               	movf	??___flmul^(0+128),w
  4514  0349  3E82               	addlw	130
  4515  034A  00BE               	movwf	___flmul@temp^(0+128)
  4516  034B  082F               	movf	(??___flmul+1)^(0+128),w
  4517  034C  1803               	skipnc
  4518  034D  3E01               	addlw	1
  4519  034E  3EFF               	addlw	255
  4520  034F  00BF               	movwf	(___flmul@temp+1)^(0+128)
  4521  0350  2B6E               	goto	l3525
  4522  0351                     l3515:
  4523  0351  3001               	movlw	1
  4524  0352  00AE               	movwf	??___flmul^(0+128)
  4525  0353                     u4805:
  4526  0353  1003               	clrc
  4527  0354  0DBA               	rlf	___flmul@prod^(0+128),f
  4528  0355  0DBB               	rlf	(___flmul@prod+1)^(0+128),f
  4529  0356  0DBC               	rlf	(___flmul@prod+2)^(0+128),f
  4530  0357  0DBD               	rlf	(___flmul@prod+3)^(0+128),f
  4531  0358  0BAE               	decfsz	??___flmul^(0+128),f
  4532  0359  2B53               	goto	u4805
  4533  035A                     l3517:
  4534  035A  1FB8               	btfss	(___flmul@grs+3)^(0+128),7
  4535  035B  2B5D               	goto	u4811
  4536  035C  2B5E               	goto	u4810
  4537  035D                     u4811:
  4538  035D  2B5F               	goto	l3521
  4539  035E                     u4810:
  4540  035E                     l3519:
  4541  035E  143A               	bsf	___flmul@prod^(0+128),0
  4542  035F                     l3521:
  4543  035F  3001               	movlw	1
  4544  0360  00AE               	movwf	??___flmul^(0+128)
  4545  0361                     u4825:
  4546  0361  1003               	clrc
  4547  0362  0DB5               	rlf	___flmul@grs^(0+128),f
  4548  0363  0DB6               	rlf	(___flmul@grs+1)^(0+128),f
  4549  0364  0DB7               	rlf	(___flmul@grs+2)^(0+128),f
  4550  0365  0DB8               	rlf	(___flmul@grs+3)^(0+128),f
  4551  0366  0BAE               	decfsz	??___flmul^(0+128),f
  4552  0367  2B61               	goto	u4825
  4553  0368                     l3523:
  4554  0368  30FF               	movlw	255
  4555  0369  07BE               	addwf	___flmul@temp^(0+128),f
  4556  036A  1803               	skipnc
  4557  036B  0ABF               	incf	(___flmul@temp+1)^(0+128),f
  4558  036C  30FF               	movlw	255
  4559  036D  07BF               	addwf	(___flmul@temp+1)^(0+128),f
  4560  036E                     l3525:
  4561  036E  1FBC               	btfss	(___flmul@prod+2)^(0+128),7
  4562  036F  2B71               	goto	u4831
  4563  0370  2B72               	goto	u4830
  4564  0371                     u4831:
  4565  0371  2B51               	goto	l3515
  4566  0372                     u4830:
  4567  0372                     l3527:
  4568  0372  01B4               	clrf	___flmul@aexp^(0+128)
  4569  0373                     l3529:
  4570  0373  1FB8               	btfss	(___flmul@grs+3)^(0+128),7
  4571  0374  2B76               	goto	u4841
  4572  0375  2B77               	goto	u4840
  4573  0376                     u4841:
  4574  0376  2B93               	goto	l3537
  4575  0377                     u4840:
  4576  0377                     l3531:
  4577  0377  30FF               	movlw	255
  4578  0378  0535               	andwf	___flmul@grs^(0+128),w
  4579  0379  00AE               	movwf	??___flmul^(0+128)
  4580  037A  30FF               	movlw	255
  4581  037B  0536               	andwf	(___flmul@grs+1)^(0+128),w
  4582  037C  00AF               	movwf	(??___flmul^(0+128)+1)
  4583  037D  30FF               	movlw	255
  4584  037E  0537               	andwf	(___flmul@grs+2)^(0+128),w
  4585  037F  00B0               	movwf	(??___flmul^(0+128)+2)
  4586  0380  307F               	movlw	127
  4587  0381  0538               	andwf	(___flmul@grs+3)^(0+128),w
  4588  0382  00B1               	movwf	(??___flmul^(0+128)+3)
  4589  0383  0831               	movf	(??___flmul+3)^(0+128),w
  4590  0384  0430               	iorwf	(??___flmul+2)^(0+128),w
  4591  0385  042F               	iorwf	(??___flmul+1)^(0+128),w
  4592  0386  042E               	iorwf	??___flmul^(0+128),w
  4593  0387  1903               	skipnz
  4594  0388  2B8A               	goto	u4851
  4595  0389  2B8B               	goto	u4850
  4596  038A                     u4851:
  4597  038A  2B8E               	goto	l1042
  4598  038B                     u4850:
  4599  038B                     l3533:
  4600  038B  01B4               	clrf	___flmul@aexp^(0+128)
  4601  038C  0AB4               	incf	___flmul@aexp^(0+128),f
  4602  038D  2B93               	goto	l3537
  4603  038E                     l1042:
  4604  038E  1C3A               	btfss	___flmul@prod^(0+128),0
  4605  038F  2B91               	goto	u4861
  4606  0390  2B92               	goto	u4860
  4607  0391                     u4861:
  4608  0391  2B93               	goto	l3537
  4609  0392                     u4860:
  4610  0392  2B8B               	goto	l3533
  4611  0393                     l3537:
  4612  0393  0834               	movf	___flmul@aexp^(0+128),w
  4613  0394  1903               	btfsc	3,2
  4614  0395  2B97               	goto	u4871
  4615  0396  2B98               	goto	u4870
  4616  0397                     u4871:
  4617  0397  2BC9               	goto	l3547
  4618  0398                     u4870:
  4619  0398                     l3539:
  4620  0398  3001               	movlw	1
  4621  0399  07BA               	addwf	___flmul@prod^(0+128),f
  4622  039A  3000               	movlw	0
  4623  039B  1803               	skipnc
  4624  039C  3001               	movlw	1
  4625  039D  07BB               	addwf	(___flmul@prod+1)^(0+128),f
  4626  039E  3000               	movlw	0
  4627  039F  1803               	skipnc
  4628  03A0  3001               	movlw	1
  4629  03A1  07BC               	addwf	(___flmul@prod+2)^(0+128),f
  4630  03A2  3000               	movlw	0
  4631  03A3  1803               	skipnc
  4632  03A4  3001               	movlw	1
  4633  03A5  07BD               	addwf	(___flmul@prod+3)^(0+128),f
  4634  03A6                     l3541:
  4635  03A6  1C3D               	btfss	(___flmul@prod+3)^(0+128),0
  4636  03A7  2BA9               	goto	u4881
  4637  03A8  2BAA               	goto	u4880
  4638  03A9                     u4881:
  4639  03A9  2BC9               	goto	l3547
  4640  03AA                     u4880:
  4641  03AA                     l3543:
  4642  03AA  083A               	movf	___flmul@prod^(0+128),w
  4643  03AB  00AE               	movwf	??___flmul^(0+128)
  4644  03AC  083B               	movf	(___flmul@prod+1)^(0+128),w
  4645  03AD  00AF               	movwf	(??___flmul^(0+128)+1)
  4646  03AE  083C               	movf	(___flmul@prod+2)^(0+128),w
  4647  03AF  00B0               	movwf	(??___flmul^(0+128)+2)
  4648  03B0  083D               	movf	(___flmul@prod+3)^(0+128),w
  4649  03B1  00B1               	movwf	(??___flmul^(0+128)+3)
  4650  03B2  3001               	movlw	1
  4651  03B3  00B2               	movwf	(??___flmul+4)^(0+128)
  4652  03B4                     u4895:
  4653  03B4  0D31               	rlf	(??___flmul^(0+128)+3),w
  4654  03B5  0CB1               	rrf	(??___flmul^(0+128)+3),f
  4655  03B6  0CB0               	rrf	(??___flmul^(0+128)+2),f
  4656  03B7  0CAF               	rrf	(??___flmul^(0+128)+1),f
  4657  03B8  0CAE               	rrf	??___flmul^(0+128),f
  4658  03B9                     u4890:
  4659  03B9  0BB2               	decfsz	(??___flmul+4)^(0+128),f
  4660  03BA  2BB4               	goto	u4895
  4661  03BB  0831               	movf	(??___flmul+3)^(0+128),w
  4662  03BC  00BD               	movwf	(___flmul@prod+3)^(0+128)
  4663  03BD  0830               	movf	(??___flmul+2)^(0+128),w
  4664  03BE  00BC               	movwf	(___flmul@prod+2)^(0+128)
  4665  03BF  082F               	movf	(??___flmul+1)^(0+128),w
  4666  03C0  00BB               	movwf	(___flmul@prod+1)^(0+128)
  4667  03C1  082E               	movf	??___flmul^(0+128),w
  4668  03C2  00BA               	movwf	___flmul@prod^(0+128)
  4669  03C3                     l3545:
  4670  03C3  3001               	movlw	1
  4671  03C4  07BE               	addwf	___flmul@temp^(0+128),f
  4672  03C5  1803               	skipnc
  4673  03C6  0ABF               	incf	(___flmul@temp+1)^(0+128),f
  4674  03C7  3000               	movlw	0
  4675  03C8  07BF               	addwf	(___flmul@temp+1)^(0+128),f
  4676  03C9                     l3547:
  4677  03C9  083F               	movf	(___flmul@temp+1)^(0+128),w
  4678  03CA  3A80               	xorlw	128
  4679  03CB  00FF               	movwf	btemp+1
  4680  03CC  3080               	movlw	128
  4681  03CD  027F               	subwf	btemp+1,w
  4682  03CE  1D03               	skipz
  4683  03CF  2BD2               	goto	u4905
  4684  03D0  30FF               	movlw	255
  4685  03D1  023E               	subwf	___flmul@temp^(0+128),w
  4686  03D2                     u4905:
  4687  03D2  1C03               	skipc
  4688  03D3  2BD5               	goto	u4901
  4689  03D4  2BD6               	goto	u4900
  4690  03D5                     u4901:
  4691  03D5  2BE1               	goto	l3551
  4692  03D6                     u4900:
  4693  03D6                     l3549:
  4694  03D6  307F               	movlw	127
  4695  03D7  1683               	bsf	3,5	;RP0=1, select bank1
  4696  03D8  1303               	bcf	3,6	;RP1=0, select bank1
  4697  03D9  00BD               	movwf	(___flmul@prod+3)^(0+128)
  4698  03DA  3080               	movlw	128
  4699  03DB  00BC               	movwf	(___flmul@prod+2)^(0+128)
  4700  03DC  3000               	movlw	0
  4701  03DD  00BB               	movwf	(___flmul@prod+1)^(0+128)
  4702  03DE  3000               	movlw	0
  4703  03DF  00BA               	movwf	___flmul@prod^(0+128)
  4704  03E0  2C16               	goto	l1048
  4705  03E1                     l3551:
  4706  03E1  1683               	bsf	3,5	;RP0=1, select bank1
  4707  03E2  1303               	bcf	3,6	;RP1=0, select bank1
  4708  03E3  083F               	movf	(___flmul@temp+1)^(0+128),w
  4709  03E4  3A80               	xorlw	128
  4710  03E5  00FF               	movwf	btemp+1
  4711  03E6  3080               	movlw	128
  4712  03E7  027F               	subwf	btemp+1,w
  4713  03E8  1D03               	skipz
  4714  03E9  2BEC               	goto	u4915
  4715  03EA  3001               	movlw	1
  4716  03EB  023E               	subwf	___flmul@temp^(0+128),w
  4717  03EC                     u4915:
  4718  03EC  1803               	skipnc
  4719  03ED  2BEF               	goto	u4911
  4720  03EE  2BF0               	goto	u4910
  4721  03EF                     u4911:
  4722  03EF  2BFC               	goto	l3557
  4723  03F0                     u4910:
  4724  03F0                     l3553:
  4725  03F0  3000               	movlw	0
  4726  03F1  1683               	bsf	3,5	;RP0=1, select bank1
  4727  03F2  1303               	bcf	3,6	;RP1=0, select bank1
  4728  03F3  00BD               	movwf	(___flmul@prod+3)^(0+128)
  4729  03F4  3000               	movlw	0
  4730  03F5  00BC               	movwf	(___flmul@prod+2)^(0+128)
  4731  03F6  3000               	movlw	0
  4732  03F7  00BB               	movwf	(___flmul@prod+1)^(0+128)
  4733  03F8  3000               	movlw	0
  4734  03F9  00BA               	movwf	___flmul@prod^(0+128)
  4735  03FA                     l3555:
  4736  03FA  01B3               	clrf	___flmul@sign^(0+128)
  4737  03FB  2C16               	goto	l1048
  4738  03FC                     l3557:
  4739  03FC  1683               	bsf	3,5	;RP0=1, select bank1
  4740  03FD  1303               	bcf	3,6	;RP1=0, select bank1
  4741  03FE  083E               	movf	___flmul@temp^(0+128),w
  4742  03FF  00FF               	movwf	btemp+1
  4743  0400  087F               	movf	btemp+1,w
  4744  0401  00B9               	movwf	___flmul@bexp^(0+128)
  4745  0402                     l3559:
  4746  0402  30FF               	movlw	255
  4747  0403  05BA               	andwf	___flmul@prod^(0+128),f
  4748  0404  30FF               	movlw	255
  4749  0405  05BB               	andwf	(___flmul@prod+1)^(0+128),f
  4750  0406  307F               	movlw	127
  4751  0407  05BC               	andwf	(___flmul@prod+2)^(0+128),f
  4752  0408  3000               	movlw	0
  4753  0409  05BD               	andwf	(___flmul@prod+3)^(0+128),f
  4754  040A                     l3561:
  4755  040A  1C39               	btfss	___flmul@bexp^(0+128),0
  4756  040B  2C0D               	goto	u4921
  4757  040C  2C0E               	goto	u4920
  4758  040D                     u4921:
  4759  040D  2C0F               	goto	l3565
  4760  040E                     u4920:
  4761  040E                     l3563:
  4762  040E  17BC               	bsf	(___flmul@prod^(0+128)+2),7
  4763  040F                     l3565:
  4764  040F  0839               	movf	___flmul@bexp^(0+128),w
  4765  0410  00AE               	movwf	??___flmul^(0+128)
  4766  0411  1003               	clrc
  4767  0412  0C2E               	rrf	??___flmul^(0+128),w
  4768  0413  00FF               	movwf	btemp+1
  4769  0414  087F               	movf	btemp+1,w
  4770  0415  00BD               	movwf	(___flmul@prod^(0+128)+3)
  4771  0416                     l1048:
  4772  0416  0833               	movf	___flmul@sign^(0+128),w
  4773  0417  00FF               	movwf	btemp+1
  4774  0418  087F               	movf	btemp+1,w
  4775  0419  04BD               	iorwf	(___flmul@prod^(0+128)+3),f
  4776  041A                     l3567:
  4777  041A  083D               	movf	(___flmul@prod+3)^(0+128),w
  4778  041B  00A9               	movwf	(?___flmul+3)^(0+128)
  4779  041C  083C               	movf	(___flmul@prod+2)^(0+128),w
  4780  041D  00A8               	movwf	(?___flmul+2)^(0+128)
  4781  041E  083B               	movf	(___flmul@prod+1)^(0+128),w
  4782  041F  00A7               	movwf	(?___flmul+1)^(0+128)
  4783  0420  083A               	movf	___flmul@prod^(0+128),w
  4784  0421  00A6               	movwf	?___flmul^(0+128)
  4785  0422                     l1036:
  4786  0422  0008               	return
  4787  0423                     __end_of___flmul:
  4788                           
  4789                           	psect	text16
  4790  09E5                     __ptext16:	
  4791 ;; *************** function __Umul8_16 *****************
  4792 ;; Defined at:
  4793 ;;		line 4 in file "C:\Program Files (x86)\Microchip\xc8\v2.20\pic\sources\c90\common\Umul8_16.c"
  4794 ;; Parameters:    Size  Location     Type
  4795 ;;  multiplier      1    wreg     unsigned char 
  4796 ;;  multiplicand    1   22[BANK0 ] unsigned char 
  4797 ;; Auto vars:     Size  Location     Type
  4798 ;;  multiplier      1   30[BANK0 ] unsigned char 
  4799 ;;  word_mpld       2   28[BANK0 ] unsigned int 
  4800 ;;  product         2   26[BANK0 ] unsigned int 
  4801 ;; Return value:  Size  Location     Type
  4802 ;;                  2   22[BANK0 ] unsigned int 
  4803 ;; Registers used:
  4804 ;;		wreg, status,2, status,0
  4805 ;; Tracked objects:
  4806 ;;		On entry : 0/0
  4807 ;;		On exit  : 0/0
  4808 ;;		Unchanged: 0/0
  4809 ;; Data sizes:     COMMON   BANK0   BANK1   BANK3   BANK2
  4810 ;;      Params:         0       2       0       0       0
  4811 ;;      Locals:         0       5       0       0       0
  4812 ;;      Temps:          0       2       0       0       0
  4813 ;;      Totals:         0       9       0       0       0
  4814 ;;Total ram usage:        9 bytes
  4815 ;; Hardware stack levels used:    1
  4816 ;; Hardware stack levels required when called:    4
  4817 ;; This function calls:
  4818 ;;		Nothing
  4819 ;; This function is called by:
  4820 ;;		___flmul
  4821 ;; This function uses a non-reentrant model
  4822 ;;
  4823                           
  4824                           
  4825                           ;psect for function __Umul8_16
  4826  09E5                     __Umul8_16:
  4827                           
  4828                           ;incstack = 0
  4829 ;; hardware stack exceeded
  4830                           ; Regs used in __Umul8_16: [wreg+status,2+status,0]
  4831                           ;__Umul8_16@multiplier stored from wreg
  4832  09E5  1283               	bcf	3,5	;RP0=0, select bank0
  4833  09E6  1303               	bcf	3,6	;RP1=0, select bank0
  4834  09E7  00BE               	movwf	__Umul8_16@multiplier
  4835  09E8                     l3243:
  4836  09E8  01BA               	clrf	__Umul8_16@product
  4837  09E9  01BB               	clrf	__Umul8_16@product+1
  4838  09EA                     l3245:
  4839  09EA  0836               	movf	__Umul8_16@multiplicand,w
  4840  09EB  00B8               	movwf	??__Umul8_16
  4841  09EC  01B9               	clrf	??__Umul8_16+1
  4842  09ED  0838               	movf	??__Umul8_16,w
  4843  09EE  00BC               	movwf	__Umul8_16@word_mpld
  4844  09EF  0839               	movf	??__Umul8_16+1,w
  4845  09F0  00BD               	movwf	__Umul8_16@word_mpld+1
  4846  09F1                     l3247:
  4847  09F1  1C3E               	btfss	__Umul8_16@multiplier,0
  4848  09F2  29F4               	goto	u4131
  4849  09F3  29F5               	goto	u4130
  4850  09F4                     u4131:
  4851  09F4  29FB               	goto	l1055
  4852  09F5                     u4130:
  4853  09F5                     l3249:
  4854  09F5  083C               	movf	__Umul8_16@word_mpld,w
  4855  09F6  07BA               	addwf	__Umul8_16@product,f
  4856  09F7  1803               	skipnc
  4857  09F8  0ABB               	incf	__Umul8_16@product+1,f
  4858  09F9  083D               	movf	__Umul8_16@word_mpld+1,w
  4859  09FA  07BB               	addwf	__Umul8_16@product+1,f
  4860  09FB                     l1055:
  4861  09FB  3001               	movlw	1
  4862  09FC                     u4145:
  4863  09FC  1003               	clrc
  4864  09FD  0DBC               	rlf	__Umul8_16@word_mpld,f
  4865  09FE  0DBD               	rlf	__Umul8_16@word_mpld+1,f
  4866  09FF  3EFF               	addlw	-1
  4867  0A00  1D03               	skipz
  4868  0A01  29FC               	goto	u4145
  4869  0A02  1003               	clrc
  4870  0A03  0CBE               	rrf	__Umul8_16@multiplier,f
  4871  0A04                     l3251:
  4872  0A04  083E               	movf	__Umul8_16@multiplier,w
  4873  0A05  1D03               	btfss	3,2
  4874  0A06  2A08               	goto	u4151
  4875  0A07  2A09               	goto	u4150
  4876  0A08                     u4151:
  4877  0A08  29F1               	goto	l3247
  4878  0A09                     u4150:
  4879  0A09                     l3253:
  4880  0A09  083B               	movf	__Umul8_16@product+1,w
  4881  0A0A  00B7               	movwf	?__Umul8_16+1
  4882  0A0B  083A               	movf	__Umul8_16@product,w
  4883  0A0C  00B6               	movwf	?__Umul8_16
  4884  0A0D                     l1057:
  4885  0A0D  0008               	return
  4886  0A0E                     __end_of__Umul8_16:
  4887                           
  4888                           	psect	text17
  4889  052E                     __ptext17:	
  4890 ;; *************** function _Average_Value *****************
  4891 ;; Defined at:
  4892 ;;		line 24 in file "Average/Average.c"
  4893 ;; Parameters:    Size  Location     Type
  4894 ;;  Value           1    wreg     unsigned char 
  4895 ;;  Avrage_Value    1   31[BANK0 ] PTR unsigned char 
  4896 ;;		 -> Temperature(6), 
  4897 ;; Auto vars:     Size  Location     Type
  4898 ;;  Value           1   32[BANK0 ] unsigned char 
  4899 ;;  index           1   33[BANK0 ] unsigned char 
  4900 ;; Return value:  Size  Location     Type
  4901 ;;                  1    wreg      void 
  4902 ;; Registers used:
  4903 ;;		wreg, fsr0l, fsr0h, status,2, status,0, btemp+1, pclath, cstack
  4904 ;; Tracked objects:
  4905 ;;		On entry : 0/0
  4906 ;;		On exit  : 0/0
  4907 ;;		Unchanged: 0/0
  4908 ;; Data sizes:     COMMON   BANK0   BANK1   BANK3   BANK2
  4909 ;;      Params:         0       1       0       0       0
  4910 ;;      Locals:         0       2       0       0       0
  4911 ;;      Temps:          0       0       5       0       0
  4912 ;;      Totals:         0       3       5       0       0
  4913 ;;Total ram usage:        8 bytes
  4914 ;; Hardware stack levels used:    1
  4915 ;; Hardware stack levels required when called:    5
  4916 ;; This function calls:
  4917 ;;		___lldiv
  4918 ;;		___lwmod
  4919 ;; This function is called by:
  4920 ;;		_Temperature_Calc
  4921 ;; This function uses a non-reentrant model
  4922 ;;
  4923                           
  4924                           
  4925                           ;psect for function _Average_Value
  4926  052E                     _Average_Value:
  4927                           
  4928                           ;incstack = 0
  4929 ;; hardware stack exceeded
  4930                           ; Regs used in _Average_Value: [wreg-fsr0h+status,2+status,0+btemp+1+pclath+cstack]
  4931                           ;Average_Value@Value stored from wreg
  4932  052E  1283               	bcf	3,5	;RP0=0, select bank0
  4933  052F  1303               	bcf	3,6	;RP1=0, select bank0
  4934  0530  00C0               	movwf	Average_Value@Value
  4935  0531                     l3257:
  4936                           
  4937                           ;Average/Average.c: 24: void Average_Value(uint8_t Value,uint8_t *Avrage_Values);Average
      +                          /Average.c: 25: {;Average/Average.c: 27:     Avrage_buffer=0;
  4938  0531  3000               	movlw	0
  4939  0532  1683               	bsf	3,5	;RP0=1, select bank1
  4940  0533  1303               	bcf	3,6	;RP1=0, select bank1
  4941  0534  00D4               	movwf	(_Avrage_buffer+3)^(0+128)
  4942  0535  3000               	movlw	0
  4943  0536  00D3               	movwf	(_Avrage_buffer+2)^(0+128)
  4944  0537  3000               	movlw	0
  4945  0538  00D2               	movwf	(_Avrage_buffer+1)^(0+128)
  4946  0539  3000               	movlw	0
  4947  053A  00D1               	movwf	_Avrage_buffer^(0+128)
  4948  053B                     l3259:
  4949                           
  4950                           ;Average/Average.c: 28:  temb_val[Average_Nvalues]=Value;
  4951  053B  1283               	bcf	3,5	;RP0=0, select bank0
  4952  053C  1303               	bcf	3,6	;RP1=0, select bank0
  4953  053D  0840               	movf	Average_Value@Value,w
  4954  053E  1683               	bsf	3,5	;RP0=1, select bank1
  4955  053F  1303               	bcf	3,6	;RP1=0, select bank1
  4956  0540  00A5               	movwf	??_Average_Value^(0+128)
  4957  0541  01A6               	clrf	(??_Average_Value^(0+128)+1)
  4958  0542  01A7               	clrf	(??_Average_Value^(0+128)+2)
  4959  0543  01A8               	clrf	(??_Average_Value^(0+128)+3)
  4960  0544  1283               	bcf	3,5	;RP0=0, select bank0
  4961  0545  1303               	bcf	3,6	;RP1=0, select bank0
  4962  0546  0858               	movf	_Average_Nvalues,w
  4963  0547  1683               	bsf	3,5	;RP0=1, select bank1
  4964  0548  1303               	bcf	3,6	;RP1=0, select bank1
  4965  0549  00A9               	movwf	(??_Average_Value+4)^(0+128)
  4966  054A  3001               	movlw	1
  4967  054B                     u4165:
  4968  054B  1003               	clrc
  4969  054C  0DA9               	rlf	(??_Average_Value+4)^(0+128),f
  4970  054D  3EFF               	addlw	-1
  4971  054E  1D03               	skipz
  4972  054F  2D4B               	goto	u4165
  4973  0550  1003               	clrc
  4974  0551  0D29               	rlf	(??_Average_Value+4)^(0+128),w
  4975  0552  3E90               	addlw	(low (_temb_val| (0+256)))& (0+255)
  4976  0553  0084               	movwf	4
  4977  0554  0825               	movf	??_Average_Value^(0+128),w
  4978  0555  1783               	bsf	3,7	;select IRP bank3
  4979  0556  0080               	movwf	0
  4980  0557  0A84               	incf	4,f
  4981  0558  0826               	movf	(??_Average_Value+1)^(0+128),w
  4982  0559  0080               	movwf	0
  4983  055A  0A84               	incf	4,f
  4984  055B  0827               	movf	(??_Average_Value+2)^(0+128),w
  4985  055C  0080               	movwf	0
  4986  055D  0A84               	incf	4,f
  4987  055E  0828               	movf	(??_Average_Value+3)^(0+128),w
  4988  055F  0080               	movwf	0
  4989  0560                     l3261:
  4990                           
  4991                           ;Average/Average.c: 30:  Average_Nvalues= (Average_Nvalues+1)%10U;
  4992  0560  300A               	movlw	10
  4993  0561  1283               	bcf	3,5	;RP0=0, select bank0
  4994  0562  1303               	bcf	3,6	;RP1=0, select bank0
  4995  0563  00B6               	movwf	___lwmod@divisor
  4996  0564  3000               	movlw	0
  4997  0565  00B7               	movwf	___lwmod@divisor+1
  4998  0566  0858               	movf	_Average_Nvalues,w
  4999  0567  3E01               	addlw	1
  5000  0568  00B8               	movwf	___lwmod@dividend
  5001  0569  3000               	movlw	0
  5002  056A  1803               	skipnc
  5003  056B  3001               	movlw	1
  5004  056C  00B9               	movwf	___lwmod@dividend+1
  5005  056D  120A  158A  23D1  120A  118A  	fcall	___lwmod
  5006  0572  1283               	bcf	3,5	;RP0=0, select bank0
  5007  0573  1303               	bcf	3,6	;RP1=0, select bank0
  5008  0574  0836               	movf	?___lwmod,w
  5009  0575  00FF               	movwf	btemp+1
  5010  0576  087F               	movf	btemp+1,w
  5011  0577  00D8               	movwf	_Average_Nvalues
  5012  0578                     l3263:
  5013                           
  5014                           ;Average/Average.c: 32:  for(uint8_t index=0;index<10U;index++)
  5015  0578  01C1               	clrf	Average_Value@index
  5016  0579                     l3269:
  5017                           
  5018                           ;Average/Average.c: 33:  {;Average/Average.c: 34:   Avrage_buffer+=temb_val[index];
  5019  0579  0841               	movf	Average_Value@index,w
  5020  057A  1683               	bsf	3,5	;RP0=1, select bank1
  5021  057B  1303               	bcf	3,6	;RP1=0, select bank1
  5022  057C  00A5               	movwf	??_Average_Value^(0+128)
  5023  057D  3001               	movlw	1
  5024  057E                     u4175:
  5025  057E  1003               	clrc
  5026  057F  0DA5               	rlf	??_Average_Value^(0+128),f
  5027  0580  3EFF               	addlw	-1
  5028  0581  1D03               	skipz
  5029  0582  2D7E               	goto	u4175
  5030  0583  1003               	clrc
  5031  0584  0D25               	rlf	??_Average_Value^(0+128),w
  5032  0585  3E90               	addlw	(low (_temb_val| (0+256)))& (0+255)
  5033  0586  0084               	movwf	4
  5034  0587  1783               	bsf	3,7	;select IRP bank3
  5035  0588  0800               	movf	0,w
  5036  0589  07D1               	addwf	_Avrage_buffer^(0+128),f
  5037  058A  0A84               	incf	4,f
  5038  058B  0800               	movf	0,w
  5039  058C  1803               	skipnc
  5040  058D  0F00               	incfsz	0,w
  5041  058E  2D90               	goto	u4181
  5042  058F  2D91               	goto	u4182
  5043  0590                     u4181:
  5044  0590  07D2               	addwf	(_Avrage_buffer+1)^(0+128),f
  5045  0591                     u4182:
  5046  0591  0A84               	incf	4,f
  5047  0592  0800               	movf	0,w
  5048  0593  1803               	skipnc
  5049  0594  0F00               	incfsz	0,w
  5050  0595  2D97               	goto	u4183
  5051  0596  2D98               	goto	u4184
  5052  0597                     u4183:
  5053  0597  07D3               	addwf	(_Avrage_buffer+2)^(0+128),f
  5054  0598                     u4184:
  5055  0598  0A84               	incf	4,f
  5056  0599  0800               	movf	0,w
  5057  059A  1803               	skipnc
  5058  059B  0F00               	incfsz	0,w
  5059  059C  2D9E               	goto	u4185
  5060  059D  2D9F               	goto	u4186
  5061  059E                     u4185:
  5062  059E  07D4               	addwf	(_Avrage_buffer+3)^(0+128),f
  5063  059F                     u4186:
  5064  059F                     l3271:
  5065                           
  5066                           ;Average/Average.c: 35:  }
  5067  059F  3001               	movlw	1
  5068  05A0  00FF               	movwf	btemp+1
  5069  05A1  087F               	movf	btemp+1,w
  5070  05A2  1283               	bcf	3,5	;RP0=0, select bank0
  5071  05A3  1303               	bcf	3,6	;RP1=0, select bank0
  5072  05A4  07C1               	addwf	Average_Value@index,f
  5073  05A5                     l3273:
  5074  05A5  300A               	movlw	10
  5075  05A6  0241               	subwf	Average_Value@index,w
  5076  05A7  1C03               	skipc
  5077  05A8  2DAA               	goto	u4191
  5078  05A9  2DAB               	goto	u4190
  5079  05AA                     u4191:
  5080  05AA  2D79               	goto	l3269
  5081  05AB                     u4190:
  5082  05AB                     l3275:
  5083                           
  5084                           ;Average/Average.c: 38:    *Avrage_Values=Avrage_buffer/10U;
  5085  05AB  3000               	movlw	0
  5086  05AC  00B9               	movwf	___lldiv@divisor+3
  5087  05AD  3000               	movlw	0
  5088  05AE  00B8               	movwf	___lldiv@divisor+2
  5089  05AF  3000               	movlw	0
  5090  05B0  00B7               	movwf	___lldiv@divisor+1
  5091  05B1  300A               	movlw	10
  5092  05B2  00B6               	movwf	___lldiv@divisor
  5093  05B3  1683               	bsf	3,5	;RP0=1, select bank1
  5094  05B4  1303               	bcf	3,6	;RP1=0, select bank1
  5095  05B5  0854               	movf	(_Avrage_buffer+3)^(0+128),w
  5096  05B6  1283               	bcf	3,5	;RP0=0, select bank0
  5097  05B7  1303               	bcf	3,6	;RP1=0, select bank0
  5098  05B8  00BD               	movwf	___lldiv@dividend+3
  5099  05B9  1683               	bsf	3,5	;RP0=1, select bank1
  5100  05BA  1303               	bcf	3,6	;RP1=0, select bank1
  5101  05BB  0853               	movf	(_Avrage_buffer+2)^(0+128),w
  5102  05BC  1283               	bcf	3,5	;RP0=0, select bank0
  5103  05BD  1303               	bcf	3,6	;RP1=0, select bank0
  5104  05BE  00BC               	movwf	___lldiv@dividend+2
  5105  05BF  1683               	bsf	3,5	;RP0=1, select bank1
  5106  05C0  1303               	bcf	3,6	;RP1=0, select bank1
  5107  05C1  0852               	movf	(_Avrage_buffer+1)^(0+128),w
  5108  05C2  1283               	bcf	3,5	;RP0=0, select bank0
  5109  05C3  1303               	bcf	3,6	;RP1=0, select bank0
  5110  05C4  00BB               	movwf	___lldiv@dividend+1
  5111  05C5  1683               	bsf	3,5	;RP0=1, select bank1
  5112  05C6  1303               	bcf	3,6	;RP1=0, select bank1
  5113  05C7  0851               	movf	_Avrage_buffer^(0+128),w
  5114  05C8  1283               	bcf	3,5	;RP0=0, select bank0
  5115  05C9  1303               	bcf	3,6	;RP1=0, select bank0
  5116  05CA  00BA               	movwf	___lldiv@dividend
  5117  05CB  120A  158A  2776  120A  118A  	fcall	___lldiv
  5118  05D0  1283               	bcf	3,5	;RP0=0, select bank0
  5119  05D1  1303               	bcf	3,6	;RP1=0, select bank0
  5120  05D2  0836               	movf	?___lldiv,w
  5121  05D3  00FF               	movwf	btemp+1
  5122  05D4  083F               	movf	Average_Value@Avrage_Values,w
  5123  05D5  0084               	movwf	4
  5124  05D6  087F               	movf	btemp+1,w
  5125  05D7  1383               	bcf	3,7	;select IRP bank0
  5126  05D8  0080               	movwf	0
  5127  05D9                     l79:
  5128  05D9  0008               	return
  5129  05DA                     __end_of_Average_Value:
  5130                           
  5131                           	psect	text18
  5132  0BD1                     __ptext18:	
  5133 ;; *************** function ___lwmod *****************
  5134 ;; Defined at:
  5135 ;;		line 5 in file "C:\Program Files (x86)\Microchip\xc8\v2.20\pic\sources\c90\common\lwmod.c"
  5136 ;; Parameters:    Size  Location     Type
  5137 ;;  divisor         2   22[BANK0 ] unsigned int 
  5138 ;;  dividend        2   24[BANK0 ] unsigned int 
  5139 ;; Auto vars:     Size  Location     Type
  5140 ;;  counter         1   26[BANK0 ] unsigned char 
  5141 ;; Return value:  Size  Location     Type
  5142 ;;                  2   22[BANK0 ] unsigned int 
  5143 ;; Registers used:
  5144 ;;		wreg, status,2, status,0, btemp+1
  5145 ;; Tracked objects:
  5146 ;;		On entry : 0/0
  5147 ;;		On exit  : 0/0
  5148 ;;		Unchanged: 0/0
  5149 ;; Data sizes:     COMMON   BANK0   BANK1   BANK3   BANK2
  5150 ;;      Params:         0       4       0       0       0
  5151 ;;      Locals:         0       1       0       0       0
  5152 ;;      Temps:          0       0       0       0       0
  5153 ;;      Totals:         0       5       0       0       0
  5154 ;;Total ram usage:        5 bytes
  5155 ;; Hardware stack levels used:    1
  5156 ;; Hardware stack levels required when called:    4
  5157 ;; This function calls:
  5158 ;;		Nothing
  5159 ;; This function is called by:
  5160 ;;		_Average_Value
  5161 ;;		_Temperature_Calc
  5162 ;; This function uses a non-reentrant model
  5163 ;;
  5164                           
  5165                           
  5166                           ;psect for function ___lwmod
  5167  0BD1                     ___lwmod:
  5168  0BD1                     l3221:	
  5169                           ;incstack = 0
  5170 ;; hardware stack exceeded
  5171                           ; Regs used in ___lwmod: [wreg+status,2+status,0+btemp+1]
  5172                           
  5173  0BD1  1283               	bcf	3,5	;RP0=0, select bank0
  5174  0BD2  1303               	bcf	3,6	;RP1=0, select bank0
  5175  0BD3  0836               	movf	___lwmod@divisor,w
  5176  0BD4  0437               	iorwf	___lwmod@divisor+1,w
  5177  0BD5  1903               	btfsc	3,2
  5178  0BD6  2BD8               	goto	u4071
  5179  0BD7  2BD9               	goto	u4070
  5180  0BD8                     u4071:
  5181  0BD8  2C08               	goto	l3239
  5182  0BD9                     u4070:
  5183  0BD9                     l3223:
  5184  0BD9  01BA               	clrf	___lwmod@counter
  5185  0BDA  0ABA               	incf	___lwmod@counter,f
  5186  0BDB  2BE7               	goto	l3229
  5187  0BDC                     l3225:
  5188  0BDC  3001               	movlw	1
  5189  0BDD                     u4085:
  5190  0BDD  1003               	clrc
  5191  0BDE  0DB6               	rlf	___lwmod@divisor,f
  5192  0BDF  0DB7               	rlf	___lwmod@divisor+1,f
  5193  0BE0  3EFF               	addlw	-1
  5194  0BE1  1D03               	skipz
  5195  0BE2  2BDD               	goto	u4085
  5196  0BE3                     l3227:
  5197  0BE3  3001               	movlw	1
  5198  0BE4  00FF               	movwf	btemp+1
  5199  0BE5  087F               	movf	btemp+1,w
  5200  0BE6  07BA               	addwf	___lwmod@counter,f
  5201  0BE7                     l3229:
  5202  0BE7  1FB7               	btfss	___lwmod@divisor+1,7
  5203  0BE8  2BEA               	goto	u4091
  5204  0BE9  2BEB               	goto	u4090
  5205  0BEA                     u4091:
  5206  0BEA  2BDC               	goto	l3225
  5207  0BEB                     u4090:
  5208  0BEB                     l3231:
  5209  0BEB  0837               	movf	___lwmod@divisor+1,w
  5210  0BEC  0239               	subwf	___lwmod@dividend+1,w
  5211  0BED  1D03               	skipz
  5212  0BEE  2BF1               	goto	u4105
  5213  0BEF  0836               	movf	___lwmod@divisor,w
  5214  0BF0  0238               	subwf	___lwmod@dividend,w
  5215  0BF1                     u4105:
  5216  0BF1  1C03               	skipc
  5217  0BF2  2BF4               	goto	u4101
  5218  0BF3  2BF5               	goto	u4100
  5219  0BF4                     u4101:
  5220  0BF4  2BFB               	goto	l3235
  5221  0BF5                     u4100:
  5222  0BF5                     l3233:
  5223  0BF5  0836               	movf	___lwmod@divisor,w
  5224  0BF6  02B8               	subwf	___lwmod@dividend,f
  5225  0BF7  0837               	movf	___lwmod@divisor+1,w
  5226  0BF8  1C03               	skipc
  5227  0BF9  03B9               	decf	___lwmod@dividend+1,f
  5228  0BFA  02B9               	subwf	___lwmod@dividend+1,f
  5229  0BFB                     l3235:
  5230  0BFB  3001               	movlw	1
  5231  0BFC                     u4115:
  5232  0BFC  1003               	clrc
  5233  0BFD  0CB7               	rrf	___lwmod@divisor+1,f
  5234  0BFE  0CB6               	rrf	___lwmod@divisor,f
  5235  0BFF  3EFF               	addlw	-1
  5236  0C00  1D03               	skipz
  5237  0C01  2BFC               	goto	u4115
  5238  0C02                     l3237:
  5239  0C02  3001               	movlw	1
  5240  0C03  02BA               	subwf	___lwmod@counter,f
  5241  0C04  1D03               	btfss	3,2
  5242  0C05  2C07               	goto	u4121
  5243  0C06  2C08               	goto	u4120
  5244  0C07                     u4121:
  5245  0C07  2BEB               	goto	l3231
  5246  0C08                     u4120:
  5247  0C08                     l3239:
  5248  0C08  0839               	movf	___lwmod@dividend+1,w
  5249  0C09  00B7               	movwf	?___lwmod+1
  5250  0C0A  0838               	movf	___lwmod@dividend,w
  5251  0C0B  00B6               	movwf	?___lwmod
  5252  0C0C                     l929:
  5253  0C0C  0008               	return
  5254  0C0D                     __end_of___lwmod:
  5255                           
  5256                           	psect	text19
  5257  0F76                     __ptext19:	
  5258 ;; *************** function ___lldiv *****************
  5259 ;; Defined at:
  5260 ;;		line 5 in file "C:\Program Files (x86)\Microchip\xc8\v2.20\pic\sources\c90\common\__lldiv.c"
  5261 ;; Parameters:    Size  Location     Type
  5262 ;;  divisor         4   22[BANK0 ] unsigned long 
  5263 ;;  dividend        4   26[BANK0 ] unsigned long 
  5264 ;; Auto vars:     Size  Location     Type
  5265 ;;  quotient        4    0[BANK1 ] unsigned long 
  5266 ;;  counter         1    4[BANK1 ] unsigned char 
  5267 ;; Return value:  Size  Location     Type
  5268 ;;                  4   22[BANK0 ] unsigned long 
  5269 ;; Registers used:
  5270 ;;		wreg, status,2, status,0, btemp+1
  5271 ;; Tracked objects:
  5272 ;;		On entry : 0/0
  5273 ;;		On exit  : 0/0
  5274 ;;		Unchanged: 0/0
  5275 ;; Data sizes:     COMMON   BANK0   BANK1   BANK3   BANK2
  5276 ;;      Params:         0       8       0       0       0
  5277 ;;      Locals:         0       0       5       0       0
  5278 ;;      Temps:          0       1       0       0       0
  5279 ;;      Totals:         0       9       5       0       0
  5280 ;;Total ram usage:       14 bytes
  5281 ;; Hardware stack levels used:    1
  5282 ;; Hardware stack levels required when called:    4
  5283 ;; This function calls:
  5284 ;;		Nothing
  5285 ;; This function is called by:
  5286 ;;		_Average_Value
  5287 ;; This function uses a non-reentrant model
  5288 ;;
  5289                           
  5290                           
  5291                           ;psect for function ___lldiv
  5292  0F76                     ___lldiv:
  5293  0F76                     l3195:	
  5294                           ;incstack = 0
  5295 ;; hardware stack exceeded
  5296                           ; Regs used in ___lldiv: [wreg+status,2+status,0+btemp+1]
  5297                           
  5298  0F76  3000               	movlw	0
  5299  0F77  1683               	bsf	3,5	;RP0=1, select bank1
  5300  0F78  1303               	bcf	3,6	;RP1=0, select bank1
  5301  0F79  00A3               	movwf	(___lldiv@quotient+3)^(0+128)
  5302  0F7A  3000               	movlw	0
  5303  0F7B  00A2               	movwf	(___lldiv@quotient+2)^(0+128)
  5304  0F7C  3000               	movlw	0
  5305  0F7D  00A1               	movwf	(___lldiv@quotient+1)^(0+128)
  5306  0F7E  3000               	movlw	0
  5307  0F7F  00A0               	movwf	___lldiv@quotient^(0+128)
  5308  0F80  1283               	bcf	3,5	;RP0=0, select bank0
  5309  0F81  1303               	bcf	3,6	;RP1=0, select bank0
  5310  0F82  0839               	movf	___lldiv@divisor+3,w
  5311  0F83  0438               	iorwf	___lldiv@divisor+2,w
  5312  0F84  0437               	iorwf	___lldiv@divisor+1,w
  5313  0F85  0436               	iorwf	___lldiv@divisor,w
  5314  0F86  1903               	skipnz
  5315  0F87  2F89               	goto	u4001
  5316  0F88  2F8A               	goto	u4000
  5317  0F89                     u4001:
  5318  0F89  2FE7               	goto	l3217
  5319  0F8A                     u4000:
  5320  0F8A                     l3197:
  5321  0F8A  1683               	bsf	3,5	;RP0=1, select bank1
  5322  0F8B  1303               	bcf	3,6	;RP1=0, select bank1
  5323  0F8C  01A4               	clrf	___lldiv@counter^(0+128)
  5324  0F8D  0AA4               	incf	___lldiv@counter^(0+128),f
  5325  0F8E  2F9E               	goto	l3203
  5326  0F8F                     l3199:
  5327  0F8F  3001               	movlw	1
  5328  0F90  00BE               	movwf	??___lldiv
  5329  0F91                     u4015:
  5330  0F91  1003               	clrc
  5331  0F92  0DB6               	rlf	___lldiv@divisor,f
  5332  0F93  0DB7               	rlf	___lldiv@divisor+1,f
  5333  0F94  0DB8               	rlf	___lldiv@divisor+2,f
  5334  0F95  0DB9               	rlf	___lldiv@divisor+3,f
  5335  0F96  0BBE               	decfsz	??___lldiv,f
  5336  0F97  2F91               	goto	u4015
  5337  0F98                     l3201:
  5338  0F98  3001               	movlw	1
  5339  0F99  00FF               	movwf	btemp+1
  5340  0F9A  087F               	movf	btemp+1,w
  5341  0F9B  1683               	bsf	3,5	;RP0=1, select bank1
  5342  0F9C  1303               	bcf	3,6	;RP1=0, select bank1
  5343  0F9D  07A4               	addwf	___lldiv@counter^(0+128),f
  5344  0F9E                     l3203:
  5345  0F9E  1283               	bcf	3,5	;RP0=0, select bank0
  5346  0F9F  1303               	bcf	3,6	;RP1=0, select bank0
  5347  0FA0  1FB9               	btfss	___lldiv@divisor+3,7
  5348  0FA1  2FA3               	goto	u4021
  5349  0FA2  2FA4               	goto	u4020
  5350  0FA3                     u4021:
  5351  0FA3  2F8F               	goto	l3199
  5352  0FA4                     u4020:
  5353  0FA4                     l3205:
  5354  0FA4  3001               	movlw	1
  5355  0FA5  1283               	bcf	3,5	;RP0=0, select bank0
  5356  0FA6  00BE               	movwf	??___lldiv
  5357  0FA7                     u4035:
  5358  0FA7  1003               	clrc
  5359  0FA8  1683               	bsf	3,5	;RP0=1, select bank1
  5360  0FA9  1303               	bcf	3,6	;RP1=0, select bank1
  5361  0FAA  0DA0               	rlf	___lldiv@quotient^(0+128),f
  5362  0FAB  0DA1               	rlf	(___lldiv@quotient+1)^(0+128),f
  5363  0FAC  0DA2               	rlf	(___lldiv@quotient+2)^(0+128),f
  5364  0FAD  0DA3               	rlf	(___lldiv@quotient+3)^(0+128),f
  5365  0FAE  1283               	bcf	3,5	;RP0=0, select bank0
  5366  0FAF  1303               	bcf	3,6	;RP1=0, select bank0
  5367  0FB0  0BBE               	decfsz	??___lldiv,f
  5368  0FB1  2FA7               	goto	u4035
  5369  0FB2                     l3207:
  5370  0FB2  0839               	movf	___lldiv@divisor+3,w
  5371  0FB3  023D               	subwf	___lldiv@dividend+3,w
  5372  0FB4  1D03               	skipz
  5373  0FB5  2FC0               	goto	u4045
  5374  0FB6  0838               	movf	___lldiv@divisor+2,w
  5375  0FB7  023C               	subwf	___lldiv@dividend+2,w
  5376  0FB8  1D03               	skipz
  5377  0FB9  2FC0               	goto	u4045
  5378  0FBA  0837               	movf	___lldiv@divisor+1,w
  5379  0FBB  023B               	subwf	___lldiv@dividend+1,w
  5380  0FBC  1D03               	skipz
  5381  0FBD  2FC0               	goto	u4045
  5382  0FBE  0836               	movf	___lldiv@divisor,w
  5383  0FBF  023A               	subwf	___lldiv@dividend,w
  5384  0FC0                     u4045:
  5385  0FC0  1C03               	skipc
  5386  0FC1  2FC3               	goto	u4041
  5387  0FC2  2FC4               	goto	u4040
  5388  0FC3                     u4041:
  5389  0FC3  2FD5               	goto	l3213
  5390  0FC4                     u4040:
  5391  0FC4                     l3209:
  5392  0FC4  0836               	movf	___lldiv@divisor,w
  5393  0FC5  02BA               	subwf	___lldiv@dividend,f
  5394  0FC6  0837               	movf	___lldiv@divisor+1,w
  5395  0FC7  1C03               	skipc
  5396  0FC8  0F37               	incfsz	___lldiv@divisor+1,w
  5397  0FC9  02BB               	subwf	___lldiv@dividend+1,f
  5398  0FCA  0838               	movf	___lldiv@divisor+2,w
  5399  0FCB  1C03               	skipc
  5400  0FCC  0F38               	incfsz	___lldiv@divisor+2,w
  5401  0FCD  02BC               	subwf	___lldiv@dividend+2,f
  5402  0FCE  0839               	movf	___lldiv@divisor+3,w
  5403  0FCF  1C03               	skipc
  5404  0FD0  0F39               	incfsz	___lldiv@divisor+3,w
  5405  0FD1  02BD               	subwf	___lldiv@dividend+3,f
  5406  0FD2                     l3211:
  5407  0FD2  1683               	bsf	3,5	;RP0=1, select bank1
  5408  0FD3  1303               	bcf	3,6	;RP1=0, select bank1
  5409  0FD4  1420               	bsf	___lldiv@quotient^(0+128),0
  5410  0FD5                     l3213:
  5411  0FD5  3001               	movlw	1
  5412  0FD6                     u4055:
  5413  0FD6  1003               	clrc
  5414  0FD7  1283               	bcf	3,5	;RP0=0, select bank0
  5415  0FD8  0CB9               	rrf	___lldiv@divisor+3,f
  5416  0FD9  0CB8               	rrf	___lldiv@divisor+2,f
  5417  0FDA  0CB7               	rrf	___lldiv@divisor+1,f
  5418  0FDB  0CB6               	rrf	___lldiv@divisor,f
  5419  0FDC  3EFF               	addlw	-1
  5420  0FDD  1D03               	skipz
  5421  0FDE  2FD6               	goto	u4055
  5422  0FDF                     l3215:
  5423  0FDF  3001               	movlw	1
  5424  0FE0  1683               	bsf	3,5	;RP0=1, select bank1
  5425  0FE1  1303               	bcf	3,6	;RP1=0, select bank1
  5426  0FE2  02A4               	subwf	___lldiv@counter^(0+128),f
  5427  0FE3  1D03               	btfss	3,2
  5428  0FE4  2FE6               	goto	u4061
  5429  0FE5  2FE7               	goto	u4060
  5430  0FE6                     u4061:
  5431  0FE6  2FA4               	goto	l3205
  5432  0FE7                     u4060:
  5433  0FE7                     l3217:
  5434  0FE7  1683               	bsf	3,5	;RP0=1, select bank1
  5435  0FE8  1303               	bcf	3,6	;RP1=0, select bank1
  5436  0FE9  0823               	movf	(___lldiv@quotient+3)^(0+128),w
  5437  0FEA  1283               	bcf	3,5	;RP0=0, select bank0
  5438  0FEB  1303               	bcf	3,6	;RP1=0, select bank0
  5439  0FEC  00B9               	movwf	?___lldiv+3
  5440  0FED  1683               	bsf	3,5	;RP0=1, select bank1
  5441  0FEE  1303               	bcf	3,6	;RP1=0, select bank1
  5442  0FEF  0822               	movf	(___lldiv@quotient+2)^(0+128),w
  5443  0FF0  1283               	bcf	3,5	;RP0=0, select bank0
  5444  0FF1  1303               	bcf	3,6	;RP1=0, select bank0
  5445  0FF2  00B8               	movwf	?___lldiv+2
  5446  0FF3  1683               	bsf	3,5	;RP0=1, select bank1
  5447  0FF4  1303               	bcf	3,6	;RP1=0, select bank1
  5448  0FF5  0821               	movf	(___lldiv@quotient+1)^(0+128),w
  5449  0FF6  1283               	bcf	3,5	;RP0=0, select bank0
  5450  0FF7  1303               	bcf	3,6	;RP1=0, select bank0
  5451  0FF8  00B7               	movwf	?___lldiv+1
  5452  0FF9  1683               	bsf	3,5	;RP0=1, select bank1
  5453  0FFA  1303               	bcf	3,6	;RP1=0, select bank1
  5454  0FFB  0820               	movf	___lldiv@quotient^(0+128),w
  5455  0FFC  1283               	bcf	3,5	;RP0=0, select bank0
  5456  0FFD  1303               	bcf	3,6	;RP1=0, select bank0
  5457  0FFE  00B6               	movwf	?___lldiv
  5458  0FFF                     l683:
  5459  0FFF  0008               	return
  5460  1000                     __end_of___lldiv:
  5461                           
  5462                           	psect	text20
  5463  090B                     __ptext20:	
  5464 ;; *************** function _ADC_Get_Value *****************
  5465 ;; Defined at:
  5466 ;;		line 78 in file "ADC/ADC.c"
  5467 ;; Parameters:    Size  Location     Type
  5468 ;;  Buffer          1    wreg     PTR unsigned char 
  5469 ;;		 -> Temperature(6), 
  5470 ;; Auto vars:     Size  Location     Type
  5471 ;;  Buffer          1   22[BANK0 ] PTR unsigned char 
  5472 ;;		 -> Temperature(6), 
  5473 ;; Return value:  Size  Location     Type
  5474 ;;                  1    wreg      void 
  5475 ;; Registers used:
  5476 ;;		wreg, fsr0l, fsr0h, btemp+1
  5477 ;; Tracked objects:
  5478 ;;		On entry : 0/0
  5479 ;;		On exit  : 0/0
  5480 ;;		Unchanged: 0/0
  5481 ;; Data sizes:     COMMON   BANK0   BANK1   BANK3   BANK2
  5482 ;;      Params:         0       0       0       0       0
  5483 ;;      Locals:         0       1       0       0       0
  5484 ;;      Temps:          0       0       0       0       0
  5485 ;;      Totals:         0       1       0       0       0
  5486 ;;Total ram usage:        1 bytes
  5487 ;; Hardware stack levels used:    1
  5488 ;; Hardware stack levels required when called:    4
  5489 ;; This function calls:
  5490 ;;		Nothing
  5491 ;; This function is called by:
  5492 ;;		_Temperature_MainFunction
  5493 ;; This function uses a non-reentrant model
  5494 ;;
  5495                           
  5496                           
  5497                           ;psect for function _ADC_Get_Value
  5498  090B                     _ADC_Get_Value:
  5499                           
  5500                           ;incstack = 0
  5501                           ; Regs used in _ADC_Get_Value: [wreg-fsr0h+btemp+1]
  5502                           ;ADC_Get_Value@Buffer stored from wreg
  5503  090B  1283               	bcf	3,5	;RP0=0, select bank0
  5504  090C  1303               	bcf	3,6	;RP1=0, select bank0
  5505  090D  00B6               	movwf	ADC_Get_Value@Buffer
  5506  090E                     l3619:
  5507                           
  5508                           ;ADC/ADC.c: 78: void ADC_Get_Value(uint8_t *Buffer);ADC/ADC.c: 79: {;ADC/ADC.c: 80:  if(
      +                          ADC_Info.ADC_START_FLAG==1&&ADCON0bits.GO_DONE==0)
  5509  090E  1CCD               	btfss	_ADC_Info,1
  5510  090F  2911               	goto	u5071
  5511  0910  2912               	goto	u5070
  5512  0911                     u5071:
  5513  0911  2922               	goto	l21
  5514  0912                     u5070:
  5515  0912                     l3621:
  5516  0912  191F               	btfsc	31,2	;volatile
  5517  0913  2915               	goto	u5081
  5518  0914  2916               	goto	u5080
  5519  0915                     u5081:
  5520  0915  2922               	goto	l21
  5521  0916                     u5080:
  5522  0916                     l3623:
  5523                           
  5524                           ;ADC/ADC.c: 81:  {;ADC/ADC.c: 82:         *Buffer=(ADRESH<<8)|(ADRESL);
  5525  0916  1683               	bsf	3,5	;RP0=1, select bank1
  5526  0917  1303               	bcf	3,6	;RP1=0, select bank1
  5527  0918  081E               	movf	30,w	;volatile
  5528  0919  00FF               	movwf	btemp+1
  5529  091A  1283               	bcf	3,5	;RP0=0, select bank0
  5530  091B  1303               	bcf	3,6	;RP1=0, select bank0
  5531  091C  0836               	movf	ADC_Get_Value@Buffer,w
  5532  091D  0084               	movwf	4
  5533  091E  087F               	movf	btemp+1,w
  5534  091F  1383               	bcf	3,7	;select IRP bank0
  5535  0920  0080               	movwf	0
  5536  0921                     l3625:
  5537                           
  5538                           ;ADC/ADC.c: 83:      ADCON0bits.GO_DONE=1;
  5539  0921  151F               	bsf	31,2	;volatile
  5540  0922                     l21:
  5541  0922  0008               	return
  5542  0923                     __end_of_ADC_Get_Value:
  5543                           
  5544                           	psect	text21
  5545  0EA8                     __ptext21:	
  5546 ;; *************** function _Elements_MainFunction *****************
  5547 ;; Defined at:
  5548 ;;		line 94 in file "Elements/Elements.c"
  5549 ;; Parameters:    Size  Location     Type
  5550 ;;		None
  5551 ;; Auto vars:     Size  Location     Type
  5552 ;;		None
  5553 ;; Return value:  Size  Location     Type
  5554 ;;                  1    wreg      void 
  5555 ;; Registers used:
  5556 ;;		wreg, fsr0l, fsr0h, status,2, status,0, btemp+1, pclath, cstack
  5557 ;; Tracked objects:
  5558 ;;		On entry : 0/0
  5559 ;;		On exit  : 0/0
  5560 ;;		Unchanged: 0/0
  5561 ;; Data sizes:     COMMON   BANK0   BANK1   BANK3   BANK2
  5562 ;;      Params:         0       0       0       0       0
  5563 ;;      Locals:         0       0       0       0       0
  5564 ;;      Temps:          0       0       4       0       0
  5565 ;;      Totals:         0       0       4       0       0
  5566 ;;Total ram usage:        4 bytes
  5567 ;; Hardware stack levels used:    1
  5568 ;; Hardware stack levels required when called:    7
  5569 ;; This function calls:
  5570 ;;		_LED_Control
  5571 ;; This function is called by:
  5572 ;;		_Scheduler_Task2
  5573 ;; This function uses a non-reentrant model
  5574 ;;
  5575                           
  5576                           
  5577                           ;psect for function _Elements_MainFunction
  5578  0EA8                     _Elements_MainFunction:
  5579  0EA8                     l3745:	
  5580                           ;incstack = 0
  5581 ;; hardware stack exceeded
  5582                           ; Regs used in _Elements_MainFunction: [wreg-fsr0h+status,2+status,0+btemp+1+pclath+csta
      +                          ck]
  5583                           
  5584                           
  5585                           ;Elements/Elements.c: 96:   if(Temperature.Average_Value_Ready_Flag==1 && Mode.Select_Mo
      +                          de==Normal_Mode)
  5586  0EA8  1283               	bcf	3,5	;RP0=0, select bank0
  5587  0EA9  1303               	bcf	3,6	;RP1=0, select bank0
  5588  0EAA  1C52               	btfss	_Temperature+4,0
  5589  0EAB  2EAD               	goto	u5341
  5590  0EAC  2EAE               	goto	u5340
  5591  0EAD                     u5341:
  5592  0EAD  2EFF               	goto	l3765
  5593  0EAE                     u5340:
  5594  0EAE                     l3747:
  5595  0EAE  0354               	decf	_Mode,w
  5596  0EAF  1D03               	btfss	3,2
  5597  0EB0  2EB2               	goto	u5351
  5598  0EB1  2EB3               	goto	u5350
  5599  0EB2                     u5351:
  5600  0EB2  2EFF               	goto	l3765
  5601  0EB3                     u5350:
  5602  0EB3                     l3749:
  5603                           
  5604                           ;Elements/Elements.c: 97:   {;Elements/Elements.c: 99:         if(Temperature.Average_Va
      +                          lue < (Temperature.Set_Temp - (5U)))
  5605  0EB3  0851               	movf	_Temperature+3,w
  5606  0EB4  3EFB               	addlw	251
  5607  0EB5  1683               	bsf	3,5	;RP0=1, select bank1
  5608  0EB6  1303               	bcf	3,6	;RP1=0, select bank1
  5609  0EB7  00A0               	movwf	??_Elements_MainFunction^(0+128)
  5610  0EB8  30FF               	movlw	255
  5611  0EB9  1803               	skipnc
  5612  0EBA  3000               	movlw	0
  5613  0EBB  00A1               	movwf	(??_Elements_MainFunction^(0+128)+1)
  5614  0EBC  1283               	bcf	3,5	;RP0=0, select bank0
  5615  0EBD  1303               	bcf	3,6	;RP1=0, select bank0
  5616  0EBE  084F               	movf	_Temperature+1,w
  5617  0EBF  1683               	bsf	3,5	;RP0=1, select bank1
  5618  0EC0  1303               	bcf	3,6	;RP1=0, select bank1
  5619  0EC1  00A2               	movwf	(??_Elements_MainFunction+2)^(0+128)
  5620  0EC2  01A3               	clrf	((??_Elements_MainFunction+2)^(0+128)+1)
  5621  0EC3  0821               	movf	(??_Elements_MainFunction+1)^(0+128),w
  5622  0EC4  0223               	subwf	(??_Elements_MainFunction+3)^(0+128),w
  5623  0EC5  1D03               	skipz
  5624  0EC6  2EC9               	goto	u5365
  5625  0EC7  0820               	movf	??_Elements_MainFunction^(0+128),w
  5626  0EC8  0222               	subwf	(??_Elements_MainFunction+2)^(0+128),w
  5627  0EC9                     u5365:
  5628  0EC9  1803               	skipnc
  5629  0ECA  2ECC               	goto	u5361
  5630  0ECB  2ECD               	goto	u5360
  5631  0ECC                     u5361:
  5632  0ECC  2ED9               	goto	l3757
  5633  0ECD                     u5360:
  5634  0ECD                     l3751:
  5635                           
  5636                           ;Elements/Elements.c: 100:          {;Elements/Elements.c: 101:          (PORTC &= ~(1<<
      +                          2));
  5637  0ECD  30FB               	movlw	251
  5638  0ECE  00FF               	movwf	btemp+1
  5639  0ECF  087F               	movf	btemp+1,w
  5640  0ED0  1283               	bcf	3,5	;RP0=0, select bank0
  5641  0ED1  1303               	bcf	3,6	;RP1=0, select bank0
  5642  0ED2  0587               	andwf	7,f	;volatile
  5643  0ED3                     l3753:
  5644                           
  5645                           ;Elements/Elements.c: 102:          (PORTC|= (1<<5));
  5646  0ED3  1687               	bsf	7,5	;volatile
  5647  0ED4                     l3755:
  5648                           
  5649                           ;Elements/Elements.c: 103:             LED_Status=_LED_BLINK;
  5650  0ED4  3002               	movlw	2
  5651  0ED5  00FF               	movwf	btemp+1
  5652  0ED6  087F               	movf	btemp+1,w
  5653  0ED7  00CB               	movwf	_LED_Status
  5654                           
  5655                           ;Elements/Elements.c: 105:          }else if(Temperature.Average_Value > (Temperature.Se
      +                          t_Temp + (5U)))
  5656  0ED8  2F08               	goto	l3769
  5657  0ED9                     l3757:
  5658  0ED9  1283               	bcf	3,5	;RP0=0, select bank0
  5659  0EDA  1303               	bcf	3,6	;RP1=0, select bank0
  5660  0EDB  084F               	movf	_Temperature+1,w
  5661  0EDC  1683               	bsf	3,5	;RP0=1, select bank1
  5662  0EDD  1303               	bcf	3,6	;RP1=0, select bank1
  5663  0EDE  00A0               	movwf	??_Elements_MainFunction^(0+128)
  5664  0EDF  01A1               	clrf	(??_Elements_MainFunction^(0+128)+1)
  5665  0EE0  1283               	bcf	3,5	;RP0=0, select bank0
  5666  0EE1  1303               	bcf	3,6	;RP1=0, select bank0
  5667  0EE2  0851               	movf	_Temperature+3,w
  5668  0EE3  3E05               	addlw	5
  5669  0EE4  1683               	bsf	3,5	;RP0=1, select bank1
  5670  0EE5  1303               	bcf	3,6	;RP1=0, select bank1
  5671  0EE6  00A2               	movwf	(??_Elements_MainFunction+2)^(0+128)
  5672  0EE7  3000               	movlw	0
  5673  0EE8  1803               	skipnc
  5674  0EE9  3001               	movlw	1
  5675  0EEA  00A3               	movwf	((??_Elements_MainFunction+2)^(0+128)+1)
  5676  0EEB  0821               	movf	(??_Elements_MainFunction+1)^(0+128),w
  5677  0EEC  0223               	subwf	(??_Elements_MainFunction+3)^(0+128),w
  5678  0EED  1D03               	skipz
  5679  0EEE  2EF1               	goto	u5375
  5680  0EEF  0820               	movf	??_Elements_MainFunction^(0+128),w
  5681  0EF0  0222               	subwf	(??_Elements_MainFunction+2)^(0+128),w
  5682  0EF1                     u5375:
  5683  0EF1  1803               	skipnc
  5684  0EF2  2EF4               	goto	u5371
  5685  0EF3  2EF5               	goto	u5370
  5686  0EF4                     u5371:
  5687  0EF4  2F08               	goto	l3769
  5688  0EF5                     u5370:
  5689  0EF5                     l3759:
  5690                           
  5691                           ;Elements/Elements.c: 106:          {;Elements/Elements.c: 107:           (PORTC &= ~(1<
      +                          <5));
  5692  0EF5  30DF               	movlw	223
  5693  0EF6  00FF               	movwf	btemp+1
  5694  0EF7  087F               	movf	btemp+1,w
  5695  0EF8  1283               	bcf	3,5	;RP0=0, select bank0
  5696  0EF9  1303               	bcf	3,6	;RP1=0, select bank0
  5697  0EFA  0587               	andwf	7,f	;volatile
  5698  0EFB                     l3761:
  5699                           
  5700                           ;Elements/Elements.c: 108:           (PORTC|= (1<<2));
  5701  0EFB  1507               	bsf	7,2	;volatile
  5702  0EFC                     l3763:
  5703                           
  5704                           ;Elements/Elements.c: 109:              LED_Status=_LED_ON;
  5705  0EFC  01CB               	clrf	_LED_Status
  5706  0EFD  0ACB               	incf	_LED_Status,f
  5707  0EFE  2F08               	goto	l3769
  5708  0EFF                     l3765:
  5709                           
  5710                           ;Elements/Elements.c: 114:   {;Elements/Elements.c: 115:    (PORTC &= ~(1<<2));
  5711  0EFF  30FB               	movlw	251
  5712  0F00  00FF               	movwf	btemp+1
  5713  0F01  087F               	movf	btemp+1,w
  5714  0F02  0587               	andwf	7,f	;volatile
  5715                           
  5716                           ;Elements/Elements.c: 116:    (PORTC &= ~(1<<5));
  5717  0F03  30DF               	movlw	223
  5718  0F04  00FF               	movwf	btemp+1
  5719  0F05  087F               	movf	btemp+1,w
  5720  0F06  0587               	andwf	7,f	;volatile
  5721  0F07                     l3767:
  5722                           
  5723                           ;Elements/Elements.c: 117:       LED_Status=_LED_OFF;
  5724  0F07  01CB               	clrf	_LED_Status
  5725  0F08                     l3769:
  5726                           
  5727                           ;Elements/Elements.c: 119:   LED_Control();
  5728  0F08  120A  158A  21BD  120A  158A  	fcall	_LED_Control
  5729  0F0D                     l174:
  5730  0F0D  0008               	return
  5731  0F0E                     __end_of_Elements_MainFunction:
  5732                           
  5733                           	psect	text22
  5734  09BD                     __ptext22:	
  5735 ;; *************** function _LED_Control *****************
  5736 ;; Defined at:
  5737 ;;		line 67 in file "Elements/Elements.c"
  5738 ;; Parameters:    Size  Location     Type
  5739 ;;		None
  5740 ;; Auto vars:     Size  Location     Type
  5741 ;;		None
  5742 ;; Return value:  Size  Location     Type
  5743 ;;                  1    wreg      void 
  5744 ;; Registers used:
  5745 ;;		wreg, fsr0l, fsr0h, status,2, status,0, btemp+1, pclath, cstack
  5746 ;; Tracked objects:
  5747 ;;		On entry : 0/0
  5748 ;;		On exit  : 0/0
  5749 ;;		Unchanged: 0/0
  5750 ;; Data sizes:     COMMON   BANK0   BANK1   BANK3   BANK2
  5751 ;;      Params:         0       0       0       0       0
  5752 ;;      Locals:         0       0       0       0       0
  5753 ;;      Temps:          0       2       0       0       0
  5754 ;;      Totals:         0       2       0       0       0
  5755 ;;Total ram usage:        2 bytes
  5756 ;; Hardware stack levels used:    1
  5757 ;; Hardware stack levels required when called:    6
  5758 ;; This function calls:
  5759 ;;		_LED_BLINKING
  5760 ;; This function is called by:
  5761 ;;		_Elements_MainFunction
  5762 ;; This function uses a non-reentrant model
  5763 ;;
  5764                           
  5765                           
  5766                           ;psect for function _LED_Control
  5767  09BD                     _LED_Control:
  5768  09BD                     l3627:	
  5769                           ;incstack = 0
  5770 ;; hardware stack exceeded
  5771                           ; Regs used in _LED_Control: [wreg-fsr0h+status,2+status,0+btemp+1+pclath+cstack]
  5772                           
  5773                           
  5774                           ;Elements/Elements.c: 69:     switch(LED_Status)
  5775  09BD  29CF               	goto	l3635
  5776  09BE                     l3629:
  5777  09BE  30E8               	movlw	232
  5778  09BF  00BC               	movwf	LED_BLINKING@Time_Ms
  5779  09C0  3003               	movlw	3
  5780  09C1  00BD               	movwf	LED_BLINKING@Time_Ms+1
  5781  09C2  120A  158A  220E  120A  158A  	fcall	_LED_BLINKING
  5782                           
  5783                           ;Elements/Elements.c: 72:                           break;
  5784  09C7  29E4               	goto	l166
  5785  09C8                     l164:	
  5786                           ;Elements/Elements.c: 74:         case _LED_ON : (PORTB|= (1<<4));;
  5787                           
  5788  09C8  1606               	bsf	6,4	;volatile
  5789                           
  5790                           ;Elements/Elements.c: 75:                           break;
  5791  09C9  29E4               	goto	l166
  5792  09CA                     l3631:
  5793  09CA  30EF               	movlw	239
  5794  09CB  00FF               	movwf	btemp+1
  5795  09CC  087F               	movf	btemp+1,w
  5796  09CD  0586               	andwf	6,f	;volatile
  5797                           
  5798                           ;Elements/Elements.c: 78:                           break;
  5799  09CE  29E4               	goto	l166
  5800  09CF                     l3635:
  5801  09CF  1283               	bcf	3,5	;RP0=0, select bank0
  5802  09D0  1303               	bcf	3,6	;RP1=0, select bank0
  5803  09D1  084B               	movf	_LED_Status,w
  5804  09D2  00C0               	movwf	??_LED_Control
  5805  09D3  01C1               	clrf	??_LED_Control+1
  5806                           
  5807                           ; Switch on 2 bytes has been partitioned into a top level switch of size 1, and 1 sub-sw
      +                          itches
  5808                           ; Switch size 1, requested type "simple"
  5809                           ; Number of cases is 1, Range of values is 0 to 0
  5810                           ; switch strategies available:
  5811                           ; Name         Instructions Cycles
  5812                           ; simple_byte            4     3 (average)
  5813                           ; direct_byte           11     8 (fixed)
  5814                           ; jumptable            260     6 (fixed)
  5815                           ;	Chosen strategy is simple_byte
  5816  09D4  0841               	movf	??_LED_Control+1,w
  5817  09D5  3A00               	xorlw	0	; case 0
  5818  09D6  1903               	skipnz
  5819  09D7  29D9               	goto	l4027
  5820  09D8  29E4               	goto	l166
  5821  09D9                     l4027:
  5822                           
  5823                           ; Switch size 1, requested type "simple"
  5824                           ; Number of cases is 3, Range of values is 0 to 2
  5825                           ; switch strategies available:
  5826                           ; Name         Instructions Cycles
  5827                           ; simple_byte           10     6 (average)
  5828                           ; direct_byte           17     8 (fixed)
  5829                           ; jumptable            260     6 (fixed)
  5830                           ;	Chosen strategy is simple_byte
  5831  09D9  0840               	movf	??_LED_Control,w
  5832  09DA  3A00               	xorlw	0	; case 0
  5833  09DB  1903               	skipnz
  5834  09DC  29CA               	goto	l3631
  5835  09DD  3A01               	xorlw	1	; case 1
  5836  09DE  1903               	skipnz
  5837  09DF  29C8               	goto	l164
  5838  09E0  3A03               	xorlw	3	; case 2
  5839  09E1  1903               	skipnz
  5840  09E2  29BE               	goto	l3629
  5841  09E3  29E4               	goto	l166
  5842  09E4                     l166:
  5843  09E4  0008               	return
  5844  09E5                     __end_of_LED_Control:
  5845                           
  5846                           	psect	text23
  5847  0A0E                     __ptext23:	
  5848 ;; *************** function _LED_BLINKING *****************
  5849 ;; Defined at:
  5850 ;;		line 42 in file "Elements/Elements.c"
  5851 ;; Parameters:    Size  Location     Type
  5852 ;;  Time_Ms         2   28[BANK0 ] unsigned int 
  5853 ;; Auto vars:     Size  Location     Type
  5854 ;;		None
  5855 ;; Return value:  Size  Location     Type
  5856 ;;                  1    wreg      void 
  5857 ;; Registers used:
  5858 ;;		wreg, status,2, status,0, btemp+1, pclath, cstack
  5859 ;; Tracked objects:
  5860 ;;		On entry : 0/0
  5861 ;;		On exit  : 0/0
  5862 ;;		Unchanged: 0/0
  5863 ;; Data sizes:     COMMON   BANK0   BANK1   BANK3   BANK2
  5864 ;;      Params:         0       2       0       0       0
  5865 ;;      Locals:         0       0       0       0       0
  5866 ;;      Temps:          0       2       0       0       0
  5867 ;;      Totals:         0       4       0       0       0
  5868 ;;Total ram usage:        4 bytes
  5869 ;; Hardware stack levels used:    1
  5870 ;; Hardware stack levels required when called:    5
  5871 ;; This function calls:
  5872 ;;		___wmul
  5873 ;; This function is called by:
  5874 ;;		_LED_Control
  5875 ;; This function uses a non-reentrant model
  5876 ;;
  5877                           
  5878                           
  5879                           ;psect for function _LED_BLINKING
  5880  0A0E                     _LED_BLINKING:
  5881  0A0E                     l3277:	
  5882                           ;incstack = 0
  5883 ;; hardware stack exceeded
  5884                           ; Regs used in _LED_BLINKING: [wreg+status,2+status,0+btemp+1+pclath+cstack]
  5885                           
  5886                           
  5887                           ;Elements/Elements.c: 42: void LED_BLINKING(uint16_t Time_Ms);Elements/Elements.c: 43: {
      +                          ;Elements/Elements.c: 44:  static uint8_t Counter=1;;Elements/Elements.c: 46:    if(Coun
      +                          ter*100==Time_Ms)
  5888  0A0E  1283               	bcf	3,5	;RP0=0, select bank0
  5889  0A0F  1303               	bcf	3,6	;RP1=0, select bank0
  5890  0A10  0859               	movf	LED_BLINKING@Counter,w
  5891  0A11  00BE               	movwf	??_LED_BLINKING
  5892  0A12  01BF               	clrf	??_LED_BLINKING+1
  5893  0A13  083E               	movf	??_LED_BLINKING,w
  5894  0A14  00B6               	movwf	___wmul@multiplier
  5895  0A15  083F               	movf	??_LED_BLINKING+1,w
  5896  0A16  00B7               	movwf	___wmul@multiplier+1
  5897  0A17  3064               	movlw	100
  5898  0A18  00B8               	movwf	___wmul@multiplicand
  5899  0A19  3000               	movlw	0
  5900  0A1A  00B9               	movwf	___wmul@multiplicand+1
  5901  0A1B  120A  158A  2196  120A  158A  	fcall	___wmul
  5902  0A20  1283               	bcf	3,5	;RP0=0, select bank0
  5903  0A21  1303               	bcf	3,6	;RP1=0, select bank0
  5904  0A22  083D               	movf	LED_BLINKING@Time_Ms+1,w
  5905  0A23  0637               	xorwf	?___wmul+1,w
  5906  0A24  1D03               	skipz
  5907  0A25  2A28               	goto	u4205
  5908  0A26  083C               	movf	LED_BLINKING@Time_Ms,w
  5909  0A27  0636               	xorwf	?___wmul,w
  5910  0A28                     u4205:
  5911  0A28  1D03               	skipz
  5912  0A29  2A2B               	goto	u4201
  5913  0A2A  2A2C               	goto	u4200
  5914  0A2B                     u4201:
  5915  0A2B  2A33               	goto	l3283
  5916  0A2C                     u4200:
  5917  0A2C                     l3279:
  5918                           
  5919                           ;Elements/Elements.c: 47:    {;Elements/Elements.c: 48:     (PORTB^= (1<<4));
  5920  0A2C  3010               	movlw	16
  5921  0A2D  00FF               	movwf	btemp+1
  5922  0A2E  087F               	movf	btemp+1,w
  5923  0A2F  0686               	xorwf	6,f	;volatile
  5924  0A30                     l3281:
  5925                           
  5926                           ;Elements/Elements.c: 49:        Counter=1;
  5927  0A30  01D9               	clrf	LED_BLINKING@Counter
  5928  0A31  0AD9               	incf	LED_BLINKING@Counter,f
  5929                           
  5930                           ;Elements/Elements.c: 50:    }
  5931  0A32  2A37               	goto	l158
  5932  0A33                     l3283:
  5933                           
  5934                           ;Elements/Elements.c: 52:    {;Elements/Elements.c: 53:     Counter++;
  5935  0A33  3001               	movlw	1
  5936  0A34  00FF               	movwf	btemp+1
  5937  0A35  087F               	movf	btemp+1,w
  5938  0A36  07D9               	addwf	LED_BLINKING@Counter,f
  5939  0A37                     l158:
  5940  0A37  0008               	return
  5941  0A38                     __end_of_LED_BLINKING:
  5942                           
  5943                           	psect	text24
  5944  0D2E                     __ptext24:	
  5945 ;; *************** function _SSD_MainFunction *****************
  5946 ;; Defined at:
  5947 ;;		line 44 in file "SSD/SSD.c"
  5948 ;; Parameters:    Size  Location     Type
  5949 ;;		None
  5950 ;; Auto vars:     Size  Location     Type
  5951 ;;		None
  5952 ;; Return value:  Size  Location     Type
  5953 ;;                  1    wreg      void 
  5954 ;; Registers used:
  5955 ;;		wreg, fsr0l, fsr0h, status,2, status,0, btemp+1, pclath, cstack
  5956 ;; Tracked objects:
  5957 ;;		On entry : 0/0
  5958 ;;		On exit  : 0/0
  5959 ;;		Unchanged: 0/0
  5960 ;; Data sizes:     COMMON   BANK0   BANK1   BANK3   BANK2
  5961 ;;      Params:         0       0       0       0       0
  5962 ;;      Locals:         0       0       0       0       0
  5963 ;;      Temps:          0       2       0       0       0
  5964 ;;      Totals:         0       2       0       0       0
  5965 ;;Total ram usage:        2 bytes
  5966 ;; Hardware stack levels used:    1
  5967 ;; Hardware stack levels required when called:    7
  5968 ;; This function calls:
  5969 ;;		_SSD_SelectDigit
  5970 ;;		_SSD_SelectDisplay
  5971 ;; This function is called by:
  5972 ;;		_Scheduler_Task1
  5973 ;; This function uses a non-reentrant model
  5974 ;;
  5975                           
  5976                           
  5977                           ;psect for function _SSD_MainFunction
  5978  0D2E                     _SSD_MainFunction:
  5979  0D2E                     l3771:	
  5980                           ;incstack = 0
  5981 ;; hardware stack exceeded
  5982                           ; Regs used in _SSD_MainFunction: [wreg-fsr0h+status,2+status,0+btemp+1+pclath+cstack]
  5983                           
  5984                           
  5985                           ;SSD/SSD.c: 47:     SSD_SelectDisplay();
  5986  0D2E  120A  158A  228F  120A  158A  	fcall	_SSD_SelectDisplay
  5987                           
  5988                           ;SSD/SSD.c: 48:     SSD_SelectDigit();
  5989  0D33  120A  158A  25E2  120A  158A  	fcall	_SSD_SelectDigit
  5990                           
  5991                           ;SSD/SSD.c: 50:     switch(SSD)
  5992  0D38  2D59               	goto	l3797
  5993  0D39                     l3773:
  5994                           
  5995                           ;SSD/SSD.c: 53:         PORTD=0b00111111;
  5996  0D39  303F               	movlw	63
  5997  0D3A  0088               	movwf	8	;volatile
  5998                           
  5999                           ;SSD/SSD.c: 54:         break;
  6000  0D3B  2D86               	goto	l531
  6001  0D3C                     l3775:
  6002                           
  6003                           ;SSD/SSD.c: 57:         PORTD=0b00000110;
  6004  0D3C  3006               	movlw	6
  6005  0D3D  0088               	movwf	8	;volatile
  6006                           
  6007                           ;SSD/SSD.c: 58:         break;
  6008  0D3E  2D86               	goto	l531
  6009  0D3F                     l3777:
  6010                           
  6011                           ;SSD/SSD.c: 61:         PORTD=0b01011011;
  6012  0D3F  305B               	movlw	91
  6013  0D40  0088               	movwf	8	;volatile
  6014                           
  6015                           ;SSD/SSD.c: 62:         break;
  6016  0D41  2D86               	goto	l531
  6017  0D42                     l3779:
  6018                           
  6019                           ;SSD/SSD.c: 65:         PORTD=0b01001111;
  6020  0D42  304F               	movlw	79
  6021  0D43  0088               	movwf	8	;volatile
  6022                           
  6023                           ;SSD/SSD.c: 66:         break;
  6024  0D44  2D86               	goto	l531
  6025  0D45                     l3781:
  6026                           
  6027                           ;SSD/SSD.c: 69:         PORTD=0b01100110;
  6028  0D45  3066               	movlw	102
  6029  0D46  0088               	movwf	8	;volatile
  6030                           
  6031                           ;SSD/SSD.c: 70:         break;
  6032  0D47  2D86               	goto	l531
  6033  0D48                     l3783:
  6034                           
  6035                           ;SSD/SSD.c: 73:         PORTD=0b01101101;
  6036  0D48  306D               	movlw	109
  6037  0D49  0088               	movwf	8	;volatile
  6038                           
  6039                           ;SSD/SSD.c: 74:         break;
  6040  0D4A  2D86               	goto	l531
  6041  0D4B                     l3785:
  6042                           
  6043                           ;SSD/SSD.c: 77:         PORTD=0b01111101;
  6044  0D4B  307D               	movlw	125
  6045  0D4C  0088               	movwf	8	;volatile
  6046                           
  6047                           ;SSD/SSD.c: 78:         break;
  6048  0D4D  2D86               	goto	l531
  6049  0D4E                     l3787:
  6050                           
  6051                           ;SSD/SSD.c: 81:         PORTD=0b00000111;
  6052  0D4E  3007               	movlw	7
  6053  0D4F  0088               	movwf	8	;volatile
  6054                           
  6055                           ;SSD/SSD.c: 82:         break;
  6056  0D50  2D86               	goto	l531
  6057  0D51                     l3789:
  6058                           
  6059                           ;SSD/SSD.c: 85:         PORTD=0b01111111;
  6060  0D51  307F               	movlw	127
  6061  0D52  0088               	movwf	8	;volatile
  6062                           
  6063                           ;SSD/SSD.c: 86:         break;
  6064  0D53  2D86               	goto	l531
  6065  0D54                     l3791:
  6066                           
  6067                           ;SSD/SSD.c: 89:         PORTD=0b01101111;
  6068  0D54  306F               	movlw	111
  6069  0D55  0088               	movwf	8	;volatile
  6070                           
  6071                           ;SSD/SSD.c: 90:         break;
  6072  0D56  2D86               	goto	l531
  6073  0D57                     l3793:
  6074                           
  6075                           ;SSD/SSD.c: 93:         PORTD=0;
  6076  0D57  0188               	clrf	8	;volatile
  6077                           
  6078                           ;SSD/SSD.c: 94:         break;
  6079  0D58  2D86               	goto	l531
  6080  0D59                     l3797:
  6081  0D59  1283               	bcf	3,5	;RP0=0, select bank0
  6082  0D5A  1303               	bcf	3,6	;RP1=0, select bank0
  6083  0D5B  0845               	movf	_SSD,w
  6084  0D5C  00C0               	movwf	??_SSD_MainFunction
  6085  0D5D  01C1               	clrf	??_SSD_MainFunction+1
  6086                           
  6087                           ; Switch on 2 bytes has been partitioned into a top level switch of size 1, and 1 sub-sw
      +                          itches
  6088                           ; Switch size 1, requested type "simple"
  6089                           ; Number of cases is 1, Range of values is 0 to 0
  6090                           ; switch strategies available:
  6091                           ; Name         Instructions Cycles
  6092                           ; simple_byte            4     3 (average)
  6093                           ; direct_byte           11     8 (fixed)
  6094                           ; jumptable            260     6 (fixed)
  6095                           ;	Chosen strategy is simple_byte
  6096  0D5E  0841               	movf	??_SSD_MainFunction+1,w
  6097  0D5F  3A00               	xorlw	0	; case 0
  6098  0D60  1903               	skipnz
  6099  0D61  2D63               	goto	l4029
  6100  0D62  2D86               	goto	l531
  6101  0D63                     l4029:
  6102                           
  6103                           ; Switch size 1, requested type "simple"
  6104                           ; Number of cases is 11, Range of values is 0 to 10
  6105                           ; switch strategies available:
  6106                           ; Name         Instructions Cycles
  6107                           ; simple_byte           34    18 (average)
  6108                           ; direct_byte           41     8 (fixed)
  6109                           ; jumptable            260     6 (fixed)
  6110                           ;	Chosen strategy is simple_byte
  6111  0D63  0840               	movf	??_SSD_MainFunction,w
  6112  0D64  3A00               	xorlw	0	; case 0
  6113  0D65  1903               	skipnz
  6114  0D66  2D39               	goto	l3773
  6115  0D67  3A01               	xorlw	1	; case 1
  6116  0D68  1903               	skipnz
  6117  0D69  2D3C               	goto	l3775
  6118  0D6A  3A03               	xorlw	3	; case 2
  6119  0D6B  1903               	skipnz
  6120  0D6C  2D3F               	goto	l3777
  6121  0D6D  3A01               	xorlw	1	; case 3
  6122  0D6E  1903               	skipnz
  6123  0D6F  2D42               	goto	l3779
  6124  0D70  3A07               	xorlw	7	; case 4
  6125  0D71  1903               	skipnz
  6126  0D72  2D45               	goto	l3781
  6127  0D73  3A01               	xorlw	1	; case 5
  6128  0D74  1903               	skipnz
  6129  0D75  2D48               	goto	l3783
  6130  0D76  3A03               	xorlw	3	; case 6
  6131  0D77  1903               	skipnz
  6132  0D78  2D4B               	goto	l3785
  6133  0D79  3A01               	xorlw	1	; case 7
  6134  0D7A  1903               	skipnz
  6135  0D7B  2D4E               	goto	l3787
  6136  0D7C  3A0F               	xorlw	15	; case 8
  6137  0D7D  1903               	skipnz
  6138  0D7E  2D51               	goto	l3789
  6139  0D7F  3A01               	xorlw	1	; case 9
  6140  0D80  1903               	skipnz
  6141  0D81  2D54               	goto	l3791
  6142  0D82  3A03               	xorlw	3	; case 10
  6143  0D83  1903               	skipnz
  6144  0D84  2D57               	goto	l3793
  6145  0D85  2D86               	goto	l531
  6146  0D86                     l531:
  6147  0D86  0008               	return
  6148  0D87                     __end_of_SSD_MainFunction:
  6149                           
  6150                           	psect	text25
  6151  0A8F                     __ptext25:	
  6152 ;; *************** function _SSD_SelectDisplay *****************
  6153 ;; Defined at:
  6154 ;;		line 141 in file "SSD/SSD.c"
  6155 ;; Parameters:    Size  Location     Type
  6156 ;;		None
  6157 ;; Auto vars:     Size  Location     Type
  6158 ;;		None
  6159 ;; Return value:  Size  Location     Type
  6160 ;;                  1    wreg      void 
  6161 ;; Registers used:
  6162 ;;		wreg, status,2, status,0, btemp+1, pclath, cstack
  6163 ;; Tracked objects:
  6164 ;;		On entry : 0/0
  6165 ;;		On exit  : 0/0
  6166 ;;		Unchanged: 0/0
  6167 ;; Data sizes:     COMMON   BANK0   BANK1   BANK3   BANK2
  6168 ;;      Params:         0       0       0       0       0
  6169 ;;      Locals:         0       0       0       0       0
  6170 ;;      Temps:          0       0       0       0       0
  6171 ;;      Totals:         0       0       0       0       0
  6172 ;;Total ram usage:        0 bytes
  6173 ;; Hardware stack levels used:    1
  6174 ;; Hardware stack levels required when called:    6
  6175 ;; This function calls:
  6176 ;;		_SSD_Blink
  6177 ;; This function is called by:
  6178 ;;		_SSD_MainFunction
  6179 ;; This function uses a non-reentrant model
  6180 ;;
  6181                           
  6182                           
  6183                           ;psect for function _SSD_SelectDisplay
  6184  0A8F                     _SSD_SelectDisplay:
  6185  0A8F                     l3667:	
  6186                           ;incstack = 0
  6187 ;; hardware stack exceeded
  6188                           ; Regs used in _SSD_SelectDisplay: [wreg+status,2+status,0+btemp+1+pclath+cstack]
  6189                           
  6190                           
  6191                           ;SSD/SSD.c: 145:   if(Mode.Select_Mode==Normal_Mode)
  6192  0A8F  1283               	bcf	3,5	;RP0=0, select bank0
  6193  0A90  1303               	bcf	3,6	;RP1=0, select bank0
  6194  0A91  0354               	decf	_Mode,w
  6195  0A92  1D03               	btfss	3,2
  6196  0A93  2A95               	goto	u5111
  6197  0A94  2A96               	goto	u5110
  6198  0A95                     u5111:
  6199  0A95  2A9D               	goto	l3673
  6200  0A96                     u5110:
  6201  0A96                     l3669:
  6202                           
  6203                           ;SSD/SSD.c: 146:   {;SSD/SSD.c: 147:    Tempreture=Temperature.Temp_Value;
  6204  0A96  084E               	movf	_Temperature,w
  6205  0A97  00FF               	movwf	btemp+1
  6206  0A98  087F               	movf	btemp+1,w
  6207  0A99  00C4               	movwf	_Tempreture
  6208  0A9A                     l3671:
  6209                           
  6210                           ;SSD/SSD.c: 148:    Enable_SSD=Enable_SSD_On;
  6211  0A9A  01CC               	clrf	_Enable_SSD
  6212  0A9B  0ACC               	incf	_Enable_SSD,f
  6213                           
  6214                           ;SSD/SSD.c: 149:   }
  6215  0A9C  2ABE               	goto	l546
  6216  0A9D                     l3673:
  6217  0A9D  3002               	movlw	2
  6218  0A9E  0654               	xorwf	_Mode,w
  6219  0A9F  1D03               	btfss	3,2
  6220  0AA0  2AA2               	goto	u5121
  6221  0AA1  2AA3               	goto	u5120
  6222  0AA2                     u5121:
  6223  0AA2  2AB1               	goto	l3679
  6224  0AA3                     u5120:
  6225  0AA3                     l3675:
  6226                           
  6227                           ;SSD/SSD.c: 151:   {;SSD/SSD.c: 152:    Tempreture=Temperature.Set_Temp;
  6228  0AA3  0851               	movf	_Temperature+3,w
  6229  0AA4  00FF               	movwf	btemp+1
  6230  0AA5  087F               	movf	btemp+1,w
  6231  0AA6  00C4               	movwf	_Tempreture
  6232  0AA7                     l3677:
  6233                           
  6234                           ;SSD/SSD.c: 153:       SSD_Blink(1000);
  6235  0AA7  30E8               	movlw	232
  6236  0AA8  00BC               	movwf	SSD_Blink@Times_Ms
  6237  0AA9  3003               	movlw	3
  6238  0AAA  00BD               	movwf	SSD_Blink@Times_Ms+1
  6239  0AAB  120A  158A  2396  120A  158A  	fcall	_SSD_Blink
  6240                           
  6241                           ;SSD/SSD.c: 154:   }
  6242  0AB0  2ABE               	goto	l546
  6243  0AB1                     l3679:
  6244  0AB1  0854               	movf	_Mode,w
  6245  0AB2  1D03               	btfss	3,2
  6246  0AB3  2AB5               	goto	u5131
  6247  0AB4  2AB6               	goto	u5130
  6248  0AB5                     u5131:
  6249  0AB5  2ABE               	goto	l546
  6250  0AB6                     u5130:
  6251  0AB6                     l3681:
  6252                           
  6253                           ;SSD/SSD.c: 156:   {;SSD/SSD.c: 157:   (PORTA &= ~(1<<5)) ;
  6254  0AB6  30DF               	movlw	223
  6255  0AB7  00FF               	movwf	btemp+1
  6256  0AB8  087F               	movf	btemp+1,w
  6257  0AB9  0585               	andwf	5,f	;volatile
  6258                           
  6259                           ;SSD/SSD.c: 158:   (PORTA &= ~(1<<4)) ;
  6260  0ABA  30EF               	movlw	239
  6261  0ABB  00FF               	movwf	btemp+1
  6262  0ABC  087F               	movf	btemp+1,w
  6263  0ABD  0585               	andwf	5,f	;volatile
  6264  0ABE                     l546:
  6265  0ABE  0008               	return
  6266  0ABF                     __end_of_SSD_SelectDisplay:
  6267                           
  6268                           	psect	text26
  6269  0B96                     __ptext26:	
  6270 ;; *************** function _SSD_Blink *****************
  6271 ;; Defined at:
  6272 ;;		line 109 in file "SSD/SSD.c"
  6273 ;; Parameters:    Size  Location     Type
  6274 ;;  Times_Ms        2   28[BANK0 ] unsigned int 
  6275 ;; Auto vars:     Size  Location     Type
  6276 ;;		None
  6277 ;; Return value:  Size  Location     Type
  6278 ;;                  1    wreg      void 
  6279 ;; Registers used:
  6280 ;;		wreg, status,2, status,0, btemp+1, pclath, cstack
  6281 ;; Tracked objects:
  6282 ;;		On entry : 0/0
  6283 ;;		On exit  : 0/0
  6284 ;;		Unchanged: 0/0
  6285 ;; Data sizes:     COMMON   BANK0   BANK1   BANK3   BANK2
  6286 ;;      Params:         0       2       0       0       0
  6287 ;;      Locals:         0       0       0       0       0
  6288 ;;      Temps:          0       2       0       0       0
  6289 ;;      Totals:         0       4       0       0       0
  6290 ;;Total ram usage:        4 bytes
  6291 ;; Hardware stack levels used:    1
  6292 ;; Hardware stack levels required when called:    5
  6293 ;; This function calls:
  6294 ;;		___wmul
  6295 ;; This function is called by:
  6296 ;;		_SSD_SelectDisplay
  6297 ;; This function uses a non-reentrant model
  6298 ;;
  6299                           
  6300                           
  6301                           ;psect for function _SSD_Blink
  6302  0B96                     _SSD_Blink:
  6303  0B96                     l3293:	
  6304                           ;incstack = 0
  6305 ;; hardware stack exceeded
  6306                           ; Regs used in _SSD_Blink: [wreg+status,2+status,0+btemp+1+pclath+cstack]
  6307                           
  6308                           
  6309                           ;SSD/SSD.c: 109: void SSD_Blink(uint16_t Times_Ms);SSD/SSD.c: 110: {;SSD/SSD.c: 113:   i
      +                          f(Counter*20==Times_Ms)
  6310  0B96  1283               	bcf	3,5	;RP0=0, select bank0
  6311  0B97  1303               	bcf	3,6	;RP1=0, select bank0
  6312  0B98  0857               	movf	_Counter,w
  6313  0B99  00BE               	movwf	??_SSD_Blink
  6314  0B9A  01BF               	clrf	??_SSD_Blink+1
  6315  0B9B  083E               	movf	??_SSD_Blink,w
  6316  0B9C  00B6               	movwf	___wmul@multiplier
  6317  0B9D  083F               	movf	??_SSD_Blink+1,w
  6318  0B9E  00B7               	movwf	___wmul@multiplier+1
  6319  0B9F  3014               	movlw	20
  6320  0BA0  00B8               	movwf	___wmul@multiplicand
  6321  0BA1  3000               	movlw	0
  6322  0BA2  00B9               	movwf	___wmul@multiplicand+1
  6323  0BA3  120A  158A  2196  120A  158A  	fcall	___wmul
  6324  0BA8  1283               	bcf	3,5	;RP0=0, select bank0
  6325  0BA9  1303               	bcf	3,6	;RP1=0, select bank0
  6326  0BAA  083D               	movf	SSD_Blink@Times_Ms+1,w
  6327  0BAB  0637               	xorwf	?___wmul+1,w
  6328  0BAC  1D03               	skipz
  6329  0BAD  2BB0               	goto	u4245
  6330  0BAE  083C               	movf	SSD_Blink@Times_Ms,w
  6331  0BAF  0636               	xorwf	?___wmul,w
  6332  0BB0                     u4245:
  6333  0BB0  1D03               	skipz
  6334  0BB1  2BB3               	goto	u4241
  6335  0BB2  2BB4               	goto	u4240
  6336  0BB3                     u4241:
  6337  0BB3  2BCC               	goto	l3307
  6338  0BB4                     u4240:
  6339  0BB4                     l3295:
  6340                           
  6341                           ;SSD/SSD.c: 114:   {;SSD/SSD.c: 115:       if(Enable_SSD==Enable_SSD_On)
  6342  0BB4  034C               	decf	_Enable_SSD,w
  6343  0BB5  1D03               	btfss	3,2
  6344  0BB6  2BB8               	goto	u4251
  6345  0BB7  2BB9               	goto	u4250
  6346  0BB8                     u4251:
  6347  0BB8  2BC3               	goto	l3303
  6348  0BB9                     u4250:
  6349  0BB9                     l3297:
  6350                           
  6351                           ;SSD/SSD.c: 116:       {;SSD/SSD.c: 117:        Enable_SSD=Enable_SSD_Off;
  6352  0BB9  01CC               	clrf	_Enable_SSD
  6353  0BBA                     l3299:
  6354                           
  6355                           ;SSD/SSD.c: 118:         (PORTA &= ~(1<<5)) ;
  6356  0BBA  30DF               	movlw	223
  6357  0BBB  00FF               	movwf	btemp+1
  6358  0BBC  087F               	movf	btemp+1,w
  6359  0BBD  0585               	andwf	5,f	;volatile
  6360  0BBE                     l3301:
  6361                           
  6362                           ;SSD/SSD.c: 119:         (PORTA &= ~(1<<4)) ;
  6363  0BBE  30EF               	movlw	239
  6364  0BBF  00FF               	movwf	btemp+1
  6365  0BC0  087F               	movf	btemp+1,w
  6366  0BC1  0585               	andwf	5,f	;volatile
  6367                           
  6368                           ;SSD/SSD.c: 120:       }
  6369  0BC2  2BCA               	goto	l536
  6370  0BC3                     l3303:
  6371  0BC3  084C               	movf	_Enable_SSD,w
  6372  0BC4  1D03               	btfss	3,2
  6373  0BC5  2BC7               	goto	u4261
  6374  0BC6  2BC8               	goto	u4260
  6375  0BC7                     u4261:
  6376  0BC7  2BCA               	goto	l536
  6377  0BC8                     u4260:
  6378  0BC8                     l3305:
  6379                           
  6380                           ;SSD/SSD.c: 122:       {;SSD/SSD.c: 123:        Enable_SSD=Enable_SSD_On;
  6381  0BC8  01CC               	clrf	_Enable_SSD
  6382  0BC9  0ACC               	incf	_Enable_SSD,f
  6383  0BCA                     l536:
  6384                           
  6385                           ;SSD/SSD.c: 125:         Counter =1;
  6386  0BCA  01D7               	clrf	_Counter
  6387  0BCB  0AD7               	incf	_Counter,f
  6388  0BCC                     l3307:
  6389                           
  6390                           ;SSD/SSD.c: 127:   Counter++;
  6391  0BCC  3001               	movlw	1
  6392  0BCD  00FF               	movwf	btemp+1
  6393  0BCE  087F               	movf	btemp+1,w
  6394  0BCF  07D7               	addwf	_Counter,f
  6395  0BD0                     l538:
  6396  0BD0  0008               	return
  6397  0BD1                     __end_of_SSD_Blink:
  6398                           
  6399                           	psect	text27
  6400  0996                     __ptext27:	
  6401 ;; *************** function ___wmul *****************
  6402 ;; Defined at:
  6403 ;;		line 15 in file "C:\Program Files (x86)\Microchip\xc8\v2.20\pic\sources\c90\common\Umul16.c"
  6404 ;; Parameters:    Size  Location     Type
  6405 ;;  multiplier      2   22[BANK0 ] unsigned int 
  6406 ;;  multiplicand    2   24[BANK0 ] unsigned int 
  6407 ;; Auto vars:     Size  Location     Type
  6408 ;;  product         2   26[BANK0 ] unsigned int 
  6409 ;; Return value:  Size  Location     Type
  6410 ;;                  2   22[BANK0 ] unsigned int 
  6411 ;; Registers used:
  6412 ;;		wreg, status,2, status,0
  6413 ;; Tracked objects:
  6414 ;;		On entry : 0/0
  6415 ;;		On exit  : 0/0
  6416 ;;		Unchanged: 0/0
  6417 ;; Data sizes:     COMMON   BANK0   BANK1   BANK3   BANK2
  6418 ;;      Params:         0       4       0       0       0
  6419 ;;      Locals:         0       2       0       0       0
  6420 ;;      Temps:          0       0       0       0       0
  6421 ;;      Totals:         0       6       0       0       0
  6422 ;;Total ram usage:        6 bytes
  6423 ;; Hardware stack levels used:    1
  6424 ;; Hardware stack levels required when called:    4
  6425 ;; This function calls:
  6426 ;;		Nothing
  6427 ;; This function is called by:
  6428 ;;		_LED_BLINKING
  6429 ;;		_Mode_Setting_Timer
  6430 ;;		_SSD_Blink
  6431 ;; This function uses a non-reentrant model
  6432 ;;
  6433                           
  6434                           
  6435                           ;psect for function ___wmul
  6436  0996                     ___wmul:
  6437  0996                     l3181:	
  6438                           ;incstack = 0
  6439 ;; hardware stack exceeded
  6440                           ; Regs used in ___wmul: [wreg+status,2+status,0]
  6441                           
  6442  0996  1283               	bcf	3,5	;RP0=0, select bank0
  6443  0997  1303               	bcf	3,6	;RP1=0, select bank0
  6444  0998  01BA               	clrf	___wmul@product
  6445  0999  01BB               	clrf	___wmul@product+1
  6446  099A                     l3183:
  6447  099A  1C36               	btfss	___wmul@multiplier,0
  6448  099B  299D               	goto	u3961
  6449  099C  299E               	goto	u3960
  6450  099D                     u3961:
  6451  099D  29A4               	goto	l647
  6452  099E                     u3960:
  6453  099E                     l3185:
  6454  099E  0838               	movf	___wmul@multiplicand,w
  6455  099F  07BA               	addwf	___wmul@product,f
  6456  09A0  1803               	skipnc
  6457  09A1  0ABB               	incf	___wmul@product+1,f
  6458  09A2  0839               	movf	___wmul@multiplicand+1,w
  6459  09A3  07BB               	addwf	___wmul@product+1,f
  6460  09A4                     l647:
  6461  09A4  3001               	movlw	1
  6462  09A5                     u3975:
  6463  09A5  1003               	clrc
  6464  09A6  0DB8               	rlf	___wmul@multiplicand,f
  6465  09A7  0DB9               	rlf	___wmul@multiplicand+1,f
  6466  09A8  3EFF               	addlw	-1
  6467  09A9  1D03               	skipz
  6468  09AA  29A5               	goto	u3975
  6469  09AB                     l3187:
  6470  09AB  3001               	movlw	1
  6471  09AC                     u3985:
  6472  09AC  1003               	clrc
  6473  09AD  0CB7               	rrf	___wmul@multiplier+1,f
  6474  09AE  0CB6               	rrf	___wmul@multiplier,f
  6475  09AF  3EFF               	addlw	-1
  6476  09B0  1D03               	skipz
  6477  09B1  29AC               	goto	u3985
  6478  09B2                     l3189:
  6479  09B2  0836               	movf	___wmul@multiplier,w
  6480  09B3  0437               	iorwf	___wmul@multiplier+1,w
  6481  09B4  1D03               	btfss	3,2
  6482  09B5  29B7               	goto	u3991
  6483  09B6  29B8               	goto	u3990
  6484  09B7                     u3991:
  6485  09B7  299A               	goto	l3183
  6486  09B8                     u3990:
  6487  09B8                     l3191:
  6488  09B8  083B               	movf	___wmul@product+1,w
  6489  09B9  00B7               	movwf	?___wmul+1
  6490  09BA  083A               	movf	___wmul@product,w
  6491  09BB  00B6               	movwf	?___wmul
  6492  09BC                     l649:
  6493  09BC  0008               	return
  6494  09BD                     __end_of___wmul:
  6495                           
  6496                           	psect	text28
  6497  0DE2                     __ptext28:	
  6498 ;; *************** function _SSD_SelectDigit *****************
  6499 ;; Defined at:
  6500 ;;		line 174 in file "SSD/SSD.c"
  6501 ;; Parameters:    Size  Location     Type
  6502 ;;		None
  6503 ;; Auto vars:     Size  Location     Type
  6504 ;;		None
  6505 ;; Return value:  Size  Location     Type
  6506 ;;                  1    wreg      void 
  6507 ;; Registers used:
  6508 ;;		wreg, status,2, status,0, btemp+1, pclath, cstack
  6509 ;; Tracked objects:
  6510 ;;		On entry : 0/0
  6511 ;;		On exit  : 0/0
  6512 ;;		Unchanged: 0/0
  6513 ;; Data sizes:     COMMON   BANK0   BANK1   BANK3   BANK2
  6514 ;;      Params:         0       0       0       0       0
  6515 ;;      Locals:         0       0       0       0       0
  6516 ;;      Temps:          0       2       0       0       0
  6517 ;;      Totals:         0       2       0       0       0
  6518 ;;Total ram usage:        2 bytes
  6519 ;; Hardware stack levels used:    1
  6520 ;; Hardware stack levels required when called:    5
  6521 ;; This function calls:
  6522 ;;		___awdiv
  6523 ;;		___awmod
  6524 ;; This function is called by:
  6525 ;;		_SSD_MainFunction
  6526 ;; This function uses a non-reentrant model
  6527 ;;
  6528                           
  6529                           
  6530                           ;psect for function _SSD_SelectDigit
  6531  0DE2                     _SSD_SelectDigit:
  6532  0DE2                     l3683:	
  6533                           ;incstack = 0
  6534 ;; hardware stack exceeded
  6535                           ; Regs used in _SSD_SelectDigit: [wreg+status,2+status,0+btemp+1+pclath+cstack]
  6536                           
  6537                           
  6538                           ;SSD/SSD.c: 176:     static uint8_t Enable_Digit_Selector=1;;SSD/SSD.c: 177:     static 
      +                          uint8_t Digit_1=0;;SSD/SSD.c: 178:     static uint8_t Digit_2=0;;SSD/SSD.c: 180:     if(
      +                          Mode.Select_Mode!=Off_Mode)
  6539  0DE2  1283               	bcf	3,5	;RP0=0, select bank0
  6540  0DE3  1303               	bcf	3,6	;RP1=0, select bank0
  6541  0DE4  0854               	movf	_Mode,w
  6542  0DE5  1903               	btfsc	3,2
  6543  0DE6  2DE8               	goto	u5141
  6544  0DE7  2DE9               	goto	u5140
  6545  0DE8                     u5141:
  6546  0DE8  2E3D               	goto	l3707
  6547  0DE9                     u5140:
  6548  0DE9                     l3685:
  6549                           
  6550                           ;SSD/SSD.c: 181:     {;SSD/SSD.c: 182:         if(Enable_SSD==Enable_SSD_On)
  6551  0DE9  034C               	decf	_Enable_SSD,w
  6552  0DEA  1D03               	btfss	3,2
  6553  0DEB  2DED               	goto	u5151
  6554  0DEC  2DEE               	goto	u5150
  6555  0DED                     u5151:
  6556  0DED  2E41               	goto	l561
  6557  0DEE                     u5150:
  6558  0DEE                     l3687:
  6559                           
  6560                           ;SSD/SSD.c: 183:      {;SSD/SSD.c: 184:             Digit_1=Tempreture%10;
  6561  0DEE  300A               	movlw	10
  6562  0DEF  00B6               	movwf	___awmod@divisor
  6563  0DF0  3000               	movlw	0
  6564  0DF1  00B7               	movwf	___awmod@divisor+1
  6565  0DF2  0844               	movf	_Tempreture,w
  6566  0DF3  00BE               	movwf	??_SSD_SelectDigit
  6567  0DF4  01BF               	clrf	??_SSD_SelectDigit+1
  6568  0DF5  083E               	movf	??_SSD_SelectDigit,w
  6569  0DF6  00B8               	movwf	___awmod@dividend
  6570  0DF7  083F               	movf	??_SSD_SelectDigit+1,w
  6571  0DF8  00B9               	movwf	___awmod@dividend+1
  6572  0DF9  120A  158A  2587  120A  158A  	fcall	___awmod
  6573  0DFE  1283               	bcf	3,5	;RP0=0, select bank0
  6574  0DFF  1303               	bcf	3,6	;RP1=0, select bank0
  6575  0E00  0836               	movf	?___awmod,w
  6576  0E01  00FF               	movwf	btemp+1
  6577  0E02  087F               	movf	btemp+1,w
  6578  0E03  00C3               	movwf	SSD_SelectDigit@Digit_1
  6579                           
  6580                           ;SSD/SSD.c: 185:             Digit_2=Tempreture/10;
  6581  0E04  300A               	movlw	10
  6582  0E05  00B6               	movwf	___awdiv@divisor
  6583  0E06  3000               	movlw	0
  6584  0E07  00B7               	movwf	___awdiv@divisor+1
  6585  0E08  0844               	movf	_Tempreture,w
  6586  0E09  00BE               	movwf	??_SSD_SelectDigit
  6587  0E0A  01BF               	clrf	??_SSD_SelectDigit+1
  6588  0E0B  083E               	movf	??_SSD_SelectDigit,w
  6589  0E0C  00B8               	movwf	___awdiv@dividend
  6590  0E0D  083F               	movf	??_SSD_SelectDigit+1,w
  6591  0E0E  00B9               	movwf	___awdiv@dividend+1
  6592  0E0F  120A  118A  2794  120A  158A  	fcall	___awdiv
  6593  0E14  1283               	bcf	3,5	;RP0=0, select bank0
  6594  0E15  1303               	bcf	3,6	;RP1=0, select bank0
  6595  0E16  0836               	movf	?___awdiv,w
  6596  0E17  00FF               	movwf	btemp+1
  6597  0E18  087F               	movf	btemp+1,w
  6598  0E19  00C2               	movwf	SSD_SelectDigit@Digit_2
  6599  0E1A                     l3689:
  6600                           
  6601                           ;SSD/SSD.c: 187:             Enable_Digit_Selector^=1;
  6602  0E1A  3001               	movlw	1
  6603  0E1B  00FF               	movwf	btemp+1
  6604  0E1C  087F               	movf	btemp+1,w
  6605  0E1D  06D6               	xorwf	SSD_SelectDigit@Enable_Digit_Selector,f
  6606  0E1E                     l3691:
  6607                           
  6608                           ;SSD/SSD.c: 189:             if(Enable_Digit_Selector==0)
  6609  0E1E  0856               	movf	SSD_SelectDigit@Enable_Digit_Selector,w
  6610  0E1F  1D03               	btfss	3,2
  6611  0E20  2E22               	goto	u5161
  6612  0E21  2E23               	goto	u5160
  6613  0E22                     u5161:
  6614  0E22  2E2D               	goto	l3699
  6615  0E23                     u5160:
  6616  0E23                     l3693:
  6617                           
  6618                           ;SSD/SSD.c: 190:             {;SSD/SSD.c: 191:               SSD=Digit_1;
  6619  0E23  0843               	movf	SSD_SelectDigit@Digit_1,w
  6620  0E24  00FF               	movwf	btemp+1
  6621  0E25  087F               	movf	btemp+1,w
  6622  0E26  00C5               	movwf	_SSD
  6623  0E27                     l3695:
  6624                           
  6625                           ;SSD/SSD.c: 192:                (PORTA &= ~(1<<4));
  6626  0E27  30EF               	movlw	239
  6627  0E28  00FF               	movwf	btemp+1
  6628  0E29  087F               	movf	btemp+1,w
  6629  0E2A  0585               	andwf	5,f	;volatile
  6630  0E2B                     l3697:
  6631                           
  6632                           ;SSD/SSD.c: 193:                (PORTA|= (1<<5)) ;
  6633  0E2B  1685               	bsf	5,5	;volatile
  6634                           
  6635                           ;SSD/SSD.c: 195:             }
  6636  0E2C  2E41               	goto	l561
  6637  0E2D                     l3699:
  6638  0E2D  0356               	decf	SSD_SelectDigit@Enable_Digit_Selector,w
  6639  0E2E  1D03               	btfss	3,2
  6640  0E2F  2E31               	goto	u5171
  6641  0E30  2E32               	goto	u5170
  6642  0E31                     u5171:
  6643  0E31  2E3C               	goto	l556
  6644  0E32                     u5170:
  6645  0E32                     l3701:
  6646                           
  6647                           ;SSD/SSD.c: 197:             {;SSD/SSD.c: 198:               SSD=Digit_2;
  6648  0E32  0842               	movf	SSD_SelectDigit@Digit_2,w
  6649  0E33  00FF               	movwf	btemp+1
  6650  0E34  087F               	movf	btemp+1,w
  6651  0E35  00C5               	movwf	_SSD
  6652  0E36                     l3703:
  6653                           
  6654                           ;SSD/SSD.c: 199:               (PORTA &= ~(1<<5));
  6655  0E36  30DF               	movlw	223
  6656  0E37  00FF               	movwf	btemp+1
  6657  0E38  087F               	movf	btemp+1,w
  6658  0E39  0585               	andwf	5,f	;volatile
  6659  0E3A                     l3705:
  6660                           
  6661                           ;SSD/SSD.c: 200:               (PORTA|= (1<<4));
  6662  0E3A  1605               	bsf	5,4	;volatile
  6663  0E3B  2E41               	goto	l561
  6664  0E3C                     l556:	
  6665                           ;SSD/SSD.c: 203:         }
  6666                           
  6667                           
  6668                           ;SSD/SSD.c: 204:     }
  6669  0E3C  2E41               	goto	l561
  6670  0E3D                     l3707:
  6671                           
  6672                           ;SSD/SSD.c: 206:     {;SSD/SSD.c: 207:      SSD=10;
  6673  0E3D  300A               	movlw	10
  6674  0E3E  00FF               	movwf	btemp+1
  6675  0E3F  087F               	movf	btemp+1,w
  6676  0E40  00C5               	movwf	_SSD
  6677  0E41                     l561:
  6678  0E41  0008               	return
  6679  0E42                     __end_of_SSD_SelectDigit:
  6680                           
  6681                           	psect	text29
  6682  0794                     __ptext29:	
  6683 ;; *************** function ___awdiv *****************
  6684 ;; Defined at:
  6685 ;;		line 5 in file "C:\Program Files (x86)\Microchip\xc8\v2.20\pic\sources\c90\common\awdiv.c"
  6686 ;; Parameters:    Size  Location     Type
  6687 ;;  divisor         2   22[BANK0 ] int 
  6688 ;;  dividend        2   24[BANK0 ] int 
  6689 ;; Auto vars:     Size  Location     Type
  6690 ;;  quotient        2   28[BANK0 ] int 
  6691 ;;  sign            1   27[BANK0 ] unsigned char 
  6692 ;;  counter         1   26[BANK0 ] unsigned char 
  6693 ;; Return value:  Size  Location     Type
  6694 ;;                  2   22[BANK0 ] int 
  6695 ;; Registers used:
  6696 ;;		wreg, status,2, status,0, btemp+1
  6697 ;; Tracked objects:
  6698 ;;		On entry : 0/0
  6699 ;;		On exit  : 0/0
  6700 ;;		Unchanged: 0/0
  6701 ;; Data sizes:     COMMON   BANK0   BANK1   BANK3   BANK2
  6702 ;;      Params:         0       4       0       0       0
  6703 ;;      Locals:         0       4       0       0       0
  6704 ;;      Temps:          0       0       0       0       0
  6705 ;;      Totals:         0       8       0       0       0
  6706 ;;Total ram usage:        8 bytes
  6707 ;; Hardware stack levels used:    1
  6708 ;; Hardware stack levels required when called:    4
  6709 ;; This function calls:
  6710 ;;		Nothing
  6711 ;; This function is called by:
  6712 ;;		_SSD_SelectDigit
  6713 ;; This function uses a non-reentrant model
  6714 ;;
  6715                           
  6716                           
  6717                           ;psect for function ___awdiv
  6718  0794                     ___awdiv:
  6719  0794                     l3309:	
  6720                           ;incstack = 0
  6721 ;; hardware stack exceeded
  6722                           ; Regs used in ___awdiv: [wreg+status,2+status,0+btemp+1]
  6723                           
  6724  0794  1283               	bcf	3,5	;RP0=0, select bank0
  6725  0795  1303               	bcf	3,6	;RP1=0, select bank0
  6726  0796  01BB               	clrf	___awdiv@sign
  6727  0797                     l3311:
  6728  0797  1FB7               	btfss	___awdiv@divisor+1,7
  6729  0798  2F9A               	goto	u4271
  6730  0799  2F9B               	goto	u4270
  6731  079A                     u4271:
  6732  079A  2FA2               	goto	l3317
  6733  079B                     u4270:
  6734  079B                     l3313:
  6735  079B  09B6               	comf	___awdiv@divisor,f
  6736  079C  09B7               	comf	___awdiv@divisor+1,f
  6737  079D  0AB6               	incf	___awdiv@divisor,f
  6738  079E  1903               	skipnz
  6739  079F  0AB7               	incf	___awdiv@divisor+1,f
  6740  07A0                     l3315:
  6741  07A0  01BB               	clrf	___awdiv@sign
  6742  07A1  0ABB               	incf	___awdiv@sign,f
  6743  07A2                     l3317:
  6744  07A2  1FB9               	btfss	___awdiv@dividend+1,7
  6745  07A3  2FA5               	goto	u4281
  6746  07A4  2FA6               	goto	u4280
  6747  07A5                     u4281:
  6748  07A5  2FAF               	goto	l3323
  6749  07A6                     u4280:
  6750  07A6                     l3319:
  6751  07A6  09B8               	comf	___awdiv@dividend,f
  6752  07A7  09B9               	comf	___awdiv@dividend+1,f
  6753  07A8  0AB8               	incf	___awdiv@dividend,f
  6754  07A9  1903               	skipnz
  6755  07AA  0AB9               	incf	___awdiv@dividend+1,f
  6756  07AB                     l3321:
  6757  07AB  3001               	movlw	1
  6758  07AC  00FF               	movwf	btemp+1
  6759  07AD  087F               	movf	btemp+1,w
  6760  07AE  06BB               	xorwf	___awdiv@sign,f
  6761  07AF                     l3323:
  6762  07AF  01BC               	clrf	___awdiv@quotient
  6763  07B0  01BD               	clrf	___awdiv@quotient+1
  6764  07B1                     l3325:
  6765  07B1  0836               	movf	___awdiv@divisor,w
  6766  07B2  0437               	iorwf	___awdiv@divisor+1,w
  6767  07B3  1903               	btfsc	3,2
  6768  07B4  2FB6               	goto	u4291
  6769  07B5  2FB7               	goto	u4290
  6770  07B6                     u4291:
  6771  07B6  2FEE               	goto	l3345
  6772  07B7                     u4290:
  6773  07B7                     l3327:
  6774  07B7  01BA               	clrf	___awdiv@counter
  6775  07B8  0ABA               	incf	___awdiv@counter,f
  6776  07B9  2FC5               	goto	l3333
  6777  07BA                     l3329:
  6778  07BA  3001               	movlw	1
  6779  07BB                     u4305:
  6780  07BB  1003               	clrc
  6781  07BC  0DB6               	rlf	___awdiv@divisor,f
  6782  07BD  0DB7               	rlf	___awdiv@divisor+1,f
  6783  07BE  3EFF               	addlw	-1
  6784  07BF  1D03               	skipz
  6785  07C0  2FBB               	goto	u4305
  6786  07C1                     l3331:
  6787  07C1  3001               	movlw	1
  6788  07C2  00FF               	movwf	btemp+1
  6789  07C3  087F               	movf	btemp+1,w
  6790  07C4  07BA               	addwf	___awdiv@counter,f
  6791  07C5                     l3333:
  6792  07C5  1FB7               	btfss	___awdiv@divisor+1,7
  6793  07C6  2FC8               	goto	u4311
  6794  07C7  2FC9               	goto	u4310
  6795  07C8                     u4311:
  6796  07C8  2FBA               	goto	l3329
  6797  07C9                     u4310:
  6798  07C9                     l3335:
  6799  07C9  3001               	movlw	1
  6800  07CA                     u4325:
  6801  07CA  1003               	clrc
  6802  07CB  0DBC               	rlf	___awdiv@quotient,f
  6803  07CC  0DBD               	rlf	___awdiv@quotient+1,f
  6804  07CD  3EFF               	addlw	-1
  6805  07CE  1D03               	skipz
  6806  07CF  2FCA               	goto	u4325
  6807  07D0  0837               	movf	___awdiv@divisor+1,w
  6808  07D1  0239               	subwf	___awdiv@dividend+1,w
  6809  07D2  1D03               	skipz
  6810  07D3  2FD6               	goto	u4335
  6811  07D4  0836               	movf	___awdiv@divisor,w
  6812  07D5  0238               	subwf	___awdiv@dividend,w
  6813  07D6                     u4335:
  6814  07D6  1C03               	skipc
  6815  07D7  2FD9               	goto	u4331
  6816  07D8  2FDA               	goto	u4330
  6817  07D9                     u4331:
  6818  07D9  2FE1               	goto	l3341
  6819  07DA                     u4330:
  6820  07DA                     l3337:
  6821  07DA  0836               	movf	___awdiv@divisor,w
  6822  07DB  02B8               	subwf	___awdiv@dividend,f
  6823  07DC  0837               	movf	___awdiv@divisor+1,w
  6824  07DD  1C03               	skipc
  6825  07DE  03B9               	decf	___awdiv@dividend+1,f
  6826  07DF  02B9               	subwf	___awdiv@dividend+1,f
  6827  07E0                     l3339:
  6828  07E0  143C               	bsf	___awdiv@quotient,0
  6829  07E1                     l3341:
  6830  07E1  3001               	movlw	1
  6831  07E2                     u4345:
  6832  07E2  1003               	clrc
  6833  07E3  0CB7               	rrf	___awdiv@divisor+1,f
  6834  07E4  0CB6               	rrf	___awdiv@divisor,f
  6835  07E5  3EFF               	addlw	-1
  6836  07E6  1D03               	skipz
  6837  07E7  2FE2               	goto	u4345
  6838  07E8                     l3343:
  6839  07E8  3001               	movlw	1
  6840  07E9  02BA               	subwf	___awdiv@counter,f
  6841  07EA  1D03               	btfss	3,2
  6842  07EB  2FED               	goto	u4351
  6843  07EC  2FEE               	goto	u4350
  6844  07ED                     u4351:
  6845  07ED  2FC9               	goto	l3335
  6846  07EE                     u4350:
  6847  07EE                     l3345:
  6848  07EE  083B               	movf	___awdiv@sign,w
  6849  07EF  1903               	btfsc	3,2
  6850  07F0  2FF2               	goto	u4361
  6851  07F1  2FF3               	goto	u4360
  6852  07F2                     u4361:
  6853  07F2  2FF8               	goto	l3349
  6854  07F3                     u4360:
  6855  07F3                     l3347:
  6856  07F3  09BC               	comf	___awdiv@quotient,f
  6857  07F4  09BD               	comf	___awdiv@quotient+1,f
  6858  07F5  0ABC               	incf	___awdiv@quotient,f
  6859  07F6  1903               	skipnz
  6860  07F7  0ABD               	incf	___awdiv@quotient+1,f
  6861  07F8                     l3349:
  6862  07F8  083D               	movf	___awdiv@quotient+1,w
  6863  07F9  00B7               	movwf	?___awdiv+1
  6864  07FA  083C               	movf	___awdiv@quotient,w
  6865  07FB  00B6               	movwf	?___awdiv
  6866  07FC                     l800:
  6867  07FC  0008               	return
  6868  07FD                     __end_of___awdiv:
  6869                           
  6870                           	psect	text30
  6871  05DA                     __ptext30:	
  6872 ;; *************** function _Debouncer *****************
  6873 ;; Defined at:
  6874 ;;		line 100 in file "Buttons/Buttons.c"
  6875 ;; Parameters:    Size  Location     Type
  6876 ;;		None
  6877 ;; Auto vars:     Size  Location     Type
  6878 ;;		None
  6879 ;; Return value:  Size  Location     Type
  6880 ;;                  1    wreg      void 
  6881 ;; Registers used:
  6882 ;;		wreg, fsr0l, fsr0h, status,2, status,0, btemp+1
  6883 ;; Tracked objects:
  6884 ;;		On entry : 0/0
  6885 ;;		On exit  : 0/0
  6886 ;;		Unchanged: 0/0
  6887 ;; Data sizes:     COMMON   BANK0   BANK1   BANK3   BANK2
  6888 ;;      Params:         0       0       0       0       0
  6889 ;;      Locals:         0       0       0       0       0
  6890 ;;      Temps:          0       1       0       0       0
  6891 ;;      Totals:         0       1       0       0       0
  6892 ;;Total ram usage:        1 bytes
  6893 ;; Hardware stack levels used:    1
  6894 ;; Hardware stack levels required when called:    4
  6895 ;; This function calls:
  6896 ;;		Nothing
  6897 ;; This function is called by:
  6898 ;;		_Scheduler_Task1
  6899 ;; This function uses a non-reentrant model
  6900 ;;
  6901                           
  6902                           
  6903                           ;psect for function _Debouncer
  6904  05DA                     _Debouncer:
  6905  05DA                     l3709:	
  6906                           ;incstack = 0
  6907                           ; Regs used in _Debouncer: [wreg-fsr0h+status,2+status,0+btemp+1]
  6908                           
  6909                           
  6910                           ;Buttons/Buttons.c: 102:     static uint8_t Depounce_Up[3];;Buttons/Buttons.c: 103:     
      +                          static uint8_t Depounce_Down[3];;Buttons/Buttons.c: 104:     static uint8_t Counter_Up=0
      +                          ;;Buttons/Buttons.c: 105:     static uint8_t Counter_Down=0;;Buttons/Buttons.c: 107:    
      +                           Depounce_Down[Counter_Up]=((PORTB>>1)&1);
  6911  05DA  1283               	bcf	3,5	;RP0=0, select bank0
  6912  05DB  1303               	bcf	3,6	;RP1=0, select bank0
  6913  05DC  0806               	movf	6,w	;volatile
  6914  05DD  00B6               	movwf	??_Debouncer
  6915  05DE  1003               	clrc
  6916  05DF  0C36               	rrf	??_Debouncer,w
  6917  05E0  3901               	andlw	1
  6918  05E1  00FF               	movwf	btemp+1
  6919  05E2  0849               	movf	Debouncer@Counter_Up,w
  6920  05E3  3ED5               	addlw	(low (Debouncer@Depounce_Down| 0))& (0+255)
  6921  05E4  0084               	movwf	4
  6922  05E5  087F               	movf	btemp+1,w
  6923  05E6  1383               	bcf	3,7	;select IRP bank1
  6924  05E7  0080               	movwf	0
  6925                           
  6926                           ;Buttons/Buttons.c: 108:     Depounce_Up[Counter_Up]=((PORTB>>2)&1);
  6927  05E8  0806               	movf	6,w	;volatile
  6928  05E9  00B6               	movwf	??_Debouncer
  6929  05EA  3002               	movlw	2
  6930  05EB                     u5185:
  6931  05EB  1003               	clrc
  6932  05EC  0CB6               	rrf	??_Debouncer,f
  6933  05ED  3EFF               	addlw	-1
  6934  05EE  1D03               	skipz
  6935  05EF  2DEB               	goto	u5185
  6936  05F0  0836               	movf	??_Debouncer,w
  6937  05F1  3901               	andlw	1
  6938  05F2  00FF               	movwf	btemp+1
  6939  05F3  0849               	movf	Debouncer@Counter_Up,w
  6940  05F4  3ED8               	addlw	(low (Debouncer@Depounce_Up| 0))& (0+255)
  6941  05F5  0084               	movwf	4
  6942  05F6  087F               	movf	btemp+1,w
  6943  05F7  0080               	movwf	0
  6944  05F8                     l3711:
  6945                           
  6946                           ;Buttons/Buttons.c: 109:     Counter_Up++;
  6947  05F8  3001               	movlw	1
  6948  05F9  00FF               	movwf	btemp+1
  6949  05FA  087F               	movf	btemp+1,w
  6950  05FB  07C9               	addwf	Debouncer@Counter_Up,f
  6951  05FC                     l3713:
  6952                           
  6953                           ;Buttons/Buttons.c: 110:     if(Counter_Up==3)
  6954  05FC  3003               	movlw	3
  6955  05FD  0649               	xorwf	Debouncer@Counter_Up,w
  6956  05FE  1D03               	btfss	3,2
  6957  05FF  2E01               	goto	u5191
  6958  0600  2E02               	goto	u5190
  6959  0601                     u5191:
  6960  0601  2E76               	goto	l136
  6961  0602                     u5190:
  6962  0602                     l3715:
  6963                           
  6964                           ;Buttons/Buttons.c: 111:     {;Buttons/Buttons.c: 112:         if(Depounce_Up[0]==0 && D
      +                          epounce_Up[1]==0 &&Depounce_Up[2]==0)
  6965  0602  1683               	bsf	3,5	;RP0=1, select bank1
  6966  0603  1303               	bcf	3,6	;RP1=0, select bank1
  6967  0604  0858               	movf	Debouncer@Depounce_Up^(0+128),w
  6968  0605  1D03               	btfss	3,2
  6969  0606  2E08               	goto	u5201
  6970  0607  2E09               	goto	u5200
  6971  0608                     u5201:
  6972  0608  2E3B               	goto	l3729
  6973  0609                     u5200:
  6974  0609                     l3717:
  6975  0609  0859               	movf	(Debouncer@Depounce_Up^(0+128)+1),w
  6976  060A  1D03               	btfss	3,2
  6977  060B  2E0D               	goto	u5211
  6978  060C  2E0E               	goto	u5210
  6979  060D                     u5211:
  6980  060D  2E3B               	goto	l3729
  6981  060E                     u5210:
  6982  060E                     l3719:
  6983  060E  085A               	movf	(Debouncer@Depounce_Up^(0+128)+2),w
  6984  060F  1D03               	btfss	3,2
  6985  0610  2E12               	goto	u5221
  6986  0611  2E13               	goto	u5220
  6987  0612                     u5221:
  6988  0612  2E3B               	goto	l3729
  6989  0613                     u5220:
  6990  0613                     l3721:
  6991                           
  6992                           ;Buttons/Buttons.c: 114:         {;Buttons/Buttons.c: 115:            if(Mode.Select_Mod
      +                          e==Setting_Mode)
  6993  0613  3002               	movlw	2
  6994  0614  1283               	bcf	3,5	;RP0=0, select bank0
  6995  0615  1303               	bcf	3,6	;RP1=0, select bank0
  6996  0616  0654               	xorwf	_Mode,w
  6997  0617  1D03               	btfss	3,2
  6998  0618  2E1A               	goto	u5231
  6999  0619  2E1B               	goto	u5230
  7000  061A                     u5231:
  7001  061A  2E32               	goto	l3725
  7002  061B                     u5230:
  7003  061B                     l3723:
  7004                           
  7005                           ;Buttons/Buttons.c: 116:            {;Buttons/Buttons.c: 117:             Buttons.UpFlag
      +                          =Buttons.UpFlag=1;
  7006  061B  144A               	bsf	_Buttons,0
  7007  061C  184A               	btfsc	_Buttons,0
  7008  061D  2E1F               	goto	u5241
  7009  061E  2E23               	goto	u5240
  7010  061F                     u5241:
  7011  061F  1283               	bcf	3,5	;RP0=0, select bank0
  7012  0620  1303               	bcf	3,6	;RP1=0, select bank0
  7013  0621  144A               	bsf	_Buttons,0
  7014  0622  2E26               	goto	u5254
  7015  0623                     u5240:
  7016  0623  1283               	bcf	3,5	;RP0=0, select bank0
  7017  0624  1303               	bcf	3,6	;RP1=0, select bank0
  7018  0625  104A               	bcf	_Buttons,0
  7019  0626                     u5254:
  7020                           
  7021                           ;Buttons/Buttons.c: 118:             Depounce_Up[0]=1;
  7022  0626  1683               	bsf	3,5	;RP0=1, select bank1
  7023  0627  1303               	bcf	3,6	;RP1=0, select bank1
  7024  0628  01D8               	clrf	Debouncer@Depounce_Up^(0+128)
  7025  0629  0AD8               	incf	Debouncer@Depounce_Up^(0+128),f
  7026                           
  7027                           ;Buttons/Buttons.c: 119:             Depounce_Up[1]=1;
  7028  062A  01D9               	clrf	(Debouncer@Depounce_Up^(0+128)+1)
  7029  062B  0AD9               	incf	(Debouncer@Depounce_Up^(0+128)+1),f
  7030                           
  7031                           ;Buttons/Buttons.c: 120:             Depounce_Up[2]=1;
  7032  062C  01DA               	clrf	(Debouncer@Depounce_Up^(0+128)+2)
  7033  062D  0ADA               	incf	(Debouncer@Depounce_Up^(0+128)+2),f
  7034                           
  7035                           ;Buttons/Buttons.c: 122:             Buttons.DownFlag=0;
  7036  062E  1283               	bcf	3,5	;RP0=0, select bank0
  7037  062F  1303               	bcf	3,6	;RP1=0, select bank0
  7038  0630  10CA               	bcf	_Buttons,1
  7039                           
  7040                           ;Buttons/Buttons.c: 123:            }
  7041  0631  2E3B               	goto	l3729
  7042  0632                     l3725:
  7043  0632  0354               	decf	_Mode,w
  7044  0633  1D03               	btfss	3,2
  7045  0634  2E36               	goto	u5261
  7046  0635  2E37               	goto	u5260
  7047  0636                     u5261:
  7048  0636  2E3B               	goto	l3729
  7049  0637                     u5260:
  7050  0637                     l3727:
  7051                           
  7052                           ;Buttons/Buttons.c: 125:            {;Buttons/Buttons.c: 126:              Mode.Select_M
      +                          ode=Setting_Mode;
  7053  0637  3002               	movlw	2
  7054  0638  00FF               	movwf	btemp+1
  7055  0639  087F               	movf	btemp+1,w
  7056  063A  00D4               	movwf	_Mode
  7057  063B                     l3729:
  7058                           
  7059                           ;Buttons/Buttons.c: 130:        if(Depounce_Down[0]==0 && Depounce_Down[1]==0 &&Depounce
      +                          _Down[2]==0)
  7060  063B  1683               	bsf	3,5	;RP0=1, select bank1
  7061  063C  1303               	bcf	3,6	;RP1=0, select bank1
  7062  063D  0855               	movf	Debouncer@Depounce_Down^(0+128),w
  7063  063E  1D03               	btfss	3,2
  7064  063F  2E41               	goto	u5271
  7065  0640  2E42               	goto	u5270
  7066  0641                     u5271:
  7067  0641  2E74               	goto	l3743
  7068  0642                     u5270:
  7069  0642                     l3731:
  7070  0642  0856               	movf	(Debouncer@Depounce_Down^(0+128)+1),w
  7071  0643  1D03               	btfss	3,2
  7072  0644  2E46               	goto	u5281
  7073  0645  2E47               	goto	u5280
  7074  0646                     u5281:
  7075  0646  2E74               	goto	l3743
  7076  0647                     u5280:
  7077  0647                     l3733:
  7078  0647  0857               	movf	(Debouncer@Depounce_Down^(0+128)+2),w
  7079  0648  1D03               	btfss	3,2
  7080  0649  2E4B               	goto	u5291
  7081  064A  2E4C               	goto	u5290
  7082  064B                     u5291:
  7083  064B  2E74               	goto	l3743
  7084  064C                     u5290:
  7085  064C                     l3735:
  7086                           
  7087                           ;Buttons/Buttons.c: 131:        {;Buttons/Buttons.c: 133:            if(Mode.Select_Mode
      +                          ==Setting_Mode)
  7088  064C  3002               	movlw	2
  7089  064D  1283               	bcf	3,5	;RP0=0, select bank0
  7090  064E  1303               	bcf	3,6	;RP1=0, select bank0
  7091  064F  0654               	xorwf	_Mode,w
  7092  0650  1D03               	btfss	3,2
  7093  0651  2E53               	goto	u5301
  7094  0652  2E54               	goto	u5300
  7095  0653                     u5301:
  7096  0653  2E6B               	goto	l3739
  7097  0654                     u5300:
  7098  0654                     l3737:
  7099                           
  7100                           ;Buttons/Buttons.c: 134:            {;Buttons/Buttons.c: 135:             Buttons.DownFl
      +                          ag=Buttons.DownFlag=1;
  7101  0654  14CA               	bsf	_Buttons,1
  7102  0655  18CA               	btfsc	_Buttons,1
  7103  0656  2E58               	goto	u5311
  7104  0657  2E5C               	goto	u5310
  7105  0658                     u5311:
  7106  0658  1283               	bcf	3,5	;RP0=0, select bank0
  7107  0659  1303               	bcf	3,6	;RP1=0, select bank0
  7108  065A  14CA               	bsf	_Buttons,1
  7109  065B  2E5F               	goto	u5324
  7110  065C                     u5310:
  7111  065C  1283               	bcf	3,5	;RP0=0, select bank0
  7112  065D  1303               	bcf	3,6	;RP1=0, select bank0
  7113  065E  10CA               	bcf	_Buttons,1
  7114  065F                     u5324:
  7115                           
  7116                           ;Buttons/Buttons.c: 136:             Depounce_Down[0]=1;
  7117  065F  1683               	bsf	3,5	;RP0=1, select bank1
  7118  0660  1303               	bcf	3,6	;RP1=0, select bank1
  7119  0661  01D5               	clrf	Debouncer@Depounce_Down^(0+128)
  7120  0662  0AD5               	incf	Debouncer@Depounce_Down^(0+128),f
  7121                           
  7122                           ;Buttons/Buttons.c: 137:             Depounce_Down[1]=1;
  7123  0663  01D6               	clrf	(Debouncer@Depounce_Down^(0+128)+1)
  7124  0664  0AD6               	incf	(Debouncer@Depounce_Down^(0+128)+1),f
  7125                           
  7126                           ;Buttons/Buttons.c: 138:             Depounce_Down[2]=1;
  7127  0665  01D7               	clrf	(Debouncer@Depounce_Down^(0+128)+2)
  7128  0666  0AD7               	incf	(Debouncer@Depounce_Down^(0+128)+2),f
  7129                           
  7130                           ;Buttons/Buttons.c: 140:             Buttons.UpFlag=0;
  7131  0667  1283               	bcf	3,5	;RP0=0, select bank0
  7132  0668  1303               	bcf	3,6	;RP1=0, select bank0
  7133  0669  104A               	bcf	_Buttons,0
  7134                           
  7135                           ;Buttons/Buttons.c: 141:            }
  7136  066A  2E74               	goto	l3743
  7137  066B                     l3739:
  7138  066B  0354               	decf	_Mode,w
  7139  066C  1D03               	btfss	3,2
  7140  066D  2E6F               	goto	u5331
  7141  066E  2E70               	goto	u5330
  7142  066F                     u5331:
  7143  066F  2E74               	goto	l3743
  7144  0670                     u5330:
  7145  0670                     l3741:
  7146                           
  7147                           ;Buttons/Buttons.c: 143:            {;Buttons/Buttons.c: 144:              Mode.Select_M
      +                          ode=Setting_Mode;
  7148  0670  3002               	movlw	2
  7149  0671  00FF               	movwf	btemp+1
  7150  0672  087F               	movf	btemp+1,w
  7151  0673  00D4               	movwf	_Mode
  7152  0674                     l3743:
  7153                           
  7154                           ;Buttons/Buttons.c: 147:         Counter_Up=0;
  7155  0674  1283               	bcf	3,5	;RP0=0, select bank0
  7156  0675  01C9               	clrf	Debouncer@Counter_Up
  7157  0676                     l136:
  7158  0676  0008               	return
  7159  0677                     __end_of_Debouncer:
  7160                           
  7161                           	psect	text31
  7162  0895                     __ptext31:	
  7163 ;; *************** function _Scheduler_Init *****************
  7164 ;; Defined at:
  7165 ;;		line 29 in file "Scheduler/Scheduler.c"
  7166 ;; Parameters:    Size  Location     Type
  7167 ;;		None
  7168 ;; Auto vars:     Size  Location     Type
  7169 ;;		None
  7170 ;; Return value:  Size  Location     Type
  7171 ;;                  1    wreg      void 
  7172 ;; Registers used:
  7173 ;;		wreg, fsr0l, fsr0h, status,2, status,0, btemp+1, pclath, cstack
  7174 ;; Tracked objects:
  7175 ;;		On entry : 0/0
  7176 ;;		On exit  : 0/0
  7177 ;;		Unchanged: 0/0
  7178 ;; Data sizes:     COMMON   BANK0   BANK1   BANK3   BANK2
  7179 ;;      Params:         0       0       0       0       0
  7180 ;;      Locals:         0       0       0       0       0
  7181 ;;      Temps:          0       0       0       0       0
  7182 ;;      Totals:         0       0       0       0       0
  7183 ;;Total ram usage:        0 bytes
  7184 ;; Hardware stack levels used:    1
  7185 ;; Hardware stack levels required when called:    5
  7186 ;; This function calls:
  7187 ;;		_memset
  7188 ;; This function is called by:
  7189 ;;		_main
  7190 ;; This function uses a non-reentrant model
  7191 ;;
  7192                           
  7193                           
  7194                           ;psect for function _Scheduler_Init
  7195  0895                     _Scheduler_Init:
  7196  0895                     l3931:	
  7197                           ;incstack = 0
  7198                           ; Regs used in _Scheduler_Init: [wreg-fsr0h+status,2+status,0+btemp+1+pclath+cstack]
  7199                           
  7200                           
  7201                           ;Scheduler/Scheduler.c: 31:   memset( Scheduler_ActivationFlags , 0 , sizeof( Scheduler_
      +                          ActivationFlags ) );
  7202  0895  3000               	movlw	0
  7203  0896  1283               	bcf	3,5	;RP0=0, select bank0
  7204  0897  1303               	bcf	3,6	;RP1=0, select bank0
  7205  0898  00B6               	movwf	memset@c
  7206  0899  00B7               	movwf	memset@c+1
  7207  089A  3003               	movlw	3
  7208  089B  00B8               	movwf	memset@n
  7209  089C  3000               	movlw	0
  7210  089D  00B9               	movwf	memset@n+1
  7211  089E  30DB               	movlw	(low (_Scheduler_ActivationFlags| 0))& (0+255)
  7212  089F  120A  158A  2174  120A  158A  	fcall	_memset
  7213  08A4                     l271:
  7214  08A4  0008               	return
  7215  08A5                     __end_of_Scheduler_Init:
  7216                           
  7217                           	psect	text32
  7218  0974                     __ptext32:	
  7219 ;; *************** function _memset *****************
  7220 ;; Defined at:
  7221 ;;		line 8 in file "C:\Program Files (x86)\Microchip\xc8\v2.20\pic\sources\c90\common\memset.c"
  7222 ;; Parameters:    Size  Location     Type
  7223 ;;  p1              1    wreg     PTR void 
  7224 ;;		 -> Scheduler_ActivationFlags(3), 
  7225 ;;  c               2   22[BANK0 ] int 
  7226 ;;  n               2   24[BANK0 ] unsigned int 
  7227 ;; Auto vars:     Size  Location     Type
  7228 ;;  p1              1   27[BANK0 ] PTR void 
  7229 ;;		 -> Scheduler_ActivationFlags(3), 
  7230 ;;  p               1   26[BANK0 ] PTR unsigned char 
  7231 ;;		 -> Scheduler_ActivationFlags(3), 
  7232 ;; Return value:  Size  Location     Type
  7233 ;;                  1    wreg      PTR void 
  7234 ;; Registers used:
  7235 ;;		wreg, fsr0l, fsr0h, status,2, status,0, btemp+1
  7236 ;; Tracked objects:
  7237 ;;		On entry : 0/0
  7238 ;;		On exit  : 0/0
  7239 ;;		Unchanged: 0/0
  7240 ;; Data sizes:     COMMON   BANK0   BANK1   BANK3   BANK2
  7241 ;;      Params:         0       4       0       0       0
  7242 ;;      Locals:         0       2       0       0       0
  7243 ;;      Temps:          0       0       0       0       0
  7244 ;;      Totals:         0       6       0       0       0
  7245 ;;Total ram usage:        6 bytes
  7246 ;; Hardware stack levels used:    1
  7247 ;; Hardware stack levels required when called:    4
  7248 ;; This function calls:
  7249 ;;		Nothing
  7250 ;; This function is called by:
  7251 ;;		_Scheduler_Init
  7252 ;; This function uses a non-reentrant model
  7253 ;;
  7254                           
  7255                           
  7256                           ;psect for function _memset
  7257  0974                     _memset:
  7258                           
  7259                           ;incstack = 0
  7260                           ; Regs used in _memset: [wreg-fsr0h+status,2+status,0+btemp+1]
  7261                           ;memset@p1 stored from wreg
  7262  0974  1283               	bcf	3,5	;RP0=0, select bank0
  7263  0975  1303               	bcf	3,6	;RP1=0, select bank0
  7264  0976  00BB               	movwf	memset@p1
  7265  0977                     l3853:
  7266  0977  083B               	movf	memset@p1,w
  7267  0978  00FF               	movwf	btemp+1
  7268  0979  087F               	movf	btemp+1,w
  7269  097A  00BA               	movwf	memset@p
  7270  097B  2987               	goto	l3859
  7271  097C                     l3855:
  7272  097C  0836               	movf	memset@c,w
  7273  097D  00FF               	movwf	btemp+1
  7274  097E  083A               	movf	memset@p,w
  7275  097F  0084               	movwf	4
  7276  0980  087F               	movf	btemp+1,w
  7277  0981  1383               	bcf	3,7	;select IRP bank0
  7278  0982  0080               	movwf	0
  7279  0983                     l3857:
  7280  0983  3001               	movlw	1
  7281  0984  00FF               	movwf	btemp+1
  7282  0985  087F               	movf	btemp+1,w
  7283  0986  07BA               	addwf	memset@p,f
  7284  0987                     l3859:
  7285  0987  3001               	movlw	1
  7286  0988  02B8               	subwf	memset@n,f
  7287  0989  3000               	movlw	0
  7288  098A  1C03               	skipc
  7289  098B  03B9               	decf	memset@n+1,f
  7290  098C  02B9               	subwf	memset@n+1,f
  7291  098D  0A38               	incf	memset@n,w
  7292  098E  1D03               	skipz
  7293  098F  2994               	goto	u5471
  7294  0990  0A39               	incf	memset@n+1,w
  7295  0991  1D03               	btfss	3,2
  7296  0992  2994               	goto	u5471
  7297  0993  2995               	goto	u5470
  7298  0994                     u5471:
  7299  0994  297C               	goto	l3855
  7300  0995                     u5470:
  7301  0995                     l1101:
  7302  0995  0008               	return
  7303  0996                     __end_of_memset:
  7304                           
  7305                           	psect	text33
  7306  087A                     __ptext33:	
  7307 ;; *************** function _SSD_Init *****************
  7308 ;; Defined at:
  7309 ;;		line 27 in file "SSD/SSD.c"
  7310 ;; Parameters:    Size  Location     Type
  7311 ;;		None
  7312 ;; Auto vars:     Size  Location     Type
  7313 ;;		None
  7314 ;; Return value:  Size  Location     Type
  7315 ;;                  1    wreg      void 
  7316 ;; Registers used:
  7317 ;;		wreg, status,2, status,0, btemp+1
  7318 ;; Tracked objects:
  7319 ;;		On entry : 0/0
  7320 ;;		On exit  : 0/0
  7321 ;;		Unchanged: 0/0
  7322 ;; Data sizes:     COMMON   BANK0   BANK1   BANK3   BANK2
  7323 ;;      Params:         0       0       0       0       0
  7324 ;;      Locals:         0       0       0       0       0
  7325 ;;      Temps:          0       0       0       0       0
  7326 ;;      Totals:         0       0       0       0       0
  7327 ;;Total ram usage:        0 bytes
  7328 ;; Hardware stack levels used:    1
  7329 ;; Hardware stack levels required when called:    4
  7330 ;; This function calls:
  7331 ;;		Nothing
  7332 ;; This function is called by:
  7333 ;;		_main
  7334 ;; This function uses a non-reentrant model
  7335 ;;
  7336                           
  7337                           
  7338                           ;psect for function _SSD_Init
  7339  087A                     _SSD_Init:
  7340  087A                     l3027:	
  7341                           ;incstack = 0
  7342                           ; Regs used in _SSD_Init: [wreg+status,2+status,0+btemp+1]
  7343                           
  7344                           
  7345                           ;SSD/SSD.c: 29:  (PORTA &= ~(1<<5)) ;
  7346  087A  30DF               	movlw	223
  7347  087B  00FF               	movwf	btemp+1
  7348  087C  087F               	movf	btemp+1,w
  7349  087D  1283               	bcf	3,5	;RP0=0, select bank0
  7350  087E  1303               	bcf	3,6	;RP1=0, select bank0
  7351  087F  0585               	andwf	5,f	;volatile
  7352                           
  7353                           ;SSD/SSD.c: 30:  (PORTA &= ~(1<<4)) ;
  7354  0880  30EF               	movlw	239
  7355  0881  00FF               	movwf	btemp+1
  7356  0882  087F               	movf	btemp+1,w
  7357  0883  0585               	andwf	5,f	;volatile
  7358  0884                     l3029:
  7359                           
  7360                           ;SSD/SSD.c: 31:  PORTD=0;
  7361  0884  0188               	clrf	8	;volatile
  7362  0885                     l515:
  7363  0885  0008               	return
  7364  0886                     __end_of_SSD_Init:
  7365                           
  7366                           	psect	text34
  7367  17EA                     __ptext34:	
  7368 ;; *************** function _On_Off_Init *****************
  7369 ;; Defined at:
  7370 ;;		line 23 in file "Buttons/Buttons.c"
  7371 ;; Parameters:    Size  Location     Type
  7372 ;;		None
  7373 ;; Auto vars:     Size  Location     Type
  7374 ;;		None
  7375 ;; Return value:  Size  Location     Type
  7376 ;;                  1    wreg      void 
  7377 ;; Registers used:
  7378 ;;		None
  7379 ;; Tracked objects:
  7380 ;;		On entry : 0/0
  7381 ;;		On exit  : 0/0
  7382 ;;		Unchanged: 0/0
  7383 ;; Data sizes:     COMMON   BANK0   BANK1   BANK3   BANK2
  7384 ;;      Params:         0       0       0       0       0
  7385 ;;      Locals:         0       0       0       0       0
  7386 ;;      Temps:          0       0       0       0       0
  7387 ;;      Totals:         0       0       0       0       0
  7388 ;;Total ram usage:        0 bytes
  7389 ;; Hardware stack levels used:    1
  7390 ;; Hardware stack levels required when called:    4
  7391 ;; This function calls:
  7392 ;;		Nothing
  7393 ;; This function is called by:
  7394 ;;		_main
  7395 ;; This function uses a non-reentrant model
  7396 ;;
  7397                           
  7398                           
  7399                           ;psect for function _On_Off_Init
  7400  17EA                     _On_Off_Init:
  7401  17EA                     l3025:	
  7402                           ;incstack = 0
  7403                           ; Regs used in _On_Off_Init: []
  7404                           
  7405                           
  7406                           ;Buttons/Buttons.c: 26:     INTCONbits.INTE=1;
  7407  17EA  160B               	bsf	11,4	;volatile
  7408                           
  7409                           ;Buttons/Buttons.c: 27:     INTEDG=1;
  7410  17EB  1683               	bsf	3,5	;RP0=1, select bank1
  7411  17EC  1303               	bcf	3,6	;RP1=0, select bank1
  7412  17ED  1701               	bsf	1,6	;volatile
  7413                           
  7414                           ;Buttons/Buttons.c: 28:     INTCONbits.INTF=0;
  7415  17EE  108B               	bcf	11,1	;volatile
  7416  17EF                     l96:
  7417  17EF  0008               	return
  7418  17F0                     __end_of_On_Off_Init:
  7419                           
  7420                           	psect	text35
  7421  17DC                     __ptext35:	
  7422 ;; *************** function _ModeManager_Init *****************
  7423 ;; Defined at:
  7424 ;;		line 28 in file "WaterHeater_Mode/WaterHeater_Mode.c"
  7425 ;; Parameters:    Size  Location     Type
  7426 ;;		None
  7427 ;; Auto vars:     Size  Location     Type
  7428 ;;		None
  7429 ;; Return value:  Size  Location     Type
  7430 ;;                  1    wreg      void 
  7431 ;; Registers used:
  7432 ;;		status,2
  7433 ;; Tracked objects:
  7434 ;;		On entry : 0/0
  7435 ;;		On exit  : 0/0
  7436 ;;		Unchanged: 0/0
  7437 ;; Data sizes:     COMMON   BANK0   BANK1   BANK3   BANK2
  7438 ;;      Params:         0       0       0       0       0
  7439 ;;      Locals:         0       0       0       0       0
  7440 ;;      Temps:          0       0       0       0       0
  7441 ;;      Totals:         0       0       0       0       0
  7442 ;;Total ram usage:        0 bytes
  7443 ;; Hardware stack levels used:    1
  7444 ;; Hardware stack levels required when called:    4
  7445 ;; This function calls:
  7446 ;;		Nothing
  7447 ;; This function is called by:
  7448 ;;		_main
  7449 ;; This function uses a non-reentrant model
  7450 ;;
  7451                           
  7452                           
  7453                           ;psect for function _ModeManager_Init
  7454  17DC                     _ModeManager_Init:
  7455  17DC                     l3037:	
  7456                           ;incstack = 0
  7457                           ; Regs used in _ModeManager_Init: [status,2]
  7458                           
  7459                           
  7460                           ;WaterHeater_Mode/WaterHeater_Mode.c: 30:  Mode.Select_Mode=Off_Mode;
  7461  17DC  1283               	bcf	3,5	;RP0=0, select bank0
  7462  17DD  1303               	bcf	3,6	;RP1=0, select bank0
  7463  17DE  01D4               	clrf	_Mode
  7464  17DF                     l373:
  7465  17DF  0008               	return
  7466  17E0                     __end_of_ModeManager_Init:
  7467                           
  7468                           	psect	text36
  7469  086E                     __ptext36:	
  7470 ;; *************** function _I2c_Init *****************
  7471 ;; Defined at:
  7472 ;;		line 10 in file "I2C/I2C.c"
  7473 ;; Parameters:    Size  Location     Type
  7474 ;;		None
  7475 ;; Auto vars:     Size  Location     Type
  7476 ;;		None
  7477 ;; Return value:  Size  Location     Type
  7478 ;;                  1    wreg      void 
  7479 ;; Registers used:
  7480 ;;		wreg
  7481 ;; Tracked objects:
  7482 ;;		On entry : 0/0
  7483 ;;		On exit  : 0/0
  7484 ;;		Unchanged: 0/0
  7485 ;; Data sizes:     COMMON   BANK0   BANK1   BANK3   BANK2
  7486 ;;      Params:         0       0       0       0       0
  7487 ;;      Locals:         0       0       0       0       0
  7488 ;;      Temps:          0       0       0       0       0
  7489 ;;      Totals:         0       0       0       0       0
  7490 ;;Total ram usage:        0 bytes
  7491 ;; Hardware stack levels used:    1
  7492 ;; Hardware stack levels required when called:    4
  7493 ;; This function calls:
  7494 ;;		Nothing
  7495 ;; This function is called by:
  7496 ;;		_main
  7497 ;; This function uses a non-reentrant model
  7498 ;;
  7499                           
  7500                           
  7501                           ;psect for function _I2c_Init
  7502  086E                     _I2c_Init:
  7503  086E                     l3013:	
  7504                           ;incstack = 0
  7505                           ; Regs used in _I2c_Init: [wreg]
  7506                           
  7507                           
  7508                           ;I2C/I2C.c: 12:     SSPADD = (8000000/(4*100000))-1;
  7509  086E  3013               	movlw	19
  7510  086F  1683               	bsf	3,5	;RP0=1, select bank1
  7511  0870  1303               	bcf	3,6	;RP1=0, select bank1
  7512  0871  0093               	movwf	19	;volatile
  7513  0872                     l3015:
  7514                           
  7515                           ;I2C/I2C.c: 14:     SSPM0=0;
  7516  0872  1283               	bcf	3,5	;RP0=0, select bank0
  7517  0873  1303               	bcf	3,6	;RP1=0, select bank0
  7518  0874  1014               	bcf	20,0	;volatile
  7519  0875                     l3017:
  7520                           
  7521                           ;I2C/I2C.c: 15:     SSPM1=0;
  7522  0875  1094               	bcf	20,1	;volatile
  7523  0876                     l3019:
  7524                           
  7525                           ;I2C/I2C.c: 16:     SSPM2=0;
  7526  0876  1114               	bcf	20,2	;volatile
  7527  0877                     l3021:
  7528                           
  7529                           ;I2C/I2C.c: 17:     SSPM3=1;
  7530  0877  1594               	bsf	20,3	;volatile
  7531  0878                     l3023:
  7532                           
  7533                           ;I2C/I2C.c: 19:     SSPEN=1;
  7534  0878  1694               	bsf	20,5	;volatile
  7535  0879                     l416:
  7536  0879  0008               	return
  7537  087A                     __end_of_I2c_Init:
  7538                           
  7539                           	psect	text37
  7540  0B24                     __ptext37:	
  7541 ;; *************** function _Get_EEPROM_Data *****************
  7542 ;; Defined at:
  7543 ;;		line 27 in file "EEPROM/EEPROM.c"
  7544 ;; Parameters:    Size  Location     Type
  7545 ;;		None
  7546 ;; Auto vars:     Size  Location     Type
  7547 ;;		None
  7548 ;; Return value:  Size  Location     Type
  7549 ;;                  1    wreg      void 
  7550 ;; Registers used:
  7551 ;;		wreg, status,2, status,0, btemp+1, pclath, cstack
  7552 ;; Tracked objects:
  7553 ;;		On entry : 0/0
  7554 ;;		On exit  : 0/0
  7555 ;;		Unchanged: 0/0
  7556 ;; Data sizes:     COMMON   BANK0   BANK1   BANK3   BANK2
  7557 ;;      Params:         0       0       0       0       0
  7558 ;;      Locals:         0       0       0       0       0
  7559 ;;      Temps:          0       2       0       0       0
  7560 ;;      Totals:         0       2       0       0       0
  7561 ;;Total ram usage:        2 bytes
  7562 ;; Hardware stack levels used:    1
  7563 ;; Hardware stack levels required when called:    6
  7564 ;; This function calls:
  7565 ;;		_EEPROM_Read
  7566 ;;		___awmod
  7567 ;; This function is called by:
  7568 ;;		_main
  7569 ;; This function uses a non-reentrant model
  7570 ;;
  7571                           
  7572                           
  7573                           ;psect for function _Get_EEPROM_Data
  7574  0B24                     _Get_EEPROM_Data:
  7575  0B24                     l3919:	
  7576                           ;incstack = 0
  7577                           ; Regs used in _Get_EEPROM_Data: [wreg+status,2+status,0+btemp+1+pclath+cstack]
  7578                           
  7579                           
  7580                           ;EEPROM/EEPROM.c: 31:  EEPROM_Data=EEPROM_Read(0x0A);
  7581  0B24  300A               	movlw	10
  7582  0B25  120A  158A  2490  120A  158A  	fcall	_EEPROM_Read
  7583  0B2A  00FF               	movwf	btemp+1
  7584  0B2B  087F               	movf	btemp+1,w
  7585  0B2C  1283               	bcf	3,5	;RP0=0, select bank0
  7586  0B2D  1303               	bcf	3,6	;RP1=0, select bank0
  7587  0B2E  00C7               	movwf	_EEPROM_Data
  7588  0B2F                     l3921:
  7589                           
  7590                           ;EEPROM/EEPROM.c: 33:  if((EEPROM_Data<=(75U))&&(EEPROM_Data>=(35U) )&& ((EEPROM_Data%5)
      +                          ==0) )
  7591  0B2F  304C               	movlw	76
  7592  0B30  0247               	subwf	_EEPROM_Data,w
  7593  0B31  1803               	skipnc
  7594  0B32  2B34               	goto	u5521
  7595  0B33  2B35               	goto	u5520
  7596  0B34                     u5521:
  7597  0B34  2B58               	goto	l3929
  7598  0B35                     u5520:
  7599  0B35                     l3923:
  7600  0B35  3023               	movlw	35
  7601  0B36  0247               	subwf	_EEPROM_Data,w
  7602  0B37  1C03               	skipc
  7603  0B38  2B3A               	goto	u5531
  7604  0B39  2B3B               	goto	u5530
  7605  0B3A                     u5531:
  7606  0B3A  2B58               	goto	l3929
  7607  0B3B                     u5530:
  7608  0B3B                     l3925:
  7609  0B3B  3005               	movlw	5
  7610  0B3C  00B6               	movwf	___awmod@divisor
  7611  0B3D  3000               	movlw	0
  7612  0B3E  00B7               	movwf	___awmod@divisor+1
  7613  0B3F  0847               	movf	_EEPROM_Data,w
  7614  0B40  00BC               	movwf	??_Get_EEPROM_Data
  7615  0B41  01BD               	clrf	??_Get_EEPROM_Data+1
  7616  0B42  083C               	movf	??_Get_EEPROM_Data,w
  7617  0B43  00B8               	movwf	___awmod@dividend
  7618  0B44  083D               	movf	??_Get_EEPROM_Data+1,w
  7619  0B45  00B9               	movwf	___awmod@dividend+1
  7620  0B46  120A  158A  2587  120A  158A  	fcall	___awmod
  7621  0B4B  1283               	bcf	3,5	;RP0=0, select bank0
  7622  0B4C  1303               	bcf	3,6	;RP1=0, select bank0
  7623  0B4D  0836               	movf	?___awmod,w
  7624  0B4E  0437               	iorwf	?___awmod+1,w
  7625  0B4F  1D03               	btfss	3,2
  7626  0B50  2B52               	goto	u5541
  7627  0B51  2B53               	goto	u5540
  7628  0B52                     u5541:
  7629  0B52  2B58               	goto	l3929
  7630  0B53                     u5540:
  7631  0B53                     l3927:
  7632                           
  7633                           ;EEPROM/EEPROM.c: 34:  {;EEPROM/EEPROM.c: 35:    Temperature.Set_Temp=EEPROM_Data;
  7634  0B53  0847               	movf	_EEPROM_Data,w
  7635  0B54  00FF               	movwf	btemp+1
  7636  0B55  087F               	movf	btemp+1,w
  7637  0B56  00D1               	movwf	_Temperature+3
  7638                           
  7639                           ;EEPROM/EEPROM.c: 36:  }
  7640  0B57  2B5C               	goto	l478
  7641  0B58                     l3929:
  7642                           
  7643                           ;EEPROM/EEPROM.c: 38:  {;EEPROM/EEPROM.c: 39:    Temperature.Set_Temp=(60U);
  7644  0B58  303C               	movlw	60
  7645  0B59  00FF               	movwf	btemp+1
  7646  0B5A  087F               	movf	btemp+1,w
  7647  0B5B  00D1               	movwf	_Temperature+3
  7648  0B5C                     l478:
  7649  0B5C  0008               	return
  7650  0B5D                     __end_of_Get_EEPROM_Data:
  7651                           
  7652                           	psect	text38
  7653  0D87                     __ptext38:	
  7654 ;; *************** function ___awmod *****************
  7655 ;; Defined at:
  7656 ;;		line 5 in file "C:\Program Files (x86)\Microchip\xc8\v2.20\pic\sources\c90\common\awmod.c"
  7657 ;; Parameters:    Size  Location     Type
  7658 ;;  divisor         2   22[BANK0 ] int 
  7659 ;;  dividend        2   24[BANK0 ] int 
  7660 ;; Auto vars:     Size  Location     Type
  7661 ;;  sign            1   27[BANK0 ] unsigned char 
  7662 ;;  counter         1   26[BANK0 ] unsigned char 
  7663 ;; Return value:  Size  Location     Type
  7664 ;;                  2   22[BANK0 ] int 
  7665 ;; Registers used:
  7666 ;;		wreg, status,2, status,0, btemp+1
  7667 ;; Tracked objects:
  7668 ;;		On entry : 0/0
  7669 ;;		On exit  : 0/0
  7670 ;;		Unchanged: 0/0
  7671 ;; Data sizes:     COMMON   BANK0   BANK1   BANK3   BANK2
  7672 ;;      Params:         0       4       0       0       0
  7673 ;;      Locals:         0       2       0       0       0
  7674 ;;      Temps:          0       0       0       0       0
  7675 ;;      Totals:         0       6       0       0       0
  7676 ;;Total ram usage:        6 bytes
  7677 ;; Hardware stack levels used:    1
  7678 ;; Hardware stack levels required when called:    4
  7679 ;; This function calls:
  7680 ;;		Nothing
  7681 ;; This function is called by:
  7682 ;;		_Get_EEPROM_Data
  7683 ;;		_SSD_SelectDigit
  7684 ;; This function uses a non-reentrant model
  7685 ;;
  7686                           
  7687                           
  7688                           ;psect for function ___awmod
  7689  0D87                     ___awmod:
  7690  0D87                     l3353:	
  7691                           ;incstack = 0
  7692 ;; hardware stack exceeded
  7693                           ; Regs used in ___awmod: [wreg+status,2+status,0+btemp+1]
  7694                           
  7695  0D87  1283               	bcf	3,5	;RP0=0, select bank0
  7696  0D88  1303               	bcf	3,6	;RP1=0, select bank0
  7697  0D89  01BB               	clrf	___awmod@sign
  7698  0D8A                     l3355:
  7699  0D8A  1FB9               	btfss	___awmod@dividend+1,7
  7700  0D8B  2D8D               	goto	u4371
  7701  0D8C  2D8E               	goto	u4370
  7702  0D8D                     u4371:
  7703  0D8D  2D95               	goto	l3361
  7704  0D8E                     u4370:
  7705  0D8E                     l3357:
  7706  0D8E  09B8               	comf	___awmod@dividend,f
  7707  0D8F  09B9               	comf	___awmod@dividend+1,f
  7708  0D90  0AB8               	incf	___awmod@dividend,f
  7709  0D91  1903               	skipnz
  7710  0D92  0AB9               	incf	___awmod@dividend+1,f
  7711  0D93                     l3359:
  7712  0D93  01BB               	clrf	___awmod@sign
  7713  0D94  0ABB               	incf	___awmod@sign,f
  7714  0D95                     l3361:
  7715  0D95  1FB7               	btfss	___awmod@divisor+1,7
  7716  0D96  2D98               	goto	u4381
  7717  0D97  2D99               	goto	u4380
  7718  0D98                     u4381:
  7719  0D98  2D9E               	goto	l3365
  7720  0D99                     u4380:
  7721  0D99                     l3363:
  7722  0D99  09B6               	comf	___awmod@divisor,f
  7723  0D9A  09B7               	comf	___awmod@divisor+1,f
  7724  0D9B  0AB6               	incf	___awmod@divisor,f
  7725  0D9C  1903               	skipnz
  7726  0D9D  0AB7               	incf	___awmod@divisor+1,f
  7727  0D9E                     l3365:
  7728  0D9E  0836               	movf	___awmod@divisor,w
  7729  0D9F  0437               	iorwf	___awmod@divisor+1,w
  7730  0DA0  1903               	btfsc	3,2
  7731  0DA1  2DA3               	goto	u4391
  7732  0DA2  2DA4               	goto	u4390
  7733  0DA3                     u4391:
  7734  0DA3  2DD3               	goto	l3383
  7735  0DA4                     u4390:
  7736  0DA4                     l3367:
  7737  0DA4  01BA               	clrf	___awmod@counter
  7738  0DA5  0ABA               	incf	___awmod@counter,f
  7739  0DA6  2DB2               	goto	l3373
  7740  0DA7                     l3369:
  7741  0DA7  3001               	movlw	1
  7742  0DA8                     u4405:
  7743  0DA8  1003               	clrc
  7744  0DA9  0DB6               	rlf	___awmod@divisor,f
  7745  0DAA  0DB7               	rlf	___awmod@divisor+1,f
  7746  0DAB  3EFF               	addlw	-1
  7747  0DAC  1D03               	skipz
  7748  0DAD  2DA8               	goto	u4405
  7749  0DAE                     l3371:
  7750  0DAE  3001               	movlw	1
  7751  0DAF  00FF               	movwf	btemp+1
  7752  0DB0  087F               	movf	btemp+1,w
  7753  0DB1  07BA               	addwf	___awmod@counter,f
  7754  0DB2                     l3373:
  7755  0DB2  1FB7               	btfss	___awmod@divisor+1,7
  7756  0DB3  2DB5               	goto	u4411
  7757  0DB4  2DB6               	goto	u4410
  7758  0DB5                     u4411:
  7759  0DB5  2DA7               	goto	l3369
  7760  0DB6                     u4410:
  7761  0DB6                     l3375:
  7762  0DB6  0837               	movf	___awmod@divisor+1,w
  7763  0DB7  0239               	subwf	___awmod@dividend+1,w
  7764  0DB8  1D03               	skipz
  7765  0DB9  2DBC               	goto	u4425
  7766  0DBA  0836               	movf	___awmod@divisor,w
  7767  0DBB  0238               	subwf	___awmod@dividend,w
  7768  0DBC                     u4425:
  7769  0DBC  1C03               	skipc
  7770  0DBD  2DBF               	goto	u4421
  7771  0DBE  2DC0               	goto	u4420
  7772  0DBF                     u4421:
  7773  0DBF  2DC6               	goto	l3379
  7774  0DC0                     u4420:
  7775  0DC0                     l3377:
  7776  0DC0  0836               	movf	___awmod@divisor,w
  7777  0DC1  02B8               	subwf	___awmod@dividend,f
  7778  0DC2  0837               	movf	___awmod@divisor+1,w
  7779  0DC3  1C03               	skipc
  7780  0DC4  03B9               	decf	___awmod@dividend+1,f
  7781  0DC5  02B9               	subwf	___awmod@dividend+1,f
  7782  0DC6                     l3379:
  7783  0DC6  3001               	movlw	1
  7784  0DC7                     u4435:
  7785  0DC7  1003               	clrc
  7786  0DC8  0CB7               	rrf	___awmod@divisor+1,f
  7787  0DC9  0CB6               	rrf	___awmod@divisor,f
  7788  0DCA  3EFF               	addlw	-1
  7789  0DCB  1D03               	skipz
  7790  0DCC  2DC7               	goto	u4435
  7791  0DCD                     l3381:
  7792  0DCD  3001               	movlw	1
  7793  0DCE  02BA               	subwf	___awmod@counter,f
  7794  0DCF  1D03               	btfss	3,2
  7795  0DD0  2DD2               	goto	u4441
  7796  0DD1  2DD3               	goto	u4440
  7797  0DD2                     u4441:
  7798  0DD2  2DB6               	goto	l3375
  7799  0DD3                     u4440:
  7800  0DD3                     l3383:
  7801  0DD3  083B               	movf	___awmod@sign,w
  7802  0DD4  1903               	btfsc	3,2
  7803  0DD5  2DD7               	goto	u4451
  7804  0DD6  2DD8               	goto	u4450
  7805  0DD7                     u4451:
  7806  0DD7  2DDD               	goto	l3387
  7807  0DD8                     u4450:
  7808  0DD8                     l3385:
  7809  0DD8  09B8               	comf	___awmod@dividend,f
  7810  0DD9  09B9               	comf	___awmod@dividend+1,f
  7811  0DDA  0AB8               	incf	___awmod@dividend,f
  7812  0DDB  1903               	skipnz
  7813  0DDC  0AB9               	incf	___awmod@dividend+1,f
  7814  0DDD                     l3387:
  7815  0DDD  0839               	movf	___awmod@dividend+1,w
  7816  0DDE  00B7               	movwf	?___awmod+1
  7817  0DDF  0838               	movf	___awmod@dividend,w
  7818  0DE0  00B6               	movwf	?___awmod
  7819  0DE1                     l813:
  7820  0DE1  0008               	return
  7821  0DE2                     __end_of___awmod:
  7822                           
  7823                           	psect	text39
  7824  0C90                     __ptext39:	
  7825 ;; *************** function _EEPROM_Read *****************
  7826 ;; Defined at:
  7827 ;;		line 104 in file "EEPROM/EEPROM.c"
  7828 ;; Parameters:    Size  Location     Type
  7829 ;;  Addr            1    wreg     unsigned char 
  7830 ;; Auto vars:     Size  Location     Type
  7831 ;;  Addr            1   23[BANK0 ] unsigned char 
  7832 ;; Return value:  Size  Location     Type
  7833 ;;                  1    wreg      unsigned char 
  7834 ;; Registers used:
  7835 ;;		wreg, status,2, status,0, btemp+1, pclath, cstack
  7836 ;; Tracked objects:
  7837 ;;		On entry : 0/0
  7838 ;;		On exit  : 0/0
  7839 ;;		Unchanged: 0/0
  7840 ;; Data sizes:     COMMON   BANK0   BANK1   BANK3   BANK2
  7841 ;;      Params:         0       0       0       0       0
  7842 ;;      Locals:         0       1       0       0       0
  7843 ;;      Temps:          0       0       0       0       0
  7844 ;;      Totals:         0       1       0       0       0
  7845 ;;Total ram usage:        1 bytes
  7846 ;; Hardware stack levels used:    1
  7847 ;; Hardware stack levels required when called:    5
  7848 ;; This function calls:
  7849 ;;		_I2c_Read
  7850 ;;		_I2c_Send_NAck
  7851 ;;		_I2c_Start
  7852 ;;		_I2c_Stop
  7853 ;;		_I2c_WaitAck
  7854 ;;		_I2c_Write
  7855 ;; This function is called by:
  7856 ;;		_Get_EEPROM_Data
  7857 ;; This function uses a non-reentrant model
  7858 ;;
  7859                           
  7860                           
  7861                           ;psect for function _EEPROM_Read
  7862  0C90                     _EEPROM_Read:
  7863                           
  7864                           ;incstack = 0
  7865                           ; Regs used in _EEPROM_Read: [wreg+status,2+status,0+btemp+1+pclath+cstack]
  7866                           ;EEPROM_Read@Addr stored from wreg
  7867  0C90  1283               	bcf	3,5	;RP0=0, select bank0
  7868  0C91  1303               	bcf	3,6	;RP1=0, select bank0
  7869  0C92  00B7               	movwf	EEPROM_Read@Addr
  7870  0C93                     l3881:
  7871                           
  7872                           ;EEPROM/EEPROM.c: 104: uint8_t EEPROM_Read(uint8_t Addr);EEPROM/EEPROM.c: 105: {;EEPROM/
      +                          EEPROM.c: 106:   static uint8_t Data;;EEPROM/EEPROM.c: 107:   I2c_Start();
  7873  0C93  120A  158A  202B  120A  158A  	fcall	_I2c_Start
  7874  0C98                     l3883:
  7875                           
  7876                           ;EEPROM/EEPROM.c: 108:   I2c_Write(0xA0);
  7877  0C98  30A0               	movlw	160
  7878  0C99  160A  118A  27E4  120A  158A  	fcall	_I2c_Write
  7879  0C9E                     l3885:
  7880                           
  7881                           ;EEPROM/EEPROM.c: 109:   I2c_WaitAck();
  7882  0C9E  160A  118A  27F0  120A  158A  	fcall	_I2c_WaitAck
  7883                           
  7884                           ;EEPROM/EEPROM.c: 110:   I2c_Write(Addr);
  7885  0CA3  1283               	bcf	3,5	;RP0=0, select bank0
  7886  0CA4  1303               	bcf	3,6	;RP1=0, select bank0
  7887  0CA5  0837               	movf	EEPROM_Read@Addr,w
  7888  0CA6  160A  118A  27E4  120A  158A  	fcall	_I2c_Write
  7889  0CAB                     l3887:
  7890                           
  7891                           ;EEPROM/EEPROM.c: 111:   I2c_WaitAck();
  7892  0CAB  160A  118A  27F0  120A  158A  	fcall	_I2c_WaitAck
  7893  0CB0                     l3889:
  7894                           
  7895                           ;EEPROM/EEPROM.c: 112:   I2c_Start();
  7896  0CB0  120A  158A  202B  120A  158A  	fcall	_I2c_Start
  7897                           
  7898                           ;EEPROM/EEPROM.c: 113:   I2c_Write(0xA0 +1);
  7899  0CB5  30A1               	movlw	161
  7900  0CB6  160A  118A  27E4  120A  158A  	fcall	_I2c_Write
  7901  0CBB                     l3891:
  7902                           
  7903                           ;EEPROM/EEPROM.c: 114:   I2c_WaitAck();
  7904  0CBB  160A  118A  27F0  120A  158A  	fcall	_I2c_WaitAck
  7905  0CC0                     l3893:
  7906                           
  7907                           ;EEPROM/EEPROM.c: 115:   Data=I2c_Read();
  7908  0CC0  120A  158A  2086  120A  158A  	fcall	_I2c_Read
  7909  0CC5  00FF               	movwf	btemp+1
  7910  0CC6  087F               	movf	btemp+1,w
  7911  0CC7  1283               	bcf	3,5	;RP0=0, select bank0
  7912  0CC8  1303               	bcf	3,6	;RP1=0, select bank0
  7913  0CC9  00C6               	movwf	EEPROM_Read@Data
  7914  0CCA                     l3895:
  7915                           
  7916                           ;EEPROM/EEPROM.c: 116:   I2c_Send_NAck();
  7917  0CCA  120A  158A  2022  120A  158A  	fcall	_I2c_Send_NAck
  7918  0CCF                     l3897:
  7919                           
  7920                           ;EEPROM/EEPROM.c: 117:   I2c_Stop();
  7921  0CCF  120A  158A  2036  120A  158A  	fcall	_I2c_Stop
  7922  0CD4                     l3899:
  7923                           
  7924                           ;EEPROM/EEPROM.c: 118:   return Data;
  7925  0CD4  1283               	bcf	3,5	;RP0=0, select bank0
  7926  0CD5  1303               	bcf	3,6	;RP1=0, select bank0
  7927  0CD6  0846               	movf	EEPROM_Read@Data,w
  7928  0CD7                     l490:
  7929  0CD7  0008               	return
  7930  0CD8                     __end_of_EEPROM_Read:
  7931                           
  7932                           	psect	text40
  7933  17E4                     __ptext40:	
  7934 ;; *************** function _I2c_Write *****************
  7935 ;; Defined at:
  7936 ;;		line 55 in file "I2C/I2C.c"
  7937 ;; Parameters:    Size  Location     Type
  7938 ;;  data            1    wreg     unsigned char 
  7939 ;; Auto vars:     Size  Location     Type
  7940 ;;  data            1   22[BANK0 ] unsigned char 
  7941 ;; Return value:  Size  Location     Type
  7942 ;;                  1    wreg      void 
  7943 ;; Registers used:
  7944 ;;		wreg
  7945 ;; Tracked objects:
  7946 ;;		On entry : 0/0
  7947 ;;		On exit  : 0/0
  7948 ;;		Unchanged: 0/0
  7949 ;; Data sizes:     COMMON   BANK0   BANK1   BANK3   BANK2
  7950 ;;      Params:         0       0       0       0       0
  7951 ;;      Locals:         0       1       0       0       0
  7952 ;;      Temps:          0       0       0       0       0
  7953 ;;      Totals:         0       1       0       0       0
  7954 ;;Total ram usage:        1 bytes
  7955 ;; Hardware stack levels used:    1
  7956 ;; Hardware stack levels required when called:    4
  7957 ;; This function calls:
  7958 ;;		Nothing
  7959 ;; This function is called by:
  7960 ;;		_EEPROM_Write
  7961 ;;		_EEPROM_Read
  7962 ;; This function uses a non-reentrant model
  7963 ;;
  7964                           
  7965                           
  7966                           ;psect for function _I2c_Write
  7967  17E4                     _I2c_Write:
  7968                           
  7969                           ;incstack = 0
  7970 ;; hardware stack exceeded
  7971                           ; Regs used in _I2c_Write: [wreg]
  7972                           ;I2c_Write@data stored from wreg
  7973  17E4  1283               	bcf	3,5	;RP0=0, select bank0
  7974  17E5  1303               	bcf	3,6	;RP1=0, select bank0
  7975  17E6  00B6               	movwf	I2c_Write@data
  7976  17E7                     l3289:
  7977                           
  7978                           ;I2C/I2C.c: 55: void I2c_Write(uint8_t data);I2C/I2C.c: 56: {;I2C/I2C.c: 57:     SSPBUF=
      +                          data;
  7979  17E7  0836               	movf	I2c_Write@data,w
  7980  17E8  0093               	movwf	19	;volatile
  7981  17E9                     l443:
  7982  17E9  0008               	return
  7983  17EA                     __end_of_I2c_Write:
  7984                           
  7985                           	psect	text41
  7986  17F0                     __ptext41:	
  7987 ;; *************** function _I2c_WaitAck *****************
  7988 ;; Defined at:
  7989 ;;		line 61 in file "I2C/I2C.c"
  7990 ;; Parameters:    Size  Location     Type
  7991 ;;		None
  7992 ;; Auto vars:     Size  Location     Type
  7993 ;;		None
  7994 ;; Return value:  Size  Location     Type
  7995 ;;                  1    wreg      void 
  7996 ;; Registers used:
  7997 ;;		None
  7998 ;; Tracked objects:
  7999 ;;		On entry : 0/0
  8000 ;;		On exit  : 0/0
  8001 ;;		Unchanged: 0/0
  8002 ;; Data sizes:     COMMON   BANK0   BANK1   BANK3   BANK2
  8003 ;;      Params:         0       0       0       0       0
  8004 ;;      Locals:         0       0       0       0       0
  8005 ;;      Temps:          0       0       0       0       0
  8006 ;;      Totals:         0       0       0       0       0
  8007 ;;Total ram usage:        0 bytes
  8008 ;; Hardware stack levels used:    1
  8009 ;; Hardware stack levels required when called:    4
  8010 ;; This function calls:
  8011 ;;		Nothing
  8012 ;; This function is called by:
  8013 ;;		_EEPROM_Write
  8014 ;;		_EEPROM_Read
  8015 ;; This function uses a non-reentrant model
  8016 ;;
  8017                           
  8018                           
  8019                           ;psect for function _I2c_WaitAck
  8020  17F0                     _I2c_WaitAck:
  8021  17F0                     l3291:	
  8022                           ;incstack = 0
  8023 ;; hardware stack exceeded
  8024                           ; Regs used in _I2c_WaitAck: []
  8025                           
  8026  17F0                     l446:	
  8027                           ;I2C/I2C.c: 63:     while(!SSPIF);
  8028                           
  8029  17F0  1283               	bcf	3,5	;RP0=0, select bank0
  8030  17F1  1303               	bcf	3,6	;RP1=0, select bank0
  8031  17F2  1D8C               	btfss	12,3	;volatile
  8032  17F3  2FF5               	goto	u4231
  8033  17F4  2FF6               	goto	u4230
  8034  17F5                     u4231:
  8035  17F5  2FF0               	goto	l446
  8036  17F6                     u4230:
  8037  17F6                     l448:
  8038                           
  8039                           ;I2C/I2C.c: 64:     SSPIF=0;
  8040  17F6  118C               	bcf	12,3	;volatile
  8041  17F7                     l449:
  8042  17F7  0008               	return
  8043  17F8                     __end_of_I2c_WaitAck:
  8044                           
  8045                           	psect	text42
  8046  0836                     __ptext42:	
  8047 ;; *************** function _I2c_Stop *****************
  8048 ;; Defined at:
  8049 ;;		line 48 in file "I2C/I2C.c"
  8050 ;; Parameters:    Size  Location     Type
  8051 ;;		None
  8052 ;; Auto vars:     Size  Location     Type
  8053 ;;		None
  8054 ;; Return value:  Size  Location     Type
  8055 ;;                  1    wreg      void 
  8056 ;; Registers used:
  8057 ;;		None
  8058 ;; Tracked objects:
  8059 ;;		On entry : 0/0
  8060 ;;		On exit  : 0/0
  8061 ;;		Unchanged: 0/0
  8062 ;; Data sizes:     COMMON   BANK0   BANK1   BANK3   BANK2
  8063 ;;      Params:         0       0       0       0       0
  8064 ;;      Locals:         0       0       0       0       0
  8065 ;;      Temps:          0       0       0       0       0
  8066 ;;      Totals:         0       0       0       0       0
  8067 ;;Total ram usage:        0 bytes
  8068 ;; Hardware stack levels used:    1
  8069 ;; Hardware stack levels required when called:    4
  8070 ;; This function calls:
  8071 ;;		Nothing
  8072 ;; This function is called by:
  8073 ;;		_EEPROM_Write
  8074 ;;		_EEPROM_Read
  8075 ;; This function uses a non-reentrant model
  8076 ;;
  8077                           
  8078                           
  8079                           ;psect for function _I2c_Stop
  8080  0836                     _I2c_Stop:
  8081  0836                     l3287:	
  8082                           ;incstack = 0
  8083 ;; hardware stack exceeded
  8084                           ; Regs used in _I2c_Stop: []
  8085                           
  8086                           
  8087                           ;I2C/I2C.c: 50:     PEN=1;
  8088  0836  1683               	bsf	3,5	;RP0=1, select bank1
  8089  0837  1303               	bcf	3,6	;RP1=0, select bank1
  8090  0838  1511               	bsf	17,2	;volatile
  8091  0839                     l437:	
  8092                           ;I2C/I2C.c: 51:     while(PEN);
  8093                           
  8094  0839  1911               	btfsc	17,2	;volatile
  8095  083A  283C               	goto	u4221
  8096  083B  283D               	goto	u4220
  8097  083C                     u4221:
  8098  083C  2839               	goto	l437
  8099  083D                     u4220:
  8100  083D                     l439:
  8101                           
  8102                           ;I2C/I2C.c: 52:     SSPIF=0;
  8103  083D  1283               	bcf	3,5	;RP0=0, select bank0
  8104  083E  1303               	bcf	3,6	;RP1=0, select bank0
  8105  083F  118C               	bcf	12,3	;volatile
  8106  0840                     l440:
  8107  0840  0008               	return
  8108  0841                     __end_of_I2c_Stop:
  8109                           
  8110                           	psect	text43
  8111  082B                     __ptext43:	
  8112 ;; *************** function _I2c_Start *****************
  8113 ;; Defined at:
  8114 ;;		line 23 in file "I2C/I2C.c"
  8115 ;; Parameters:    Size  Location     Type
  8116 ;;		None
  8117 ;; Auto vars:     Size  Location     Type
  8118 ;;		None
  8119 ;; Return value:  Size  Location     Type
  8120 ;;                  1    wreg      void 
  8121 ;; Registers used:
  8122 ;;		None
  8123 ;; Tracked objects:
  8124 ;;		On entry : 0/0
  8125 ;;		On exit  : 0/0
  8126 ;;		Unchanged: 0/0
  8127 ;; Data sizes:     COMMON   BANK0   BANK1   BANK3   BANK2
  8128 ;;      Params:         0       0       0       0       0
  8129 ;;      Locals:         0       0       0       0       0
  8130 ;;      Temps:          0       0       0       0       0
  8131 ;;      Totals:         0       0       0       0       0
  8132 ;;Total ram usage:        0 bytes
  8133 ;; Hardware stack levels used:    1
  8134 ;; Hardware stack levels required when called:    4
  8135 ;; This function calls:
  8136 ;;		Nothing
  8137 ;; This function is called by:
  8138 ;;		_EEPROM_Write
  8139 ;;		_EEPROM_Read
  8140 ;; This function uses a non-reentrant model
  8141 ;;
  8142                           
  8143                           
  8144                           ;psect for function _I2c_Start
  8145  082B                     _I2c_Start:
  8146  082B                     l3285:	
  8147                           ;incstack = 0
  8148 ;; hardware stack exceeded
  8149                           ; Regs used in _I2c_Start: []
  8150                           
  8151                           
  8152                           ;I2C/I2C.c: 25:     SEN=1;
  8153  082B  1683               	bsf	3,5	;RP0=1, select bank1
  8154  082C  1303               	bcf	3,6	;RP1=0, select bank1
  8155  082D  1411               	bsf	17,0	;volatile
  8156  082E                     l419:	
  8157                           ;I2C/I2C.c: 26:     while(SEN);
  8158                           
  8159  082E  1811               	btfsc	17,0	;volatile
  8160  082F  2831               	goto	u4211
  8161  0830  2832               	goto	u4210
  8162  0831                     u4211:
  8163  0831  282E               	goto	l419
  8164  0832                     u4210:
  8165  0832                     l421:
  8166                           
  8167                           ;I2C/I2C.c: 27:     SSPIF=0;
  8168  0832  1283               	bcf	3,5	;RP0=0, select bank0
  8169  0833  1303               	bcf	3,6	;RP1=0, select bank0
  8170  0834  118C               	bcf	12,3	;volatile
  8171  0835                     l422:
  8172  0835  0008               	return
  8173  0836                     __end_of_I2c_Start:
  8174                           
  8175                           	psect	text44
  8176  0822                     __ptext44:	
  8177 ;; *************** function _I2c_Send_NAck *****************
  8178 ;; Defined at:
  8179 ;;		line 40 in file "I2C/I2C.c"
  8180 ;; Parameters:    Size  Location     Type
  8181 ;;		None
  8182 ;; Auto vars:     Size  Location     Type
  8183 ;;		None
  8184 ;; Return value:  Size  Location     Type
  8185 ;;                  1    wreg      void 
  8186 ;; Registers used:
  8187 ;;		None
  8188 ;; Tracked objects:
  8189 ;;		On entry : 0/0
  8190 ;;		On exit  : 0/0
  8191 ;;		Unchanged: 0/0
  8192 ;; Data sizes:     COMMON   BANK0   BANK1   BANK3   BANK2
  8193 ;;      Params:         0       0       0       0       0
  8194 ;;      Locals:         0       0       0       0       0
  8195 ;;      Temps:          0       0       0       0       0
  8196 ;;      Totals:         0       0       0       0       0
  8197 ;;Total ram usage:        0 bytes
  8198 ;; Hardware stack levels used:    1
  8199 ;; Hardware stack levels required when called:    4
  8200 ;; This function calls:
  8201 ;;		Nothing
  8202 ;; This function is called by:
  8203 ;;		_EEPROM_Read
  8204 ;; This function uses a non-reentrant model
  8205 ;;
  8206                           
  8207                           
  8208                           ;psect for function _I2c_Send_NAck
  8209  0822                     _I2c_Send_NAck:
  8210  0822                     l2849:	
  8211                           ;incstack = 0
  8212                           ; Regs used in _I2c_Send_NAck: []
  8213                           
  8214                           
  8215                           ;I2C/I2C.c: 42:     ACKDT=1;
  8216  0822  1683               	bsf	3,5	;RP0=1, select bank1
  8217  0823  1303               	bcf	3,6	;RP1=0, select bank1
  8218  0824  1691               	bsf	17,5	;volatile
  8219                           
  8220                           ;I2C/I2C.c: 43:     ACKEN=1;
  8221  0825  1611               	bsf	17,4	;volatile
  8222  0826                     l431:	
  8223                           ;I2C/I2C.c: 44:     while(ACKEN);
  8224                           
  8225  0826  1A11               	btfsc	17,4	;volatile
  8226  0827  2829               	goto	u3501
  8227  0828  282A               	goto	u3500
  8228  0829                     u3501:
  8229  0829  2826               	goto	l431
  8230  082A                     u3500:
  8231  082A                     l434:
  8232  082A  0008               	return
  8233  082B                     __end_of_I2c_Send_NAck:
  8234                           
  8235                           	psect	text45
  8236  0886                     __ptext45:	
  8237 ;; *************** function _I2c_Read *****************
  8238 ;; Defined at:
  8239 ;;		line 31 in file "I2C/I2C.c"
  8240 ;; Parameters:    Size  Location     Type
  8241 ;;		None
  8242 ;; Auto vars:     Size  Location     Type
  8243 ;;  data            1   22[BANK0 ] unsigned char 
  8244 ;; Return value:  Size  Location     Type
  8245 ;;                  1    wreg      unsigned char 
  8246 ;; Registers used:
  8247 ;;		wreg, btemp+1
  8248 ;; Tracked objects:
  8249 ;;		On entry : 0/0
  8250 ;;		On exit  : 0/0
  8251 ;;		Unchanged: 0/0
  8252 ;; Data sizes:     COMMON   BANK0   BANK1   BANK3   BANK2
  8253 ;;      Params:         0       0       0       0       0
  8254 ;;      Locals:         0       1       0       0       0
  8255 ;;      Temps:          0       0       0       0       0
  8256 ;;      Totals:         0       1       0       0       0
  8257 ;;Total ram usage:        1 bytes
  8258 ;; Hardware stack levels used:    1
  8259 ;; Hardware stack levels required when called:    4
  8260 ;; This function calls:
  8261 ;;		Nothing
  8262 ;; This function is called by:
  8263 ;;		_EEPROM_Read
  8264 ;; This function uses a non-reentrant model
  8265 ;;
  8266                           
  8267                           
  8268                           ;psect for function _I2c_Read
  8269  0886                     _I2c_Read:
  8270  0886                     l2841:	
  8271                           ;incstack = 0
  8272                           ; Regs used in _I2c_Read: [wreg+btemp+1]
  8273                           
  8274                           
  8275                           ;I2C/I2C.c: 33:     uint8_t data;;I2C/I2C.c: 34:     RCEN=1;
  8276  0886  1683               	bsf	3,5	;RP0=1, select bank1
  8277  0887  1303               	bcf	3,6	;RP1=0, select bank1
  8278  0888  1591               	bsf	17,3	;volatile
  8279  0889                     l425:	
  8280                           ;I2C/I2C.c: 35:     while(!BF);
  8281                           
  8282  0889  1C14               	btfss	20,0	;volatile
  8283  088A  288C               	goto	u3491
  8284  088B  288D               	goto	u3490
  8285  088C                     u3491:
  8286  088C  2889               	goto	l425
  8287  088D                     u3490:
  8288  088D                     l2843:
  8289                           
  8290                           ;I2C/I2C.c: 36:     data= SSPBUF;
  8291  088D  1283               	bcf	3,5	;RP0=0, select bank0
  8292  088E  1303               	bcf	3,6	;RP1=0, select bank0
  8293  088F  0813               	movf	19,w	;volatile
  8294  0890  00FF               	movwf	btemp+1
  8295  0891  087F               	movf	btemp+1,w
  8296  0892  00B6               	movwf	I2c_Read@data
  8297  0893                     l2845:
  8298                           
  8299                           ;I2C/I2C.c: 37:     return data;
  8300  0893  0836               	movf	I2c_Read@data,w
  8301  0894                     l428:
  8302  0894  0008               	return
  8303  0895                     __end_of_I2c_Read:
  8304                           
  8305                           	psect	text46
  8306  0956                     __ptext46:	
  8307 ;; *************** function _GPIO_Init *****************
  8308 ;; Defined at:
  8309 ;;		line 23 in file "gpio/gpio.c"
  8310 ;; Parameters:    Size  Location     Type
  8311 ;;		None
  8312 ;; Auto vars:     Size  Location     Type
  8313 ;;		None
  8314 ;; Return value:  Size  Location     Type
  8315 ;;                  1    wreg      void 
  8316 ;; Registers used:
  8317 ;;		wreg, status,2, status,0, btemp+1
  8318 ;; Tracked objects:
  8319 ;;		On entry : 0/0
  8320 ;;		On exit  : 0/0
  8321 ;;		Unchanged: 0/0
  8322 ;; Data sizes:     COMMON   BANK0   BANK1   BANK3   BANK2
  8323 ;;      Params:         0       0       0       0       0
  8324 ;;      Locals:         0       0       0       0       0
  8325 ;;      Temps:          0       0       0       0       0
  8326 ;;      Totals:         0       0       0       0       0
  8327 ;;Total ram usage:        0 bytes
  8328 ;; Hardware stack levels used:    1
  8329 ;; Hardware stack levels required when called:    4
  8330 ;; This function calls:
  8331 ;;		Nothing
  8332 ;; This function is called by:
  8333 ;;		_main
  8334 ;; This function uses a non-reentrant model
  8335 ;;
  8336                           
  8337                           
  8338                           ;psect for function _GPIO_Init
  8339  0956                     _GPIO_Init:
  8340  0956                     l2987:	
  8341                           ;incstack = 0
  8342                           ; Regs used in _GPIO_Init: [wreg+status,2+status,0+btemp+1]
  8343                           
  8344  0956  30DF               	movlw	223
  8345  0957  00FF               	movwf	btemp+1
  8346  0958  087F               	movf	btemp+1,w
  8347  0959  1683               	bsf	3,5	;RP0=1, select bank1
  8348  095A  1303               	bcf	3,6	;RP1=0, select bank1
  8349  095B  0587               	andwf	7,f	;volatile
  8350  095C                     l2989:
  8351  095C  30FB               	movlw	251
  8352  095D  00FF               	movwf	btemp+1
  8353  095E  087F               	movf	btemp+1,w
  8354  095F  0587               	andwf	7,f	;volatile
  8355  0960                     l2991:
  8356  0960  30EF               	movlw	239
  8357  0961  00FF               	movwf	btemp+1
  8358  0962  087F               	movf	btemp+1,w
  8359  0963  0586               	andwf	6,f	;volatile
  8360  0964                     l2993:
  8361  0964  30DF               	movlw	223
  8362  0965  00FF               	movwf	btemp+1
  8363  0966  087F               	movf	btemp+1,w
  8364  0967  0585               	andwf	5,f	;volatile
  8365  0968                     l2995:
  8366  0968  30EF               	movlw	239
  8367  0969  00FF               	movwf	btemp+1
  8368  096A  087F               	movf	btemp+1,w
  8369  096B  0585               	andwf	5,f	;volatile
  8370  096C                     l206:
  8371  096C  1486               	bsf	6,1	;volatile
  8372  096D                     l210:
  8373  096D  1506               	bsf	6,2	;volatile
  8374  096E                     l214:
  8375  096E  1406               	bsf	6,0	;volatile
  8376  096F                     l218:
  8377  096F  1505               	bsf	5,2	;volatile
  8378  0970                     l222:
  8379  0970  1587               	bsf	7,3	;volatile
  8380  0971                     l226:
  8381  0971  1607               	bsf	7,4	;volatile
  8382  0972                     l3009:
  8383  0972  0188               	clrf	8	;volatile
  8384  0973                     l233:
  8385  0973  0008               	return
  8386  0974                     __end_of_GPIO_Init:
  8387                           
  8388                           	psect	text47
  8389  0862                     __ptext47:	
  8390 ;; *************** function _Elements_Init *****************
  8391 ;; Defined at:
  8392 ;;		line 23 in file "Elements/Elements.c"
  8393 ;; Parameters:    Size  Location     Type
  8394 ;;		None
  8395 ;; Auto vars:     Size  Location     Type
  8396 ;;		None
  8397 ;; Return value:  Size  Location     Type
  8398 ;;                  1    wreg      void 
  8399 ;; Registers used:
  8400 ;;		wreg, status,2, status,0, btemp+1
  8401 ;; Tracked objects:
  8402 ;;		On entry : 0/0
  8403 ;;		On exit  : 0/0
  8404 ;;		Unchanged: 0/0
  8405 ;; Data sizes:     COMMON   BANK0   BANK1   BANK3   BANK2
  8406 ;;      Params:         0       0       0       0       0
  8407 ;;      Locals:         0       0       0       0       0
  8408 ;;      Temps:          0       0       0       0       0
  8409 ;;      Totals:         0       0       0       0       0
  8410 ;;Total ram usage:        0 bytes
  8411 ;; Hardware stack levels used:    1
  8412 ;; Hardware stack levels required when called:    4
  8413 ;; This function calls:
  8414 ;;		Nothing
  8415 ;; This function is called by:
  8416 ;;		_main
  8417 ;; This function uses a non-reentrant model
  8418 ;;
  8419                           
  8420                           
  8421                           ;psect for function _Elements_Init
  8422  0862                     _Elements_Init:
  8423  0862                     l3031:	
  8424                           ;incstack = 0
  8425                           ; Regs used in _Elements_Init: [wreg+status,2+status,0+btemp+1]
  8426                           
  8427                           
  8428                           ;Elements/Elements.c: 25:  LED_Status=_LED_OFF;
  8429  0862  1283               	bcf	3,5	;RP0=0, select bank0
  8430  0863  1303               	bcf	3,6	;RP1=0, select bank0
  8431  0864  01CB               	clrf	_LED_Status
  8432  0865                     l3033:
  8433                           
  8434                           ;Elements/Elements.c: 26:  (PORTC &= ~(1<<5));
  8435  0865  30DF               	movlw	223
  8436  0866  00FF               	movwf	btemp+1
  8437  0867  087F               	movf	btemp+1,w
  8438  0868  0587               	andwf	7,f	;volatile
  8439  0869                     l3035:
  8440                           
  8441                           ;Elements/Elements.c: 27:  (PORTC &= ~(1<<2));
  8442  0869  30FB               	movlw	251
  8443  086A  00FF               	movwf	btemp+1
  8444  086B  087F               	movf	btemp+1,w
  8445  086C  0587               	andwf	7,f	;volatile
  8446  086D                     l151:
  8447  086D  0008               	return
  8448  086E                     __end_of_Elements_Init:
  8449                           
  8450                           	psect	text48
  8451  0819                     __ptext48:	
  8452 ;; *************** function _ADC_Start_Conv *****************
  8453 ;; Defined at:
  8454 ;;		line 58 in file "ADC/ADC.c"
  8455 ;; Parameters:    Size  Location     Type
  8456 ;;		None
  8457 ;; Auto vars:     Size  Location     Type
  8458 ;;		None
  8459 ;; Return value:  Size  Location     Type
  8460 ;;                  1    wreg      void 
  8461 ;; Registers used:
  8462 ;;		None
  8463 ;; Tracked objects:
  8464 ;;		On entry : 0/0
  8465 ;;		On exit  : 0/0
  8466 ;;		Unchanged: 0/0
  8467 ;; Data sizes:     COMMON   BANK0   BANK1   BANK3   BANK2
  8468 ;;      Params:         0       0       0       0       0
  8469 ;;      Locals:         0       0       0       0       0
  8470 ;;      Temps:          0       0       0       0       0
  8471 ;;      Totals:         0       0       0       0       0
  8472 ;;Total ram usage:        0 bytes
  8473 ;; Hardware stack levels used:    1
  8474 ;; Hardware stack levels required when called:    4
  8475 ;; This function calls:
  8476 ;;		Nothing
  8477 ;; This function is called by:
  8478 ;;		_main
  8479 ;; This function uses a non-reentrant model
  8480 ;;
  8481                           
  8482                           
  8483                           ;psect for function _ADC_Start_Conv
  8484  0819                     _ADC_Start_Conv:
  8485  0819                     l2983:	
  8486                           ;incstack = 0
  8487                           ; Regs used in _ADC_Start_Conv: []
  8488                           
  8489                           
  8490                           ;ADC/ADC.c: 60:  if (ADC_Info.ADC_INIT_FLAG==1)
  8491  0819  1283               	bcf	3,5	;RP0=0, select bank0
  8492  081A  1303               	bcf	3,6	;RP1=0, select bank0
  8493  081B  1C4D               	btfss	_ADC_Info,0
  8494  081C  281E               	goto	u3711
  8495  081D  281F               	goto	u3710
  8496  081E                     u3711:
  8497  081E  2821               	goto	l17
  8498  081F                     u3710:
  8499  081F                     l2985:
  8500                           
  8501                           ;ADC/ADC.c: 61:  {;ADC/ADC.c: 62:      ADCON0bits.GO_DONE=1 ;
  8502  081F  151F               	bsf	31,2	;volatile
  8503                           
  8504                           ;ADC/ADC.c: 63:      ADC_Info.ADC_START_FLAG=1;
  8505  0820  14CD               	bsf	_ADC_Info,1
  8506  0821                     l17:
  8507  0821  0008               	return
  8508  0822                     __end_of_ADC_Start_Conv:
  8509                           
  8510                           	psect	text49
  8511  093B                     __ptext49:	
  8512 ;; *************** function _ADC_Init *****************
  8513 ;; Defined at:
  8514 ;;		line 22 in file "ADC/ADC.c"
  8515 ;; Parameters:    Size  Location     Type
  8516 ;;		None
  8517 ;; Auto vars:     Size  Location     Type
  8518 ;;		None
  8519 ;; Return value:  Size  Location     Type
  8520 ;;                  1    wreg      void 
  8521 ;; Registers used:
  8522 ;;		None
  8523 ;; Tracked objects:
  8524 ;;		On entry : 0/0
  8525 ;;		On exit  : 0/0
  8526 ;;		Unchanged: 0/0
  8527 ;; Data sizes:     COMMON   BANK0   BANK1   BANK3   BANK2
  8528 ;;      Params:         0       0       0       0       0
  8529 ;;      Locals:         0       0       0       0       0
  8530 ;;      Temps:          0       0       0       0       0
  8531 ;;      Totals:         0       0       0       0       0
  8532 ;;Total ram usage:        0 bytes
  8533 ;; Hardware stack levels used:    1
  8534 ;; Hardware stack levels required when called:    4
  8535 ;; This function calls:
  8536 ;;		Nothing
  8537 ;; This function is called by:
  8538 ;;		_main
  8539 ;; This function uses a non-reentrant model
  8540 ;;
  8541                           
  8542                           
  8543                           ;psect for function _ADC_Init
  8544  093B                     _ADC_Init:
  8545  093B                     l2981:	
  8546                           ;incstack = 0
  8547                           ; Regs used in _ADC_Init: []
  8548                           
  8549                           
  8550                           ;ADC/ADC.c: 25:     ADCON1bits.ADFM=1;
  8551  093B  1683               	bsf	3,5	;RP0=1, select bank1
  8552  093C  1303               	bcf	3,6	;RP1=0, select bank1
  8553  093D  179F               	bsf	31,7	;volatile
  8554                           
  8555                           ;ADC/ADC.c: 27:     ADCON0bits.ADCS0=1 ;
  8556  093E  1283               	bcf	3,5	;RP0=0, select bank0
  8557  093F  1303               	bcf	3,6	;RP1=0, select bank0
  8558  0940  171F               	bsf	31,6	;volatile
  8559                           
  8560                           ;ADC/ADC.c: 28:     ADCON0bits.ADCS1=0;
  8561  0941  139F               	bcf	31,7	;volatile
  8562                           
  8563                           ;ADC/ADC.c: 29:     ADCON1bits.ADCS2=1 ;
  8564  0942  1683               	bsf	3,5	;RP0=1, select bank1
  8565  0943  1303               	bcf	3,6	;RP1=0, select bank1
  8566  0944  171F               	bsf	31,6	;volatile
  8567                           
  8568                           ;ADC/ADC.c: 32:     ADCON0bits.CHS0=0;
  8569  0945  1283               	bcf	3,5	;RP0=0, select bank0
  8570  0946  1303               	bcf	3,6	;RP1=0, select bank0
  8571  0947  119F               	bcf	31,3	;volatile
  8572                           
  8573                           ;ADC/ADC.c: 33:     ADCON0bits.CHS1=1;
  8574  0948  161F               	bsf	31,4	;volatile
  8575                           
  8576                           ;ADC/ADC.c: 34:     ADCON0bits.CHS2=0;
  8577  0949  129F               	bcf	31,5	;volatile
  8578                           
  8579                           ;ADC/ADC.c: 37:     ADCON1bits.PCFG0=0;
  8580  094A  1683               	bsf	3,5	;RP0=1, select bank1
  8581  094B  1303               	bcf	3,6	;RP1=0, select bank1
  8582  094C  101F               	bcf	31,0	;volatile
  8583                           
  8584                           ;ADC/ADC.c: 38:     ADCON1bits.PCFG1=1;
  8585  094D  149F               	bsf	31,1	;volatile
  8586                           
  8587                           ;ADC/ADC.c: 39:     ADCON1bits.PCFG2=0;
  8588  094E  111F               	bcf	31,2	;volatile
  8589                           
  8590                           ;ADC/ADC.c: 40:     ADCON1bits.PCFG3=0;
  8591  094F  119F               	bcf	31,3	;volatile
  8592                           
  8593                           ;ADC/ADC.c: 42:     ADCON0bits.ADON=1;
  8594  0950  1283               	bcf	3,5	;RP0=0, select bank0
  8595  0951  1303               	bcf	3,6	;RP1=0, select bank0
  8596  0952  141F               	bsf	31,0	;volatile
  8597                           
  8598                           ;ADC/ADC.c: 43:     ADCON0bits.GO_DONE=0;
  8599  0953  111F               	bcf	31,2	;volatile
  8600                           
  8601                           ;ADC/ADC.c: 44:     ADC_Info.ADC_INIT_FLAG=1;
  8602  0954  144D               	bsf	_ADC_Info,0
  8603  0955                     l13:
  8604  0955  0008               	return
  8605  0956                     __end_of_ADC_Init:
  8606                           
  8607                           	psect	text50
  8608  0ABF                     __ptext50:	
  8609 ;; *************** function _myISR *****************
  8610 ;; Defined at:
  8611 ;;		line 9 in file "Interrupt/Interrupt.c"
  8612 ;; Parameters:    Size  Location     Type
  8613 ;;		None
  8614 ;; Auto vars:     Size  Location     Type
  8615 ;;		None
  8616 ;; Return value:  Size  Location     Type
  8617 ;;                  1    wreg      void 
  8618 ;; Registers used:
  8619 ;;		wreg, fsr0l, fsr0h, status,2, status,0, btemp+1, pclath, cstack
  8620 ;; Tracked objects:
  8621 ;;		On entry : 0/0
  8622 ;;		On exit  : 0/0
  8623 ;;		Unchanged: 0/0
  8624 ;; Data sizes:     COMMON   BANK0   BANK1   BANK3   BANK2
  8625 ;;      Params:         0       0       0       0       0
  8626 ;;      Locals:         0       0       0       0       0
  8627 ;;      Temps:          0       4       0       0       0
  8628 ;;      Totals:         0       4       0       0       0
  8629 ;;Total ram usage:        4 bytes
  8630 ;; Hardware stack levels used:    1
  8631 ;; Hardware stack levels required when called:    3
  8632 ;; This function calls:
  8633 ;;		_EXTI_On_Off_CallBack
  8634 ;;		_Timer0_CallBack
  8635 ;; This function is called by:
  8636 ;;		Interrupt level 1
  8637 ;; This function uses a non-reentrant model
  8638 ;;
  8639                           
  8640                           
  8641                           ;psect for function _myISR
  8642  0ABF                     _myISR:
  8643  0ABF                     i1l3975:
  8644                           
  8645                           ;Interrupt/Interrupt.c: 12:  if(INTCONbits.INTF)
  8646  0ABF  1C8B               	btfss	11,1	;volatile
  8647  0AC0  2AC2               	goto	u557_21
  8648  0AC1  2AC3               	goto	u557_20
  8649  0AC2                     u557_21:
  8650  0AC2  2AD1               	goto	i1l250
  8651  0AC3                     u557_20:
  8652  0AC3                     i1l3977:
  8653                           
  8654                           ;Interrupt/Interrupt.c: 13:  {;Interrupt/Interrupt.c: 14:         INTCONbits.INTF=0;
  8655  0AC3  108B               	bcf	11,1	;volatile
  8656  0AC4                     i1l3979:
  8657                           
  8658                           ;Interrupt/Interrupt.c: 15:   Interrupt_CallBack.ExtiCallBack();
  8659  0AC4  3010               	movlw	low (_Interrupt_CallBack-__stringbase)
  8660  0AC5  0084               	movwf	4
  8661  0AC6  120A  158A  2000  120A  158A  	fcall	stringdir
  8662  0ACB  120A  118A  205C  120A  158A  	fcall	i1fptable
  8663                           
  8664                           ;Interrupt/Interrupt.c: 16:  }
  8665  0AD0  2AE4               	goto	i1l253
  8666  0AD1                     i1l250:	
  8667                           ;Interrupt/Interrupt.c: 17:  else if(INTCONbits.TMR0IF)
  8668                           
  8669  0AD1  1D0B               	btfss	11,2	;volatile
  8670  0AD2  2AD4               	goto	u558_21
  8671  0AD3  2AD5               	goto	u558_20
  8672  0AD4                     u558_21:
  8673  0AD4  2AE4               	goto	i1l253
  8674  0AD5                     u558_20:
  8675  0AD5                     i1l3981:
  8676                           
  8677                           ;Interrupt/Interrupt.c: 18:  {;Interrupt/Interrupt.c: 19:         INTCONbits.TMR0IF=0;
  8678  0AD5  110B               	bcf	11,2	;volatile
  8679  0AD6                     i1l3983:
  8680                           
  8681                           ;Interrupt/Interrupt.c: 20:         TMR0=100;
  8682  0AD6  3064               	movlw	100
  8683  0AD7  0081               	movwf	1	;volatile
  8684  0AD8                     i1l3985:
  8685                           
  8686                           ;Interrupt/Interrupt.c: 22:   Interrupt_CallBack.Timer0CallBack();
  8687  0AD8  3011               	movlw	low (((_Interrupt_CallBack+1)-__stringbase)| (0+32768))
  8688  0AD9  0084               	movwf	4
  8689  0ADA  120A  158A  2000  120A  158A  	fcall	stringdir
  8690  0ADF  120A  118A  205C  120A  158A  	fcall	i1fptable
  8691  0AE4                     i1l253:
  8692  0AE4  1283               	bcf	3,5	;RP0=0, select bank0
  8693  0AE5  1303               	bcf	3,6	;RP1=0, select bank0
  8694  0AE6  0835               	movf	??_myISR+3,w
  8695  0AE7  00FF               	movwf	btemp+1
  8696  0AE8  0834               	movf	??_myISR+2,w
  8697  0AE9  008A               	movwf	10
  8698  0AEA  0833               	movf	??_myISR+1,w
  8699  0AEB  0084               	movwf	4
  8700  0AEC  0E32               	swapf	??_myISR^0,w
  8701  0AED  0083               	movwf	3
  8702  0AEE  0EFE               	swapf	btemp,f
  8703  0AEF  0E7E               	swapf	btemp,w
  8704  0AF0  0009               	retfie
  8705  0AF1                     __end_of_myISR:
  8706                           
  8707                           	psect	intentry
  8708  0004                     __pintentry:	
  8709                           ;incstack = 0
  8710 ;; hardware stack exceeded
  8711                           ; Regs used in _myISR: [wreg-fsr0h+status,2+status,0+btemp+1+pclath+cstack]
  8712                           
  8713  0004                     interrupt_function:
  8714  007E                     saved_w	set	btemp
  8715  0004  00FE               	movwf	btemp
  8716  0005  0E03               	swapf	3,w
  8717  0006  1283               	bcf	3,5	;RP0=0, select bank0
  8718  0007  1303               	bcf	3,6	;RP1=0, select bank0
  8719  0008  00B2               	movwf	??_myISR
  8720  0009  0804               	movf	4,w
  8721  000A  00B3               	movwf	??_myISR+1
  8722  000B  080A               	movf	10,w
  8723  000C  00B4               	movwf	??_myISR+2
  8724  000D  087F               	movf	btemp+1,w
  8725  000E  00B5               	movwf	??_myISR+3
  8726  000F  120A  158A  2ABF   	ljmp	_myISR
  8727                           
  8728                           	psect	text51
  8729  0A63                     __ptext51:	
  8730 ;; *************** function _Timer0_CallBack *****************
  8731 ;; Defined at:
  8732 ;;		line 54 in file "Timer/Timer.c"
  8733 ;; Parameters:    Size  Location     Type
  8734 ;;		None
  8735 ;; Auto vars:     Size  Location     Type
  8736 ;;		None
  8737 ;; Return value:  Size  Location     Type
  8738 ;;                  1    wreg      void 
  8739 ;; Registers used:
  8740 ;;		wreg, fsr0l, fsr0h, status,2, status,0, btemp+1, pclath, cstack
  8741 ;; Tracked objects:
  8742 ;;		On entry : 0/0
  8743 ;;		On exit  : 0/0
  8744 ;;		Unchanged: 0/0
  8745 ;; Data sizes:     COMMON   BANK0   BANK1   BANK3   BANK2
  8746 ;;      Params:         0       0       0       0       0
  8747 ;;      Locals:         0       0       0       0       0
  8748 ;;      Temps:          0       0       0       0       0
  8749 ;;      Totals:         0       0       0       0       0
  8750 ;;Total ram usage:        0 bytes
  8751 ;; Hardware stack levels used:    1
  8752 ;; Hardware stack levels required when called:    2
  8753 ;; This function calls:
  8754 ;;		_Scheduler_ActivateTask
  8755 ;; This function is called by:
  8756 ;;		_myISR
  8757 ;; This function uses a non-reentrant model
  8758 ;;
  8759                           
  8760                           
  8761                           ;psect for function _Timer0_CallBack
  8762  0A63                     _Timer0_CallBack:
  8763  0A63                     i1l3949:	
  8764                           ;incstack = 0
  8765 ;; hardware stack exceeded
  8766                           ; Regs used in _Timer0_CallBack: [wreg-fsr0h+status,2+status,0+btemp+1+pclath+cstack]
  8767                           
  8768                           
  8769                           ;Timer/Timer.c: 56:  Tick_Num++;
  8770  0A63  3001               	movlw	1
  8771  0A64  1683               	bsf	3,5	;RP0=1, select bank1
  8772  0A65  1303               	bcf	3,6	;RP1=0, select bank1
  8773  0A66  07CD               	addwf	_Tick_Num^(0+128),f
  8774  0A67  3000               	movlw	0
  8775  0A68  1803               	skipnc
  8776  0A69  3001               	movlw	1
  8777  0A6A  07CE               	addwf	(_Tick_Num+1)^(0+128),f
  8778  0A6B  3000               	movlw	0
  8779  0A6C  1803               	skipnc
  8780  0A6D  3001               	movlw	1
  8781  0A6E  07CF               	addwf	(_Tick_Num+2)^(0+128),f
  8782  0A6F  3000               	movlw	0
  8783  0A70  1803               	skipnc
  8784  0A71  3001               	movlw	1
  8785  0A72  07D0               	addwf	(_Tick_Num+3)^(0+128),f
  8786  0A73                     i1l3951:
  8787                           
  8788                           ;Timer/Timer.c: 57:  Scheduler_ActivateTask(Tick_Num );
  8789  0A73  0850               	movf	(_Tick_Num+3)^(0+128),w
  8790  0A74  1283               	bcf	3,5	;RP0=0, select bank0
  8791  0A75  1303               	bcf	3,6	;RP1=0, select bank0
  8792  0A76  00B0               	movwf	Scheduler_ActivateTask@SystemTick+3
  8793  0A77  1683               	bsf	3,5	;RP0=1, select bank1
  8794  0A78  1303               	bcf	3,6	;RP1=0, select bank1
  8795  0A79  084F               	movf	(_Tick_Num+2)^(0+128),w
  8796  0A7A  1283               	bcf	3,5	;RP0=0, select bank0
  8797  0A7B  1303               	bcf	3,6	;RP1=0, select bank0
  8798  0A7C  00AF               	movwf	Scheduler_ActivateTask@SystemTick+2
  8799  0A7D  1683               	bsf	3,5	;RP0=1, select bank1
  8800  0A7E  1303               	bcf	3,6	;RP1=0, select bank1
  8801  0A7F  084E               	movf	(_Tick_Num+1)^(0+128),w
  8802  0A80  1283               	bcf	3,5	;RP0=0, select bank0
  8803  0A81  1303               	bcf	3,6	;RP1=0, select bank0
  8804  0A82  00AE               	movwf	Scheduler_ActivateTask@SystemTick+1
  8805  0A83  1683               	bsf	3,5	;RP0=1, select bank1
  8806  0A84  1303               	bcf	3,6	;RP1=0, select bank1
  8807  0A85  084D               	movf	_Tick_Num^(0+128),w
  8808  0A86  1283               	bcf	3,5	;RP0=0, select bank0
  8809  0A87  1303               	bcf	3,6	;RP1=0, select bank0
  8810  0A88  00AD               	movwf	Scheduler_ActivateTask@SystemTick
  8811  0A89  120A  158A  2642  120A  158A  	fcall	_Scheduler_ActivateTask
  8812  0A8E                     i1l356:
  8813  0A8E  0008               	return
  8814  0A8F                     __end_of_Timer0_CallBack:
  8815                           
  8816                           	psect	text52
  8817  0E42                     __ptext52:	
  8818 ;; *************** function _Scheduler_ActivateTask *****************
  8819 ;; Defined at:
  8820 ;;		line 35 in file "Scheduler/Scheduler.c"
  8821 ;; Parameters:    Size  Location     Type
  8822 ;;  SystemTick      4   13[BANK0 ] unsigned long 
  8823 ;; Auto vars:     Size  Location     Type
  8824 ;;  IntityIndex     1   17[BANK0 ] unsigned char 
  8825 ;; Return value:  Size  Location     Type
  8826 ;;                  1    wreg      void 
  8827 ;; Registers used:
  8828 ;;		wreg, fsr0l, fsr0h, status,2, status,0, btemp+1, pclath, cstack
  8829 ;; Tracked objects:
  8830 ;;		On entry : 0/0
  8831 ;;		On exit  : 0/0
  8832 ;;		Unchanged: 0/0
  8833 ;; Data sizes:     COMMON   BANK0   BANK1   BANK3   BANK2
  8834 ;;      Params:         0       4       0       0       0
  8835 ;;      Locals:         0       1       0       0       0
  8836 ;;      Temps:          0       0       0       0       0
  8837 ;;      Totals:         0       5       0       0       0
  8838 ;;Total ram usage:        5 bytes
  8839 ;; Hardware stack levels used:    1
  8840 ;; Hardware stack levels required when called:    1
  8841 ;; This function calls:
  8842 ;;		___llmod
  8843 ;;		i1___bmul
  8844 ;;		i1___lldiv
  8845 ;; This function is called by:
  8846 ;;		_Timer0_CallBack
  8847 ;; This function uses a non-reentrant model
  8848 ;;
  8849                           
  8850                           
  8851                           ;psect for function _Scheduler_ActivateTask
  8852  0E42                     _Scheduler_ActivateTask:
  8853  0E42                     i1l3861:	
  8854                           ;incstack = 0
  8855 ;; hardware stack exceeded
  8856                           ; Regs used in _Scheduler_ActivateTask: [wreg-fsr0h+status,2+status,0+btemp+1+pclath+cst
      +                          ack]
  8857                           
  8858                           
  8859                           ;Scheduler/Scheduler.c: 35: void Scheduler_ActivateTask(uint32_t SystemTick);Scheduler/S
      +                          cheduler.c: 36: {;Scheduler/Scheduler.c: 38:   for( uint8_t IntityIndex = 0 ; IntityInde
      +                          x < ( 3U ) ; IntityIndex++ )
  8860  0E42  1283               	bcf	3,5	;RP0=0, select bank0
  8861  0E43  1303               	bcf	3,6	;RP1=0, select bank0
  8862  0E44  01B1               	clrf	Scheduler_ActivateTask@IntityIndex
  8863  0E45                     i1l3867:
  8864                           
  8865                           ;Scheduler/Scheduler.c: 39:   {;Scheduler/Scheduler.c: 40:     if( ( ((SystemTick)%(Sche
      +                          duler_Intitys[IntityIndex].Peroid/(20UL)))?0:1 ) )
  8866  0E45  3000               	movlw	0
  8867  0E46  00F6               	movwf	i1___lldiv@divisor+3
  8868  0E47  3000               	movlw	0
  8869  0E48  00F5               	movwf	i1___lldiv@divisor+2
  8870  0E49  3000               	movlw	0
  8871  0E4A  00F4               	movwf	i1___lldiv@divisor+1
  8872  0E4B  3014               	movlw	20
  8873  0E4C  00F3               	movwf	i1___lldiv@divisor
  8874  0E4D  3005               	movlw	5
  8875  0E4E  00FF               	movwf	btemp+1
  8876  0E4F  087F               	movf	btemp+1,w
  8877  0E50  00F0               	movwf	i1___bmul@multiplicand
  8878  0E51  0831               	movf	Scheduler_ActivateTask@IntityIndex,w
  8879  0E52  120A  158A  20C8  120A  158A  	fcall	i1___bmul
  8880  0E57  3E02               	addlw	low (((_Scheduler_Intitys-__stringbase)| (0+32768)+1))
  8881  0E58  0084               	movwf	4
  8882  0E59  120A  158A  2000  120A  158A  	fcall	stringdir
  8883  0E5E  00F7               	movwf	i1___lldiv@dividend
  8884  0E5F  120A  158A  2000  120A  158A  	fcall	stringdir
  8885  0E64  00F8               	movwf	i1___lldiv@dividend+1
  8886  0E65  120A  158A  2000  120A  158A  	fcall	stringdir
  8887  0E6A  00F9               	movwf	i1___lldiv@dividend+2
  8888  0E6B  120A  158A  2000  120A  158A  	fcall	stringdir
  8889  0E70  00FA               	movwf	i1___lldiv@dividend+3
  8890  0E71  120A  158A  270E  120A  158A  	fcall	i1___lldiv
  8891  0E76  0876               	movf	?i1___lldiv+3,w
  8892  0E77  1283               	bcf	3,5	;RP0=0, select bank0
  8893  0E78  1303               	bcf	3,6	;RP1=0, select bank0
  8894  0E79  00A8               	movwf	___llmod@divisor+3
  8895  0E7A  0875               	movf	?i1___lldiv+2,w
  8896  0E7B  00A7               	movwf	___llmod@divisor+2
  8897  0E7C  0874               	movf	?i1___lldiv+1,w
  8898  0E7D  00A6               	movwf	___llmod@divisor+1
  8899  0E7E  0873               	movf	?i1___lldiv,w
  8900  0E7F  00A5               	movwf	___llmod@divisor
  8901  0E80  0830               	movf	Scheduler_ActivateTask@SystemTick+3,w
  8902  0E81  00AC               	movwf	___llmod@dividend+3
  8903  0E82  082F               	movf	Scheduler_ActivateTask@SystemTick+2,w
  8904  0E83  00AB               	movwf	___llmod@dividend+2
  8905  0E84  082E               	movf	Scheduler_ActivateTask@SystemTick+1,w
  8906  0E85  00AA               	movwf	___llmod@dividend+1
  8907  0E86  082D               	movf	Scheduler_ActivateTask@SystemTick,w
  8908  0E87  00A9               	movwf	___llmod@dividend
  8909  0E88  120A  158A  24D8  120A  158A  	fcall	___llmod
  8910  0E8D  1283               	bcf	3,5	;RP0=0, select bank0
  8911  0E8E  1303               	bcf	3,6	;RP1=0, select bank0
  8912  0E8F  0828               	movf	?___llmod+3,w
  8913  0E90  0427               	iorwf	?___llmod+2,w
  8914  0E91  0426               	iorwf	?___llmod+1,w
  8915  0E92  0425               	iorwf	?___llmod,w
  8916  0E93  1D03               	skipz
  8917  0E94  2E96               	goto	u548_21
  8918  0E95  2E97               	goto	u548_20
  8919  0E96                     u548_21:
  8920  0E96  2E9D               	goto	i1l3871
  8921  0E97                     u548_20:
  8922  0E97                     i1l3869:
  8923                           
  8924                           ;Scheduler/Scheduler.c: 41:     {;Scheduler/Scheduler.c: 42:      Scheduler_ActivationFl
      +                          ags[IntityIndex] = 1 ;
  8925  0E97  0831               	movf	Scheduler_ActivateTask@IntityIndex,w
  8926  0E98  3EDB               	addlw	(low (_Scheduler_ActivationFlags| 0))& (0+255)
  8927  0E99  0084               	movwf	4
  8928  0E9A  1383               	bcf	3,7	;select IRP bank1
  8929  0E9B  0180               	clrf	0
  8930  0E9C  0A80               	incf	0,f
  8931  0E9D                     i1l3871:
  8932                           
  8933                           ;Scheduler/Scheduler.c: 44:   }
  8934  0E9D  3001               	movlw	1
  8935  0E9E  00FF               	movwf	btemp+1
  8936  0E9F  087F               	movf	btemp+1,w
  8937  0EA0  07B1               	addwf	Scheduler_ActivateTask@IntityIndex,f
  8938  0EA1                     i1l3873:
  8939  0EA1  3003               	movlw	3
  8940  0EA2  0231               	subwf	Scheduler_ActivateTask@IntityIndex,w
  8941  0EA3  1C03               	skipc
  8942  0EA4  2EA6               	goto	u549_21
  8943  0EA5  2EA7               	goto	u549_20
  8944  0EA6                     u549_21:
  8945  0EA6  2E45               	goto	i1l3867
  8946  0EA7                     u549_20:
  8947  0EA7                     i1l277:
  8948  0EA7  0008               	return
  8949  0EA8                     __end_of_Scheduler_ActivateTask:
  8950                           
  8951                           	psect	text53
  8952  0F0E                     __ptext53:	
  8953 ;; *************** function i1___lldiv *****************
  8954 ;; Defined at:
  8955 ;;		line 5 in file "C:\Program Files (x86)\Microchip\xc8\v2.20\pic\sources\c90\common\__lldiv.c"
  8956 ;; Parameters:    Size  Location     Type
  8957 ;;  divisor         4    3[COMMON] unsigned long 
  8958 ;;  dividend        4    7[COMMON] unsigned long 
  8959 ;; Auto vars:     Size  Location     Type
  8960 ;;  quotient        4    0[BANK0 ] unsigned long 
  8961 ;;  counter         1    4[BANK0 ] unsigned char 
  8962 ;; Return value:  Size  Location     Type
  8963 ;;                  4    3[COMMON] unsigned long 
  8964 ;; Registers used:
  8965 ;;		wreg, status,2, status,0, btemp+1
  8966 ;; Tracked objects:
  8967 ;;		On entry : 0/0
  8968 ;;		On exit  : 0/0
  8969 ;;		Unchanged: 0/0
  8970 ;; Data sizes:     COMMON   BANK0   BANK1   BANK3   BANK2
  8971 ;;      Params:         8       0       0       0       0
  8972 ;;      Locals:         0       5       0       0       0
  8973 ;;      Temps:          1       0       0       0       0
  8974 ;;      Totals:         9       5       0       0       0
  8975 ;;Total ram usage:       14 bytes
  8976 ;; Hardware stack levels used:    1
  8977 ;; This function calls:
  8978 ;;		Nothing
  8979 ;; This function is called by:
  8980 ;;		_Scheduler_ActivateTask
  8981 ;; This function uses a non-reentrant model
  8982 ;;
  8983                           
  8984                           
  8985                           ;psect for function i1___lldiv
  8986  0F0E                     i1___lldiv:
  8987  0F0E                     i1l2873:	
  8988                           ;incstack = 0
  8989 ;; hardware stack exceeded
  8990                           ; Regs used in i1___lldiv: [wreg+status,2+status,0+btemp+1]
  8991                           
  8992  0F0E  3000               	movlw	0
  8993  0F0F  1283               	bcf	3,5	;RP0=0, select bank0
  8994  0F10  1303               	bcf	3,6	;RP1=0, select bank0
  8995  0F11  00A3               	movwf	i1___lldiv@quotient+3
  8996  0F12  3000               	movlw	0
  8997  0F13  00A2               	movwf	i1___lldiv@quotient+2
  8998  0F14  3000               	movlw	0
  8999  0F15  00A1               	movwf	i1___lldiv@quotient+1
  9000  0F16  3000               	movlw	0
  9001  0F17  00A0               	movwf	i1___lldiv@quotient
  9002  0F18  0876               	movf	i1___lldiv@divisor+3,w
  9003  0F19  0475               	iorwf	i1___lldiv@divisor+2,w
  9004  0F1A  0474               	iorwf	i1___lldiv@divisor+1,w
  9005  0F1B  0473               	iorwf	i1___lldiv@divisor,w
  9006  0F1C  1903               	skipnz
  9007  0F1D  2F1F               	goto	u357_21
  9008  0F1E  2F20               	goto	u357_20
  9009  0F1F                     u357_21:
  9010  0F1F  2F6D               	goto	i1l2895
  9011  0F20                     u357_20:
  9012  0F20                     i1l2875:
  9013  0F20  01A4               	clrf	i1___lldiv@counter
  9014  0F21  0AA4               	incf	i1___lldiv@counter,f
  9015  0F22  2F30               	goto	i1l2881
  9016  0F23                     i1l2877:
  9017  0F23  3001               	movlw	1
  9018  0F24  00FB               	movwf	??i1___lldiv
  9019  0F25                     u358_25:
  9020  0F25  1003               	clrc
  9021  0F26  0DF3               	rlf	i1___lldiv@divisor,f
  9022  0F27  0DF4               	rlf	i1___lldiv@divisor+1,f
  9023  0F28  0DF5               	rlf	i1___lldiv@divisor+2,f
  9024  0F29  0DF6               	rlf	i1___lldiv@divisor+3,f
  9025  0F2A  0BFB               	decfsz	??i1___lldiv,f
  9026  0F2B  2F25               	goto	u358_25
  9027  0F2C                     i1l2879:
  9028  0F2C  3001               	movlw	1
  9029  0F2D  00FF               	movwf	btemp+1
  9030  0F2E  087F               	movf	btemp+1,w
  9031  0F2F  07A4               	addwf	i1___lldiv@counter,f
  9032  0F30                     i1l2881:
  9033  0F30  1FF6               	btfss	i1___lldiv@divisor+3,7
  9034  0F31  2F33               	goto	u359_21
  9035  0F32  2F34               	goto	u359_20
  9036  0F33                     u359_21:
  9037  0F33  2F23               	goto	i1l2877
  9038  0F34                     u359_20:
  9039  0F34                     i1l2883:
  9040  0F34  3001               	movlw	1
  9041  0F35  00FB               	movwf	??i1___lldiv
  9042  0F36                     u360_25:
  9043  0F36  1003               	clrc
  9044  0F37  0DA0               	rlf	i1___lldiv@quotient,f
  9045  0F38  0DA1               	rlf	i1___lldiv@quotient+1,f
  9046  0F39  0DA2               	rlf	i1___lldiv@quotient+2,f
  9047  0F3A  0DA3               	rlf	i1___lldiv@quotient+3,f
  9048  0F3B  0BFB               	decfsz	??i1___lldiv,f
  9049  0F3C  2F36               	goto	u360_25
  9050  0F3D                     i1l2885:
  9051  0F3D  0876               	movf	i1___lldiv@divisor+3,w
  9052  0F3E  027A               	subwf	i1___lldiv@dividend+3,w
  9053  0F3F  1D03               	skipz
  9054  0F40  2F4B               	goto	u361_25
  9055  0F41  0875               	movf	i1___lldiv@divisor+2,w
  9056  0F42  0279               	subwf	i1___lldiv@dividend+2,w
  9057  0F43  1D03               	skipz
  9058  0F44  2F4B               	goto	u361_25
  9059  0F45  0874               	movf	i1___lldiv@divisor+1,w
  9060  0F46  0278               	subwf	i1___lldiv@dividend+1,w
  9061  0F47  1D03               	skipz
  9062  0F48  2F4B               	goto	u361_25
  9063  0F49  0873               	movf	i1___lldiv@divisor,w
  9064  0F4A  0277               	subwf	i1___lldiv@dividend,w
  9065  0F4B                     u361_25:
  9066  0F4B  1C03               	skipc
  9067  0F4C  2F4E               	goto	u361_21
  9068  0F4D  2F4F               	goto	u361_20
  9069  0F4E                     u361_21:
  9070  0F4E  2F5E               	goto	i1l2891
  9071  0F4F                     u361_20:
  9072  0F4F                     i1l2887:
  9073  0F4F  0873               	movf	i1___lldiv@divisor,w
  9074  0F50  02F7               	subwf	i1___lldiv@dividend,f
  9075  0F51  0874               	movf	i1___lldiv@divisor+1,w
  9076  0F52  1C03               	skipc
  9077  0F53  0F74               	incfsz	i1___lldiv@divisor+1,w
  9078  0F54  02F8               	subwf	i1___lldiv@dividend+1,f
  9079  0F55  0875               	movf	i1___lldiv@divisor+2,w
  9080  0F56  1C03               	skipc
  9081  0F57  0F75               	incfsz	i1___lldiv@divisor+2,w
  9082  0F58  02F9               	subwf	i1___lldiv@dividend+2,f
  9083  0F59  0876               	movf	i1___lldiv@divisor+3,w
  9084  0F5A  1C03               	skipc
  9085  0F5B  0F76               	incfsz	i1___lldiv@divisor+3,w
  9086  0F5C  02FA               	subwf	i1___lldiv@dividend+3,f
  9087  0F5D                     i1l2889:
  9088  0F5D  1420               	bsf	i1___lldiv@quotient,0
  9089  0F5E                     i1l2891:
  9090  0F5E  3001               	movlw	1
  9091  0F5F                     u362_25:
  9092  0F5F  1003               	clrc
  9093  0F60  0CF6               	rrf	i1___lldiv@divisor+3,f
  9094  0F61  0CF5               	rrf	i1___lldiv@divisor+2,f
  9095  0F62  0CF4               	rrf	i1___lldiv@divisor+1,f
  9096  0F63  0CF3               	rrf	i1___lldiv@divisor,f
  9097  0F64  3EFF               	addlw	-1
  9098  0F65  1D03               	skipz
  9099  0F66  2F5F               	goto	u362_25
  9100  0F67                     i1l2893:
  9101  0F67  3001               	movlw	1
  9102  0F68  02A4               	subwf	i1___lldiv@counter,f
  9103  0F69  1D03               	btfss	3,2
  9104  0F6A  2F6C               	goto	u363_21
  9105  0F6B  2F6D               	goto	u363_20
  9106  0F6C                     u363_21:
  9107  0F6C  2F34               	goto	i1l2883
  9108  0F6D                     u363_20:
  9109  0F6D                     i1l2895:
  9110  0F6D  0823               	movf	i1___lldiv@quotient+3,w
  9111  0F6E  00F6               	movwf	?i1___lldiv+3
  9112  0F6F  0822               	movf	i1___lldiv@quotient+2,w
  9113  0F70  00F5               	movwf	?i1___lldiv+2
  9114  0F71  0821               	movf	i1___lldiv@quotient+1,w
  9115  0F72  00F4               	movwf	?i1___lldiv+1
  9116  0F73  0820               	movf	i1___lldiv@quotient,w
  9117  0F74  00F3               	movwf	?i1___lldiv
  9118  0F75                     i1l683:
  9119  0F75  0008               	return
  9120  0F76                     __end_ofi1___lldiv:
  9121                           
  9122                           	psect	text54
  9123  08C8                     __ptext54:	
  9124 ;; *************** function i1___bmul *****************
  9125 ;; Defined at:
  9126 ;;		line 4 in file "C:\Program Files (x86)\Microchip\xc8\v2.20\pic\sources\c90\common\Umul8.c"
  9127 ;; Parameters:    Size  Location     Type
  9128 ;;  multiplier      1    wreg     unsigned char 
  9129 ;;  multiplicand    1    0[COMMON] unsigned char 
  9130 ;; Auto vars:     Size  Location     Type
  9131 ;;  multiplier      1    2[COMMON] unsigned char 
  9132 ;;  product         1    1[COMMON] unsigned char 
  9133 ;; Return value:  Size  Location     Type
  9134 ;;                  1    wreg      unsigned char 
  9135 ;; Registers used:
  9136 ;;		wreg, status,2, status,0, btemp+1
  9137 ;; Tracked objects:
  9138 ;;		On entry : 0/0
  9139 ;;		On exit  : 0/0
  9140 ;;		Unchanged: 0/0
  9141 ;; Data sizes:     COMMON   BANK0   BANK1   BANK3   BANK2
  9142 ;;      Params:         1       0       0       0       0
  9143 ;;      Locals:         2       0       0       0       0
  9144 ;;      Temps:          0       0       0       0       0
  9145 ;;      Totals:         3       0       0       0       0
  9146 ;;Total ram usage:        3 bytes
  9147 ;; Hardware stack levels used:    1
  9148 ;; This function calls:
  9149 ;;		Nothing
  9150 ;; This function is called by:
  9151 ;;		_Scheduler_ActivateTask
  9152 ;; This function uses a non-reentrant model
  9153 ;;
  9154                           
  9155                           
  9156                           ;psect for function i1___bmul
  9157  08C8                     i1___bmul:
  9158                           
  9159                           ;incstack = 0
  9160 ;; hardware stack exceeded
  9161                           ; Regs used in i1___bmul: [wreg+status,2+status,0+btemp+1]
  9162                           ;i1___bmul@multiplier stored from wreg
  9163  08C8  00F2               	movwf	i1___bmul@multiplier
  9164  08C9                     i1l2899:
  9165  08C9  01F1               	clrf	i1___bmul@product
  9166  08CA                     i1l2901:
  9167  08CA  1C72               	btfss	i1___bmul@multiplier,0
  9168  08CB  28CD               	goto	u364_21
  9169  08CC  28CE               	goto	u364_20
  9170  08CD                     u364_21:
  9171  08CD  28D2               	goto	i1l2905
  9172  08CE                     u364_20:
  9173  08CE                     i1l2903:
  9174  08CE  0870               	movf	i1___bmul@multiplicand,w
  9175  08CF  00FF               	movwf	btemp+1
  9176  08D0  087F               	movf	btemp+1,w
  9177  08D1  07F1               	addwf	i1___bmul@product,f
  9178  08D2                     i1l2905:
  9179  08D2  1003               	clrc
  9180  08D3  0DF0               	rlf	i1___bmul@multiplicand,f
  9181  08D4                     i1l2907:
  9182  08D4  1003               	clrc
  9183  08D5  0CF2               	rrf	i1___bmul@multiplier,f
  9184  08D6                     i1l2909:
  9185  08D6  0872               	movf	i1___bmul@multiplier,w
  9186  08D7  1D03               	btfss	3,2
  9187  08D8  28DA               	goto	u365_21
  9188  08D9  28DB               	goto	u365_20
  9189  08DA                     u365_21:
  9190  08DA  28CA               	goto	i1l2901
  9191  08DB                     u365_20:
  9192  08DB                     i1l2911:
  9193  08DB  0871               	movf	i1___bmul@product,w
  9194  08DC                     i1l673:
  9195  08DC  0008               	return
  9196  08DD                     __end_ofi1___bmul:
  9197                           
  9198                           	psect	text55
  9199  0CD8                     __ptext55:	
  9200 ;; *************** function ___llmod *****************
  9201 ;; Defined at:
  9202 ;;		line 5 in file "C:\Program Files (x86)\Microchip\xc8\v2.20\pic\sources\c90\common\llmod.c"
  9203 ;; Parameters:    Size  Location     Type
  9204 ;;  divisor         4    5[BANK0 ] unsigned long 
  9205 ;;  dividend        4    9[BANK0 ] unsigned long 
  9206 ;; Auto vars:     Size  Location     Type
  9207 ;;  counter         1   13[COMMON] unsigned char 
  9208 ;; Return value:  Size  Location     Type
  9209 ;;                  4    5[BANK0 ] unsigned long 
  9210 ;; Registers used:
  9211 ;;		wreg, status,2, status,0, btemp+1
  9212 ;; Tracked objects:
  9213 ;;		On entry : 0/0
  9214 ;;		On exit  : 0/0
  9215 ;;		Unchanged: 0/0
  9216 ;; Data sizes:     COMMON   BANK0   BANK1   BANK3   BANK2
  9217 ;;      Params:         0       8       0       0       0
  9218 ;;      Locals:         1       0       0       0       0
  9219 ;;      Temps:          1       0       0       0       0
  9220 ;;      Totals:         2       8       0       0       0
  9221 ;;Total ram usage:       10 bytes
  9222 ;; Hardware stack levels used:    1
  9223 ;; This function calls:
  9224 ;;		Nothing
  9225 ;; This function is called by:
  9226 ;;		_Scheduler_ActivateTask
  9227 ;; This function uses a non-reentrant model
  9228 ;;
  9229                           
  9230                           
  9231                           ;psect for function ___llmod
  9232  0CD8                     ___llmod:
  9233  0CD8                     i1l2851:	
  9234                           ;incstack = 0
  9235 ;; hardware stack exceeded
  9236                           ; Regs used in ___llmod: [wreg+status,2+status,0+btemp+1]
  9237                           
  9238  0CD8  1283               	bcf	3,5	;RP0=0, select bank0
  9239  0CD9  1303               	bcf	3,6	;RP1=0, select bank0
  9240  0CDA  0828               	movf	___llmod@divisor+3,w
  9241  0CDB  0427               	iorwf	___llmod@divisor+2,w
  9242  0CDC  0426               	iorwf	___llmod@divisor+1,w
  9243  0CDD  0425               	iorwf	___llmod@divisor,w
  9244  0CDE  1903               	skipnz
  9245  0CDF  2CE1               	goto	u351_21
  9246  0CE0  2CE2               	goto	u351_20
  9247  0CE1                     u351_21:
  9248  0CE1  2D25               	goto	i1l2869
  9249  0CE2                     u351_20:
  9250  0CE2                     i1l2853:
  9251  0CE2  01FD               	clrf	___llmod@counter
  9252  0CE3  0AFD               	incf	___llmod@counter,f
  9253  0CE4  2CF2               	goto	i1l2859
  9254  0CE5                     i1l2855:
  9255  0CE5  3001               	movlw	1
  9256  0CE6  00FC               	movwf	??___llmod
  9257  0CE7                     u352_25:
  9258  0CE7  1003               	clrc
  9259  0CE8  0DA5               	rlf	___llmod@divisor,f
  9260  0CE9  0DA6               	rlf	___llmod@divisor+1,f
  9261  0CEA  0DA7               	rlf	___llmod@divisor+2,f
  9262  0CEB  0DA8               	rlf	___llmod@divisor+3,f
  9263  0CEC  0BFC               	decfsz	??___llmod,f
  9264  0CED  2CE7               	goto	u352_25
  9265  0CEE                     i1l2857:
  9266  0CEE  3001               	movlw	1
  9267  0CEF  00FF               	movwf	btemp+1
  9268  0CF0  087F               	movf	btemp+1,w
  9269  0CF1  07FD               	addwf	___llmod@counter,f
  9270  0CF2                     i1l2859:
  9271  0CF2  1FA8               	btfss	___llmod@divisor+3,7
  9272  0CF3  2CF5               	goto	u353_21
  9273  0CF4  2CF6               	goto	u353_20
  9274  0CF5                     u353_21:
  9275  0CF5  2CE5               	goto	i1l2855
  9276  0CF6                     u353_20:
  9277  0CF6                     i1l2861:
  9278  0CF6  0828               	movf	___llmod@divisor+3,w
  9279  0CF7  022C               	subwf	___llmod@dividend+3,w
  9280  0CF8  1D03               	skipz
  9281  0CF9  2D04               	goto	u354_25
  9282  0CFA  0827               	movf	___llmod@divisor+2,w
  9283  0CFB  022B               	subwf	___llmod@dividend+2,w
  9284  0CFC  1D03               	skipz
  9285  0CFD  2D04               	goto	u354_25
  9286  0CFE  0826               	movf	___llmod@divisor+1,w
  9287  0CFF  022A               	subwf	___llmod@dividend+1,w
  9288  0D00  1D03               	skipz
  9289  0D01  2D04               	goto	u354_25
  9290  0D02  0825               	movf	___llmod@divisor,w
  9291  0D03  0229               	subwf	___llmod@dividend,w
  9292  0D04                     u354_25:
  9293  0D04  1C03               	skipc
  9294  0D05  2D07               	goto	u354_21
  9295  0D06  2D08               	goto	u354_20
  9296  0D07                     u354_21:
  9297  0D07  2D16               	goto	i1l2865
  9298  0D08                     u354_20:
  9299  0D08                     i1l2863:
  9300  0D08  0825               	movf	___llmod@divisor,w
  9301  0D09  02A9               	subwf	___llmod@dividend,f
  9302  0D0A  0826               	movf	___llmod@divisor+1,w
  9303  0D0B  1C03               	skipc
  9304  0D0C  0F26               	incfsz	___llmod@divisor+1,w
  9305  0D0D  02AA               	subwf	___llmod@dividend+1,f
  9306  0D0E  0827               	movf	___llmod@divisor+2,w
  9307  0D0F  1C03               	skipc
  9308  0D10  0F27               	incfsz	___llmod@divisor+2,w
  9309  0D11  02AB               	subwf	___llmod@dividend+2,f
  9310  0D12  0828               	movf	___llmod@divisor+3,w
  9311  0D13  1C03               	skipc
  9312  0D14  0F28               	incfsz	___llmod@divisor+3,w
  9313  0D15  02AC               	subwf	___llmod@dividend+3,f
  9314  0D16                     i1l2865:
  9315  0D16  3001               	movlw	1
  9316  0D17                     u355_25:
  9317  0D17  1003               	clrc
  9318  0D18  0CA8               	rrf	___llmod@divisor+3,f
  9319  0D19  0CA7               	rrf	___llmod@divisor+2,f
  9320  0D1A  0CA6               	rrf	___llmod@divisor+1,f
  9321  0D1B  0CA5               	rrf	___llmod@divisor,f
  9322  0D1C  3EFF               	addlw	-1
  9323  0D1D  1D03               	skipz
  9324  0D1E  2D17               	goto	u355_25
  9325  0D1F                     i1l2867:
  9326  0D1F  3001               	movlw	1
  9327  0D20  02FD               	subwf	___llmod@counter,f
  9328  0D21  1D03               	btfss	3,2
  9329  0D22  2D24               	goto	u356_21
  9330  0D23  2D25               	goto	u356_20
  9331  0D24                     u356_21:
  9332  0D24  2CF6               	goto	i1l2861
  9333  0D25                     u356_20:
  9334  0D25                     i1l2869:
  9335  0D25  082C               	movf	___llmod@dividend+3,w
  9336  0D26  00A8               	movwf	?___llmod+3
  9337  0D27  082B               	movf	___llmod@dividend+2,w
  9338  0D28  00A7               	movwf	?___llmod+2
  9339  0D29  082A               	movf	___llmod@dividend+1,w
  9340  0D2A  00A6               	movwf	?___llmod+1
  9341  0D2B  0829               	movf	___llmod@dividend,w
  9342  0D2C  00A5               	movwf	?___llmod
  9343  0D2D                     i1l869:
  9344  0D2D  0008               	return
  9345  0D2E                     __end_of___llmod:
  9346                           
  9347                           	psect	text56
  9348  08DD                     __ptext56:	
  9349 ;; *************** function _EXTI_On_Off_CallBack *****************
  9350 ;; Defined at:
  9351 ;;		line 43 in file "Buttons/Buttons.c"
  9352 ;; Parameters:    Size  Location     Type
  9353 ;;		None
  9354 ;; Auto vars:     Size  Location     Type
  9355 ;;		None
  9356 ;; Return value:  Size  Location     Type
  9357 ;;                  1    wreg      void 
  9358 ;; Registers used:
  9359 ;;		wreg, status,2, status,0
  9360 ;; Tracked objects:
  9361 ;;		On entry : 0/0
  9362 ;;		On exit  : 0/0
  9363 ;;		Unchanged: 0/0
  9364 ;; Data sizes:     COMMON   BANK0   BANK1   BANK3   BANK2
  9365 ;;      Params:         0       0       0       0       0
  9366 ;;      Locals:         0       0       0       0       0
  9367 ;;      Temps:          0       0       0       0       0
  9368 ;;      Totals:         0       0       0       0       0
  9369 ;;Total ram usage:        0 bytes
  9370 ;; Hardware stack levels used:    1
  9371 ;; This function calls:
  9372 ;;		Nothing
  9373 ;; This function is called by:
  9374 ;;		_myISR
  9375 ;; This function uses a non-reentrant model
  9376 ;;
  9377                           
  9378                           
  9379                           ;psect for function _EXTI_On_Off_CallBack
  9380  08DD                     _EXTI_On_Off_CallBack:
  9381  08DD                     i1l3075:	
  9382                           ;incstack = 0
  9383                           ; Regs used in _EXTI_On_Off_CallBack: [wreg+status,2+status,0]
  9384                           
  9385                           
  9386                           ;Buttons/Buttons.c: 45:  if((Mode.Select_Mode==Setting_Mode) || (Mode.Select_Mode==Norma
      +                          l_Mode))
  9387  08DD  3002               	movlw	2
  9388  08DE  1283               	bcf	3,5	;RP0=0, select bank0
  9389  08DF  1303               	bcf	3,6	;RP1=0, select bank0
  9390  08E0  0654               	xorwf	_Mode,w
  9391  08E1  1903               	btfsc	3,2
  9392  08E2  28E4               	goto	u377_21
  9393  08E3  28E5               	goto	u377_20
  9394  08E4                     u377_21:
  9395  08E4  28EA               	goto	i1l3079
  9396  08E5                     u377_20:
  9397  08E5                     i1l3077:
  9398  08E5  0354               	decf	_Mode,w
  9399  08E6  1D03               	btfss	3,2
  9400  08E7  28E9               	goto	u378_21
  9401  08E8  28EA               	goto	u378_20
  9402  08E9                     u378_21:
  9403  08E9  28EC               	goto	i1l3081
  9404  08EA                     u378_20:
  9405  08EA                     i1l3079:
  9406                           
  9407                           ;Buttons/Buttons.c: 46:  {;Buttons/Buttons.c: 48:   Mode.Select_Mode=Off_Mode;
  9408  08EA  01D4               	clrf	_Mode
  9409                           
  9410                           ;Buttons/Buttons.c: 50:  }
  9411  08EB  28F3               	goto	i1l104
  9412  08EC                     i1l3081:
  9413  08EC  0854               	movf	_Mode,w
  9414  08ED  1D03               	btfss	3,2
  9415  08EE  28F0               	goto	u379_21
  9416  08EF  28F1               	goto	u379_20
  9417  08F0                     u379_21:
  9418  08F0  28F3               	goto	i1l104
  9419  08F1                     u379_20:
  9420  08F1                     i1l3083:
  9421                           
  9422                           ;Buttons/Buttons.c: 52:  {;Buttons/Buttons.c: 54:   Mode.Select_Mode=Normal_Mode;
  9423  08F1  01D4               	clrf	_Mode
  9424  08F2  0AD4               	incf	_Mode,f
  9425  08F3                     i1l104:
  9426  08F3  0008               	return
  9427  08F4                     __end_of_EXTI_On_Off_CallBack:
  9428  0004                     
  9429                           	psect	functab
  9430  004B                     __pfunctab:
  9431  004B                     __fptable:
  9432  004B                     fptable:
  9433  004B  00FF               	movwf	(btemp+1)& (0+127)
  9434  004C  3000               	movlw	high fptable
  9435  004D  008A               	movwf	10
  9436  004E  087F               	movf	(btemp+1)& (0+127),w
  9437  004F  0782               	addwf	2,f
  9438  0050                     fpbase:
  9439  0050  2850               	goto	fpbase	; Call via a null pointer and you will get stuck here.
  9440  0051                     fp_u0:
  9441  0051  2851               	ljmp	fp_u0	; unused
  9442  0052                     fp_u1:
  9443  0052  2852               	ljmp	fp_u1	; unused
  9444  0053                     fp__Scheduler_Task3:
  9445  0053  120A  158A  2841   	ljmp	_Scheduler_Task3
  9446  0056                     fp__Scheduler_Task1:
  9447  0056  120A  158A  284C   	ljmp	_Scheduler_Task1
  9448  0059                     fp__Scheduler_Task2:
  9449  0059  120A  158A  2857   	ljmp	_Scheduler_Task2
  9450  005C                     __end_of__fptable:
  9451  005C                     __i1fptable:
  9452  005C                     i1fptable:
  9453  005C  00FF               	movwf	(btemp+1)& (0+127)
  9454  005D  3000               	movlw	high i1fptable
  9455  005E  008A               	movwf	10
  9456  005F  087F               	movf	(btemp+1)& (0+127),w
  9457  0060  0782               	addwf	2,f
  9458  0061                     i1fpbase:
  9459  0061  2861               	goto	i1fpbase	; Call via a null pointer and you will get stuck here.
  9460  0062                     fp__EXTI_On_Off_CallBack:
  9461  0062  120A  158A  28DD   	ljmp	_EXTI_On_Off_CallBack
  9462  0065                     fp__Timer0_CallBack:
  9463  0065  120A  158A  2A63   	ljmp	_Timer0_CallBack
  9464  0068                     __end_of__i1fptable:
  9465  007E                     btemp	set	126	;btemp
  9466  007E                     wtemp0	set	126
  9467                           
  9468                           	psect	config
  9469                           
  9470                           ;Config register CONFIG @ 0x2007
  9471                           ;	Oscillator Selection bits
  9472                           ;	FOSC = HS, HS oscillator
  9473                           ;	Watchdog Timer Enable bit
  9474                           ;	WDTE = OFF, WDT disabled
  9475                           ;	Power-up Timer Enable bit
  9476                           ;	PWRTE = OFF, PWRT disabled
  9477                           ;	Brown-out Reset Enable bit
  9478                           ;	BOREN = OFF, BOR disabled
  9479                           ;	Low-Voltage (Single-Supply) In-Circuit Serial Programming Enable bit
  9480                           ;	LVP = OFF, RB3 is digital I/O, HV on MCLR must be used for programming
  9481                           ;	Data EEPROM Memory Code Protection bit
  9482                           ;	CPD = OFF, Data EEPROM code protection off
  9483                           ;	Flash Program Memory Write Enable bits
  9484                           ;	WRT = OFF, Write protection off; all program memory may be written to by EECON control
  9485                           ;	In-Circuit Debugger Mode bit
  9486                           ;	DEBUG = 0x1, unprogrammed default
  9487                           ;	Flash Program Memory Code Protection bit
  9488                           ;	CP = OFF, Code protection off
  9489  2007                     	org	8199
  9490  2007  3F3A               	dw	16186

Data Sizes:
    Strings     0
    Constant    17
    Data        4
    BSS         77
    Persistent  0
    Stack       0

Auto Spaces:
    Space          Size  Autos    Used
    COMMON           14     14      14
    BANK0            80     34      58
    BANK1            80     45      62
    BANK3            96      0      40
    BANK2            96      0       0

Pointer List with Targets:

    Scheduler_Start$1361	const PTR FTN()void  size(1) Largest target is 1
		 -> Scheduler_Task3(), Scheduler_Task2(), Scheduler_Task1(), 

    memset@p1	PTR void  size(1) Largest target is 3
		 -> Scheduler_ActivationFlags(BANK1[3]), 

    memset@p	PTR unsigned char  size(1) Largest target is 3
		 -> Scheduler_ActivationFlags(BANK1[3]), 

    sp__memset	PTR void  size(1) Largest target is 3
		 -> Scheduler_ActivationFlags(BANK1[3]), 

    S391$fuction_ptr	PTR FTN()void  size(1) Largest target is 1
		 -> Scheduler_Task3(), Scheduler_Task2(), Scheduler_Task1(), 

    Scheduler_Intitys.fuction_ptr	PTR FTN()void  size(1) Largest target is 1
		 -> Scheduler_Task3(), Scheduler_Task2(), Scheduler_Task1(), 

    Average_Value@Avrage_Values	PTR unsigned char  size(1) Largest target is 6
		 -> Temperature(BANK0[6]), 

    S156_CallBack_t$Timer0CallBack	PTR FTN()void  size(1) Largest target is 1
		 -> Timer0_CallBack(), 

    Interrupt_CallBack.Timer0CallBack	PTR FTN()void  size(1) Largest target is 1
		 -> Timer0_CallBack(), 

    S156_CallBack_t$ExtiCallBack	PTR FTN()void  size(1) Largest target is 1
		 -> EXTI_On_Off_CallBack(), 

    Interrupt_CallBack.ExtiCallBack	PTR FTN()void  size(1) Largest target is 1
		 -> EXTI_On_Off_CallBack(), 

    ADC_Get_Value@Buffer	PTR unsigned char  size(1) Largest target is 6
		 -> Temperature(BANK0[6]), 


Critical Paths under _main in COMMON

    None.

Critical Paths under _myISR in COMMON

    _Scheduler_ActivateTask->___llmod
    i1___lldiv->i1___bmul
    ___llmod->i1___lldiv

Critical Paths under _main in BANK0

    _Set_EEPROM_Data->_EEPROM_Write
    _EEPROM_Write->_I2c_Write
    _ModeManager_MainFunction->_Mode_Setting_Timer
    _Mode_Setting_Timer->___wmul
    _Temperature_Calc->_Average_Value
    ___flmul->__Umul8_16
    _Average_Value->___lldiv
    _Elements_MainFunction->_LED_Control
    _LED_Control->_LED_BLINKING
    _LED_BLINKING->___wmul
    _Scheduler_Task1->_SSD_MainFunction
    _SSD_MainFunction->_SSD_SelectDigit
    _SSD_SelectDisplay->_SSD_Blink
    _SSD_Blink->___wmul
    _SSD_SelectDigit->___awdiv
    _Scheduler_Init->_memset
    _Get_EEPROM_Data->___awmod
    _EEPROM_Read->_I2c_Read
    _EEPROM_Read->_I2c_Write

Critical Paths under _myISR in BANK0

    _Timer0_CallBack->_Scheduler_ActivateTask
    _Scheduler_ActivateTask->___llmod
    ___llmod->i1___lldiv

Critical Paths under _main in BANK1

    _main->_Scheduler_Start
    _Temperature_MainFunction->_Temperature_Calc
    _Temperature_Calc->___fltol
    ___fltol->___flmul
    ___flmul->___xxtofl
    _Average_Value->___lldiv

Critical Paths under _myISR in BANK1

    None.

Critical Paths under _main in BANK3

    None.

Critical Paths under _myISR in BANK3

    None.

Critical Paths under _main in BANK2

    None.

Critical Paths under _myISR in BANK2

    None.

Call Graph Tables:

 ---------------------------------------------------------------------------------
 (Depth) Function   	        Calls       Base Space   Used Autos Params    Refs
 ---------------------------------------------------------------------------------
 (0) _main                                                 0     0      0   12136
                           _ADC_Init
                     _ADC_Start_Conv
                      _Elements_Init
                          _GPIO_Init
                    _Get_EEPROM_Data
                           _I2c_Init
                   _ModeManager_Init
                        _On_Off_Init
                           _SSD_Init
                     _Scheduler_Init
                    _Scheduler_Start
                        _Timer0_Init
 ---------------------------------------------------------------------------------
 (1) _Timer0_Init                                          0     0      0       0
 ---------------------------------------------------------------------------------
 (1) _Scheduler_Start                                      1     1      0   10855
                                             44 BANK1      1     1      0
                    _Scheduler_Task1 *
                    _Scheduler_Task2 *
                    _Scheduler_Task3 *
                             ___bmul
 ---------------------------------------------------------------------------------
 (2) ___bmul                                               3     2      1     179
                                             22 BANK0      3     2      1
 ---------------------------------------------------------------------------------
 (2) _Scheduler_Task3                                      0     0      0    1028
           _ModeManager_MainFunction
                    _Set_EEPROM_Data
 ---------------------------------------------------------------------------------
 (3) _Set_EEPROM_Data                                      0     0      0     183
                       _EEPROM_Write
 ---------------------------------------------------------------------------------
 (4) _EEPROM_Write                                         2     1      1     183
                                             23 BANK0      2     1      1
                          _I2c_Start
                           _I2c_Stop
                        _I2c_WaitAck
                          _I2c_Write
 ---------------------------------------------------------------------------------
 (3) _ModeManager_MainFunction                             0     0      0     845
                 _Mode_Setting_Timer
 ---------------------------------------------------------------------------------
 (4) _Mode_Setting_Timer                                   4     2      2     845
                                             28 BANK0      4     2      2
                             ___wmul
 ---------------------------------------------------------------------------------
 (2) _Scheduler_Task2                                      0     0      0    7224
              _Elements_MainFunction
           _Temperature_MainFunction
 ---------------------------------------------------------------------------------
 (3) _Temperature_MainFunction                             0     0      0    6379
                      _ADC_Get_Value
                   _Temperature_Calc
 ---------------------------------------------------------------------------------
 (4) _Temperature_Calc                                     4     4      0    6312
                                             40 BANK1      4     4      0
                      _Average_Value
                            ___flmul
                            ___fltol
                            ___lwmod
                           ___xxtofl
 ---------------------------------------------------------------------------------
 (5) ___xxtofl                                            14    10      4     566
                                             22 BANK0      8     4      4
                                              0 BANK1      6     6      0
 ---------------------------------------------------------------------------------
 (5) ___fltol                                             10     6      4     427
                                             31 BANK0      2     2      0
                                             32 BANK1      8     4      4
                            ___flmul (ARG)
                           ___xxtofl (ARG)
 ---------------------------------------------------------------------------------
 (5) ___flmul                                             26    18      8    3353
                                              6 BANK1     26    18      8
                          __Umul8_16
                           ___xxtofl (ARG)
 ---------------------------------------------------------------------------------
 (6) __Umul8_16                                            9     7      2     980
                                             22 BANK0      9     7      2
 ---------------------------------------------------------------------------------
 (5) _Average_Value                                        8     7      1    1374
                                             31 BANK0      3     2      1
                                              5 BANK1      5     5      0
                            ___lldiv
                            ___lwmod
 ---------------------------------------------------------------------------------
 (5) ___lwmod                                              5     1      4     592
                                             22 BANK0      5     1      4
 ---------------------------------------------------------------------------------
 (6) ___lldiv                                             14     6      8     531
                                             22 BANK0      9     1      8
                                              0 BANK1      5     5      0
 ---------------------------------------------------------------------------------
 (4) _ADC_Get_Value                                        1     1      0      67
                                             22 BANK0      1     1      0
 ---------------------------------------------------------------------------------
 (3) _Elements_MainFunction                                4     4      0     845
                                              0 BANK1      4     4      0
                        _LED_Control
 ---------------------------------------------------------------------------------
 (4) _LED_Control                                          2     2      0     845
                                             32 BANK0      2     2      0
                       _LED_BLINKING
 ---------------------------------------------------------------------------------
 (5) _LED_BLINKING                                         4     2      2     845
                                             28 BANK0      4     2      2
                             ___wmul
 ---------------------------------------------------------------------------------
 (2) _Scheduler_Task1                                      0     0      0    2263
                          _Debouncer
                   _SSD_MainFunction
 ---------------------------------------------------------------------------------
 (3) _SSD_MainFunction                                     2     2      0    2263
                                             32 BANK0      2     2      0
                    _SSD_SelectDigit
                  _SSD_SelectDisplay
 ---------------------------------------------------------------------------------
 (4) _SSD_SelectDisplay                                    0     0      0     845
                          _SSD_Blink
 ---------------------------------------------------------------------------------
 (5) _SSD_Blink                                            4     2      2     845
                                             28 BANK0      4     2      2
                             ___wmul
 ---------------------------------------------------------------------------------
 (5) ___wmul                                               6     2      4     724
                                             22 BANK0      6     2      4
 ---------------------------------------------------------------------------------
 (4) _SSD_SelectDigit                                      2     2      0    1418
                                             30 BANK0      2     2      0
                            ___awdiv
                            ___awmod
 ---------------------------------------------------------------------------------
 (5) ___awdiv                                              8     4      4     625
                                             22 BANK0      8     4      4
 ---------------------------------------------------------------------------------
 (3) _Debouncer                                            1     1      0       0
                                             22 BANK0      1     1      0
 ---------------------------------------------------------------------------------
 (1) _Scheduler_Init                                       0     0      0     403
                             _memset
 ---------------------------------------------------------------------------------
 (2) _memset                                               6     2      4     403
                                             22 BANK0      6     2      4
 ---------------------------------------------------------------------------------
 (1) _SSD_Init                                             0     0      0       0
 ---------------------------------------------------------------------------------
 (1) _On_Off_Init                                          0     0      0       0
 ---------------------------------------------------------------------------------
 (1) _ModeManager_Init                                     0     0      0       0
 ---------------------------------------------------------------------------------
 (1) _I2c_Init                                             0     0      0       0
 ---------------------------------------------------------------------------------
 (1) _Get_EEPROM_Data                                      2     2      0     878
                                             28 BANK0      2     2      0
                        _EEPROM_Read
                            ___awmod
 ---------------------------------------------------------------------------------
 (5) ___awmod                                              6     2      4     793
                                             22 BANK0      6     2      4
 ---------------------------------------------------------------------------------
 (2) _EEPROM_Read                                          1     1      0      85
                                             23 BANK0      1     1      0
                           _I2c_Read
                      _I2c_Send_NAck
                          _I2c_Start
                           _I2c_Stop
                        _I2c_WaitAck
                          _I2c_Write
 ---------------------------------------------------------------------------------
 (5) _I2c_Write                                            1     1      0      31
                                             22 BANK0      1     1      0
 ---------------------------------------------------------------------------------
 (5) _I2c_WaitAck                                          0     0      0       0
 ---------------------------------------------------------------------------------
 (5) _I2c_Stop                                             0     0      0       0
 ---------------------------------------------------------------------------------
 (5) _I2c_Start                                            0     0      0       0
 ---------------------------------------------------------------------------------
 (3) _I2c_Send_NAck                                        0     0      0       0
 ---------------------------------------------------------------------------------
 (3) _I2c_Read                                             1     1      0      23
                                             22 BANK0      1     1      0
 ---------------------------------------------------------------------------------
 (1) _GPIO_Init                                            0     0      0       0
 ---------------------------------------------------------------------------------
 (1) _Elements_Init                                        0     0      0       0
 ---------------------------------------------------------------------------------
 (1) _ADC_Start_Conv                                       0     0      0       0
 ---------------------------------------------------------------------------------
 (1) _ADC_Init                                             0     0      0       0
 ---------------------------------------------------------------------------------
 Estimated maximum stack depth 6
 ---------------------------------------------------------------------------------
 (Depth) Function   	        Calls       Base Space   Used Autos Params    Refs
 ---------------------------------------------------------------------------------
 (7) _myISR                                                4     4      0     863
                                             18 BANK0      4     4      0
               _EXTI_On_Off_CallBack *
                    _Timer0_CallBack *
 ---------------------------------------------------------------------------------
 (8) _Timer0_CallBack                                      0     0      0     863
             _Scheduler_ActivateTask
 ---------------------------------------------------------------------------------
 (9) _Scheduler_ActivateTask                               5     1      4     863
                                             13 BANK0      5     1      4
                            ___llmod
                           i1___bmul
                          i1___lldiv
 ---------------------------------------------------------------------------------
 (10) i1___lldiv                                          14     6      8     214
                                              3 COMMON     9     1      8
                                              0 BANK0      5     5      0
                           i1___bmul (ARG)
 ---------------------------------------------------------------------------------
 (10) i1___bmul                                            3     2      1      87
                                              0 COMMON     3     2      1
 ---------------------------------------------------------------------------------
 (10) ___llmod                                            10     2      8     311
                                             12 COMMON     2     2      0
                                              5 BANK0      8     0      8
                           i1___bmul (ARG)
                          i1___lldiv (ARG)
 ---------------------------------------------------------------------------------
 (8) _EXTI_On_Off_CallBack                                 0     0      0       0
 ---------------------------------------------------------------------------------
 Estimated maximum stack depth 10
 ---------------------------------------------------------------------------------

 Call Graph Graphs:

 _main (ROOT)
   _ADC_Init
   _ADC_Start_Conv
   _Elements_Init
   _GPIO_Init
   _Get_EEPROM_Data
     _EEPROM_Read
       _I2c_Read
       _I2c_Send_NAck
       _I2c_Start
       _I2c_Stop
       _I2c_WaitAck
       _I2c_Write
     ___awmod
   _I2c_Init
   _ModeManager_Init
   _On_Off_Init
   _SSD_Init
   _Scheduler_Init
     _memset
   _Scheduler_Start
     _Scheduler_Task1 *
       _Debouncer
       _SSD_MainFunction
         _SSD_SelectDigit
           ___awdiv
           ___awmod
         _SSD_SelectDisplay
           _SSD_Blink
             ___wmul
     _Scheduler_Task2 *
       _Elements_MainFunction
         _LED_Control
           _LED_BLINKING
             ___wmul
       _Temperature_MainFunction
         _ADC_Get_Value
         _Temperature_Calc
           _Average_Value
             ___lldiv
             ___lwmod
           ___flmul
             __Umul8_16
             ___xxtofl (ARG)
           ___fltol
             ___flmul (ARG)
               __Umul8_16
               ___xxtofl (ARG)
             ___xxtofl (ARG)
           ___lwmod
           ___xxtofl
     _Scheduler_Task3 *
       _ModeManager_MainFunction
         _Mode_Setting_Timer
           ___wmul
       _Set_EEPROM_Data
         _EEPROM_Write
           _I2c_Start
           _I2c_Stop
           _I2c_WaitAck
           _I2c_Write
     ___bmul *
   _Timer0_Init

 _myISR (ROOT)
   _EXTI_On_Off_CallBack *
   _Timer0_CallBack *
     _Scheduler_ActivateTask
       ___llmod
         i1___bmul (ARG)
         i1___lldiv (ARG)
           i1___bmul (ARG)
       i1___bmul
       i1___lldiv
         i1___bmul (ARG)

 Address spaces:
Name               Size   Autos  Total    Cost      Usage
BANK3               60      0      28       9       41.7%
BITBANK3            60      0       0       8        0.0%
SFR3                 0      0       0       4        0.0%
BITSFR3              0      0       0       4        0.0%
BANK2               60      0       0      11        0.0%
BITBANK2            60      0       0      10        0.0%
SFR2                 0      0       0       5        0.0%
BITSFR2              0      0       0       5        0.0%
BANK1               50     2D      3E       7       77.5%
BITBANK1            50      0       0       6        0.0%
SFR1                 0      0       0       2        0.0%
BITSFR1              0      0       0       2        0.0%
BANK0               50     22      3A       5       72.5%
BITBANK0            50      0       0       4        0.0%
SFR0                 0      0       0       1        0.0%
BITSFR0              0      0       0       1        0.0%
COMMON               E      E       E       1      100.0%
BITCOMMON            E      0       0       0        0.0%
CODE                 0      0       0       0        0.0%
DATA                 0      0      AE      12        0.0%
ABS                  0      0      AE       3        0.0%
NULL                 0      0       0       0        0.0%
STACK                0      0       0       2        0.0%
EEDATA             100      0       0       0        0.0%


Microchip Technology PIC Macro Assembler V2.20 build 20200408173844 
Symbol Table                                                                                   Sat Jul 18 05:36:54 2020

                                   pc 0002                        ___bmul@product 0037  
                                  l13 0955                                    l21 0922  
                                  _BF 04A0                                    l17 0821  
                                  l68 0C49                                    l79 05D9  
                                  l96 17EF                          ___awdiv@sign 003B  
                                  fsr 0004                   ___wmul@multiplicand 0038  
                 __Umul8_16@word_mpld 003C                      ??_ADC_Start_Conv 0036  
                                 l210 096D                                   l222 0970  
                                 l214 096E                                   l206 096C  
                                 l151 086D                                   l136 0676  
                                 l320 084B                                   l233 0973  
                                 l226 0971                                   l218 096F  
                                 l314 0856                                   l164 09C8  
                                 l340 0793                                   l421 0832  
                                 l317 0861                                   l422 0835  
                                 l158 0A37                                   l166 09E4  
                                 l174 0F0D                                   l262 0B5D  
                                 l431 0826                                   l271 08A4  
                                 l335 08C2                                   l440 0840  
                                 l416 0879                                   l336 08C7  
                                 l425 0889                                   l353 08B4  
                                 l434 082A                                   l419 082E  
                                 l443 17E9                                   l515 0885  
                                 l531 0D86                                   l428 0894  
                                 l380 0C8F                                   l437 0839  
                                 l373 17DF                                   l446 17F0  
                                 l439 083D                                   l448 17F6  
                                 l800 07FC                                   l536 0BCA  
                                 l449 17F7                                   l561 0E41  
                                 l385 0A62                                   l377 0C7A  
                                 l490 0CD7                                   l538 0BD0  
                                 l546 0ABE                                   l482 093A  
                                 l556 0E3C                                   l813 0DE1  
                                 l485 0B23                                   l478 0B5C  
                                 l647 09A4                                   l840 06F1  
                                 l649 09BC                                   l833 0708  
                                 l673 090A                                   l683 0FFF  
                                 l843 0708                                   l929 0C0C  
                                 _PEN 048A                                   _SEN 0488  
                                 _SSD 0045                                   fsr0 0004  
                                 indf 0000                          ___awmod@sign 003B  
                  _Mode_Setting_Timer 0A38                          ?_LED_Control 0070  
                        ___flmul@aexp 00B4                          ___flmul@bexp 00B9  
                        ___flmul@sign 00B3                          ___flmul@temp 00BE  
                        ___flmul@prod 00BA                          ___fltol@exp1 0040  
                                l1101 0995                                  l1042 038E  
                                l1036 0422                                  l1055 09FB  
                                l1048 0416                                  l1080 0466  
                                l1057 0A0D                                  l1082 052D  
                                l3021 0877                                  l3013 086E  
                                l1093 04D3                                  l1094 04DF  
                                l3031 0862                                  l3023 0878  
                                l3015 0872                                  l3033 0865  
                                l3009 0972                                  l3017 0875  
                                l3025 17EA                                  l3201 0F98  
                                l3035 0869                                  l3019 0876  
                                l3027 087A                                  l3211 0FD2  
                                l3203 0F9E                                  l3037 17DC  
                                l3029 0884                                  l3301 0BBE  
                                l3213 0FD5                                  l3205 0FA4  
                                l3221 0BD1                                  l3053 08A5  
                                l3311 0797                                  l3303 0BC3  
                                l3215 0FDF                                  l3207 0FB2  
                                l3231 0BEB                                  l3223 0BD9  
                                l3055 08AF                                  l3321 07AB  
                                l3313 079B                                  l3305 0BC8  
                                l3209 0FC4                                  l3217 0FE7  
                                l3233 0BF5                                  l3225 0BDC  
                                l3401 06AD                                  l3057 08B3  
                                l3331 07C1                                  l3323 07AF  
                                l3315 07A0                                  l3307 0BCC  
                                l4027 09D9                                  l3235 0BFB  
                                l3227 0BE3                                  l3251 0A04  
                                l3243 09E8                                  l3403 06B5  
                                l3341 07E1                                  l3333 07C5  
                                l3325 07B1                                  l3317 07A2  
                                l3309 0794                                  l3181 0996  
                                l4029 0D63                                  l3237 0C02  
                                l3229 0BE7                                  l3261 0560  
                                l3253 0A09                                  l3245 09EA  
                                l3501 0264                                  l3413 06C5  
                                l3405 06B9                                  l3343 07E8  
                                l3335 07C9                                  l3327 07B7  
                                l3319 07A6                                  l3191 09B8  
                                l3183 099A                                  l3239 0C08  
                                l3271 059F                                  l3263 0578  
                                l3247 09F1                                  l3511 033A  
                                l3503 029B                                  l3431 006F  
                                l3423 06E2                                  l3415 06D0  
                                l3407 06BD                                  l3361 0D95  
                                l3353 0D87                                  l3337 07DA  
                                l3329 07BA                                  l3345 07EE  
                                l3185 099E                                  l3281 0A30  
                                l3273 05A5                                  l3257 0531  
                                l3249 09F5                                  l3521 035F  
                                l3513 0343                                  l3505 02B5  
                                l3441 0084                                  l3433 0075  
                                l3425 06F6                                  l3417 06DB  
                                l3601 04C7                                  l3291 17F0  
                                l3371 0DAE                                  l3363 0D99  
                                l3355 0D8A                                  l3347 07F3  
                                l3339 07E0                                  l3187 09AB  
                                l3283 0A33                                  l3195 0F76  
                                l3275 05AB                                  l3259 053B  
                                l3531 0377                                  l3523 0368  
                                l3515 0351                                  l3507 02EC  
                                l3451 00A1                                  l3443 008C  
                                l3435 0079                                  l3427 06FB  
                                l3611 050C                                  l3603 04CD  
                                l3285 082B                                  l3381 0DCD  
                                l3373 0DB2                                  l3365 0D9E  
                                l3357 0D8E                                  l3349 07F8  
                                l3701 0E32                                  l3189 09B2  
                                l3293 0B96                                  l3277 0A0E  
                                l3621 0912                                  l3197 0F8A  
                                l3269 0579                                  l3541 03A6  
                                l3533 038B                                  l3517 035A  
                                l3525 036E                                  l3509 0312  
                                l3461 00B8                                  l3453 00A5  
                                l3445 008E                                  l3437 007A  
                                l3429 0068                                  l3613 0512  
                                l3605 04D7                                  l3287 0836  
                                l3375 0DB6                                  l3367 0DA4  
                                l3383 0DD3                                  l3359 0D93  
                                l3711 05F8                                  l3703 0E36  
                                l3295 0BB4                                  l3279 0A2C  
                                l3631 09CA                                  l3623 0916  
                                l3199 0F8F                                  l3551 03E1  
                                l3543 03AA                                  l3527 0372  
                                l3519 035E                                  l3463 00BA  
                                l3455 00A6                                  l3447 0096  
                                l3439 007F                                  l3391 0677  
                                l3615 0515                                  l3607 04E1  
                                l2841 0886                                  l3289 17E7  
                                l3385 0DD8                                  l3377 0DC0  
                                l3369 0DA7                                  l3721 0613  
                                l3713 05FC                                  l3705 0E3A  
                                l3297 0BB9                                  l3625 0921  
                                l3561 040A                                  l3553 03F0  
                                l3545 03C3                                  l3537 0393  
                                l3529 0373                                  l3481 013F  
                                l3473 00D5                                  l3465 00C2  
                                l3457 00AB                                  l3449 009B  
                                l3393 0686                                  l3609 0507  
                                l3641 0709                                  l2843 088D  
                                l3387 0DDD                                  l3379 0DC6  
                                l3731 0642                                  l3723 061B  
                                l3715 0602                                  l3707 0E3D  
                                l3299 0BBA                                  l3635 09CF  
                                l3627 09BD                                  l3619 090E  
                                l3563 040E                                  l3555 03FA  
                                l3539 0398                                  l3547 03C9  
                                l3491 01D0                                  l3483 0175  
                                l3475 00EF                                  l3467 00C7  
                                l3459 00B0                                  l3571 0426  
                                l3643 076A                                  l3803 08B5  
                                l3651 0A38                                  l3811 0C5D  
                                l2845 0893                                  l3741 0670  
                                l3733 0647                                  l3725 0632  
                                l3717 0609                                  l3709 05DA  
                                l3629 09BE                                  l3565 040F  
                                l3557 03FC                                  l3549 03D6  
                                l3493 01ED                                  l3485 0191  
                                l3477 00FC                                  l3469 00CC  
                                l3397 0691                                  l3573 042B  
                                l3645 0774                                  l3805 08BC  
                                l3653 0A56                                  l3821 0C73  
                                l3813 0C63                                  l3661 0AFF  
                                l3735 064C                                  l3743 0674  
                                l3727 0637                                  l3719 060E  
                                l3671 0A9A                                  l3751 0ECD  
                                l3567 041A                                  l3559 0402  
                                l3495 0207                                  l3487 01AD  
                                l3479 0123                                  l3399 06AA  
                                l3591 0494                                  l3583 0479  
                                l3575 0431                                  l3647 078C  
                                l3655 0A5E                                  l3831 0C82  
                                l3823 0C74                                  l3815 0C67  
                                l3807 0C4C                                  l3663 0B0C  
                                l3911 0902                                  l3903 08F7  
                                l2849 0822                                  l3921 0B2F  
                                l3737 0654                                  l3729 063B  
                                l3681 0AB6                                  l3673 0A9D  
                                l3761 0EFB                                  l3753 0ED3  
                                l3745 0EA8                                  l3497 0224  
                                l3489 01B6                                  l3593 0498  
                                l3585 0480                                  l3577 044F  
                                l3649 0792                                  l3833 0C88  
                                l3825 0C75                                  l3817 0C6D  
                                l3809 0C54                                  l3665 0B11  
                                l3657 0AF4                                  l3913 0904  
                                l3905 08F8                                  l3923 0B35  
                                l3931 0895                                  l3739 066B  
                                l3691 0E1E                                  l3683 0DE2  
                                l3675 0AA3                                  l3667 0A8F  
                                l3771 0D2E                                  l3763 0EFC  
                                l3755 0ED4                                  l3747 0EAE  
                                l3499 0247                                  l3595 04A6  
                                l3587 0484                                  l3579 0470  
                                l3835 0C8A                                  l3827 0C77  
                                l3819 0C71                                  l3659 0AF9  
                                l3851 0937                                  l3915 0909  
                                l3907 08FC                                  l2981 093B  
                                l3925 0B3B                                  l3853 0977  
                                l3693 0E23                                  l3685 0DE9  
                                l3677 0AA7                                  l3669 0A96  
                                l3781 0D45                                  l3773 0D39  
                                l3757 0ED9                                  l3749 0EB3  
                                l3765 0EFF                                  l3597 04AF  
                                l3589 048D                                  l3837 0C8C  
                                l3829 0C7E                                  l3845 0923  
                                l3909 0900                                  l3941 0B69  
                                l3933 0B5D                                  l2983 0819  
                                l2991 0960                                  l3927 0B53  
                                l3919 0B24                                  l3855 097C  
                                l3695 0E27                                  l3687 0DEE  
                                l3679 0AB1                                  l3791 0D54  
                                l3783 0D48                                  l3775 0D3C  
                                l3767 0F07                                  l3759 0EF5  
                                l3599 04B6                                  l3839 0C8D  
                                l3847 0929                                  l3943 0B83  
                                l2985 081F                                  l2993 0964  
                                l3881 0C93                                  l3929 0B58  
                                l3857 0983                                  l3697 0E2B  
                                l3689 0E1A                                  l3793 0D57  
                                l3785 0D4B                                  l3777 0D3F  
                                l3769 0F08                                  l3849 092D  
                                l3945 0B8A                                  l3961 0C21  
                                l3953 0C0D                                  l2995 0968  
                                l2987 0956                                  l3891 0CBB  
                                l3883 0C98                                  l3859 0987  
                                l3699 0E2D                                  l3787 0D4E  
                                l3779 0D42                                  l3875 084C  
                                l3947 0B8E                                  l3939 0B60  
                                l3971 0C3A                                  l3963 0C26  
                                l3955 0C12                                  l2989 095C  
                                l3893 0CC0                                  l3885 0C9E  
                                l3789 0D51                                  l3797 0D59  
                                l3877 0857                                  l3973 0C3F  
                                l3965 0C2B                                  l3957 0C17  
                                l3895 0CCA                                  l3887 0CAB  
                                l3879 0841                                  l3967 0C30  
                                l3959 0C1C                                  l3897 0CCF  
                                l3889 0CB0                                  l3969 0C35  
                                l3899 0CD4                    __size_of_I2c_Start 000B  
                  __size_of_I2c_Write 0006                        ??_LED_BLINKING 003E  
                                u4000 0F8A                                  u4001 0F89  
                                u4020 0FA4                                  u4100 0BF5  
                                u4021 0FA3                                  u4101 0BF4  
                                u4015 0F91                                  u4200 0A2C  
                                u4040 0FC4                                  u4120 0C08  
                                u4201 0A2B                                  u4041 0FC3  
                                u4121 0C07                                  u4105 0BF1  
                                u4210 0832                                  u4130 09F5  
                                u5010 04CD                                  u4211 0831  
                                u4035 0FA7                                  u4115 0BFC  
                                u4131 09F4                                  u5011 04CC  
                                u3500 082A                                  u4220 083D  
                                u4060 0FE7                                  u5020 04D3  
                                u5100 0A56                                  u3501 0829  
                                u4221 083C                                  u4205 0A28  
                                u4061 0FE6                                  u4045 0FC0  
                                u5021 04D2                                  u5005 04BC  
                                u5101 0A55                                  u4230 17F6  
                                u4310 07C9                                  u5110 0A96  
                                u4070 0BD9                                  u4150 0A09  
                                u5030 04D7                                  u4231 17F5  
                                u4311 07C8                                  u5111 0A95  
                                u4055 0FD6                                  u4071 0BD8  
                                u4151 0A08                                  u5031 04D6  
                                u5200 0609                                  u4240 0BB4  
                                u5120 0AA3                                  u5040 04EE  
                                u5201 0608                                  u4305 07BB  
                                u4241 0BB3                                  u5121 0AA2  
                                u4145 09FC                                  u5105 0A52  
                                u4410 0DB6                                  u5210 060E  
                                u4330 07DA                                  u4250 0BB9  
                                u5130 0AB6                                  u4090 0BEB  
                                u5050 050C                                  u4411 0DB5  
                                u5211 060D                                  u4331 07D9  
                                u4251 0BB8                                  u5131 0AB5  
                                u4091 0BEA                                  u5051 050B  
                                u4420 0DC0                                  u5300 0654  
                                u5220 0613                                  u5140 0DE9  
                                u4260 0BC8                                  u5060 0512  
                                u4421 0DBF                                  u4405 0DA8  
                                u5301 0653                                  u5221 0612  
                                u4325 07CA                                  u5141 0DE8  
                                u4261 0BC7                                  u4245 0BB0  
                                u4085 0BDD                                  u4181 0590  
                                u4165 054B                                  u5061 0511  
                                u5045 04E9                                  u3710 081F  
                                u5310 065C                                  u5230 061B  
                                u4350 07EE                                  u4270 079B  
                                u5150 0DEE                                  u5070 0912  
                                u4190 05AB                                  u4182 0591  
                                u4510 06DA                                  u3711 081E  
                                u5311 0658                                  u5231 061A  
                                u4351 07ED                                  u4335 07D6  
                                u4271 079A                                  u5151 0DED  
                                u5071 0911                                  u4191 05AA  
                                u4183 0597                                  u4175 057E  
                                u4511 06D9                                  u4440 0DD3  
                                u5240 0623                                  u4360 07F3  
                                u4280 07A6                                  u5160 0E23  
                                u5080 0916                                  u4184 0598  
                                u4600 00AB                                  u4520 06E1  
                                u5400 0C63                                  u4441 0DD2  
                                u4425 0DBC                                  u5241 061F  
                                u4361 07F2                                  u4345 07E2  
                                u4281 07A5                                  u5161 0E22  
                                u5081 0915                                  u4185 059E  
                                u4601 00AA                                  u4521 06E0  
                                u4505 06C6                                  u5401 0C62  
                                u3490 088D                                  u4450 0DD8  
                                u4370 0D8E                                  u5330 0670  
                                u4290 07B7                                  u5170 0E32  
                                u4186 059F                                  u4610 00B0  
                                u5090 0792                                  u5410 0C67  
                                u3491 088C                                  u4451 0DD7  
                                u4435 0DC7                                  u4371 0D8D  
                                u5331 066F                                  u4291 07B6  
                                u5171 0E31                                  u4611 00AF  
                                u5091 0791                                  u5411 0C66  
                                u4380 0D99                                  u5324 065F  
                                u5260 0637                                  u5340 0EAE  
                                u4620 00C7                                  u4540 06F6  
                                u4460 0686                                  u5420 0C6D  
                                u5500 08FC                                  u4381 0D98  
                                u5261 0636                                  u5341 0EAD  
                                u4701 0216                                  u4621 00C6  
                                u4541 06F5                                  u4461 0685  
                                u5421 0C6C                                  u5501 08FB  
                                u4390 0DA4                                  u5270 0642  
                                u5254 0626                                  u5190 0602  
                                u5350 0EB3                                  u4702 021D  
                                u4630 00CC                                  u4550 06FB  
                                u4470 06A1                                  u5430 0C7E  
                                u5510 0909                                  u4391 0DA3  
                                u5271 0641                                  u5191 0601  
                                u5351 0EB2                                  u4703 0224  
                                u4631 00CB                                  u4551 06FA  
                                u4535 06E6                                  u5431 0C7D  
                                u5511 0908                                  u5520 0B35  
                                u5280 0647                                  u5360 0ECD  
                                u4560 0079                                  u4480 06BD  
                                u5440 0C82                                  u5521 0B34  
                                u5281 0646                                  u5185 05EB  
                                u5361 0ECC                                  u4721 0256  
                                u4641 0131                                  u4561 0078  
                                u4481 06BC                                  u5441 0C81  
                                u5530 0B3B                                  u5290 064C  
                                u5370 0EF5                                  u4810 035E  
                                u4722 025D                                  u4642 0138  
                                u4570 007F                                  u4490 06C4  
                                u5450 0C88                                  u5531 0B3A  
                                u5291 064B                                  u5371 0EF4  
                                u4811 035D                                  u4731 028D  
                                u4723 0264                                  u4715 0226  
                                u4651 014D                                  u4643 013F  
                                u4571 007E                                  u4491 06C3  
                                u4475 069C                                  u5451 0C87  
                                u5540 0B53                                  u4900 03D6  
                                u4732 0294                                  u4652 0154  
                                u4580 0084                                  u5380 08BC  
                                u5460 0929                                  _RCEN 048B  
                                u5541 0B52                                  u5365 0EC9  
                                u4901 03D5                                  u4805 0353  
                                u4741 02C4                                  u4733 029B  
                                u4661 0183                                  u4653 015B  
                                u4581 0083                                  u5381 08BB  
                                u5461 0928                                  u5470 0995  
                                u4910 03F0                                  u4830 0372  
                                u4750 02F8                                  u4742 02CB  
                                u4662 018A                                  u4590 00A5  
                                u5390 0C54                                  u5550 0B69  
                                u5471 0994                                  u5375 0EF1  
                                u4911 03EF                                  u4831 0371  
                                u4743 02D2                                  u4671 019F  
                                u4663 0191                                  u4591 00A4  
                                u5391 0C53                                  u5551 0B68  
                                u3960 099E                                  u4920 040E  
                                u4840 0377                                  u4672 01A6  
                                u5560 0B94                                  u3961 099D  
                                u4921 040D                                  u4905 03D2  
                                u4841 0376                                  u4825 0361  
                                u4761 0304                                  u4673 01AD  
                                u5561 0B93                                  u4850 038B  
                                u4770 0320                                  u4762 030B  
                                u4930 042B                                  u4915 03EC  
                                u4851 038A                                  u4763 0312  
                                u4755 02F3                                  u4691 01DF  
                                u4931 042A                                  u4860 0392  
                                u4692 01E6                                  u4940 0431  
                                u4861 0391                                  u4781 032C  
                                u4693 01ED                                  u4685 01AF  
                                u4941 0430                                  u3990 09B8  
                                u4870 0398                                  u4782 0333  
                                u4950 0470                                  u3991 09B7  
                                u3975 09A5                                  u4871 0397  
                                u4783 033A                                  u4775 031B  
                                u4951 046F                                  u4880 03AA  
                 ?_Mode_Setting_Timer 003C                                  u3985 09AC  
                                u4881 03A9                                  u4890 03B9  
                                u4970 0493                                  u4795 033C  
                                u4971 0492                                  u4965 0485  
                                u4990 04B5                                  u4895 03B4  
                                u4991 04B4                                  u4985 04A7  
                                _TMR0 0001                                  _Mode 0054  
           __size_of_Temperature_Calc 008B                     i1___lldiv@divisor 0073  
                                _main 0C0D              ??_Scheduler_ActivateTask 007E  
                                fp_u0 0051                                  fp_u1 0052  
                                btemp 007E                     i1___lldiv@counter 0024  
                    __end_of_ADC_Init 0956                                  start 0012  
                  __size_of_GPIO_Init 001E                         ??_On_Off_Init 0036  
                   ___bmul@multiplier 0038                      ??_Scheduler_Init 003C  
                    __end_of_I2c_Init 087A                      __end_of_I2c_Read 0895  
                    __end_of_I2c_Stop 0841                            _Enable_SSD 004C  
                   ??_Timer0_CallBack 007E                  __end_of_EEPROM_Write 0B24  
                ??_Mode_Setting_Timer 003E                       _Average_Nvalues 0058  
                       ___fltol@sign1 003F                                 ?_main 0070  
                               _ACKEN 048C                                 _ACKDT 048D  
                     __end_of___awdiv 07FD                       __end_of___awmod 0DE2  
                     __end_of___flmul 0423                       __end_of___fltol 0709  
                     __end_of___lldiv 1000                       ___awdiv@divisor 0036  
                     __end_of___llmod 0D2E                                 i1l104 08F3  
                               i1l250 0AD1                                 i1l253 0AE4  
                     __end_of___lwmod 0C0D                                 i1l356 0A8E  
                               i1l277 0EA7                                 i1l673 08DC  
                               i1l683 0F75                                 i1l869 0D2D  
                     ___awdiv@counter 003A                                 _PORTA 0005  
                               _PORTB 0006                                 _PORTC 0007  
                               _PORTD 0008                                 _SSPM0 00A0  
                               _SSPM1 00A1                                 _SSPM2 00A2  
                               _SSPM3 00A3                                 _TRISA 0085  
                               _TRISB 0086                                 _TRISC 0087  
                               _TRISD 0088                                 _SSPEN 00A5  
                               _SSPIF 0063                      _ModeManager_Init 17DC  
                  i1___lldiv@dividend 0077                                 _myISR 0ABF  
                               fpbase 0050                      __end_of_SSD_Init 0886  
          Average_Value@Avrage_Values 003F                      __end_ofi1___bmul 08DD  
                               pclath 000A                    __size_of_SSD_Blink 003B  
                               status 0003                      EEPROM_Write@Addr 0037  
                               wtemp0 007E                      EEPROM_Write@Data 0038  
                  __size_ofi1___lldiv 0068                       _Set_EEPROM_Data 0923  
                    ?_Get_EEPROM_Data 0070                  __size_of_EEPROM_Read 0048  
                     __initialization 0015                     ??_Scheduler_Task1 0042  
                   ??_Scheduler_Task2 0042                     ??_Scheduler_Task3 0040  
                        __end_of_main 0C4C                     ??_Scheduler_Start 0042  
                     _SSD_SelectDigit 0DE2                    i1___lldiv@quotient 0020  
              __size_of_ADC_Get_Value 0018                     __end_of_I2c_Start 0836  
             ??_Elements_MainFunction 00A0                    __size_of_Debouncer 009D  
                   __end_of_I2c_Write 17EA                   __end_of_On_Off_Init 17F0  
                              ??_main 0042                     __end_of_GPIO_Init 0974  
                __size_of_I2c_WaitAck 0008                                ?_myISR 0070  
          ??_ModeManager_MainFunction 0040                      ___llmod@dividend 0029  
                              _ADRESL 009E                      ___awdiv@dividend 0038  
                              i1l3081 08EC                                i1l3083 08F1  
                              i1l3075 08DD                                i1l3077 08E5  
                              i1l3079 08EA                                i1l2901 08CA  
                              i1l2911 08DB                                i1l2903 08CE  
                              i1l2905 08D2                                i1l2851 0CD8  
                              i1l2907 08D4                                i1l2861 0CF6  
                              i1l2853 0CE2                                i1l2909 08D6  
                              i1l2863 0D08                                i1l2855 0CE5  
                              i1l2865 0D16                                i1l2857 0CEE  
                              i1l2881 0F30                                i1l2873 0F0E  
                              i1l2867 0D1F                                i1l2859 0CF2  
                              i1l2891 0F5E                                i1l2883 0F34  
                              i1l2875 0F20                                i1l2869 0D25  
                              i1l2893 0F67                                i1l2885 0F3D  
                              i1l2877 0F23                                i1l3861 0E42  
                              i1l2887 0F4F                                i1l2879 0F2C  
                              i1l2895 0F6D                                i1l3871 0E9D  
                              i1l3951 0A73                                i1l2889 0F5D  
                              i1l3873 0EA1                                i1l2899 08C9  
                              i1l3867 0E45                                i1l3869 0E97  
                              i1l3949 0A63                                i1l3981 0AD5  
                              i1l3983 0AD6                                i1l3975 0ABF  
                              i1l3985 0AD8                                i1l3977 0AC3  
                              i1l3979 0AC4                                _INTEDG 040E  
                              u351_20 0CE2                                u351_21 0CE1  
                              u352_25 0CE7                                u360_25 0F36  
                              u353_20 0CF6                                u361_20 0F4F  
                              u353_21 0CF5                                u361_21 0F4E  
                              u361_25 0F4B                                u354_20 0D08  
                              u354_21 0D07                                u354_25 0D04  
                              u362_25 0F5F                                u363_20 0F6D  
                              u363_21 0F6C                                u355_25 0D17  
                              u356_20 0D25                                u364_20 08CE  
                              u356_21 0D24                                u364_21 08CD  
                              u365_20 08DB                                u357_20 0F20  
                              u365_21 08DA                                u357_21 0F1F  
                              u358_25 0F25                                u359_20 0F34  
                              u359_21 0F33                                u377_20 08E5  
                              u377_21 08E4                                u378_20 08EA  
                              u378_21 08E9                                u379_20 08F1  
                              u379_21 08F0                                u548_20 0E97  
                              u548_21 0E96                                u549_20 0EA7  
                              u557_20 0AC3                                u549_21 0EA6  
                              u557_21 0AC2                                u558_20 0AD5  
                              u558_21 0AD4                            __i1fptable 005C  
                              _SSPADD 0093                                _SSPBUF 0013  
                    __end_of__fptable 005C                      __end_of___xxtofl 052E  
     __size_of_Scheduler_ActivateTask 0066                         ??_Timer0_Init 0036  
        __end_of_EXTI_On_Off_CallBack 08F4                                ___bmul 08F4  
                              ___wmul 0996                             ??___awdiv 003A  
                           ??___awmod 003A                             ??___flmul 00AE  
                           ??___fltol 00C4                             ??___lldiv 003E  
                           ??___llmod 007C                             ??___lwmod 003A  
                          _Tempreture 0044                                _memset 0974  
                __end_of_LED_BLINKING 0A38                      ___awdiv@quotient 003C  
                     ___awmod@divisor 0036                       ___awmod@counter 003A  
   Scheduler_ActivateTask@IntityIndex 0031                     __end_of_SSD_Blink 0BD1  
            __end_of_SSD_MainFunction 0D87                                fptable 004B  
                   __end_ofi1___lldiv 0F76                                fptotal 0006  
                  __size_of__Umul8_16 0029                             ?_ADC_Init 0070  
                              saved_w 007E      __end_of_Temperature_MainFunction 08C8  
                __size_of_LED_Control 0028      Scheduler_ActivateTask@SystemTick 002D  
             __end_of_Set_EEPROM_Data 093B                         _ADC_Get_Value 090B  
                           ?_I2c_Init 0070                             ?_I2c_Read 0070  
                           ?_I2c_Stop 0070                     __end_of_Debouncer 0677  
               __end_of_Elements_Init 086E                          ___xxtofl@arg 00A2  
                        ___xxtofl@exp 00A1                          ___xxtofl@val 0036  
                    _Temperature_Calc 0709               __end_of__initialization 0047  
                          ___fltol@f1 00C0               __end_of_SSD_SelectDigit 0E42  
               __size_of_EEPROM_Write 0033                   ___bmul@multiplicand 0036  
                         _On_Off_Init 17EA                        __pcstackCOMMON 0070  
                        __pidataBANK0 17E0                         __end_of_myISR 0AF1  
                 __end_of_Timer0_Init 08B5                             ?_SSD_Init 0070  
                           ?i1___bmul 0070                _Scheduler_ActivateTask 0E42  
               __end_of_I2c_Send_NAck 082B                        _OPTION_REGbits 0081  
                          ??_ADC_Init 0036                 __end_of_Average_Value 05DA  
                    i1___bmul@product 0071                               ??_myISR 0032  
                      ?_ADC_Get_Value 0070                            ??_I2c_Init 0036  
                          ??_I2c_Read 0036                          _EEPROM_Write 0AF1  
                          __pbssBANK0 0042                            __pbssBANK1 00CD  
                          __pbssBANK3 0190                            ??_I2c_Stop 0036  
                     _Timer0_CallBack 0A63                     __end_of__Umul8_16 0A0E  
            __end_of_ModeManager_Init 17E0                            __pmaintext 0C0D  
                             ?___bmul 0036                               ?___wmul 0036  
                          __pintentry 0004                               ?_memset 0036  
                          ??_SSD_Init 0036                            ??i1___bmul 0071  
                           ?___xxtofl 0036                  _EXTI_On_Off_CallBack 08DD  
                    ?_Set_EEPROM_Data 0070                            __stringtab 0800  
                     _Scheduler_Task1 084C                       _Scheduler_Task2 0857  
                     _Scheduler_Task3 0841                       _Scheduler_Start 0B5D  
                             i1fpbase 0061              _Temperature_MainFunction 08B5  
                             _Counter 0057                               _Buttons 004A  
                    ?_SSD_SelectDigit 0070                           _Timer0_Init 08A5  
               __size_of_LED_BLINKING 002A                       __size_of___bmul 0017  
                             ___awdiv 0794  SSD_SelectDigit@Enable_Digit_Selector 0056  
                             ___awmod 0D87                               ___flmul 0068  
                             ___fltol 0677                               ___lldiv 0F76  
                     __size_of___wmul 0027                   ADC_Get_Value@Buffer 0036  
                             ___llmod 0CD8                               ___lwmod 0BD1  
         __size_of_Mode_Setting_Timer 002B                           _Temperature 004E  
                     __size_of_memset 0022        __size_of_Elements_MainFunction 0066  
                             __ptext1 08A5                               __ptext2 0B5D  
                             __ptext3 08F4                               __ptext4 0857  
                             __ptext5 084C                               __ptext6 0841  
                             __ptext7 0923                               __ptext8 0AF1  
                             __ptext9 0C4C         __end_of_Elements_MainFunction 0F0E  
                 __size_of__i1fptable 000C                             _I2c_Start 082B  
                           _I2c_Write 17E4                            ??___xxtofl 003A  
                    ___awmod@dividend 0038                   i1___bmul@multiplier 0072  
                     ??_ADC_Get_Value 0036                 ?_EXTI_On_Off_CallBack 0070  
             __end_of_Timer0_CallBack 0A8F                               clrloop0 17F9  
                           _GPIO_Init 0956                  end_of_initialization 0047  
             __size_of_ADC_Start_Conv 0009                          _LED_BLINKING 0A0E  
                       ??_EEPROM_Read 0037                               memset@c 0036  
                             memset@n 0038                               memset@p 003A  
                     ___lldiv@divisor 0036                       ___lldiv@counter 00A4  
            __size_of_Get_EEPROM_Data 0039              __end_of_Temperature_Calc 0794  
                       ??_I2c_WaitAck 0036                            ?_I2c_Start 0070  
                          ?_I2c_Write 0070               __size_of_Scheduler_Init 0010  
                   ?_SSD_MainFunction 0070                   Debouncer@Counter_Up 0049  
                       ___xxtofl@sign 00A0               __end_of_Scheduler_Task1 0857  
             __end_of_Scheduler_Task2 0862               __end_of_Scheduler_Task3 084C  
                           _SSD_Blink 0B96               __end_of_Scheduler_Start 0B96  
                  ??_SSD_MainFunction 0040                             i1___lldiv 0F0E  
                   __size_of_ADC_Init 001B                            ?_GPIO_Init 0070  
                 LED_BLINKING@Counter 0059                           ___flmul@grs 00B5  
                   __size_of_I2c_Init 000C                     __size_of_I2c_Read 000F  
                   __size_of_I2c_Stop 000B                     _Scheduler_Intitys 0806  
                 LED_BLINKING@Time_Ms 003C                             _Debouncer 05DA  
                        ?_On_Off_Init 0070                   __end_of_EEPROM_Read 0CD8  
   __size_of_ModeManager_MainFunction 0044             ?_ModeManager_MainFunction 0070  
             ?_Scheduler_ActivateTask 002D                        __end_of___bmul 090B  
                      __end_of___wmul 09BD                        __end_of_memset 0996  
                   __size_of_SSD_Init 000C                     __size_ofi1___bmul 0015  
                       ??_LED_Control 0040                   start_initialization 0015  
              ??_EXTI_On_Off_CallBack 0070                            ?_SSD_Blink 003C  
                   SSD_Blink@Times_Ms 003C                            ?i1___lldiv 0073  
                    ?_Timer0_CallBack 0070                     _SSD_SelectDisplay 0A8F  
                 __end_of_I2c_WaitAck 17F8                    ?_SSD_SelectDisplay 0070  
           __end_of_Scheduler_Intitys 0815                       ___llmod@divisor 0025  
                     ___llmod@counter 007D                            ?_Debouncer 0070  
                 ??_SSD_SelectDisplay 0040                     ?_ModeManager_Init 0070  
      __end_of_Scheduler_ActivateTask 0EA8                              ??___bmul 0037  
                            ??___wmul 003A                             __Umul8_16 09E5  
                  ??_ModeManager_Init 0036                           __pdataBANK0 0056  
                            ??_memset 003A                __size_of_Elements_Init 000C  
                         ??_I2c_Start 0036                           ??_I2c_Write 0036  
                  __end_of__i1fptable 0068                             ___flmul@a 00AA  
                           ___flmul@b 00A6                     ??_Get_EEPROM_Data 003C  
                           ___latbits 0002            ??_Temperature_MainFunction 0042  
                       __pcstackBANK0 0020                         __pcstackBANK1 00A0  
           __end_of_SSD_SelectDisplay 0ABF                      ?_Scheduler_Task1 0070  
                    ?_Scheduler_Task2 0070                      ?_Scheduler_Task3 0070  
                    ?_Scheduler_Start 0070                     __size_of__fptable 0011  
                   __size_of___xxtofl 010B                Debouncer@Depounce_Down 00D5  
                         ??_GPIO_Init 0036                        _ADC_Start_Conv 0819  
                 __end_of_LED_Control 09E5                           _EEPROM_Data 0047  
                         _EEPROM_Read 0C90                __size_of_I2c_Send_NAck 0009  
                        ?_Timer0_Init 0070                SSD_SelectDigit@Digit_1 0043  
              SSD_SelectDigit@Digit_2 0042            __end_of_Interrupt_CallBack 0817  
                           __pfunctab 004B                __size_of_Average_Value 00AC  
                            ?___awdiv 0036                              ?___awmod 0036  
                            ?___flmul 00A6                              ?___fltol 00C0  
                            ?___lldiv 0036                              ?___llmod 0025  
                          ?__Umul8_16 0036                              ?___lwmod 0036  
                           __pstrings 0800                        _Scheduler_Init 0895  
                         _I2c_WaitAck 17F0                              _ADC_Info 004D  
                            _ADC_Init 093B                           ??_SSD_Blink 003E  
              __end_of_ADC_Start_Conv 0822                           ??i1___lldiv 007B  
                      __size_of_myISR 0032                              _I2c_Init 086E  
                            _I2c_Read 0886                              _I2c_Stop 0836  
                   interrupt_function 0004                         _Elements_Init 0862  
                      ___wmul@product 003A                             clear_ram0 17F8  
                         ??_Debouncer 0036                 i1___bmul@multiplicand 0070  
            __size_of_Set_EEPROM_Data 0018            __end_of_Mode_Setting_Timer 0A63  
                __size_of_On_Off_Init 0006              __size_of_SSD_SelectDigit 0060  
              __end_of_Scheduler_Init 08A5                              _SSD_Init 087A  
                            i1___bmul 08C8                            _ADCON0bits 001F  
                         __stringbase 0805                            _ADCON1bits 009F  
                   ___wmul@multiplier 0036                     ?_Temperature_Calc 0070  
                       _I2c_Send_NAck 0822                 _Elements_MainFunction 0EA8  
                  ??_Temperature_Calc 00C8                           _LED_Control 09BD  
          __size_of_SSD_SelectDisplay 0030                       ?_ADC_Start_Conv 0070  
                       _Average_Value 052E                              i1fptable 005C  
               __end_of_ADC_Get_Value 0923                              i1fptotal 0004  
             fp__EXTI_On_Off_CallBack 0062      __end_of_ModeManager_MainFunction 0C90  
                      ?_Elements_Init 0070             __size_of_SSD_MainFunction 0059  
          Mode_Setting_Timer@Timer_Ms 003C                              _Tick_Num 00CD  
                         ??__Umul8_16 0038                      __size_of___awdiv 0069  
                    __size_of___awmod 005B                      __size_of___flmul 03BB  
                    __size_of___fltol 0092                      __size_of___lldiv 008A  
                    __size_of___llmod 0056                      __size_of___lwmod 003C  
                     ?_Scheduler_Init 0070                    __end_of__stringtab 0806  
                      ?_I2c_Send_NAck 0070                              __fptable 004B  
                            ___xxtofl 0423                        ?_Average_Value 003F  
                            __ptext10 0A38                              __ptext11 08B5  
                            __ptext20 090B                              __ptext12 0709  
                            __ptext21 0EA8                              __ptext13 0423  
                            __ptext30 05DA                              __ptext22 09BD  
                            __ptext14 0677                              __ptext31 0895  
                            __ptext23 0A0E                              __ptext15 0068  
                            __ptext40 17E4                              __ptext32 0974  
                            __ptext24 0D2E                              __ptext16 09E5  
                            __ptext41 17F0                              __ptext33 087A  
                            __ptext25 0A8F                              __ptext17 052E  
                            __ptext50 0ABF                              __ptext42 0836  
                            __ptext34 17EA                              __ptext26 0B96  
                            __ptext18 0BD1                              __ptext51 0A63  
                            __ptext43 082B                              __ptext35 17DC  
                            __ptext27 0996                              __ptext19 0F76  
                            __ptext52 0E42                              __ptext44 0822  
                            __ptext36 086E                              __ptext28 0DE2  
                            __ptext53 0F0E                              __ptext45 0886  
                            __ptext37 0B24                              __ptext29 0794  
                            __ptext54 08C8                              __ptext46 0956  
                            __ptext38 0D87                              __ptext55 0CD8  
                            __ptext47 0862                              __ptext39 0C90  
                            __ptext56 08DD                              __ptext48 0819  
                            __ptext49 093B                         ?_EEPROM_Write 0037  
                       __size_of_main 003F                              _temb_val 0190  
                       _Avrage_buffer 00D1                  __size_of_Timer0_Init 0010  
                     _Get_EEPROM_Data 0B24                          I2c_Read@data 0036  
                   ??_Set_EEPROM_Data 0039                ?_Elements_MainFunction 0070  
                          _LED_Status 004B                         I2c_Write@data 0036  
                          _INTCONbits 000B                     ??_SSD_SelectDigit 003E  
           __size_of_ModeManager_Init 0004                              memset@p1 003B  
       __size_of_EXTI_On_Off_CallBack 0017                        ??_EEPROM_Write 0038  
                     ??_Elements_Init 0036                  Debouncer@Depounce_Up 00D8  
                            intlevel1 004B                      ___lwmod@dividend 0038  
                        ?_EEPROM_Read 0070                      ___lldiv@dividend 003A  
          Scheduler_Start@IntityIndex 00CC             _Scheduler_ActivationFlags 00DB  
            __size_of_Timer0_CallBack 002C                    fp__Timer0_CallBack 0065  
            _ModeManager_MainFunction 0C4C                             stringcode 0800  
                     ??_I2c_Send_NAck 0036                __Umul8_16@multiplicand 0036  
                        ?_I2c_WaitAck 0070                    _Interrupt_CallBack 0815  
                     ??_Average_Value 00A5                      ___lldiv@quotient 00A0  
                     ___lwmod@divisor 0036                       ___lwmod@counter 003A  
                            stringdir 0800                              stringtab 0800  
                  Average_Value@Value 0040                    Average_Value@index 0041  
                       ?_LED_BLINKING 003C              __size_of_Scheduler_Task1 000B  
            __size_of_Scheduler_Task2 000B              __size_of_Scheduler_Task3 000B  
                  fp__Scheduler_Task1 0056                    fp__Scheduler_Task2 0059  
                  fp__Scheduler_Task3 0053                       EEPROM_Read@Addr 0037  
               Debouncer@Counter_Down 0048                       EEPROM_Read@Data 0046  
            __size_of_Scheduler_Start 0039                  __Umul8_16@multiplier 003E  
                    _SSD_MainFunction 0D2E               __end_of_Get_EEPROM_Data 0B5D  
   __size_of_Temperature_MainFunction 0013             ?_Temperature_MainFunction 0070  
                   __Umul8_16@product 003A  
