

Microchip MPLAB XC8 Assembler V2.20 build 20200408173844 
                                                                                               Sun Jul 12 16:53:18 2020

Microchip MPLAB XC8 C Compiler v2.20 (Free license) build 20200408173844 Og1 
     1                           	processor	16F877A
     2                           	pagewidth 120
     3                           	opt	flic
     4                           	psect	idataBANK0,global,class=CODE,delta=2,noexec
     5                           	psect	strings,global,class=STRING,delta=2,noexec
     6                           	psect	cinit,global,class=CODE,merge=1,delta=2
     7                           	psect	bssBANK0,global,class=BANK0,space=1,delta=1,noexec
     8                           	psect	dataBANK0,global,class=BANK0,space=1,delta=1,noexec
     9                           	psect	bssBANK1,global,class=BANK1,space=1,delta=1,noexec
    10                           	psect	bssBANK3,global,class=BANK3,space=1,delta=1,noexec
    11                           	psect	clrtext,global,class=CODE,delta=2
    12                           	psect	cstackBANK1,global,class=BANK1,space=1,delta=1,noexec
    13                           	psect	cstackCOMMON,global,class=COMMON,space=1,delta=1,noexec
    14                           	psect	cstackBANK0,global,class=BANK0,space=1,delta=1,noexec
    15                           	psect	maintext,global,class=CODE,split=1,delta=2
    16                           	psect	text1,local,class=CODE,merge=1,delta=2
    17                           	psect	text2,local,class=CODE,merge=1,delta=2
    18                           	psect	text3,local,class=CODE,merge=1,delta=2,group=1
    19                           	psect	text4,local,class=CODE,merge=1,delta=2
    20                           	psect	text5,local,class=CODE,merge=1,delta=2
    21                           	psect	text6,local,class=CODE,merge=1,delta=2
    22                           	psect	text7,local,class=CODE,merge=1,delta=2
    23                           	psect	text8,local,class=CODE,merge=1,delta=2
    24                           	psect	text9,local,class=CODE,merge=1,delta=2
    25                           	psect	text10,local,class=CODE,merge=1,delta=2
    26                           	psect	text11,local,class=CODE,merge=1,delta=2
    27                           	psect	text12,local,class=CODE,merge=1,delta=2
    28                           	psect	text13,local,class=CODE,merge=1,delta=2
    29                           	psect	text14,local,class=CODE,merge=1,delta=2
    30                           	psect	text15,local,class=CODE,merge=1,delta=2
    31                           	psect	text16,local,class=CODE,merge=1,delta=2
    32                           	psect	text17,local,class=CODE,merge=1,delta=2,group=1
    33                           	psect	text18,local,class=CODE,merge=1,delta=2,group=1
    34                           	psect	text19,local,class=CODE,merge=1,delta=2,group=1
    35                           	psect	text20,local,class=CODE,merge=1,delta=2,group=1
    36                           	psect	text21,local,class=CODE,merge=1,delta=2
    37                           	psect	text22,local,class=CODE,merge=1,delta=2,group=1
    38                           	psect	text23,local,class=CODE,merge=1,delta=2,group=1
    39                           	psect	text24,local,class=CODE,merge=1,delta=2
    40                           	psect	text25,local,class=CODE,merge=1,delta=2,group=1
    41                           	psect	text26,local,class=CODE,merge=1,delta=2,group=1
    42                           	psect	text27,local,class=CODE,merge=1,delta=2
    43                           	psect	text28,local,class=CODE,merge=1,delta=2,group=1
    44                           	psect	text29,local,class=CODE,merge=1,delta=2
    45                           	psect	text30,local,class=CODE,merge=1,delta=2,group=2
    46                           	psect	text31,local,class=CODE,merge=1,delta=2
    47                           	psect	text32,local,class=CODE,merge=1,delta=2
    48                           	psect	text33,local,class=CODE,merge=1,delta=2
    49                           	psect	text34,local,class=CODE,merge=1,delta=2
    50                           	psect	text35,local,class=CODE,merge=1,delta=2
    51                           	psect	text36,local,class=CODE,merge=1,delta=2
    52                           	psect	text37,local,class=CODE,merge=1,delta=2
    53                           	psect	text38,local,class=CODE,merge=1,delta=2
    54                           	psect	intentry,global,class=CODE,delta=2
    55                           	psect	text39,local,class=CODE,merge=1,delta=2
    56                           	psect	text40,local,class=CODE,merge=1,delta=2
    57                           	psect	text41,local,class=CODE,merge=1,delta=2
    58                           	psect	text42,local,class=CODE,merge=1,delta=2
    59                           	psect	text43,local,class=CODE,merge=1,delta=2,group=1
    60                           	psect	text44,local,class=CODE,merge=1,delta=2
    61                           	psect	functab,global,class=ENTRY,delta=2
    62                           	psect	config,global,abs,ovrld,class=CONFIG,space=4,delta=2,noexec
    63                           	dabs	1,0x7E,2
    64  0000                     
    65                           ; Version 2.20
    66                           ; Generated 12/02/2020 GMT
    67                           ; 
    68                           ; Copyright © 2020, Microchip Technology Inc. and its subsidiaries ("Microchip")
    69                           ; All rights reserved.
    70                           ; 
    71                           ; This software is developed by Microchip Technology Inc. and its subsidiaries ("Microch
      +                          ip").
    72                           ; 
    73                           ; Redistribution and use in source and binary forms, with or without modification, are
    74                           ; permitted provided that the following conditions are met:
    75                           ; 
    76                           ;     1. Redistributions of source code must retain the above copyright notice, this lis
      +                          t of
    77                           ;        conditions and the following disclaimer.
    78                           ; 
    79                           ;     2. Redistributions in binary form must reproduce the above copyright notice, this 
      +                          list
    80                           ;        of conditions and the following disclaimer in the documentation and/or other
    81                           ;        materials provided with the distribution.
    82                           ; 
    83                           ;     3. Microchip's name may not be used to endorse or promote products derived from th
      +                          is
    84                           ;        software without specific prior written permission.
    85                           ; 
    86                           ; THIS SOFTWARE IS PROVIDED BY MICROCHIP "AS IS" AND ANY EXPRESS OR IMPLIED WARRANTIES,
    87                           ; INCLUDING, BUT NOT LIMITED TO, THE IMPLIED WARRANTIES OF MERCHANTABILITY AND FITNESS F
      +                          OR
    88                           ; PURPOSE ARE DISCLAIMED.  IN NO EVENT SHALL MICROCHIP BE LIABLE FOR ANY DIRECT, INDIREC
      +                          T,
    89                           ; INCIDENTAL, SPECIAL, EXEMPLARY, OR CONSEQUENTIAL DAMAGES (INCLUDING BUT NOT LIMITED TO
    90                           ; PROCUREMENT OF SUBSTITUTE GOODS OR SERVICES; LOSS OF USE, DATA OR PROFITS; OR BUSINESS
    91                           ; INTERRUPTION) HOWSOEVER CAUSED AND ON ANY THEORY OF LIABILITY, WHETHER IN CONTRACT, ST
      +                          RICT
    92                           ; LIABILITY, OR TORT (INCLUDING NEGLIGENCE OR OTHERWISE) ARISING IN ANY WAY OUT OF THE U
      +                          SE OF
    93                           ; THIS SOFTWARE, EVEN IF ADVISED OF THE POSSIBILITY OF SUCH DAMAGE.
    94                           ; 
    95                           ; 
    96                           ; Code-generator required, PIC16F877A Definitions
    97                           ; 
    98                           ; SFR Addresses
    99  0000                     	;# 
   100  0001                     	;# 
   101  0002                     	;# 
   102  0003                     	;# 
   103  0004                     	;# 
   104  0005                     	;# 
   105  0006                     	;# 
   106  0007                     	;# 
   107  0008                     	;# 
   108  0009                     	;# 
   109  000A                     	;# 
   110  000B                     	;# 
   111  000C                     	;# 
   112  000D                     	;# 
   113  000E                     	;# 
   114  000E                     	;# 
   115  000F                     	;# 
   116  0010                     	;# 
   117  0011                     	;# 
   118  0012                     	;# 
   119  0013                     	;# 
   120  0014                     	;# 
   121  0015                     	;# 
   122  0015                     	;# 
   123  0016                     	;# 
   124  0017                     	;# 
   125  0018                     	;# 
   126  0019                     	;# 
   127  001A                     	;# 
   128  001B                     	;# 
   129  001B                     	;# 
   130  001C                     	;# 
   131  001D                     	;# 
   132  001E                     	;# 
   133  001F                     	;# 
   134  0081                     	;# 
   135  0085                     	;# 
   136  0086                     	;# 
   137  0087                     	;# 
   138  0088                     	;# 
   139  0089                     	;# 
   140  008C                     	;# 
   141  008D                     	;# 
   142  008E                     	;# 
   143  0091                     	;# 
   144  0092                     	;# 
   145  0093                     	;# 
   146  0094                     	;# 
   147  0098                     	;# 
   148  0099                     	;# 
   149  009C                     	;# 
   150  009D                     	;# 
   151  009E                     	;# 
   152  009F                     	;# 
   153  010C                     	;# 
   154  010D                     	;# 
   155  010E                     	;# 
   156  010F                     	;# 
   157  018C                     	;# 
   158  018D                     	;# 
   159  0000                     	;# 
   160  0001                     	;# 
   161  0002                     	;# 
   162  0003                     	;# 
   163  0004                     	;# 
   164  0005                     	;# 
   165  0006                     	;# 
   166  0007                     	;# 
   167  0008                     	;# 
   168  0009                     	;# 
   169  000A                     	;# 
   170  000B                     	;# 
   171  000C                     	;# 
   172  000D                     	;# 
   173  000E                     	;# 
   174  000E                     	;# 
   175  000F                     	;# 
   176  0010                     	;# 
   177  0011                     	;# 
   178  0012                     	;# 
   179  0013                     	;# 
   180  0014                     	;# 
   181  0015                     	;# 
   182  0015                     	;# 
   183  0016                     	;# 
   184  0017                     	;# 
   185  0018                     	;# 
   186  0019                     	;# 
   187  001A                     	;# 
   188  001B                     	;# 
   189  001B                     	;# 
   190  001C                     	;# 
   191  001D                     	;# 
   192  001E                     	;# 
   193  001F                     	;# 
   194  0081                     	;# 
   195  0085                     	;# 
   196  0086                     	;# 
   197  0087                     	;# 
   198  0088                     	;# 
   199  0089                     	;# 
   200  008C                     	;# 
   201  008D                     	;# 
   202  008E                     	;# 
   203  0091                     	;# 
   204  0092                     	;# 
   205  0093                     	;# 
   206  0094                     	;# 
   207  0098                     	;# 
   208  0099                     	;# 
   209  009C                     	;# 
   210  009D                     	;# 
   211  009E                     	;# 
   212  009F                     	;# 
   213  010C                     	;# 
   214  010D                     	;# 
   215  010E                     	;# 
   216  010F                     	;# 
   217  018C                     	;# 
   218  018D                     	;# 
   219  0000                     	;# 
   220  0001                     	;# 
   221  0002                     	;# 
   222  0003                     	;# 
   223  0004                     	;# 
   224  0005                     	;# 
   225  0006                     	;# 
   226  0007                     	;# 
   227  0008                     	;# 
   228  0009                     	;# 
   229  000A                     	;# 
   230  000B                     	;# 
   231  000C                     	;# 
   232  000D                     	;# 
   233  000E                     	;# 
   234  000E                     	;# 
   235  000F                     	;# 
   236  0010                     	;# 
   237  0011                     	;# 
   238  0012                     	;# 
   239  0013                     	;# 
   240  0014                     	;# 
   241  0015                     	;# 
   242  0015                     	;# 
   243  0016                     	;# 
   244  0017                     	;# 
   245  0018                     	;# 
   246  0019                     	;# 
   247  001A                     	;# 
   248  001B                     	;# 
   249  001B                     	;# 
   250  001C                     	;# 
   251  001D                     	;# 
   252  001E                     	;# 
   253  001F                     	;# 
   254  0081                     	;# 
   255  0085                     	;# 
   256  0086                     	;# 
   257  0087                     	;# 
   258  0088                     	;# 
   259  0089                     	;# 
   260  008C                     	;# 
   261  008D                     	;# 
   262  008E                     	;# 
   263  0091                     	;# 
   264  0092                     	;# 
   265  0093                     	;# 
   266  0094                     	;# 
   267  0098                     	;# 
   268  0099                     	;# 
   269  009C                     	;# 
   270  009D                     	;# 
   271  009E                     	;# 
   272  009F                     	;# 
   273  010C                     	;# 
   274  010D                     	;# 
   275  010E                     	;# 
   276  010F                     	;# 
   277  018C                     	;# 
   278  018D                     	;# 
   279  0000                     	;# 
   280  0001                     	;# 
   281  0002                     	;# 
   282  0003                     	;# 
   283  0004                     	;# 
   284  0005                     	;# 
   285  0006                     	;# 
   286  0007                     	;# 
   287  0008                     	;# 
   288  0009                     	;# 
   289  000A                     	;# 
   290  000B                     	;# 
   291  000C                     	;# 
   292  000D                     	;# 
   293  000E                     	;# 
   294  000E                     	;# 
   295  000F                     	;# 
   296  0010                     	;# 
   297  0011                     	;# 
   298  0012                     	;# 
   299  0013                     	;# 
   300  0014                     	;# 
   301  0015                     	;# 
   302  0015                     	;# 
   303  0016                     	;# 
   304  0017                     	;# 
   305  0018                     	;# 
   306  0019                     	;# 
   307  001A                     	;# 
   308  001B                     	;# 
   309  001B                     	;# 
   310  001C                     	;# 
   311  001D                     	;# 
   312  001E                     	;# 
   313  001F                     	;# 
   314  0081                     	;# 
   315  0085                     	;# 
   316  0086                     	;# 
   317  0087                     	;# 
   318  0088                     	;# 
   319  0089                     	;# 
   320  008C                     	;# 
   321  008D                     	;# 
   322  008E                     	;# 
   323  0091                     	;# 
   324  0092                     	;# 
   325  0093                     	;# 
   326  0094                     	;# 
   327  0098                     	;# 
   328  0099                     	;# 
   329  009C                     	;# 
   330  009D                     	;# 
   331  009E                     	;# 
   332  009F                     	;# 
   333  010C                     	;# 
   334  010D                     	;# 
   335  010E                     	;# 
   336  010F                     	;# 
   337  018C                     	;# 
   338  018D                     	;# 
   339  0000                     	;# 
   340  0001                     	;# 
   341  0002                     	;# 
   342  0003                     	;# 
   343  0004                     	;# 
   344  0005                     	;# 
   345  0006                     	;# 
   346  0007                     	;# 
   347  0008                     	;# 
   348  0009                     	;# 
   349  000A                     	;# 
   350  000B                     	;# 
   351  000C                     	;# 
   352  000D                     	;# 
   353  000E                     	;# 
   354  000E                     	;# 
   355  000F                     	;# 
   356  0010                     	;# 
   357  0011                     	;# 
   358  0012                     	;# 
   359  0013                     	;# 
   360  0014                     	;# 
   361  0015                     	;# 
   362  0015                     	;# 
   363  0016                     	;# 
   364  0017                     	;# 
   365  0018                     	;# 
   366  0019                     	;# 
   367  001A                     	;# 
   368  001B                     	;# 
   369  001B                     	;# 
   370  001C                     	;# 
   371  001D                     	;# 
   372  001E                     	;# 
   373  001F                     	;# 
   374  0081                     	;# 
   375  0085                     	;# 
   376  0086                     	;# 
   377  0087                     	;# 
   378  0088                     	;# 
   379  0089                     	;# 
   380  008C                     	;# 
   381  008D                     	;# 
   382  008E                     	;# 
   383  0091                     	;# 
   384  0092                     	;# 
   385  0093                     	;# 
   386  0094                     	;# 
   387  0098                     	;# 
   388  0099                     	;# 
   389  009C                     	;# 
   390  009D                     	;# 
   391  009E                     	;# 
   392  009F                     	;# 
   393  010C                     	;# 
   394  010D                     	;# 
   395  010E                     	;# 
   396  010F                     	;# 
   397  018C                     	;# 
   398  018D                     	;# 
   399  0000                     	;# 
   400  0001                     	;# 
   401  0002                     	;# 
   402  0003                     	;# 
   403  0004                     	;# 
   404  0005                     	;# 
   405  0006                     	;# 
   406  0007                     	;# 
   407  0008                     	;# 
   408  0009                     	;# 
   409  000A                     	;# 
   410  000B                     	;# 
   411  000C                     	;# 
   412  000D                     	;# 
   413  000E                     	;# 
   414  000E                     	;# 
   415  000F                     	;# 
   416  0010                     	;# 
   417  0011                     	;# 
   418  0012                     	;# 
   419  0013                     	;# 
   420  0014                     	;# 
   421  0015                     	;# 
   422  0015                     	;# 
   423  0016                     	;# 
   424  0017                     	;# 
   425  0018                     	;# 
   426  0019                     	;# 
   427  001A                     	;# 
   428  001B                     	;# 
   429  001B                     	;# 
   430  001C                     	;# 
   431  001D                     	;# 
   432  001E                     	;# 
   433  001F                     	;# 
   434  0081                     	;# 
   435  0085                     	;# 
   436  0086                     	;# 
   437  0087                     	;# 
   438  0088                     	;# 
   439  0089                     	;# 
   440  008C                     	;# 
   441  008D                     	;# 
   442  008E                     	;# 
   443  0091                     	;# 
   444  0092                     	;# 
   445  0093                     	;# 
   446  0094                     	;# 
   447  0098                     	;# 
   448  0099                     	;# 
   449  009C                     	;# 
   450  009D                     	;# 
   451  009E                     	;# 
   452  009F                     	;# 
   453  010C                     	;# 
   454  010D                     	;# 
   455  010E                     	;# 
   456  010F                     	;# 
   457  018C                     	;# 
   458  018D                     	;# 
   459  0000                     	;# 
   460  0001                     	;# 
   461  0002                     	;# 
   462  0003                     	;# 
   463  0004                     	;# 
   464  0005                     	;# 
   465  0006                     	;# 
   466  0007                     	;# 
   467  0008                     	;# 
   468  0009                     	;# 
   469  000A                     	;# 
   470  000B                     	;# 
   471  000C                     	;# 
   472  000D                     	;# 
   473  000E                     	;# 
   474  000E                     	;# 
   475  000F                     	;# 
   476  0010                     	;# 
   477  0011                     	;# 
   478  0012                     	;# 
   479  0013                     	;# 
   480  0014                     	;# 
   481  0015                     	;# 
   482  0015                     	;# 
   483  0016                     	;# 
   484  0017                     	;# 
   485  0018                     	;# 
   486  0019                     	;# 
   487  001A                     	;# 
   488  001B                     	;# 
   489  001B                     	;# 
   490  001C                     	;# 
   491  001D                     	;# 
   492  001E                     	;# 
   493  001F                     	;# 
   494  0081                     	;# 
   495  0085                     	;# 
   496  0086                     	;# 
   497  0087                     	;# 
   498  0088                     	;# 
   499  0089                     	;# 
   500  008C                     	;# 
   501  008D                     	;# 
   502  008E                     	;# 
   503  0091                     	;# 
   504  0092                     	;# 
   505  0093                     	;# 
   506  0094                     	;# 
   507  0098                     	;# 
   508  0099                     	;# 
   509  009C                     	;# 
   510  009D                     	;# 
   511  009E                     	;# 
   512  009F                     	;# 
   513  010C                     	;# 
   514  010D                     	;# 
   515  010E                     	;# 
   516  010F                     	;# 
   517  018C                     	;# 
   518  018D                     	;# 
   519  0000                     	;# 
   520  0001                     	;# 
   521  0002                     	;# 
   522  0003                     	;# 
   523  0004                     	;# 
   524  0005                     	;# 
   525  0006                     	;# 
   526  0007                     	;# 
   527  0008                     	;# 
   528  0009                     	;# 
   529  000A                     	;# 
   530  000B                     	;# 
   531  000C                     	;# 
   532  000D                     	;# 
   533  000E                     	;# 
   534  000E                     	;# 
   535  000F                     	;# 
   536  0010                     	;# 
   537  0011                     	;# 
   538  0012                     	;# 
   539  0013                     	;# 
   540  0014                     	;# 
   541  0015                     	;# 
   542  0015                     	;# 
   543  0016                     	;# 
   544  0017                     	;# 
   545  0018                     	;# 
   546  0019                     	;# 
   547  001A                     	;# 
   548  001B                     	;# 
   549  001B                     	;# 
   550  001C                     	;# 
   551  001D                     	;# 
   552  001E                     	;# 
   553  001F                     	;# 
   554  0081                     	;# 
   555  0085                     	;# 
   556  0086                     	;# 
   557  0087                     	;# 
   558  0088                     	;# 
   559  0089                     	;# 
   560  008C                     	;# 
   561  008D                     	;# 
   562  008E                     	;# 
   563  0091                     	;# 
   564  0092                     	;# 
   565  0093                     	;# 
   566  0094                     	;# 
   567  0098                     	;# 
   568  0099                     	;# 
   569  009C                     	;# 
   570  009D                     	;# 
   571  009E                     	;# 
   572  009F                     	;# 
   573  010C                     	;# 
   574  010D                     	;# 
   575  010E                     	;# 
   576  010F                     	;# 
   577  018C                     	;# 
   578  018D                     	;# 
   579  0000                     	;# 
   580  0001                     	;# 
   581  0002                     	;# 
   582  0003                     	;# 
   583  0004                     	;# 
   584  0005                     	;# 
   585  0006                     	;# 
   586  0007                     	;# 
   587  0008                     	;# 
   588  0009                     	;# 
   589  000A                     	;# 
   590  000B                     	;# 
   591  000C                     	;# 
   592  000D                     	;# 
   593  000E                     	;# 
   594  000E                     	;# 
   595  000F                     	;# 
   596  0010                     	;# 
   597  0011                     	;# 
   598  0012                     	;# 
   599  0013                     	;# 
   600  0014                     	;# 
   601  0015                     	;# 
   602  0015                     	;# 
   603  0016                     	;# 
   604  0017                     	;# 
   605  0018                     	;# 
   606  0019                     	;# 
   607  001A                     	;# 
   608  001B                     	;# 
   609  001B                     	;# 
   610  001C                     	;# 
   611  001D                     	;# 
   612  001E                     	;# 
   613  001F                     	;# 
   614  0081                     	;# 
   615  0085                     	;# 
   616  0086                     	;# 
   617  0087                     	;# 
   618  0088                     	;# 
   619  0089                     	;# 
   620  008C                     	;# 
   621  008D                     	;# 
   622  008E                     	;# 
   623  0091                     	;# 
   624  0092                     	;# 
   625  0093                     	;# 
   626  0094                     	;# 
   627  0098                     	;# 
   628  0099                     	;# 
   629  009C                     	;# 
   630  009D                     	;# 
   631  009E                     	;# 
   632  009F                     	;# 
   633  010C                     	;# 
   634  010D                     	;# 
   635  010E                     	;# 
   636  010F                     	;# 
   637  018C                     	;# 
   638  018D                     	;# 
   639  0000                     	;# 
   640  0001                     	;# 
   641  0002                     	;# 
   642  0003                     	;# 
   643  0004                     	;# 
   644  0005                     	;# 
   645  0006                     	;# 
   646  0007                     	;# 
   647  0008                     	;# 
   648  0009                     	;# 
   649  000A                     	;# 
   650  000B                     	;# 
   651  000C                     	;# 
   652  000D                     	;# 
   653  000E                     	;# 
   654  000E                     	;# 
   655  000F                     	;# 
   656  0010                     	;# 
   657  0011                     	;# 
   658  0012                     	;# 
   659  0013                     	;# 
   660  0014                     	;# 
   661  0015                     	;# 
   662  0015                     	;# 
   663  0016                     	;# 
   664  0017                     	;# 
   665  0018                     	;# 
   666  0019                     	;# 
   667  001A                     	;# 
   668  001B                     	;# 
   669  001B                     	;# 
   670  001C                     	;# 
   671  001D                     	;# 
   672  001E                     	;# 
   673  001F                     	;# 
   674  0081                     	;# 
   675  0085                     	;# 
   676  0086                     	;# 
   677  0087                     	;# 
   678  0088                     	;# 
   679  0089                     	;# 
   680  008C                     	;# 
   681  008D                     	;# 
   682  008E                     	;# 
   683  0091                     	;# 
   684  0092                     	;# 
   685  0093                     	;# 
   686  0094                     	;# 
   687  0098                     	;# 
   688  0099                     	;# 
   689  009C                     	;# 
   690  009D                     	;# 
   691  009E                     	;# 
   692  009F                     	;# 
   693  010C                     	;# 
   694  010D                     	;# 
   695  010E                     	;# 
   696  010F                     	;# 
   697  018C                     	;# 
   698  018D                     	;# 
   699  0000                     	;# 
   700  0001                     	;# 
   701  0002                     	;# 
   702  0003                     	;# 
   703  0004                     	;# 
   704  0005                     	;# 
   705  0006                     	;# 
   706  0007                     	;# 
   707  0008                     	;# 
   708  0009                     	;# 
   709  000A                     	;# 
   710  000B                     	;# 
   711  000C                     	;# 
   712  000D                     	;# 
   713  000E                     	;# 
   714  000E                     	;# 
   715  000F                     	;# 
   716  0010                     	;# 
   717  0011                     	;# 
   718  0012                     	;# 
   719  0013                     	;# 
   720  0014                     	;# 
   721  0015                     	;# 
   722  0015                     	;# 
   723  0016                     	;# 
   724  0017                     	;# 
   725  0018                     	;# 
   726  0019                     	;# 
   727  001A                     	;# 
   728  001B                     	;# 
   729  001B                     	;# 
   730  001C                     	;# 
   731  001D                     	;# 
   732  001E                     	;# 
   733  001F                     	;# 
   734  0081                     	;# 
   735  0085                     	;# 
   736  0086                     	;# 
   737  0087                     	;# 
   738  0088                     	;# 
   739  0089                     	;# 
   740  008C                     	;# 
   741  008D                     	;# 
   742  008E                     	;# 
   743  0091                     	;# 
   744  0092                     	;# 
   745  0093                     	;# 
   746  0094                     	;# 
   747  0098                     	;# 
   748  0099                     	;# 
   749  009C                     	;# 
   750  009D                     	;# 
   751  009E                     	;# 
   752  009F                     	;# 
   753  010C                     	;# 
   754  010D                     	;# 
   755  010E                     	;# 
   756  010F                     	;# 
   757  018C                     	;# 
   758  018D                     	;# 
   759  0000                     	;# 
   760  0001                     	;# 
   761  0002                     	;# 
   762  0003                     	;# 
   763  0004                     	;# 
   764  0005                     	;# 
   765  0006                     	;# 
   766  0007                     	;# 
   767  0008                     	;# 
   768  0009                     	;# 
   769  000A                     	;# 
   770  000B                     	;# 
   771  000C                     	;# 
   772  000D                     	;# 
   773  000E                     	;# 
   774  000E                     	;# 
   775  000F                     	;# 
   776  0010                     	;# 
   777  0011                     	;# 
   778  0012                     	;# 
   779  0013                     	;# 
   780  0014                     	;# 
   781  0015                     	;# 
   782  0015                     	;# 
   783  0016                     	;# 
   784  0017                     	;# 
   785  0018                     	;# 
   786  0019                     	;# 
   787  001A                     	;# 
   788  001B                     	;# 
   789  001B                     	;# 
   790  001C                     	;# 
   791  001D                     	;# 
   792  001E                     	;# 
   793  001F                     	;# 
   794  0081                     	;# 
   795  0085                     	;# 
   796  0086                     	;# 
   797  0087                     	;# 
   798  0088                     	;# 
   799  0089                     	;# 
   800  008C                     	;# 
   801  008D                     	;# 
   802  008E                     	;# 
   803  0091                     	;# 
   804  0092                     	;# 
   805  0093                     	;# 
   806  0094                     	;# 
   807  0098                     	;# 
   808  0099                     	;# 
   809  009C                     	;# 
   810  009D                     	;# 
   811  009E                     	;# 
   812  009F                     	;# 
   813  010C                     	;# 
   814  010D                     	;# 
   815  010E                     	;# 
   816  010F                     	;# 
   817  018C                     	;# 
   818  018D                     	;# 
   819  0000                     	;# 
   820  0001                     	;# 
   821  0002                     	;# 
   822  0003                     	;# 
   823  0004                     	;# 
   824  0005                     	;# 
   825  0006                     	;# 
   826  0007                     	;# 
   827  0008                     	;# 
   828  0009                     	;# 
   829  000A                     	;# 
   830  000B                     	;# 
   831  000C                     	;# 
   832  000D                     	;# 
   833  000E                     	;# 
   834  000E                     	;# 
   835  000F                     	;# 
   836  0010                     	;# 
   837  0011                     	;# 
   838  0012                     	;# 
   839  0013                     	;# 
   840  0014                     	;# 
   841  0015                     	;# 
   842  0015                     	;# 
   843  0016                     	;# 
   844  0017                     	;# 
   845  0018                     	;# 
   846  0019                     	;# 
   847  001A                     	;# 
   848  001B                     	;# 
   849  001B                     	;# 
   850  001C                     	;# 
   851  001D                     	;# 
   852  001E                     	;# 
   853  001F                     	;# 
   854  0081                     	;# 
   855  0085                     	;# 
   856  0086                     	;# 
   857  0087                     	;# 
   858  0088                     	;# 
   859  0089                     	;# 
   860  008C                     	;# 
   861  008D                     	;# 
   862  008E                     	;# 
   863  0091                     	;# 
   864  0092                     	;# 
   865  0093                     	;# 
   866  0094                     	;# 
   867  0098                     	;# 
   868  0099                     	;# 
   869  009C                     	;# 
   870  009D                     	;# 
   871  009E                     	;# 
   872  009F                     	;# 
   873  010C                     	;# 
   874  010D                     	;# 
   875  010E                     	;# 
   876  010F                     	;# 
   877  018C                     	;# 
   878  018D                     	;# 
   879  0000                     	;# 
   880  0001                     	;# 
   881  0002                     	;# 
   882  0003                     	;# 
   883  0004                     	;# 
   884  0005                     	;# 
   885  0006                     	;# 
   886  0007                     	;# 
   887  0008                     	;# 
   888  0009                     	;# 
   889  000A                     	;# 
   890  000B                     	;# 
   891  000C                     	;# 
   892  000D                     	;# 
   893  000E                     	;# 
   894  000E                     	;# 
   895  000F                     	;# 
   896  0010                     	;# 
   897  0011                     	;# 
   898  0012                     	;# 
   899  0013                     	;# 
   900  0014                     	;# 
   901  0015                     	;# 
   902  0015                     	;# 
   903  0016                     	;# 
   904  0017                     	;# 
   905  0018                     	;# 
   906  0019                     	;# 
   907  001A                     	;# 
   908  001B                     	;# 
   909  001B                     	;# 
   910  001C                     	;# 
   911  001D                     	;# 
   912  001E                     	;# 
   913  001F                     	;# 
   914  0081                     	;# 
   915  0085                     	;# 
   916  0086                     	;# 
   917  0087                     	;# 
   918  0088                     	;# 
   919  0089                     	;# 
   920  008C                     	;# 
   921  008D                     	;# 
   922  008E                     	;# 
   923  0091                     	;# 
   924  0092                     	;# 
   925  0093                     	;# 
   926  0094                     	;# 
   927  0098                     	;# 
   928  0099                     	;# 
   929  009C                     	;# 
   930  009D                     	;# 
   931  009E                     	;# 
   932  009F                     	;# 
   933  010C                     	;# 
   934  010D                     	;# 
   935  010E                     	;# 
   936  010F                     	;# 
   937  018C                     	;# 
   938  018D                     	;# 
   939                           
   940                           	psect	idataBANK0
   941  0917                     __pidataBANK0:
   942                           
   943                           ;initializer for LED_BLINKING@Counter
   944  0917  3401               	retlw	1
   945                           
   946                           ;initializer for Display_Blink@Counter
   947  0918  3401               	retlw	1
   948                           
   949                           ;initializer for Display_MainFunction@Enable_Digit_Selector
   950  0919  3401               	retlw	1
   951                           
   952                           ;initializer for _Average_Nvalues
   953  091A  340A               	retlw	10
   954                           
   955                           	psect	strings
   956  07EA                     __pstrings:
   957  07EA                     stringtab:
   958  07EA                     __stringtab:
   959  07EA                     stringcode:	
   960                           ;	String table - string pointers are 1 byte each
   961                           
   962  07EA                     stringdir:
   963  07EA  3007               	movlw	high stringdir
   964  07EB  008A               	movwf	10
   965  07EC  0804               	movf	4,w
   966  07ED  0A84               	incf	4,f
   967  07EE  0782               	addwf	2,f
   968  07EF                     __stringbase:
   969  07EF  3400               	retlw	0
   970  07F0                     __end_of__stringtab:
   971  07F0                     _Scheduler_Intitys:
   972  07F0  3404               	retlw	low (fp__Scheduler_Task1-fpbase)
   973  07F1  3414               	retlw	20
   974  07F2  3400               	retlw	0
   975  07F3  3400               	retlw	0
   976  07F4  3400               	retlw	0
   977  07F5  3407               	retlw	low (fp__Scheduler_Task2-fpbase)
   978  07F6  3464               	retlw	100
   979  07F7  3400               	retlw	0
   980  07F8  3400               	retlw	0
   981  07F9  3400               	retlw	0
   982  07FA  3401               	retlw	low (fp__Scheduler_Task3-fpbase)
   983  07FB  34F4               	retlw	244
   984  07FC  3401               	retlw	1
   985  07FD  3400               	retlw	0
   986  07FE  3400               	retlw	0
   987  07FF                     __end_of_Scheduler_Intitys:
   988  0001                     _TMR0	set	1
   989  0007                     _PORTC	set	7
   990  0008                     _PORTD	set	8
   991  0005                     _PORTA	set	5
   992  0006                     _PORTB	set	6
   993  000B                     _INTCONbits	set	11
   994  001E                     _ADRESH	set	30
   995  001F                     _ADCON0bits	set	31
   996  0081                     _OPTION_REGbits	set	129
   997  0088                     _TRISD	set	136
   998  0085                     _TRISA	set	133
   999  0086                     _TRISB	set	134
  1000  0087                     _TRISC	set	135
  1001  0086                     _TRISBbits	set	134
  1002  009E                     _ADRESL	set	158
  1003  009F                     _ADCON1bits	set	159
  1004  0085                     _TRISAbits	set	133
  1005  040E                     _INTEDG	set	1038
  1006                           
  1007                           	psect	cinit
  1008  0015                     start_initialization:	
  1009                           ; #config settings
  1010                           
  1011  0015                     __initialization:
  1012                           
  1013                           ; Initialize objects allocated to BANK0
  1014  0015  120A  158A  2117  120A  118A  	fcall	__pidataBANK0	;fetch initializer
  1015  001A  00D2               	movwf	__pdataBANK0& (0+127)
  1016  001B  120A  158A  2118  120A  118A  	fcall	__pidataBANK0+1	;fetch initializer
  1017  0020  00D3               	movwf	(__pdataBANK0+1)& (0+127)
  1018  0021  120A  158A  2119  120A  118A  	fcall	__pidataBANK0+2	;fetch initializer
  1019  0026  00D4               	movwf	(__pdataBANK0+2)& (0+127)
  1020  0027  120A  158A  211A  120A  118A  	fcall	__pidataBANK0+3	;fetch initializer
  1021  002C  00D5               	movwf	(__pdataBANK0+3)& (0+127)
  1022                           
  1023                           ; Clear objects allocated to BANK3
  1024  002D  1783               	bsf	3,7	;select IRP bank2
  1025  002E  3090               	movlw	low __pbssBANK3
  1026  002F  0084               	movwf	4
  1027  0030  30B8               	movlw	low (__pbssBANK3+40)
  1028  0031  120A  158A  2128  120A  118A  	fcall	clear_ram0
  1029                           
  1030                           ; Clear objects allocated to BANK1
  1031  0036  1683               	bsf	3,5	;RP0=1, select bank1
  1032  0037  1303               	bcf	3,6	;RP1=0, select bank1
  1033  0038  01D2               	clrf	__pbssBANK1& (0+127)
  1034  0039  01D3               	clrf	(__pbssBANK1+1)& (0+127)
  1035  003A  01D4               	clrf	(__pbssBANK1+2)& (0+127)
  1036  003B  01D5               	clrf	(__pbssBANK1+3)& (0+127)
  1037  003C  01D6               	clrf	(__pbssBANK1+4)& (0+127)
  1038  003D  01D7               	clrf	(__pbssBANK1+5)& (0+127)
  1039                           
  1040                           ; Clear objects allocated to BANK0
  1041  003E  1383               	bcf	3,7	;select IRP bank0
  1042  003F  3043               	movlw	low __pbssBANK0
  1043  0040  0084               	movwf	4
  1044  0041  3052               	movlw	low (__pbssBANK0+15)
  1045  0042  120A  158A  2128  120A  118A  	fcall	clear_ram0
  1046  0047                     end_of_initialization:	
  1047                           ;End of C runtime variable initialization code
  1048                           
  1049  0047                     __end_of__initialization:
  1050  0047  0183               	clrf	3
  1051  0048  120A  158A  2B30   	ljmp	_main	;jump to C main() function
  1052                           
  1053                           	psect	bssBANK0
  1054  0043                     __pbssBANK0:
  1055  0043                     _Tick_Num:
  1056  0043                     	ds	4
  1057  0047                     _LED_Status:
  1058  0047                     	ds	1
  1059  0048                     Display_MainFunction@Display:
  1060  0048                     	ds	1
  1061  0049                     Display_MainFunction@Tempreture:
  1062  0049                     	ds	1
  1063  004A                     Display_MainFunction@Digit_2:
  1064  004A                     	ds	1
  1065  004B                     Display_MainFunction@Digit_1:
  1066  004B                     	ds	1
  1067  004C                     _Enable_Display:
  1068  004C                     	ds	1
  1069  004D                     _Temperature:
  1070  004D                     	ds	5
  1071                           
  1072                           	psect	dataBANK0
  1073  0052                     __pdataBANK0:
  1074  0052                     LED_BLINKING@Counter:
  1075  0052                     	ds	1
  1076  0053                     Display_Blink@Counter:
  1077  0053                     	ds	1
  1078  0054                     Display_MainFunction@Enable_Digit_Selector:
  1079  0054                     	ds	1
  1080  0055                     _Average_Nvalues:
  1081  0055                     	ds	1
  1082                           
  1083                           	psect	bssBANK1
  1084  00D2                     __pbssBANK1:
  1085  00D2                     _Mode:
  1086  00D2                     	ds	2
  1087  00D4                     _ADC_Info:
  1088  00D4                     	ds	1
  1089  00D5                     _Scheduler_ActivationFlags:
  1090  00D5                     	ds	3
  1091                           
  1092                           	psect	bssBANK3
  1093  0190                     __pbssBANK3:
  1094  0190                     _temb_val:
  1095  0190                     	ds	40
  1096                           
  1097                           	psect	clrtext
  1098  0928                     clear_ram0:	
  1099                           ;	Called with FSR containing the base address, and
  1100                           ;	W with the last address+1
  1101                           
  1102  0928  0064               	clrwdt	;clear the watchdog before getting into this loop
  1103  0929                     clrloop0:
  1104  0929  0180               	clrf	0	;clear RAM location pointed to by FSR
  1105  092A  0A84               	incf	4,f	;increment pointer
  1106  092B  0604               	xorwf	4,w	;XOR with final address
  1107  092C  1903               	btfsc	3,2	;have we reached the end yet?
  1108  092D  3400               	retlw	0	;all done for this memory range, return
  1109  092E  0604               	xorwf	4,w	;XOR again to restore value
  1110  092F  2929               	goto	clrloop0	;do the next byte
  1111                           
  1112                           	psect	cstackBANK1
  1113  00A0                     __pcstackBANK1:
  1114  00A0                     ?_Display_Blink:
  1115  00A0                     ?_Start_Setting_Timer:	
  1116                           ; 1 bytes @ 0x0
  1117                           
  1118  00A0                     ?_LED_BLINKING:	
  1119                           ; 1 bytes @ 0x0
  1120                           
  1121  00A0                     ___xxtofl@sign:	
  1122                           ; 1 bytes @ 0x0
  1123                           
  1124  00A0                     Display_Blink@Times_Ms:	
  1125                           ; 1 bytes @ 0x0
  1126                           
  1127  00A0                     LED_BLINKING@Time_Ms:	
  1128                           ; 2 bytes @ 0x0
  1129                           
  1130  00A0                     Start_Setting_Timer@Timer_Ms:	
  1131                           ; 2 bytes @ 0x0
  1132                           
  1133  00A0                     ___lldiv@quotient:	
  1134                           ; 2 bytes @ 0x0
  1135                           
  1136                           
  1137                           ; 4 bytes @ 0x0
  1138  00A0                     	ds	1
  1139  00A1                     ___xxtofl@exp:
  1140                           
  1141                           ; 1 bytes @ 0x1
  1142  00A1                     	ds	1
  1143  00A2                     Display_Blink@Task_Peroid:
  1144  00A2                     LED_BLINKING@Task_Peroid:	
  1145                           ; 2 bytes @ 0x2
  1146                           
  1147  00A2                     Start_Setting_Timer@Peroid_Task:	
  1148                           ; 2 bytes @ 0x2
  1149                           
  1150  00A2                     ___xxtofl@arg:	
  1151                           ; 2 bytes @ 0x2
  1152                           
  1153                           
  1154                           ; 4 bytes @ 0x2
  1155  00A2                     	ds	2
  1156  00A4                     ??_Display_MainFunction:
  1157  00A4                     ___lldiv@counter:	
  1158                           ; 1 bytes @ 0x4
  1159                           
  1160                           
  1161                           ; 1 bytes @ 0x4
  1162  00A4                     	ds	1
  1163  00A5                     ?_Average_Value:
  1164  00A5                     Average_Value@Avrage_Values:	
  1165                           ; 1 bytes @ 0x5
  1166                           
  1167                           
  1168                           ; 1 bytes @ 0x5
  1169  00A5                     	ds	1
  1170  00A6                     ??_Average_Value:
  1171  00A6                     ?___flmul:	
  1172                           ; 1 bytes @ 0x6
  1173                           
  1174  00A6                     ___flmul@b:	
  1175                           ; 4 bytes @ 0x6
  1176                           
  1177                           
  1178                           ; 4 bytes @ 0x6
  1179  00A6                     	ds	4
  1180  00AA                     ___flmul@a:
  1181                           
  1182                           ; 4 bytes @ 0xA
  1183  00AA                     	ds	1
  1184  00AB                     Average_Value@Value:
  1185                           
  1186                           ; 1 bytes @ 0xB
  1187  00AB                     	ds	1
  1188  00AC                     Average_Value@Avrage_buffer:
  1189                           
  1190                           ; 4 bytes @ 0xC
  1191  00AC                     	ds	2
  1192  00AE                     ??___flmul:
  1193                           
  1194                           ; 1 bytes @ 0xE
  1195  00AE                     	ds	2
  1196  00B0                     Average_Value@index:
  1197                           
  1198                           ; 1 bytes @ 0x10
  1199  00B0                     	ds	3
  1200  00B3                     ___flmul@sign:
  1201                           
  1202                           ; 1 bytes @ 0x13
  1203  00B3                     	ds	1
  1204  00B4                     ___flmul@aexp:
  1205                           
  1206                           ; 1 bytes @ 0x14
  1207  00B4                     	ds	1
  1208  00B5                     ___flmul@grs:
  1209                           
  1210                           ; 4 bytes @ 0x15
  1211  00B5                     	ds	4
  1212  00B9                     ___flmul@bexp:
  1213                           
  1214                           ; 1 bytes @ 0x19
  1215  00B9                     	ds	1
  1216  00BA                     ___flmul@prod:
  1217                           
  1218                           ; 4 bytes @ 0x1A
  1219  00BA                     	ds	4
  1220  00BE                     ___flmul@temp:
  1221                           
  1222                           ; 2 bytes @ 0x1E
  1223  00BE                     	ds	2
  1224  00C0                     ?___fltol:
  1225  00C0                     ___fltol@f1:	
  1226                           ; 4 bytes @ 0x20
  1227                           
  1228                           
  1229                           ; 4 bytes @ 0x20
  1230  00C0                     	ds	4
  1231  00C4                     ??___fltol:
  1232                           
  1233                           ; 1 bytes @ 0x24
  1234  00C4                     	ds	4
  1235  00C8                     ___fltol@sign1:
  1236                           
  1237                           ; 1 bytes @ 0x28
  1238  00C8                     	ds	1
  1239  00C9                     ___fltol@exp1:
  1240                           
  1241                           ; 1 bytes @ 0x29
  1242  00C9                     	ds	1
  1243  00CA                     ??_Temperature_Calc:
  1244                           
  1245                           ; 1 bytes @ 0x2A
  1246  00CA                     	ds	4
  1247  00CE                     Temperature_Calc@ADC_VALUE:
  1248                           
  1249                           ; 1 bytes @ 0x2E
  1250  00CE                     	ds	1
  1251  00CF                     ADC_Value_Ready_CallBack@ADC_Value:
  1252                           
  1253                           ; 2 bytes @ 0x2F
  1254  00CF                     	ds	2
  1255  00D1                     Scheduler_Start@IntityIndex:
  1256                           
  1257                           ; 1 bytes @ 0x31
  1258  00D1                     	ds	1
  1259                           
  1260                           	psect	cstackCOMMON
  1261  0070                     __pcstackCOMMON:
  1262  0070                     ?_ADC_Value_Ready_CallBack:
  1263  0070                     ?_Temperature_Calc:	
  1264                           ; 1 bytes @ 0x0
  1265                           
  1266  0070                     ?_GPIO_Init:	
  1267                           ; 1 bytes @ 0x0
  1268                           
  1269  0070                     ?_On_Off_Init:	
  1270                           ; 1 bytes @ 0x0
  1271                           
  1272  0070                     ?_Display_Init:	
  1273                           ; 1 bytes @ 0x0
  1274                           
  1275  0070                     ?_Elements_Init:	
  1276                           ; 1 bytes @ 0x0
  1277                           
  1278  0070                     ?_Mode_Init:	
  1279                           ; 1 bytes @ 0x0
  1280                           
  1281  0070                     ?_Scheduler_Init:	
  1282                           ; 1 bytes @ 0x0
  1283                           
  1284  0070                     ?_Timer0_Init:	
  1285                           ; 1 bytes @ 0x0
  1286                           
  1287  0070                     ?_Scheduler_Start:	
  1288                           ; 1 bytes @ 0x0
  1289                           
  1290  0070                     ?_Timer0_CallBack:	
  1291                           ; 1 bytes @ 0x0
  1292                           
  1293  0070                     ?_Scheduler_Task1:	
  1294                           ; 1 bytes @ 0x0
  1295                           
  1296  0070                     ?_Scheduler_Task2:	
  1297                           ; 1 bytes @ 0x0
  1298                           
  1299  0070                     ?_Scheduler_Task3:	
  1300                           ; 1 bytes @ 0x0
  1301                           
  1302  0070                     ?_Mode_MainFunction:	
  1303                           ; 1 bytes @ 0x0
  1304                           
  1305  0070                     ?_Reset_Setting_Timer:	
  1306                           ; 1 bytes @ 0x0
  1307                           
  1308  0070                     ?_ADC_Init:	
  1309                           ; 1 bytes @ 0x0
  1310                           
  1311  0070                     ?_ADC_Start_Conv:	
  1312                           ; 1 bytes @ 0x0
  1313                           
  1314  0070                     ?_ADC_Conv_MainFunction:	
  1315                           ; 1 bytes @ 0x0
  1316                           
  1317  0070                     ?_main:	
  1318                           ; 1 bytes @ 0x0
  1319                           
  1320  0070                     ?_EXTI_On_Off_CallBack:	
  1321                           ; 1 bytes @ 0x0
  1322                           
  1323  0070                     ??_EXTI_On_Off_CallBack:	
  1324                           ; 1 bytes @ 0x0
  1325                           
  1326  0070                     ?_Read_UP_DOWN_BUTTONS:	
  1327                           ; 1 bytes @ 0x0
  1328                           
  1329  0070                     ?_Display_MainFunction:	
  1330                           ; 1 bytes @ 0x0
  1331                           
  1332  0070                     ?_LED_MainFunction:	
  1333                           ; 1 bytes @ 0x0
  1334                           
  1335  0070                     ?_Elements_Control:	
  1336                           ; 1 bytes @ 0x0
  1337                           
  1338  0070                     ?_myISR:	
  1339                           ; 1 bytes @ 0x0
  1340                           
  1341  0070                     ?i1___bmul:	
  1342                           ; 1 bytes @ 0x0
  1343                           
  1344  0070                     i1___bmul@multiplicand:	
  1345                           ; 1 bytes @ 0x0
  1346                           
  1347                           
  1348                           ; 1 bytes @ 0x0
  1349  0070                     	ds	1
  1350  0071                     ??i1___bmul:
  1351  0071                     i1___bmul@product:	
  1352                           ; 1 bytes @ 0x1
  1353                           
  1354                           
  1355                           ; 1 bytes @ 0x1
  1356  0071                     	ds	1
  1357  0072                     i1___bmul@multiplier:
  1358                           
  1359                           ; 1 bytes @ 0x2
  1360  0072                     	ds	1
  1361  0073                     ?i1___lldiv:
  1362  0073                     i1___lldiv@divisor:	
  1363                           ; 4 bytes @ 0x3
  1364                           
  1365                           
  1366                           ; 4 bytes @ 0x3
  1367  0073                     	ds	4
  1368  0077                     i1___lldiv@dividend:
  1369                           
  1370                           ; 4 bytes @ 0x7
  1371  0077                     	ds	4
  1372  007B                     ??i1___lldiv:
  1373                           
  1374                           ; 1 bytes @ 0xB
  1375  007B                     	ds	1
  1376  007C                     ??___llmod:
  1377                           
  1378                           ; 1 bytes @ 0xC
  1379  007C                     	ds	1
  1380  007D                     ___llmod@counter:
  1381                           
  1382                           ; 1 bytes @ 0xD
  1383  007D                     	ds	1
  1384  007E                     ??_Timer0_CallBack:
  1385  007E                     ??_Scheduler_ActivateTask:	
  1386                           ; 1 bytes @ 0xE
  1387                           
  1388                           
  1389                           	psect	cstackBANK0
  1390  0020                     __pcstackBANK0:	
  1391                           ; 1 bytes @ 0xE
  1392                           
  1393  0020                     i1___lldiv@quotient:
  1394                           
  1395                           ; 4 bytes @ 0x0
  1396  0020                     	ds	4
  1397  0024                     i1___lldiv@counter:
  1398                           
  1399                           ; 1 bytes @ 0x4
  1400  0024                     	ds	1
  1401  0025                     ?___llmod:
  1402  0025                     ___llmod@divisor:	
  1403                           ; 4 bytes @ 0x5
  1404                           
  1405                           
  1406                           ; 4 bytes @ 0x5
  1407  0025                     	ds	4
  1408  0029                     ___llmod@dividend:
  1409                           
  1410                           ; 4 bytes @ 0x9
  1411  0029                     	ds	4
  1412  002D                     ?_Scheduler_ActivateTask:
  1413  002D                     Scheduler_ActivateTask@SystemTick:	
  1414                           ; 1 bytes @ 0xD
  1415                           
  1416                           
  1417                           ; 4 bytes @ 0xD
  1418  002D                     	ds	4
  1419  0031                     Scheduler_ActivateTask@SystemTick_Loc:
  1420                           
  1421                           ; 4 bytes @ 0x11
  1422  0031                     	ds	4
  1423  0035                     Scheduler_ActivateTask@IntityIndex:
  1424                           
  1425                           ; 1 bytes @ 0x15
  1426  0035                     	ds	1
  1427  0036                     ??_myISR:
  1428                           
  1429                           ; 1 bytes @ 0x16
  1430  0036                     	ds	4
  1431  003A                     ??_GPIO_Init:
  1432  003A                     ??_On_Off_Init:	
  1433                           ; 1 bytes @ 0x1A
  1434                           
  1435  003A                     ??_Display_Init:	
  1436                           ; 1 bytes @ 0x1A
  1437                           
  1438  003A                     ??_Elements_Init:	
  1439                           ; 1 bytes @ 0x1A
  1440                           
  1441  003A                     ??_Mode_Init:	
  1442                           ; 1 bytes @ 0x1A
  1443                           
  1444  003A                     ??_Timer0_Init:	
  1445                           ; 1 bytes @ 0x1A
  1446                           
  1447  003A                     ?_memset:	
  1448                           ; 1 bytes @ 0x1A
  1449                           
  1450  003A                     ??_Reset_Setting_Timer:	
  1451                           ; 1 bytes @ 0x1A
  1452                           
  1453  003A                     ??_ADC_Init:	
  1454                           ; 1 bytes @ 0x1A
  1455                           
  1456  003A                     ??_ADC_Start_Conv:	
  1457                           ; 1 bytes @ 0x1A
  1458                           
  1459  003A                     ??_Read_UP_DOWN_BUTTONS:	
  1460                           ; 1 bytes @ 0x1A
  1461                           
  1462  003A                     ??_Elements_Control:	
  1463                           ; 1 bytes @ 0x1A
  1464                           
  1465  003A                     ?___bmul:	
  1466                           ; 1 bytes @ 0x1A
  1467                           
  1468  003A                     ?__Umul8_16:	
  1469                           ; 1 bytes @ 0x1A
  1470                           
  1471  003A                     ?___wmul:	
  1472                           ; 2 bytes @ 0x1A
  1473                           
  1474  003A                     ?___awdiv:	
  1475                           ; 2 bytes @ 0x1A
  1476                           
  1477  003A                     ?___awmod:	
  1478                           ; 2 bytes @ 0x1A
  1479                           
  1480  003A                     ?___lwmod:	
  1481                           ; 2 bytes @ 0x1A
  1482                           
  1483  003A                     ?___lldiv:	
  1484                           ; 2 bytes @ 0x1A
  1485                           
  1486  003A                     ?___xxtofl:	
  1487                           ; 4 bytes @ 0x1A
  1488                           
  1489  003A                     ___bmul@multiplicand:	
  1490                           ; 4 bytes @ 0x1A
  1491                           
  1492  003A                     __Umul8_16@multiplicand:	
  1493                           ; 1 bytes @ 0x1A
  1494                           
  1495  003A                     ___wmul@multiplier:	
  1496                           ; 1 bytes @ 0x1A
  1497                           
  1498  003A                     ___awdiv@divisor:	
  1499                           ; 2 bytes @ 0x1A
  1500                           
  1501  003A                     ___awmod@divisor:	
  1502                           ; 2 bytes @ 0x1A
  1503                           
  1504  003A                     ___lwmod@divisor:	
  1505                           ; 2 bytes @ 0x1A
  1506                           
  1507  003A                     memset@c:	
  1508                           ; 2 bytes @ 0x1A
  1509                           
  1510  003A                     ___lldiv@divisor:	
  1511                           ; 2 bytes @ 0x1A
  1512                           
  1513  003A                     ___xxtofl@val:	
  1514                           ; 4 bytes @ 0x1A
  1515                           
  1516                           
  1517                           ; 4 bytes @ 0x1A
  1518  003A                     	ds	1
  1519  003B                     ??___bmul:
  1520  003B                     ___bmul@product:	
  1521                           ; 1 bytes @ 0x1B
  1522                           
  1523                           
  1524                           ; 1 bytes @ 0x1B
  1525  003B                     	ds	1
  1526  003C                     ??__Umul8_16:
  1527  003C                     ___bmul@multiplier:	
  1528                           ; 1 bytes @ 0x1C
  1529                           
  1530  003C                     ___wmul@multiplicand:	
  1531                           ; 1 bytes @ 0x1C
  1532                           
  1533  003C                     ___awdiv@dividend:	
  1534                           ; 2 bytes @ 0x1C
  1535                           
  1536  003C                     ___awmod@dividend:	
  1537                           ; 2 bytes @ 0x1C
  1538                           
  1539  003C                     ___lwmod@dividend:	
  1540                           ; 2 bytes @ 0x1C
  1541                           
  1542  003C                     memset@n:	
  1543                           ; 2 bytes @ 0x1C
  1544                           
  1545                           
  1546                           ; 2 bytes @ 0x1C
  1547  003C                     	ds	2
  1548  003E                     ??_memset:
  1549  003E                     ??___wmul:	
  1550                           ; 1 bytes @ 0x1E
  1551                           
  1552  003E                     ??___awdiv:	
  1553                           ; 1 bytes @ 0x1E
  1554                           
  1555  003E                     ??___awmod:	
  1556                           ; 1 bytes @ 0x1E
  1557                           
  1558  003E                     ??___lwmod:	
  1559                           ; 1 bytes @ 0x1E
  1560                           
  1561  003E                     ??___xxtofl:	
  1562                           ; 1 bytes @ 0x1E
  1563                           
  1564  003E                     Elements_Control@Average_Temp:	
  1565                           ; 1 bytes @ 0x1E
  1566                           
  1567  003E                     ___awdiv@counter:	
  1568                           ; 1 bytes @ 0x1E
  1569                           
  1570  003E                     ___awmod@counter:	
  1571                           ; 1 bytes @ 0x1E
  1572                           
  1573  003E                     ___lwmod@counter:	
  1574                           ; 1 bytes @ 0x1E
  1575                           
  1576  003E                     memset@p:	
  1577                           ; 1 bytes @ 0x1E
  1578                           
  1579  003E                     ___wmul@product:	
  1580                           ; 1 bytes @ 0x1E
  1581                           
  1582  003E                     __Umul8_16@product:	
  1583                           ; 2 bytes @ 0x1E
  1584                           
  1585  003E                     ___lldiv@dividend:	
  1586                           ; 2 bytes @ 0x1E
  1587                           
  1588                           
  1589                           ; 4 bytes @ 0x1E
  1590  003E                     	ds	1
  1591  003F                     ___awdiv@sign:
  1592  003F                     ___awmod@sign:	
  1593                           ; 1 bytes @ 0x1F
  1594                           
  1595  003F                     memset@p1:	
  1596                           ; 1 bytes @ 0x1F
  1597                           
  1598                           
  1599                           ; 1 bytes @ 0x1F
  1600  003F                     	ds	1
  1601  0040                     ??_Scheduler_Init:
  1602  0040                     ??_Display_Blink:	
  1603                           ; 1 bytes @ 0x20
  1604                           
  1605  0040                     ??_Start_Setting_Timer:	
  1606                           ; 1 bytes @ 0x20
  1607                           
  1608  0040                     ??_LED_BLINKING:	
  1609                           ; 1 bytes @ 0x20
  1610                           
  1611  0040                     ___awdiv@quotient:	
  1612                           ; 1 bytes @ 0x20
  1613                           
  1614  0040                     __Umul8_16@word_mpld:	
  1615                           ; 2 bytes @ 0x20
  1616                           
  1617                           
  1618                           ; 2 bytes @ 0x20
  1619  0040                     	ds	2
  1620  0042                     ??_Scheduler_Task1:
  1621  0042                     ??_Mode_MainFunction:	
  1622                           ; 1 bytes @ 0x22
  1623                           
  1624  0042                     ??_LED_MainFunction:	
  1625                           ; 1 bytes @ 0x22
  1626                           
  1627  0042                     ??___lldiv:	
  1628                           ; 1 bytes @ 0x22
  1629                           
  1630  0042                     __Umul8_16@multiplier:	
  1631                           ; 1 bytes @ 0x22
  1632                           
  1633                           
  1634                           ; 1 bytes @ 0x22
  1635  0042                     	ds	1
  1636  0043                     ??_ADC_Value_Ready_CallBack:
  1637  0043                     ??_Scheduler_Start:	
  1638                           ; 1 bytes @ 0x23
  1639                           
  1640  0043                     ??_Scheduler_Task2:	
  1641                           ; 1 bytes @ 0x23
  1642                           
  1643  0043                     ??_Scheduler_Task3:	
  1644                           ; 1 bytes @ 0x23
  1645                           
  1646  0043                     ??_ADC_Conv_MainFunction:	
  1647                           ; 1 bytes @ 0x23
  1648                           
  1649  0043                     ??_main:	
  1650                           ; 1 bytes @ 0x23
  1651                           
  1652                           
  1653                           	psect	maintext
  1654  0B30                     __pmaintext:	
  1655                           ; 1 bytes @ 0x23
  1656 ;;
  1657 ;;Main: autosize = 0, tempsize = 0, incstack = 0, save=0
  1658 ;;
  1659 ;; *************** function _main *****************
  1660 ;; Defined at:
  1661 ;;		line 39 in file "main.c"
  1662 ;; Parameters:    Size  Location     Type
  1663 ;;		None
  1664 ;; Auto vars:     Size  Location     Type
  1665 ;;		None
  1666 ;; Return value:  Size  Location     Type
  1667 ;;                  1    wreg      void 
  1668 ;; Registers used:
  1669 ;;		wreg, fsr0l, fsr0h, status,2, status,0, btemp+1, pclath, cstack
  1670 ;; Tracked objects:
  1671 ;;		On entry : B00/0
  1672 ;;		On exit  : 0/0
  1673 ;;		Unchanged: 0/0
  1674 ;; Data sizes:     COMMON   BANK0   BANK1   BANK3   BANK2
  1675 ;;      Params:         0       0       0       0       0
  1676 ;;      Locals:         0       0       0       0       0
  1677 ;;      Temps:          0       0       0       0       0
  1678 ;;      Totals:         0       0       0       0       0
  1679 ;;Total ram usage:        0 bytes
  1680 ;; Hardware stack levels required when called:   11
  1681 ;; This function calls:
  1682 ;;		_ADC_Init
  1683 ;;		_ADC_Start_Conv
  1684 ;;		_Display_Init
  1685 ;;		_Elements_Init
  1686 ;;		_GPIO_Init
  1687 ;;		_Mode_Init
  1688 ;;		_On_Off_Init
  1689 ;;		_Scheduler_Init
  1690 ;;		_Scheduler_Start
  1691 ;;		_Timer0_Init
  1692 ;; This function is called by:
  1693 ;;		Startup code after reset
  1694 ;; This function uses a non-reentrant model
  1695 ;;
  1696                           
  1697                           
  1698                           ;psect for function _main
  1699  0B30                     _main:
  1700  0B30                     l3178:	
  1701                           ;incstack = 0
  1702 ;; hardware stack exceeded
  1703                           ; Regs used in _main: [wreg-fsr0h+status,2+status,0+btemp+1+pclath+cstack]
  1704                           
  1705                           
  1706                           ;main.c: 41:   GPIO_Init();
  1707  0B30  120A  158A  2255  120A  158A  	fcall	_GPIO_Init
  1708  0B35                     l3180:
  1709                           
  1710                           ;main.c: 42:   ADC_Init();
  1711  0B35  120A  158A  2219  120A  158A  	fcall	_ADC_Init
  1712  0B3A                     l3182:
  1713                           
  1714                           ;main.c: 43:   On_Off_Init();
  1715  0B3A  120A  158A  2121  120A  158A  	fcall	_On_Off_Init
  1716                           
  1717                           ;main.c: 44:   Display_Init();
  1718  0B3F  120A  158A  215F  120A  158A  	fcall	_Display_Init
  1719                           
  1720                           ;main.c: 45:   Elements_Init();
  1721  0B44  120A  158A  217A  120A  158A  	fcall	_Elements_Init
  1722                           
  1723                           ;main.c: 46:   Mode_Init();
  1724  0B49  120A  158A  2146  120A  158A  	fcall	_Mode_Init
  1725  0B4E                     l3184:
  1726                           
  1727                           ;main.c: 47:   ADC_Start_Conv();
  1728  0B4E  120A  158A  2152  120A  158A  	fcall	_ADC_Start_Conv
  1729  0B53                     l3186:
  1730                           
  1731                           ;main.c: 48:   Scheduler_Init();
  1732  0B53  120A  158A  2198  120A  158A  	fcall	_Scheduler_Init
  1733  0B58                     l3188:
  1734                           
  1735                           ;main.c: 49:   Timer0_Init();
  1736  0B58  120A  158A  21A8  120A  158A  	fcall	_Timer0_Init
  1737  0B5D                     l3190:
  1738                           
  1739                           ;main.c: 50:   Scheduler_Start();
  1740  0B5D  120A  158A  239E  120A  158A  	fcall	_Scheduler_Start
  1741  0B62                     l66:	
  1742                           ;main.c: 51:     while(1)
  1743                           
  1744  0B62                     l67:	
  1745                           ;main.c: 52:     {}
  1746                           
  1747  0B62  2B62               	goto	l66
  1748  0B63  120A  118A  2812   	ljmp	start
  1749  0B66                     __end_of_main:
  1750                           
  1751                           	psect	text1
  1752  09A8                     __ptext1:	
  1753 ;; *************** function _Timer0_Init *****************
  1754 ;; Defined at:
  1755 ;;		line 10 in file "Timer/Timer.c"
  1756 ;; Parameters:    Size  Location     Type
  1757 ;;		None
  1758 ;; Auto vars:     Size  Location     Type
  1759 ;;		None
  1760 ;; Return value:  Size  Location     Type
  1761 ;;                  1    wreg      void 
  1762 ;; Registers used:
  1763 ;;		wreg
  1764 ;; Tracked objects:
  1765 ;;		On entry : 0/0
  1766 ;;		On exit  : 0/0
  1767 ;;		Unchanged: 0/0
  1768 ;; Data sizes:     COMMON   BANK0   BANK1   BANK3   BANK2
  1769 ;;      Params:         0       0       0       0       0
  1770 ;;      Locals:         0       0       0       0       0
  1771 ;;      Temps:          0       0       0       0       0
  1772 ;;      Totals:         0       0       0       0       0
  1773 ;;Total ram usage:        0 bytes
  1774 ;; Hardware stack levels used:    1
  1775 ;; Hardware stack levels required when called:    4
  1776 ;; This function calls:
  1777 ;;		Nothing
  1778 ;; This function is called by:
  1779 ;;		_main
  1780 ;; This function uses a non-reentrant model
  1781 ;;
  1782                           
  1783                           
  1784                           ;psect for function _Timer0_Init
  1785  09A8                     _Timer0_Init:
  1786  09A8                     l2598:	
  1787                           ;incstack = 0
  1788                           ; Regs used in _Timer0_Init: [wreg]
  1789                           
  1790                           
  1791                           ;Timer/Timer.c: 13:      OPTION_REGbits.T0CS=0;
  1792  09A8  1683               	bsf	3,5	;RP0=1, select bank1
  1793  09A9  1303               	bcf	3,6	;RP1=0, select bank1
  1794  09AA  1281               	bcf	1,5	;volatile
  1795                           
  1796                           ;Timer/Timer.c: 14:      OPTION_REGbits.PSA=0;
  1797  09AB  1181               	bcf	1,3	;volatile
  1798                           
  1799                           ;Timer/Timer.c: 17:      OPTION_REGbits.PS0=1;
  1800  09AC  1401               	bsf	1,0	;volatile
  1801                           
  1802                           ;Timer/Timer.c: 18:      OPTION_REGbits.PS1=1;
  1803  09AD  1481               	bsf	1,1	;volatile
  1804                           
  1805                           ;Timer/Timer.c: 19:      OPTION_REGbits.PS2=1;
  1806  09AE  1501               	bsf	1,2	;volatile
  1807                           
  1808                           ;Timer/Timer.c: 22:         INTCONbits.TMR0IE=1;
  1809  09AF  168B               	bsf	11,5	;volatile
  1810                           
  1811                           ;Timer/Timer.c: 23:         INTCONbits.PEIE=1;
  1812  09B0  170B               	bsf	11,6	;volatile
  1813                           
  1814                           ;Timer/Timer.c: 24:         INTCONbits.GIE=1;
  1815  09B1  178B               	bsf	11,7	;volatile
  1816  09B2                     l2600:
  1817                           
  1818                           ;Timer/Timer.c: 25:      TMR0=100;
  1819  09B2  3064               	movlw	100
  1820  09B3  1283               	bcf	3,5	;RP0=0, select bank0
  1821  09B4  1303               	bcf	3,6	;RP1=0, select bank0
  1822  09B5  0081               	movwf	1	;volatile
  1823  09B6                     l2602:
  1824                           
  1825                           ;Timer/Timer.c: 26:         INTCONbits.TMR0IF=0;
  1826  09B6  110B               	bcf	11,2	;volatile
  1827  09B7                     l352:
  1828  09B7  0008               	return
  1829  09B8                     __end_of_Timer0_Init:
  1830                           
  1831                           	psect	text2
  1832  0B9E                     __ptext2:	
  1833 ;; *************** function _Scheduler_Start *****************
  1834 ;; Defined at:
  1835 ;;		line 13 in file "Scheduler/Scheduler.c"
  1836 ;; Parameters:    Size  Location     Type
  1837 ;;		None
  1838 ;; Auto vars:     Size  Location     Type
  1839 ;;  IntityIndex     1   49[BANK1 ] unsigned char 
  1840 ;; Return value:  Size  Location     Type
  1841 ;;                  1    wreg      void 
  1842 ;; Registers used:
  1843 ;;		wreg, fsr0l, fsr0h, status,2, status,0, btemp+1, pclath, cstack
  1844 ;; Tracked objects:
  1845 ;;		On entry : 0/0
  1846 ;;		On exit  : 0/0
  1847 ;;		Unchanged: 0/0
  1848 ;; Data sizes:     COMMON   BANK0   BANK1   BANK3   BANK2
  1849 ;;      Params:         0       0       0       0       0
  1850 ;;      Locals:         0       0       1       0       0
  1851 ;;      Temps:          0       0       0       0       0
  1852 ;;      Totals:         0       0       1       0       0
  1853 ;;Total ram usage:        1 bytes
  1854 ;; Hardware stack levels used:    1
  1855 ;; Hardware stack levels required when called:   10
  1856 ;; This function calls:
  1857 ;;		_Scheduler_Task1
  1858 ;;		_Scheduler_Task2
  1859 ;;		_Scheduler_Task3
  1860 ;;		___bmul
  1861 ;; This function is called by:
  1862 ;;		_main
  1863 ;; This function uses a non-reentrant model
  1864 ;;
  1865                           
  1866                           
  1867                           ;psect for function _Scheduler_Start
  1868  0B9E                     _Scheduler_Start:
  1869  0B9E                     l279:	
  1870                           ;incstack = 0
  1871 ;; hardware stack exceeded
  1872                           ; Regs used in _Scheduler_Start: [wreg-fsr0h+status,2+status,0+btemp+1+pclath+cstack]
  1873                           ;Scheduler/Scheduler.c: 15:   while(1)
  1874                           
  1875  0B9E                     l3158:
  1876                           
  1877                           ;Scheduler/Scheduler.c: 16:   {;Scheduler/Scheduler.c: 17:  for( uint8_t IntityIndex = 0
      +                           ; IntityIndex < ( 3U ) ; IntityIndex++ )
  1878  0B9E  1683               	bsf	3,5	;RP0=1, select bank1
  1879  0B9F  1303               	bcf	3,6	;RP1=0, select bank1
  1880  0BA0  01D1               	clrf	Scheduler_Start@IntityIndex^(0+128)
  1881  0BA1                     l3164:
  1882                           
  1883                           ;Scheduler/Scheduler.c: 18:  {;Scheduler/Scheduler.c: 19:   if( Scheduler_ActivationFlag
      +                          s[IntityIndex] == 1 )
  1884  0BA1  0851               	movf	Scheduler_Start@IntityIndex^(0+128),w
  1885  0BA2  3ED5               	addlw	(low (_Scheduler_ActivationFlags| 0))& (0+255)
  1886  0BA3  0084               	movwf	4
  1887  0BA4  1383               	bcf	3,7	;select IRP bank1
  1888  0BA5  0300               	decf	0,w
  1889  0BA6  1D03               	btfss	3,2
  1890  0BA7  2BA9               	goto	u4651
  1891  0BA8  2BAA               	goto	u4650
  1892  0BA9                     u4651:
  1893  0BA9  2BCB               	goto	l3170
  1894  0BAA                     u4650:
  1895  0BAA                     l3166:
  1896                           
  1897                           ;Scheduler/Scheduler.c: 20:   {;Scheduler/Scheduler.c: 21:    (*Scheduler_Intitys[Intity
      +                          Index].fuction_ptr)();
  1898  0BAA  3005               	movlw	5
  1899  0BAB  00FF               	movwf	btemp+1
  1900  0BAC  087F               	movf	btemp+1,w
  1901  0BAD  1283               	bcf	3,5	;RP0=0, select bank0
  1902  0BAE  1303               	bcf	3,6	;RP1=0, select bank0
  1903  0BAF  00BA               	movwf	___bmul@multiplicand
  1904  0BB0  1683               	bsf	3,5	;RP0=1, select bank1
  1905  0BB1  1303               	bcf	3,6	;RP1=0, select bank1
  1906  0BB2  0851               	movf	Scheduler_Start@IntityIndex^(0+128),w
  1907  0BB3  120A  158A  21E4  120A  158A  	fcall	___bmul
  1908  0BB8  3E01               	addlw	low ((_Scheduler_Intitys-__stringbase)| (0+32768))
  1909  0BB9  0084               	movwf	4
  1910  0BBA  120A  118A  27EA  120A  158A  	fcall	stringdir
  1911  0BBF  120A  118A  204B  120A  158A  	fcall	fptable
  1912  0BC4                     l3168:
  1913                           
  1914                           ;Scheduler/Scheduler.c: 22:    Scheduler_ActivationFlags[IntityIndex] = 0 ;
  1915  0BC4  1683               	bsf	3,5	;RP0=1, select bank1
  1916  0BC5  1303               	bcf	3,6	;RP1=0, select bank1
  1917  0BC6  0851               	movf	Scheduler_Start@IntityIndex^(0+128),w
  1918  0BC7  3ED5               	addlw	(low (_Scheduler_ActivationFlags| 0))& (0+255)
  1919  0BC8  0084               	movwf	4
  1920  0BC9  1383               	bcf	3,7	;select IRP bank1
  1921  0BCA  0180               	clrf	0
  1922  0BCB                     l3170:
  1923                           
  1924                           ;Scheduler/Scheduler.c: 24:  }
  1925  0BCB  3001               	movlw	1
  1926  0BCC  00FF               	movwf	btemp+1
  1927  0BCD  087F               	movf	btemp+1,w
  1928  0BCE  07D1               	addwf	Scheduler_Start@IntityIndex^(0+128),f
  1929  0BCF                     l3172:
  1930  0BCF  3003               	movlw	3
  1931  0BD0  0251               	subwf	Scheduler_Start@IntityIndex^(0+128),w
  1932  0BD1  1C03               	skipc
  1933  0BD2  2BD4               	goto	u4661
  1934  0BD3  2BD5               	goto	u4660
  1935  0BD4                     u4661:
  1936  0BD4  2BA1               	goto	l3164
  1937  0BD5                     u4660:
  1938  0BD5  2B9E               	goto	l279
  1939  0BD6  0008               	return
  1940  0BD7                     __end_of_Scheduler_Start:
  1941                           
  1942                           	psect	text3
  1943  09E4                     __ptext3:	
  1944 ;; *************** function ___bmul *****************
  1945 ;; Defined at:
  1946 ;;		line 4 in file "C:\Program Files (x86)\Microchip\xc8\v2.20\pic\sources\c90\common\Umul8.c"
  1947 ;; Parameters:    Size  Location     Type
  1948 ;;  multiplier      1    wreg     unsigned char 
  1949 ;;  multiplicand    1   26[BANK0 ] unsigned char 
  1950 ;; Auto vars:     Size  Location     Type
  1951 ;;  multiplier      1   28[BANK0 ] unsigned char 
  1952 ;;  product         1   27[BANK0 ] unsigned char 
  1953 ;; Return value:  Size  Location     Type
  1954 ;;                  1    wreg      unsigned char 
  1955 ;; Registers used:
  1956 ;;		wreg, status,2, status,0, btemp+1
  1957 ;; Tracked objects:
  1958 ;;		On entry : 0/0
  1959 ;;		On exit  : 0/0
  1960 ;;		Unchanged: 0/0
  1961 ;; Data sizes:     COMMON   BANK0   BANK1   BANK3   BANK2
  1962 ;;      Params:         0       1       0       0       0
  1963 ;;      Locals:         0       2       0       0       0
  1964 ;;      Temps:          0       0       0       0       0
  1965 ;;      Totals:         0       3       0       0       0
  1966 ;;Total ram usage:        3 bytes
  1967 ;; Hardware stack levels used:    1
  1968 ;; Hardware stack levels required when called:    4
  1969 ;; This function calls:
  1970 ;;		Nothing
  1971 ;; This function is called by:
  1972 ;;		_Scheduler_Start
  1973 ;;		_Scheduler_ActivateTask
  1974 ;; This function uses a non-reentrant model
  1975 ;;
  1976                           
  1977                           
  1978                           ;psect for function ___bmul
  1979  09E4                     ___bmul:
  1980                           
  1981                           ;incstack = 0
  1982                           ; Regs used in ___bmul: [wreg+status,2+status,0+btemp+1]
  1983                           ;___bmul@multiplier stored from wreg
  1984  09E4  1283               	bcf	3,5	;RP0=0, select bank0
  1985  09E5  1303               	bcf	3,6	;RP1=0, select bank0
  1986  09E6  00BC               	movwf	___bmul@multiplier
  1987  09E7                     l2538:
  1988  09E7  01BB               	clrf	___bmul@product
  1989  09E8                     l2540:
  1990  09E8  1C3C               	btfss	___bmul@multiplier,0
  1991  09E9  29EB               	goto	u3451
  1992  09EA  29EC               	goto	u3450
  1993  09EB                     u3451:
  1994  09EB  29F0               	goto	l2544
  1995  09EC                     u3450:
  1996  09EC                     l2542:
  1997  09EC  083A               	movf	___bmul@multiplicand,w
  1998  09ED  00FF               	movwf	btemp+1
  1999  09EE  087F               	movf	btemp+1,w
  2000  09EF  07BB               	addwf	___bmul@product,f
  2001  09F0                     l2544:
  2002  09F0  1003               	clrc
  2003  09F1  0DBA               	rlf	___bmul@multiplicand,f
  2004  09F2                     l2546:
  2005  09F2  1003               	clrc
  2006  09F3  0CBC               	rrf	___bmul@multiplier,f
  2007  09F4                     l2548:
  2008  09F4  083C               	movf	___bmul@multiplier,w
  2009  09F5  1D03               	btfss	3,2
  2010  09F6  29F8               	goto	u3461
  2011  09F7  29F9               	goto	u3460
  2012  09F8                     u3461:
  2013  09F8  29E8               	goto	l2540
  2014  09F9                     u3460:
  2015  09F9                     l2550:
  2016  09F9  083B               	movf	___bmul@product,w
  2017  09FA                     l498:
  2018  09FA  0008               	return
  2019  09FB                     __end_of___bmul:
  2020                           
  2021                           	psect	text4
  2022  093B                     __ptext4:	
  2023 ;; *************** function _Scheduler_Task2 *****************
  2024 ;; Defined at:
  2025 ;;		line 16 in file "Scheduler/Tasks.c"
  2026 ;; Parameters:    Size  Location     Type
  2027 ;;		None
  2028 ;; Auto vars:     Size  Location     Type
  2029 ;;		None
  2030 ;; Return value:  Size  Location     Type
  2031 ;;                  1    wreg      void 
  2032 ;; Registers used:
  2033 ;;		wreg, fsr0l, fsr0h, status,2, status,0, btemp+1, pclath, cstack
  2034 ;; Tracked objects:
  2035 ;;		On entry : 0/0
  2036 ;;		On exit  : 0/0
  2037 ;;		Unchanged: 0/0
  2038 ;; Data sizes:     COMMON   BANK0   BANK1   BANK3   BANK2
  2039 ;;      Params:         0       0       0       0       0
  2040 ;;      Locals:         0       0       0       0       0
  2041 ;;      Temps:          0       0       0       0       0
  2042 ;;      Totals:         0       0       0       0       0
  2043 ;;Total ram usage:        0 bytes
  2044 ;; Hardware stack levels used:    1
  2045 ;; Hardware stack levels required when called:    9
  2046 ;; This function calls:
  2047 ;;		_ADC_Conv_MainFunction
  2048 ;;		_LED_MainFunction
  2049 ;; This function is called by:
  2050 ;;		_Scheduler_Start
  2051 ;; This function uses a non-reentrant model
  2052 ;;
  2053                           
  2054                           
  2055                           ;psect for function _Scheduler_Task2
  2056  093B                     _Scheduler_Task2:
  2057  093B                     l3150:	
  2058                           ;incstack = 0
  2059 ;; hardware stack exceeded
  2060                           ; Regs used in _Scheduler_Task2: [wreg-fsr0h+status,2+status,0+btemp+1+pclath+cstack]
  2061                           
  2062                           
  2063                           ;Scheduler/Tasks.c: 18:  ADC_Conv_MainFunction();
  2064  093B  120A  158A  2237  120A  158A  	fcall	_ADC_Conv_MainFunction
  2065  0940                     l3152:
  2066                           
  2067                           ;Scheduler/Tasks.c: 19:  LED_MainFunction();
  2068  0940  120A  158A  244F  120A  158A  	fcall	_LED_MainFunction
  2069  0945                     l326:
  2070  0945  0008               	return
  2071  0946                     __end_of_Scheduler_Task2:
  2072                           
  2073                           	psect	text5
  2074  091B                     __ptext5:	
  2075 ;; *************** function _Scheduler_Task1 *****************
  2076 ;; Defined at:
  2077 ;;		line 10 in file "Scheduler/Tasks.c"
  2078 ;; Parameters:    Size  Location     Type
  2079 ;;		None
  2080 ;; Auto vars:     Size  Location     Type
  2081 ;;		None
  2082 ;; Return value:  Size  Location     Type
  2083 ;;                  1    wreg      void 
  2084 ;; Registers used:
  2085 ;;		wreg, fsr0l, fsr0h, status,2, status,0, btemp+1, pclath, cstack
  2086 ;; Tracked objects:
  2087 ;;		On entry : 0/0
  2088 ;;		On exit  : 0/0
  2089 ;;		Unchanged: 0/0
  2090 ;; Data sizes:     COMMON   BANK0   BANK1   BANK3   BANK2
  2091 ;;      Params:         0       0       0       0       0
  2092 ;;      Locals:         0       0       0       0       0
  2093 ;;      Temps:          0       0       0       0       0
  2094 ;;      Totals:         0       0       0       0       0
  2095 ;;Total ram usage:        0 bytes
  2096 ;; Hardware stack levels used:    1
  2097 ;; Hardware stack levels required when called:    7
  2098 ;; This function calls:
  2099 ;;		_Display_MainFunction
  2100 ;; This function is called by:
  2101 ;;		_Scheduler_Start
  2102 ;; This function uses a non-reentrant model
  2103 ;;
  2104                           
  2105                           
  2106                           ;psect for function _Scheduler_Task1
  2107  091B                     _Scheduler_Task1:
  2108  091B                     l3148:	
  2109                           ;incstack = 0
  2110 ;; hardware stack exceeded
  2111                           ; Regs used in _Scheduler_Task1: [wreg-fsr0h+status,2+status,0+btemp+1+pclath+cstack]
  2112                           
  2113                           
  2114                           ;Scheduler/Tasks.c: 12:  Display_MainFunction();
  2115  091B  120A  118A  2520  120A  158A  	fcall	_Display_MainFunction
  2116  0920                     l323:
  2117  0920  0008               	return
  2118  0921                     __end_of_Scheduler_Task1:
  2119                           
  2120                           	psect	text6
  2121  096C                     __ptext6:	
  2122 ;; *************** function _Scheduler_Task3 *****************
  2123 ;; Defined at:
  2124 ;;		line 24 in file "Scheduler/Tasks.c"
  2125 ;; Parameters:    Size  Location     Type
  2126 ;;		None
  2127 ;; Auto vars:     Size  Location     Type
  2128 ;;		None
  2129 ;; Return value:  Size  Location     Type
  2130 ;;                  1    wreg      void 
  2131 ;; Registers used:
  2132 ;;		wreg, status,2, status,0, btemp+1, pclath, cstack
  2133 ;; Tracked objects:
  2134 ;;		On entry : 0/0
  2135 ;;		On exit  : 0/0
  2136 ;;		Unchanged: 0/0
  2137 ;; Data sizes:     COMMON   BANK0   BANK1   BANK3   BANK2
  2138 ;;      Params:         0       0       0       0       0
  2139 ;;      Locals:         0       0       0       0       0
  2140 ;;      Temps:          0       0       0       0       0
  2141 ;;      Totals:         0       0       0       0       0
  2142 ;;Total ram usage:        0 bytes
  2143 ;; Hardware stack levels used:    1
  2144 ;; Hardware stack levels required when called:    7
  2145 ;; This function calls:
  2146 ;;		_Elements_Control
  2147 ;;		_Mode_MainFunction
  2148 ;; This function is called by:
  2149 ;;		_Scheduler_Start
  2150 ;; This function uses a non-reentrant model
  2151 ;;
  2152                           
  2153                           
  2154                           ;psect for function _Scheduler_Task3
  2155  096C                     _Scheduler_Task3:
  2156  096C                     l3154:	
  2157                           ;incstack = 0
  2158 ;; hardware stack exceeded
  2159                           ; Regs used in _Scheduler_Task3: [wreg+status,2+status,0+btemp+1+pclath+cstack]
  2160                           
  2161                           
  2162                           ;Scheduler/Tasks.c: 27:  Elements_Control(Temperature.Average_Value);
  2163  096C  1283               	bcf	3,5	;RP0=0, select bank0
  2164  096D  1303               	bcf	3,6	;RP1=0, select bank0
  2165  096E  084E               	movf	_Temperature+1,w
  2166  096F  120A  158A  24DA  120A  158A  	fcall	_Elements_Control
  2167                           
  2168                           ;Scheduler/Tasks.c: 28:  Mode_MainFunction();
  2169  0974  120A  158A  25DF  120A  158A  	fcall	_Mode_MainFunction
  2170  0979                     l329:
  2171  0979  0008               	return
  2172  097A                     __end_of_Scheduler_Task3:
  2173                           
  2174                           	psect	text7
  2175  0DDF                     __ptext7:	
  2176 ;; *************** function _Mode_MainFunction *****************
  2177 ;; Defined at:
  2178 ;;		line 28 in file "WaterHeater_Mode/WaterHeater_Mode.c"
  2179 ;; Parameters:    Size  Location     Type
  2180 ;;		None
  2181 ;; Auto vars:     Size  Location     Type
  2182 ;;		None
  2183 ;; Return value:  Size  Location     Type
  2184 ;;                  1    wreg      void 
  2185 ;; Registers used:
  2186 ;;		wreg, status,2, status,0, btemp+1, pclath, cstack
  2187 ;; Tracked objects:
  2188 ;;		On entry : 0/0
  2189 ;;		On exit  : 0/0
  2190 ;;		Unchanged: 0/0
  2191 ;; Data sizes:     COMMON   BANK0   BANK1   BANK3   BANK2
  2192 ;;      Params:         0       0       0       0       0
  2193 ;;      Locals:         0       0       0       0       0
  2194 ;;      Temps:          0       1       0       0       0
  2195 ;;      Totals:         0       1       0       0       0
  2196 ;;Total ram usage:        1 bytes
  2197 ;; Hardware stack levels used:    1
  2198 ;; Hardware stack levels required when called:    6
  2199 ;; This function calls:
  2200 ;;		_Read_UP_DOWN_BUTTONS
  2201 ;;		_Reset_Setting_Timer
  2202 ;;		_Start_Setting_Timer
  2203 ;; This function is called by:
  2204 ;;		_Scheduler_Task3
  2205 ;; This function uses a non-reentrant model
  2206 ;;
  2207                           
  2208                           
  2209                           ;psect for function _Mode_MainFunction
  2210  0DDF                     _Mode_MainFunction:
  2211  0DDF                     l3098:	
  2212                           ;incstack = 0
  2213 ;; hardware stack exceeded
  2214                           ; Regs used in _Mode_MainFunction: [wreg+status,2+status,0+btemp+1+pclath+cstack]
  2215                           
  2216                           
  2217                           ;WaterHeater_Mode/WaterHeater_Mode.c: 30:  Read_UP_DOWN_BUTTONS();
  2218  0DDF  120A  158A  22BA  120A  158A  	fcall	_Read_UP_DOWN_BUTTONS
  2219  0DE4                     l3100:
  2220                           
  2221                           ;WaterHeater_Mode/WaterHeater_Mode.c: 32:    if(Mode.Select_Mode==Setting_Mode)
  2222  0DE4  3002               	movlw	2
  2223  0DE5  1683               	bsf	3,5	;RP0=1, select bank1
  2224  0DE6  1303               	bcf	3,6	;RP1=0, select bank1
  2225  0DE7  0652               	xorwf	_Mode^(0+128),w
  2226  0DE8  1D03               	btfss	3,2
  2227  0DE9  2DEB               	goto	u4511
  2228  0DEA  2DEC               	goto	u4510
  2229  0DEB                     u4511:
  2230  0DEB  2E44               	goto	l377
  2231  0DEC                     u4510:
  2232  0DEC                     l3102:
  2233                           
  2234                           ;WaterHeater_Mode/WaterHeater_Mode.c: 33:    {;WaterHeater_Mode/WaterHeater_Mode.c: 34: 
      +                              Start_Setting_Timer(5000,500);
  2235  0DEC  3088               	movlw	136
  2236  0DED  00A0               	movwf	Start_Setting_Timer@Timer_Ms^(0+128)
  2237  0DEE  3013               	movlw	19
  2238  0DEF  00A1               	movwf	(Start_Setting_Timer@Timer_Ms^(0+128)+1)
  2239  0DF0  30F4               	movlw	244
  2240  0DF1  00A2               	movwf	Start_Setting_Timer@Peroid_Task^(0+128)
  2241  0DF2  3001               	movlw	1
  2242  0DF3  00A3               	movwf	(Start_Setting_Timer@Peroid_Task^(0+128)+1)
  2243  0DF4  120A  158A  2413  120A  158A  	fcall	_Start_Setting_Timer
  2244  0DF9                     l3104:
  2245                           
  2246                           ;WaterHeater_Mode/WaterHeater_Mode.c: 35:     if((((PORTB>>2)&1)==0) &&(((PORTB>>1)&1)==
      +                          1) && Temperature.Set_Temp !=(75U))
  2247  0DF9  1283               	bcf	3,5	;RP0=0, select bank0
  2248  0DFA  1303               	bcf	3,6	;RP1=0, select bank0
  2249  0DFB  0806               	movf	6,w	;volatile
  2250  0DFC  00C2               	movwf	??_Mode_MainFunction
  2251  0DFD  3002               	movlw	2
  2252  0DFE                     u4525:
  2253  0DFE  1003               	clrc
  2254  0DFF  0CC2               	rrf	??_Mode_MainFunction,f
  2255  0E00  3EFF               	addlw	-1
  2256  0E01  1D03               	skipz
  2257  0E02  2DFE               	goto	u4525
  2258  0E03  1842               	btfsc	??_Mode_MainFunction,0
  2259  0E04  2E06               	goto	u4531
  2260  0E05  2E07               	goto	u4530
  2261  0E06                     u4531:
  2262  0E06  2E23               	goto	l3114
  2263  0E07                     u4530:
  2264  0E07                     l3106:
  2265  0E07  0806               	movf	6,w	;volatile
  2266  0E08  00C2               	movwf	??_Mode_MainFunction
  2267  0E09  3001               	movlw	1
  2268  0E0A                     u4545:
  2269  0E0A  1003               	clrc
  2270  0E0B  0CC2               	rrf	??_Mode_MainFunction,f
  2271  0E0C  3EFF               	addlw	-1
  2272  0E0D  1D03               	skipz
  2273  0E0E  2E0A               	goto	u4545
  2274  0E0F  1C42               	btfss	??_Mode_MainFunction,0
  2275  0E10  2E12               	goto	u4551
  2276  0E11  2E13               	goto	u4550
  2277  0E12                     u4551:
  2278  0E12  2E23               	goto	l3114
  2279  0E13                     u4550:
  2280  0E13                     l3108:
  2281  0E13  304B               	movlw	75
  2282  0E14  064F               	xorwf	_Temperature+2,w
  2283  0E15  1903               	btfsc	3,2
  2284  0E16  2E18               	goto	u4561
  2285  0E17  2E19               	goto	u4560
  2286  0E18                     u4561:
  2287  0E18  2E23               	goto	l3114
  2288  0E19                     u4560:
  2289  0E19                     l3110:
  2290                           
  2291                           ;WaterHeater_Mode/WaterHeater_Mode.c: 36:      {;WaterHeater_Mode/WaterHeater_Mode.c: 37
      +                          :       Temperature.Set_Temp += (5U);
  2292  0E19  3005               	movlw	5
  2293  0E1A  00FF               	movwf	btemp+1
  2294  0E1B  087F               	movf	btemp+1,w
  2295  0E1C  07CF               	addwf	_Temperature+2,f
  2296  0E1D                     l3112:
  2297                           
  2298                           ;WaterHeater_Mode/WaterHeater_Mode.c: 38:       Reset_Setting_Timer();
  2299  0E1D  120A  158A  2130  120A  158A  	fcall	_Reset_Setting_Timer
  2300                           
  2301                           ;WaterHeater_Mode/WaterHeater_Mode.c: 39:      }
  2302  0E22  2E44               	goto	l377
  2303  0E23                     l3114:
  2304  0E23  0806               	movf	6,w	;volatile
  2305  0E24  00C2               	movwf	??_Mode_MainFunction
  2306  0E25  3002               	movlw	2
  2307  0E26                     u4575:
  2308  0E26  1003               	clrc
  2309  0E27  0CC2               	rrf	??_Mode_MainFunction,f
  2310  0E28  3EFF               	addlw	-1
  2311  0E29  1D03               	skipz
  2312  0E2A  2E26               	goto	u4575
  2313  0E2B  1C42               	btfss	??_Mode_MainFunction,0
  2314  0E2C  2E2E               	goto	u4581
  2315  0E2D  2E2F               	goto	u4580
  2316  0E2E                     u4581:
  2317  0E2E  2E44               	goto	l377
  2318  0E2F                     u4580:
  2319  0E2F                     l3116:
  2320  0E2F  0806               	movf	6,w	;volatile
  2321  0E30  00C2               	movwf	??_Mode_MainFunction
  2322  0E31  3001               	movlw	1
  2323  0E32                     u4595:
  2324  0E32  1003               	clrc
  2325  0E33  0CC2               	rrf	??_Mode_MainFunction,f
  2326  0E34  3EFF               	addlw	-1
  2327  0E35  1D03               	skipz
  2328  0E36  2E32               	goto	u4595
  2329  0E37  1842               	btfsc	??_Mode_MainFunction,0
  2330  0E38  2E3A               	goto	u4601
  2331  0E39  2E3B               	goto	u4600
  2332  0E3A                     u4601:
  2333  0E3A  2E44               	goto	l377
  2334  0E3B                     u4600:
  2335  0E3B                     l3118:
  2336  0E3B  3023               	movlw	35
  2337  0E3C  064F               	xorwf	_Temperature+2,w
  2338  0E3D  1903               	btfsc	3,2
  2339  0E3E  2E40               	goto	u4611
  2340  0E3F  2E41               	goto	u4610
  2341  0E40                     u4611:
  2342  0E40  2E44               	goto	l377
  2343  0E41                     u4610:
  2344  0E41                     l3120:
  2345                           
  2346                           ;WaterHeater_Mode/WaterHeater_Mode.c: 41:      {;WaterHeater_Mode/WaterHeater_Mode.c: 42
      +                          :       Temperature.Set_Temp -= (5U);
  2347  0E41  3005               	movlw	5
  2348  0E42  02CF               	subwf	_Temperature+2,f
  2349  0E43  2E1D               	goto	l3112
  2350  0E44                     l377:
  2351  0E44  0008               	return
  2352  0E45                     __end_of_Mode_MainFunction:
  2353                           
  2354                           	psect	text8
  2355  0C13                     __ptext8:	
  2356 ;; *************** function _Start_Setting_Timer *****************
  2357 ;; Defined at:
  2358 ;;		line 63 in file "WaterHeater_Mode/WaterHeater_Mode.c"
  2359 ;; Parameters:    Size  Location     Type
  2360 ;;  Timer_Ms        2    0[BANK1 ] unsigned int 
  2361 ;;  Peroid_Task     2    2[BANK1 ] unsigned int 
  2362 ;; Auto vars:     Size  Location     Type
  2363 ;;		None
  2364 ;; Return value:  Size  Location     Type
  2365 ;;                  1    wreg      void 
  2366 ;; Registers used:
  2367 ;;		wreg, status,2, status,0, btemp+1, pclath, cstack
  2368 ;; Tracked objects:
  2369 ;;		On entry : 0/0
  2370 ;;		On exit  : 0/0
  2371 ;;		Unchanged: 0/0
  2372 ;; Data sizes:     COMMON   BANK0   BANK1   BANK3   BANK2
  2373 ;;      Params:         0       0       4       0       0
  2374 ;;      Locals:         0       0       0       0       0
  2375 ;;      Temps:          0       2       0       0       0
  2376 ;;      Totals:         0       2       4       0       0
  2377 ;;Total ram usage:        6 bytes
  2378 ;; Hardware stack levels used:    1
  2379 ;; Hardware stack levels required when called:    5
  2380 ;; This function calls:
  2381 ;;		___wmul
  2382 ;; This function is called by:
  2383 ;;		_Mode_MainFunction
  2384 ;; This function uses a non-reentrant model
  2385 ;;
  2386                           
  2387                           
  2388                           ;psect for function _Start_Setting_Timer
  2389  0C13                     _Start_Setting_Timer:
  2390  0C13                     l2992:	
  2391                           ;incstack = 0
  2392 ;; hardware stack exceeded
  2393                           ; Regs used in _Start_Setting_Timer: [wreg+status,2+status,0+btemp+1+pclath+cstack]
  2394                           
  2395                           
  2396                           ;WaterHeater_Mode/WaterHeater_Mode.c: 63: void Start_Setting_Timer(uint16_t Timer_Ms ,ui
      +                          nt16_t Peroid_Task);WaterHeater_Mode/WaterHeater_Mode.c: 64: {;WaterHeater_Mode/WaterHea
      +                          ter_Mode.c: 65:  if(Mode.Setting_Mode_Timer*Peroid_Task==Timer_Ms)
  2397  0C13  1683               	bsf	3,5	;RP0=1, select bank1
  2398  0C14  1303               	bcf	3,6	;RP1=0, select bank1
  2399  0C15  0853               	movf	(_Mode^(0+128)+1),w
  2400  0C16  1283               	bcf	3,5	;RP0=0, select bank0
  2401  0C17  1303               	bcf	3,6	;RP1=0, select bank0
  2402  0C18  00C0               	movwf	??_Start_Setting_Timer
  2403  0C19  01C1               	clrf	??_Start_Setting_Timer+1
  2404  0C1A  0840               	movf	??_Start_Setting_Timer,w
  2405  0C1B  00BA               	movwf	___wmul@multiplier
  2406  0C1C  0841               	movf	??_Start_Setting_Timer+1,w
  2407  0C1D  00BB               	movwf	___wmul@multiplier+1
  2408  0C1E  1683               	bsf	3,5	;RP0=1, select bank1
  2409  0C1F  1303               	bcf	3,6	;RP1=0, select bank1
  2410  0C20  0823               	movf	(Start_Setting_Timer@Peroid_Task+1)^(0+128),w
  2411  0C21  1283               	bcf	3,5	;RP0=0, select bank0
  2412  0C22  1303               	bcf	3,6	;RP1=0, select bank0
  2413  0C23  00BD               	movwf	___wmul@multiplicand+1
  2414  0C24  1683               	bsf	3,5	;RP0=1, select bank1
  2415  0C25  1303               	bcf	3,6	;RP1=0, select bank1
  2416  0C26  0822               	movf	Start_Setting_Timer@Peroid_Task^(0+128),w
  2417  0C27  1283               	bcf	3,5	;RP0=0, select bank0
  2418  0C28  1303               	bcf	3,6	;RP1=0, select bank0
  2419  0C29  00BC               	movwf	___wmul@multiplicand
  2420  0C2A  120A  158A  22E0  120A  158A  	fcall	___wmul
  2421  0C2F  1683               	bsf	3,5	;RP0=1, select bank1
  2422  0C30  1303               	bcf	3,6	;RP1=0, select bank1
  2423  0C31  0821               	movf	(Start_Setting_Timer@Timer_Ms+1)^(0+128),w
  2424  0C32  1283               	bcf	3,5	;RP0=0, select bank0
  2425  0C33  1303               	bcf	3,6	;RP1=0, select bank0
  2426  0C34  063B               	xorwf	?___wmul+1,w
  2427  0C35  1D03               	skipz
  2428  0C36  2C3D               	goto	u4325
  2429  0C37  1683               	bsf	3,5	;RP0=1, select bank1
  2430  0C38  1303               	bcf	3,6	;RP1=0, select bank1
  2431  0C39  0820               	movf	Start_Setting_Timer@Timer_Ms^(0+128),w
  2432  0C3A  1283               	bcf	3,5	;RP0=0, select bank0
  2433  0C3B  1303               	bcf	3,6	;RP1=0, select bank0
  2434  0C3C  063A               	xorwf	?___wmul,w
  2435  0C3D                     u4325:
  2436  0C3D  1D03               	skipz
  2437  0C3E  2C40               	goto	u4321
  2438  0C3F  2C41               	goto	u4320
  2439  0C40                     u4321:
  2440  0C40  2C48               	goto	l2996
  2441  0C41                     u4320:
  2442  0C41                     l2994:
  2443                           
  2444                           ;WaterHeater_Mode/WaterHeater_Mode.c: 66:  {;WaterHeater_Mode/WaterHeater_Mode.c: 68:   
      +                          Mode.Select_Mode=Normal_Mode;
  2445  0C41  1683               	bsf	3,5	;RP0=1, select bank1
  2446  0C42  1303               	bcf	3,6	;RP1=0, select bank1
  2447  0C43  01D2               	clrf	_Mode^(0+128)
  2448  0C44  0AD2               	incf	_Mode^(0+128),f
  2449                           
  2450                           ;WaterHeater_Mode/WaterHeater_Mode.c: 69:   Mode.Setting_Mode_Timer=1;
  2451  0C45  01D3               	clrf	(_Mode^(0+128)+1)
  2452  0C46  0AD3               	incf	(_Mode^(0+128)+1),f
  2453                           
  2454                           ;WaterHeater_Mode/WaterHeater_Mode.c: 71:  }
  2455  0C47  2C4E               	goto	l386
  2456  0C48                     l2996:
  2457                           
  2458                           ;WaterHeater_Mode/WaterHeater_Mode.c: 73:  {;WaterHeater_Mode/WaterHeater_Mode.c: 74:   
      +                          Mode.Setting_Mode_Timer++;
  2459  0C48  3001               	movlw	1
  2460  0C49  00FF               	movwf	btemp+1
  2461  0C4A  087F               	movf	btemp+1,w
  2462  0C4B  1683               	bsf	3,5	;RP0=1, select bank1
  2463  0C4C  1303               	bcf	3,6	;RP1=0, select bank1
  2464  0C4D  07D3               	addwf	(_Mode^(0+128)+1),f
  2465  0C4E                     l386:
  2466  0C4E  0008               	return
  2467  0C4F                     __end_of_Start_Setting_Timer:
  2468                           
  2469                           	psect	text9
  2470  0930                     __ptext9:	
  2471 ;; *************** function _Reset_Setting_Timer *****************
  2472 ;; Defined at:
  2473 ;;		line 54 in file "WaterHeater_Mode/WaterHeater_Mode.c"
  2474 ;; Parameters:    Size  Location     Type
  2475 ;;		None
  2476 ;; Auto vars:     Size  Location     Type
  2477 ;;		None
  2478 ;; Return value:  Size  Location     Type
  2479 ;;                  1    wreg      void 
  2480 ;; Registers used:
  2481 ;;		wreg, status,2, status,0
  2482 ;; Tracked objects:
  2483 ;;		On entry : 0/0
  2484 ;;		On exit  : 0/0
  2485 ;;		Unchanged: 0/0
  2486 ;; Data sizes:     COMMON   BANK0   BANK1   BANK3   BANK2
  2487 ;;      Params:         0       0       0       0       0
  2488 ;;      Locals:         0       0       0       0       0
  2489 ;;      Temps:          0       0       0       0       0
  2490 ;;      Totals:         0       0       0       0       0
  2491 ;;Total ram usage:        0 bytes
  2492 ;; Hardware stack levels used:    1
  2493 ;; Hardware stack levels required when called:    4
  2494 ;; This function calls:
  2495 ;;		Nothing
  2496 ;; This function is called by:
  2497 ;;		_Mode_MainFunction
  2498 ;; This function uses a non-reentrant model
  2499 ;;
  2500                           
  2501                           
  2502                           ;psect for function _Reset_Setting_Timer
  2503  0930                     _Reset_Setting_Timer:
  2504  0930                     l2208:	
  2505                           ;incstack = 0
  2506                           ; Regs used in _Reset_Setting_Timer: [wreg+status,2+status,0]
  2507                           
  2508                           
  2509                           ;WaterHeater_Mode/WaterHeater_Mode.c: 56:  if(Mode.Select_Mode==Setting_Mode)
  2510  0930  3002               	movlw	2
  2511  0931  1683               	bsf	3,5	;RP0=1, select bank1
  2512  0932  1303               	bcf	3,6	;RP1=0, select bank1
  2513  0933  0652               	xorwf	_Mode^(0+128),w
  2514  0934  1D03               	btfss	3,2
  2515  0935  2937               	goto	u2741
  2516  0936  2938               	goto	u2740
  2517  0937                     u2741:
  2518  0937  293A               	goto	l381
  2519  0938                     u2740:
  2520  0938                     l2210:
  2521                           
  2522                           ;WaterHeater_Mode/WaterHeater_Mode.c: 57:  {;WaterHeater_Mode/WaterHeater_Mode.c: 58:   
      +                           Mode.Setting_Mode_Timer=1;
  2523  0938  01D3               	clrf	(_Mode^(0+128)+1)
  2524  0939  0AD3               	incf	(_Mode^(0+128)+1),f
  2525  093A                     l381:
  2526  093A  0008               	return
  2527  093B                     __end_of_Reset_Setting_Timer:
  2528                           
  2529                           	psect	text10
  2530  0ABA                     __ptext10:	
  2531 ;; *************** function _Read_UP_DOWN_BUTTONS *****************
  2532 ;; Defined at:
  2533 ;;		line 39 in file "Buttons/Buttons.c"
  2534 ;; Parameters:    Size  Location     Type
  2535 ;;		None
  2536 ;; Auto vars:     Size  Location     Type
  2537 ;;		None
  2538 ;; Return value:  Size  Location     Type
  2539 ;;                  1    wreg      void 
  2540 ;; Registers used:
  2541 ;;		wreg, status,2, status,0, btemp+1
  2542 ;; Tracked objects:
  2543 ;;		On entry : 0/0
  2544 ;;		On exit  : 0/0
  2545 ;;		Unchanged: 0/0
  2546 ;; Data sizes:     COMMON   BANK0   BANK1   BANK3   BANK2
  2547 ;;      Params:         0       0       0       0       0
  2548 ;;      Locals:         0       0       0       0       0
  2549 ;;      Temps:          0       1       0       0       0
  2550 ;;      Totals:         0       1       0       0       0
  2551 ;;Total ram usage:        1 bytes
  2552 ;; Hardware stack levels used:    1
  2553 ;; Hardware stack levels required when called:    4
  2554 ;; This function calls:
  2555 ;;		Nothing
  2556 ;; This function is called by:
  2557 ;;		_Mode_MainFunction
  2558 ;; This function uses a non-reentrant model
  2559 ;;
  2560                           
  2561                           
  2562                           ;psect for function _Read_UP_DOWN_BUTTONS
  2563  0ABA                     _Read_UP_DOWN_BUTTONS:
  2564  0ABA                     l2170:	
  2565                           ;incstack = 0
  2566                           ; Regs used in _Read_UP_DOWN_BUTTONS: [wreg+status,2+status,0+btemp+1]
  2567                           
  2568                           
  2569                           ;Buttons/Buttons.c: 41:     if(((((PORTB>>2)&1)==0) ||(((PORTB>>1)&1)==0)) && Mode.Selec
      +                          t_Mode==Normal_Mode)
  2570  0ABA  1283               	bcf	3,5	;RP0=0, select bank0
  2571  0ABB  1303               	bcf	3,6	;RP1=0, select bank0
  2572  0ABC  0806               	movf	6,w	;volatile
  2573  0ABD  00BA               	movwf	??_Read_UP_DOWN_BUTTONS
  2574  0ABE  3002               	movlw	2
  2575  0ABF                     u2645:
  2576  0ABF  1003               	clrc
  2577  0AC0  0CBA               	rrf	??_Read_UP_DOWN_BUTTONS,f
  2578  0AC1  3EFF               	addlw	-1
  2579  0AC2  1D03               	skipz
  2580  0AC3  2ABF               	goto	u2645
  2581  0AC4  1C3A               	btfss	??_Read_UP_DOWN_BUTTONS,0
  2582  0AC5  2AC7               	goto	u2651
  2583  0AC6  2AC8               	goto	u2650
  2584  0AC7                     u2651:
  2585  0AC7  2AD4               	goto	l2174
  2586  0AC8                     u2650:
  2587  0AC8                     l2172:
  2588  0AC8  0806               	movf	6,w	;volatile
  2589  0AC9  00BA               	movwf	??_Read_UP_DOWN_BUTTONS
  2590  0ACA  3001               	movlw	1
  2591  0ACB                     u2665:
  2592  0ACB  1003               	clrc
  2593  0ACC  0CBA               	rrf	??_Read_UP_DOWN_BUTTONS,f
  2594  0ACD  3EFF               	addlw	-1
  2595  0ACE  1D03               	skipz
  2596  0ACF  2ACB               	goto	u2665
  2597  0AD0  183A               	btfsc	??_Read_UP_DOWN_BUTTONS,0
  2598  0AD1  2AD3               	goto	u2671
  2599  0AD2  2AD4               	goto	u2670
  2600  0AD3                     u2671:
  2601  0AD3  2ADF               	goto	l105
  2602  0AD4                     u2670:
  2603  0AD4                     l2174:
  2604  0AD4  1683               	bsf	3,5	;RP0=1, select bank1
  2605  0AD5  1303               	bcf	3,6	;RP1=0, select bank1
  2606  0AD6  0352               	decf	_Mode^(0+128),w
  2607  0AD7  1D03               	btfss	3,2
  2608  0AD8  2ADA               	goto	u2681
  2609  0AD9  2ADB               	goto	u2680
  2610  0ADA                     u2681:
  2611  0ADA  2ADF               	goto	l105
  2612  0ADB                     u2680:
  2613  0ADB                     l2176:
  2614                           
  2615                           ;Buttons/Buttons.c: 42:     {;Buttons/Buttons.c: 43:       Mode.Select_Mode=Setting_Mode
      +                          ;
  2616  0ADB  3002               	movlw	2
  2617  0ADC  00FF               	movwf	btemp+1
  2618  0ADD  087F               	movf	btemp+1,w
  2619  0ADE  00D2               	movwf	_Mode^(0+128)
  2620  0ADF                     l105:
  2621  0ADF  0008               	return
  2622  0AE0                     __end_of_Read_UP_DOWN_BUTTONS:
  2623                           
  2624                           	psect	text11
  2625  0CDA                     __ptext11:	
  2626 ;; *************** function _Elements_Control *****************
  2627 ;; Defined at:
  2628 ;;		line 65 in file "Elements/Elements.c"
  2629 ;; Parameters:    Size  Location     Type
  2630 ;;  Average_Temp    1    wreg     unsigned char 
  2631 ;; Auto vars:     Size  Location     Type
  2632 ;;  Average_Temp    1   30[BANK0 ] unsigned char 
  2633 ;; Return value:  Size  Location     Type
  2634 ;;                  1    wreg      void 
  2635 ;; Registers used:
  2636 ;;		wreg, status,2, status,0, btemp+1
  2637 ;; Tracked objects:
  2638 ;;		On entry : 0/0
  2639 ;;		On exit  : 0/0
  2640 ;;		Unchanged: 0/0
  2641 ;; Data sizes:     COMMON   BANK0   BANK1   BANK3   BANK2
  2642 ;;      Params:         0       0       0       0       0
  2643 ;;      Locals:         0       1       0       0       0
  2644 ;;      Temps:          0       4       0       0       0
  2645 ;;      Totals:         0       5       0       0       0
  2646 ;;Total ram usage:        5 bytes
  2647 ;; Hardware stack levels used:    1
  2648 ;; Hardware stack levels required when called:    4
  2649 ;; This function calls:
  2650 ;;		Nothing
  2651 ;; This function is called by:
  2652 ;;		_Scheduler_Task3
  2653 ;; This function uses a non-reentrant model
  2654 ;;
  2655                           
  2656                           
  2657                           ;psect for function _Elements_Control
  2658  0CDA                     _Elements_Control:
  2659                           
  2660                           ;incstack = 0
  2661                           ; Regs used in _Elements_Control: [wreg+status,2+status,0+btemp+1]
  2662                           ;Elements_Control@Average_Temp stored from wreg
  2663  0CDA  1283               	bcf	3,5	;RP0=0, select bank0
  2664  0CDB  1303               	bcf	3,6	;RP1=0, select bank0
  2665  0CDC  00BE               	movwf	Elements_Control@Average_Temp
  2666  0CDD                     l2394:
  2667                           
  2668                           ;Elements/Elements.c: 65: void Elements_Control(uint8_t Average_Temp);Elements/Elements.
      +                          c: 66: {;Elements/Elements.c: 67:   if(Temperature.Average_Value_Ready_Flag==1 && Mode.S
      +                          elect_Mode==Normal_Mode)
  2669  0CDD  1C50               	btfss	_Temperature+3,0
  2670  0CDE  2CE0               	goto	u3121
  2671  0CDF  2CE1               	goto	u3120
  2672  0CE0                     u3121:
  2673  0CE0  2D24               	goto	l2414
  2674  0CE1                     u3120:
  2675  0CE1                     l2396:
  2676  0CE1  1683               	bsf	3,5	;RP0=1, select bank1
  2677  0CE2  1303               	bcf	3,6	;RP1=0, select bank1
  2678  0CE3  0352               	decf	_Mode^(0+128),w
  2679  0CE4  1D03               	btfss	3,2
  2680  0CE5  2CE7               	goto	u3131
  2681  0CE6  2CE8               	goto	u3130
  2682  0CE7                     u3131:
  2683  0CE7  2D24               	goto	l2414
  2684  0CE8                     u3130:
  2685  0CE8                     l2398:
  2686                           
  2687                           ;Elements/Elements.c: 68:   {;Elements/Elements.c: 70:         if(Average_Temp < (Temper
      +                          ature.Set_Temp - (5U)))
  2688  0CE8  1283               	bcf	3,5	;RP0=0, select bank0
  2689  0CE9  1303               	bcf	3,6	;RP1=0, select bank0
  2690  0CEA  084F               	movf	_Temperature+2,w
  2691  0CEB  3EFB               	addlw	251
  2692  0CEC  00BA               	movwf	??_Elements_Control
  2693  0CED  30FF               	movlw	255
  2694  0CEE  1803               	skipnc
  2695  0CEF  3000               	movlw	0
  2696  0CF0  00BB               	movwf	??_Elements_Control+1
  2697  0CF1  083E               	movf	Elements_Control@Average_Temp,w
  2698  0CF2  00BC               	movwf	??_Elements_Control+2
  2699  0CF3  01BD               	clrf	??_Elements_Control+3
  2700  0CF4  083B               	movf	??_Elements_Control+1,w
  2701  0CF5  023D               	subwf	??_Elements_Control+3,w
  2702  0CF6  1D03               	skipz
  2703  0CF7  2CFA               	goto	u3145
  2704  0CF8  083A               	movf	??_Elements_Control,w
  2705  0CF9  023C               	subwf	??_Elements_Control+2,w
  2706  0CFA                     u3145:
  2707  0CFA  1803               	skipnc
  2708  0CFB  2CFD               	goto	u3141
  2709  0CFC  2CFE               	goto	u3140
  2710  0CFD                     u3141:
  2711  0CFD  2D08               	goto	l2406
  2712  0CFE                     u3140:
  2713  0CFE                     l2400:
  2714                           
  2715                           ;Elements/Elements.c: 71:          {;Elements/Elements.c: 72:          (PORTC &= ~(1<<2)
      +                          );
  2716  0CFE  30FB               	movlw	251
  2717  0CFF  00FF               	movwf	btemp+1
  2718  0D00  087F               	movf	btemp+1,w
  2719  0D01  0587               	andwf	7,f	;volatile
  2720  0D02                     l2402:
  2721                           
  2722                           ;Elements/Elements.c: 73:          (PORTC|= (1<<5));
  2723  0D02  1687               	bsf	7,5	;volatile
  2724  0D03                     l2404:
  2725                           
  2726                           ;Elements/Elements.c: 74:    LED_Status=LED_BLINK ;
  2727  0D03  3002               	movlw	2
  2728  0D04  00FF               	movwf	btemp+1
  2729  0D05  087F               	movf	btemp+1,w
  2730  0D06  00C7               	movwf	_LED_Status
  2731                           
  2732                           ;Elements/Elements.c: 76:          }else if(Average_Temp > (Temperature.Set_Temp + (5U))
      +                          )
  2733  0D07  2D2D               	goto	l203
  2734  0D08                     l2406:
  2735  0D08  083E               	movf	Elements_Control@Average_Temp,w
  2736  0D09  00BA               	movwf	??_Elements_Control
  2737  0D0A  01BB               	clrf	??_Elements_Control+1
  2738  0D0B  084F               	movf	_Temperature+2,w
  2739  0D0C  3E05               	addlw	5
  2740  0D0D  00BC               	movwf	??_Elements_Control+2
  2741  0D0E  3000               	movlw	0
  2742  0D0F  1803               	skipnc
  2743  0D10  3001               	movlw	1
  2744  0D11  00BD               	movwf	??_Elements_Control+3
  2745  0D12  083B               	movf	??_Elements_Control+1,w
  2746  0D13  023D               	subwf	??_Elements_Control+3,w
  2747  0D14  1D03               	skipz
  2748  0D15  2D18               	goto	u3155
  2749  0D16  083A               	movf	??_Elements_Control,w
  2750  0D17  023C               	subwf	??_Elements_Control+2,w
  2751  0D18                     u3155:
  2752  0D18  1803               	skipnc
  2753  0D19  2D1B               	goto	u3151
  2754  0D1A  2D1C               	goto	u3150
  2755  0D1B                     u3151:
  2756  0D1B  2D2D               	goto	l203
  2757  0D1C                     u3150:
  2758  0D1C                     l2408:
  2759                           
  2760                           ;Elements/Elements.c: 77:          {;Elements/Elements.c: 79:           (PORTC &= ~(1<<5
      +                          ));
  2761  0D1C  30DF               	movlw	223
  2762  0D1D  00FF               	movwf	btemp+1
  2763  0D1E  087F               	movf	btemp+1,w
  2764  0D1F  0587               	andwf	7,f	;volatile
  2765  0D20                     l2410:
  2766                           
  2767                           ;Elements/Elements.c: 80:           (PORTC|= (1<<2));
  2768  0D20  1507               	bsf	7,2	;volatile
  2769  0D21                     l2412:
  2770                           
  2771                           ;Elements/Elements.c: 81:     LED_Status=LED_ON ;
  2772  0D21  01C7               	clrf	_LED_Status
  2773  0D22  0AC7               	incf	_LED_Status,f
  2774  0D23  2D2D               	goto	l203
  2775  0D24                     l2414:
  2776                           
  2777                           ;Elements/Elements.c: 86:   {;Elements/Elements.c: 87:    (PORTC &= ~(1<<2));
  2778  0D24  30FB               	movlw	251
  2779  0D25  00FF               	movwf	btemp+1
  2780  0D26  087F               	movf	btemp+1,w
  2781  0D27  1283               	bcf	3,5	;RP0=0, select bank0
  2782  0D28  0587               	andwf	7,f	;volatile
  2783                           
  2784                           ;Elements/Elements.c: 88:    (PORTC &= ~(1<<5));
  2785  0D29  30DF               	movlw	223
  2786  0D2A  00FF               	movwf	btemp+1
  2787  0D2B  087F               	movf	btemp+1,w
  2788  0D2C  0587               	andwf	7,f	;volatile
  2789  0D2D                     l203:
  2790  0D2D  0008               	return
  2791  0D2E                     __end_of_Elements_Control:
  2792                           
  2793                           	psect	text12
  2794  0C4F                     __ptext12:	
  2795 ;; *************** function _LED_MainFunction *****************
  2796 ;; Defined at:
  2797 ;;		line 45 in file "Elements/Elements.c"
  2798 ;; Parameters:    Size  Location     Type
  2799 ;;		None
  2800 ;; Auto vars:     Size  Location     Type
  2801 ;;		None
  2802 ;; Return value:  Size  Location     Type
  2803 ;;                  1    wreg      void 
  2804 ;; Registers used:
  2805 ;;		wreg, status,2, status,0, btemp+1, pclath, cstack
  2806 ;; Tracked objects:
  2807 ;;		On entry : 0/0
  2808 ;;		On exit  : 0/0
  2809 ;;		Unchanged: 0/0
  2810 ;; Data sizes:     COMMON   BANK0   BANK1   BANK3   BANK2
  2811 ;;      Params:         0       0       0       0       0
  2812 ;;      Locals:         0       0       0       0       0
  2813 ;;      Temps:          0       0       0       0       0
  2814 ;;      Totals:         0       0       0       0       0
  2815 ;;Total ram usage:        0 bytes
  2816 ;; Hardware stack levels used:    1
  2817 ;; Hardware stack levels required when called:    6
  2818 ;; This function calls:
  2819 ;;		_LED_BLINKING
  2820 ;; This function is called by:
  2821 ;;		_Scheduler_Task2
  2822 ;; This function uses a non-reentrant model
  2823 ;;
  2824                           
  2825                           
  2826                           ;psect for function _LED_MainFunction
  2827  0C4F                     _LED_MainFunction:
  2828  0C4F                     l3080:	
  2829                           ;incstack = 0
  2830 ;; hardware stack exceeded
  2831                           ; Regs used in _LED_MainFunction: [wreg+status,2+status,0+btemp+1+pclath+cstack]
  2832                           
  2833                           
  2834                           ;Elements/Elements.c: 47:  if(LED_Status==LED_BLINK && Mode.Select_Mode==Normal_Mode)
  2835  0C4F  3002               	movlw	2
  2836  0C50  1283               	bcf	3,5	;RP0=0, select bank0
  2837  0C51  1303               	bcf	3,6	;RP1=0, select bank0
  2838  0C52  0647               	xorwf	_LED_Status,w
  2839  0C53  1D03               	btfss	3,2
  2840  0C54  2C56               	goto	u4451
  2841  0C55  2C57               	goto	u4450
  2842  0C56                     u4451:
  2843  0C56  2C6C               	goto	l3086
  2844  0C57                     u4450:
  2845  0C57                     l3082:
  2846  0C57  1683               	bsf	3,5	;RP0=1, select bank1
  2847  0C58  1303               	bcf	3,6	;RP1=0, select bank1
  2848  0C59  0352               	decf	_Mode^(0+128),w
  2849  0C5A  1D03               	btfss	3,2
  2850  0C5B  2C5D               	goto	u4461
  2851  0C5C  2C5E               	goto	u4460
  2852  0C5D                     u4461:
  2853  0C5D  2C6C               	goto	l3086
  2854  0C5E                     u4460:
  2855  0C5E                     l3084:
  2856                           
  2857                           ;Elements/Elements.c: 48:  {;Elements/Elements.c: 49:   LED_BLINKING(1000,100);
  2858  0C5E  30E8               	movlw	232
  2859  0C5F  00A0               	movwf	LED_BLINKING@Time_Ms^(0+128)
  2860  0C60  3003               	movlw	3
  2861  0C61  00A1               	movwf	(LED_BLINKING@Time_Ms^(0+128)+1)
  2862  0C62  3064               	movlw	100
  2863  0C63  00A2               	movwf	LED_BLINKING@Task_Peroid^(0+128)
  2864  0C64  3000               	movlw	0
  2865  0C65  00A3               	movwf	(LED_BLINKING@Task_Peroid^(0+128)+1)
  2866  0C66  120A  158A  2366  120A  158A  	fcall	_LED_BLINKING
  2867                           
  2868                           ;Elements/Elements.c: 50:  }
  2869  0C6B  2C90               	goto	l195
  2870  0C6C                     l3086:
  2871  0C6C  1283               	bcf	3,5	;RP0=0, select bank0
  2872  0C6D  0347               	decf	_LED_Status,w
  2873  0C6E  1D03               	btfss	3,2
  2874  0C6F  2C71               	goto	u4471
  2875  0C70  2C72               	goto	u4470
  2876  0C71                     u4471:
  2877  0C71  2C7D               	goto	l3092
  2878  0C72                     u4470:
  2879  0C72                     l3088:
  2880  0C72  1683               	bsf	3,5	;RP0=1, select bank1
  2881  0C73  1303               	bcf	3,6	;RP1=0, select bank1
  2882  0C74  0352               	decf	_Mode^(0+128),w
  2883  0C75  1D03               	btfss	3,2
  2884  0C76  2C78               	goto	u4481
  2885  0C77  2C79               	goto	u4480
  2886  0C78                     u4481:
  2887  0C78  2C7D               	goto	l3092
  2888  0C79                     u4480:
  2889  0C79                     l3090:
  2890                           
  2891                           ;Elements/Elements.c: 52:  {;Elements/Elements.c: 53:   (PORTB|= (1<<4));
  2892  0C79  1283               	bcf	3,5	;RP0=0, select bank0
  2893  0C7A  1303               	bcf	3,6	;RP1=0, select bank0
  2894  0C7B  1606               	bsf	6,4	;volatile
  2895                           
  2896                           ;Elements/Elements.c: 54:  }
  2897  0C7C  2C90               	goto	l195
  2898  0C7D                     l3092:
  2899  0C7D  1683               	bsf	3,5	;RP0=1, select bank1
  2900  0C7E  1303               	bcf	3,6	;RP1=0, select bank1
  2901  0C7F  0852               	movf	_Mode^(0+128),w
  2902  0C80  1903               	btfsc	3,2
  2903  0C81  2C83               	goto	u4491
  2904  0C82  2C84               	goto	u4490
  2905  0C83                     u4491:
  2906  0C83  2C8A               	goto	l3096
  2907  0C84                     u4490:
  2908  0C84                     l3094:
  2909  0C84  3002               	movlw	2
  2910  0C85  0652               	xorwf	_Mode^(0+128),w
  2911  0C86  1D03               	btfss	3,2
  2912  0C87  2C89               	goto	u4501
  2913  0C88  2C8A               	goto	u4500
  2914  0C89                     u4501:
  2915  0C89  2C90               	goto	l195
  2916  0C8A                     u4500:
  2917  0C8A                     l3096:
  2918                           
  2919                           ;Elements/Elements.c: 56:  {;Elements/Elements.c: 57:   (PORTB &= ~(1<<4));
  2920  0C8A  30EF               	movlw	239
  2921  0C8B  00FF               	movwf	btemp+1
  2922  0C8C  087F               	movf	btemp+1,w
  2923  0C8D  1283               	bcf	3,5	;RP0=0, select bank0
  2924  0C8E  1303               	bcf	3,6	;RP1=0, select bank0
  2925  0C8F  0586               	andwf	6,f	;volatile
  2926  0C90                     l195:
  2927  0C90  0008               	return
  2928  0C91                     __end_of_LED_MainFunction:
  2929                           
  2930                           	psect	text13
  2931  0B66                     __ptext13:	
  2932 ;; *************** function _LED_BLINKING *****************
  2933 ;; Defined at:
  2934 ;;		line 29 in file "Elements/Elements.c"
  2935 ;; Parameters:    Size  Location     Type
  2936 ;;  Time_Ms         2    0[BANK1 ] unsigned int 
  2937 ;;  Task_Peroid     2    2[BANK1 ] unsigned int 
  2938 ;; Auto vars:     Size  Location     Type
  2939 ;;		None
  2940 ;; Return value:  Size  Location     Type
  2941 ;;                  1    wreg      void 
  2942 ;; Registers used:
  2943 ;;		wreg, status,2, status,0, btemp+1, pclath, cstack
  2944 ;; Tracked objects:
  2945 ;;		On entry : 0/0
  2946 ;;		On exit  : 0/0
  2947 ;;		Unchanged: 0/0
  2948 ;; Data sizes:     COMMON   BANK0   BANK1   BANK3   BANK2
  2949 ;;      Params:         0       0       4       0       0
  2950 ;;      Locals:         0       0       0       0       0
  2951 ;;      Temps:          0       2       0       0       0
  2952 ;;      Totals:         0       2       4       0       0
  2953 ;;Total ram usage:        6 bytes
  2954 ;; Hardware stack levels used:    1
  2955 ;; Hardware stack levels required when called:    5
  2956 ;; This function calls:
  2957 ;;		___wmul
  2958 ;; This function is called by:
  2959 ;;		_LED_MainFunction
  2960 ;; This function uses a non-reentrant model
  2961 ;;
  2962                           
  2963                           
  2964                           ;psect for function _LED_BLINKING
  2965  0B66                     _LED_BLINKING:
  2966  0B66                     l2984:	
  2967                           ;incstack = 0
  2968 ;; hardware stack exceeded
  2969                           ; Regs used in _LED_BLINKING: [wreg+status,2+status,0+btemp+1+pclath+cstack]
  2970                           
  2971                           
  2972                           ;Elements/Elements.c: 29: void LED_BLINKING(uint16_t Time_Ms,uint16_t Task_Peroid);Eleme
      +                          nts/Elements.c: 30: {;Elements/Elements.c: 31:  static uint8_t Counter=1;;Elements/Eleme
      +                          nts.c: 33:    if(Counter*Task_Peroid==Time_Ms)
  2973  0B66  1283               	bcf	3,5	;RP0=0, select bank0
  2974  0B67  1303               	bcf	3,6	;RP1=0, select bank0
  2975  0B68  0852               	movf	LED_BLINKING@Counter,w
  2976  0B69  00C0               	movwf	??_LED_BLINKING
  2977  0B6A  01C1               	clrf	??_LED_BLINKING+1
  2978  0B6B  0840               	movf	??_LED_BLINKING,w
  2979  0B6C  00BA               	movwf	___wmul@multiplier
  2980  0B6D  0841               	movf	??_LED_BLINKING+1,w
  2981  0B6E  00BB               	movwf	___wmul@multiplier+1
  2982  0B6F  1683               	bsf	3,5	;RP0=1, select bank1
  2983  0B70  1303               	bcf	3,6	;RP1=0, select bank1
  2984  0B71  0823               	movf	(LED_BLINKING@Task_Peroid+1)^(0+128),w
  2985  0B72  1283               	bcf	3,5	;RP0=0, select bank0
  2986  0B73  1303               	bcf	3,6	;RP1=0, select bank0
  2987  0B74  00BD               	movwf	___wmul@multiplicand+1
  2988  0B75  1683               	bsf	3,5	;RP0=1, select bank1
  2989  0B76  1303               	bcf	3,6	;RP1=0, select bank1
  2990  0B77  0822               	movf	LED_BLINKING@Task_Peroid^(0+128),w
  2991  0B78  1283               	bcf	3,5	;RP0=0, select bank0
  2992  0B79  1303               	bcf	3,6	;RP1=0, select bank0
  2993  0B7A  00BC               	movwf	___wmul@multiplicand
  2994  0B7B  120A  158A  22E0  120A  158A  	fcall	___wmul
  2995  0B80  1683               	bsf	3,5	;RP0=1, select bank1
  2996  0B81  1303               	bcf	3,6	;RP1=0, select bank1
  2997  0B82  0821               	movf	(LED_BLINKING@Time_Ms+1)^(0+128),w
  2998  0B83  1283               	bcf	3,5	;RP0=0, select bank0
  2999  0B84  1303               	bcf	3,6	;RP1=0, select bank0
  3000  0B85  063B               	xorwf	?___wmul+1,w
  3001  0B86  1D03               	skipz
  3002  0B87  2B8E               	goto	u4315
  3003  0B88  1683               	bsf	3,5	;RP0=1, select bank1
  3004  0B89  1303               	bcf	3,6	;RP1=0, select bank1
  3005  0B8A  0820               	movf	LED_BLINKING@Time_Ms^(0+128),w
  3006  0B8B  1283               	bcf	3,5	;RP0=0, select bank0
  3007  0B8C  1303               	bcf	3,6	;RP1=0, select bank0
  3008  0B8D  063A               	xorwf	?___wmul,w
  3009  0B8E                     u4315:
  3010  0B8E  1D03               	skipz
  3011  0B8F  2B91               	goto	u4311
  3012  0B90  2B92               	goto	u4310
  3013  0B91                     u4311:
  3014  0B91  2B99               	goto	l2990
  3015  0B92                     u4310:
  3016  0B92                     l2986:
  3017                           
  3018                           ;Elements/Elements.c: 34:    {;Elements/Elements.c: 35:     (PORTB^= (1<<4));
  3019  0B92  3010               	movlw	16
  3020  0B93  00FF               	movwf	btemp+1
  3021  0B94  087F               	movf	btemp+1,w
  3022  0B95  0686               	xorwf	6,f	;volatile
  3023  0B96                     l2988:
  3024                           
  3025                           ;Elements/Elements.c: 36:     Counter=1;
  3026  0B96  01D2               	clrf	LED_BLINKING@Counter
  3027  0B97  0AD2               	incf	LED_BLINKING@Counter,f
  3028                           
  3029                           ;Elements/Elements.c: 37:    }
  3030  0B98  2B9D               	goto	l185
  3031  0B99                     l2990:
  3032                           
  3033                           ;Elements/Elements.c: 39:    {;Elements/Elements.c: 40:     Counter++;
  3034  0B99  3001               	movlw	1
  3035  0B9A  00FF               	movwf	btemp+1
  3036  0B9B  087F               	movf	btemp+1,w
  3037  0B9C  07D2               	addwf	LED_BLINKING@Counter,f
  3038  0B9D                     l185:
  3039  0B9D  0008               	return
  3040  0B9E                     __end_of_LED_BLINKING:
  3041                           
  3042                           	psect	text14
  3043  0A37                     __ptext14:	
  3044 ;; *************** function _ADC_Conv_MainFunction *****************
  3045 ;; Defined at:
  3046 ;;		line 48 in file "ADC/ADC.c"
  3047 ;; Parameters:    Size  Location     Type
  3048 ;;		None
  3049 ;; Auto vars:     Size  Location     Type
  3050 ;;		None
  3051 ;; Return value:  Size  Location     Type
  3052 ;;                  1    wreg      void 
  3053 ;; Registers used:
  3054 ;;		wreg, fsr0l, fsr0h, status,2, status,0, btemp+1, pclath, cstack
  3055 ;; Tracked objects:
  3056 ;;		On entry : 0/0
  3057 ;;		On exit  : 0/0
  3058 ;;		Unchanged: 0/0
  3059 ;; Data sizes:     COMMON   BANK0   BANK1   BANK3   BANK2
  3060 ;;      Params:         0       0       0       0       0
  3061 ;;      Locals:         0       0       0       0       0
  3062 ;;      Temps:          0       0       0       0       0
  3063 ;;      Totals:         0       0       0       0       0
  3064 ;;Total ram usage:        0 bytes
  3065 ;; Hardware stack levels used:    1
  3066 ;; Hardware stack levels required when called:    8
  3067 ;; This function calls:
  3068 ;;		_ADC_Value_Ready_CallBack
  3069 ;; This function is called by:
  3070 ;;		_Scheduler_Task2
  3071 ;; This function uses a non-reentrant model
  3072 ;;
  3073                           
  3074                           
  3075                           ;psect for function _ADC_Conv_MainFunction
  3076  0A37                     _ADC_Conv_MainFunction:
  3077  0A37                     l2998:	
  3078                           ;incstack = 0
  3079 ;; hardware stack exceeded
  3080                           ; Regs used in _ADC_Conv_MainFunction: [wreg-fsr0h+status,2+status,0+btemp+1+pclath+csta
      +                          ck]
  3081                           
  3082                           
  3083                           ;ADC/ADC.c: 50:  if(ADC_Info.ADC_INIT_FLAG==1 && ADC_Info.ADC_START_FLAG==1 && Mode.Sele
      +                          ct_Mode==Normal_Mode)
  3084  0A37  1683               	bsf	3,5	;RP0=1, select bank1
  3085  0A38  1303               	bcf	3,6	;RP1=0, select bank1
  3086  0A39  1C54               	btfss	_ADC_Info^(0+128),0
  3087  0A3A  2A3C               	goto	u4331
  3088  0A3B  2A3D               	goto	u4330
  3089  0A3C                     u4331:
  3090  0A3C  2A54               	goto	l32
  3091  0A3D                     u4330:
  3092  0A3D                     l3000:
  3093  0A3D  1CD4               	btfss	_ADC_Info^(0+128),1
  3094  0A3E  2A40               	goto	u4341
  3095  0A3F  2A41               	goto	u4340
  3096  0A40                     u4341:
  3097  0A40  2A54               	goto	l32
  3098  0A41                     u4340:
  3099  0A41                     l3002:
  3100  0A41  0352               	decf	_Mode^(0+128),w
  3101  0A42  1D03               	btfss	3,2
  3102  0A43  2A45               	goto	u4351
  3103  0A44  2A46               	goto	u4350
  3104  0A45                     u4351:
  3105  0A45  2A54               	goto	l32
  3106  0A46                     u4350:
  3107  0A46                     l3004:
  3108                           
  3109                           ;ADC/ADC.c: 51:  {;ADC/ADC.c: 52:      if(ADCON0bits.GO_DONE==0)
  3110  0A46  1283               	bcf	3,5	;RP0=0, select bank0
  3111  0A47  1303               	bcf	3,6	;RP1=0, select bank0
  3112  0A48  191F               	btfsc	31,2	;volatile
  3113  0A49  2A4B               	goto	u4361
  3114  0A4A  2A4C               	goto	u4360
  3115  0A4B                     u4361:
  3116  0A4B  2A54               	goto	l32
  3117  0A4C                     u4360:
  3118  0A4C                     l3006:
  3119                           
  3120                           ;ADC/ADC.c: 53:      {;ADC/ADC.c: 54:       ADC_Value_Ready_CallBack();
  3121  0A4C  120A  158A  2189  120A  158A  	fcall	_ADC_Value_Ready_CallBack
  3122  0A51                     l3008:
  3123                           
  3124                           ;ADC/ADC.c: 55:      ADCON0bits.GO_DONE=1;
  3125  0A51  1283               	bcf	3,5	;RP0=0, select bank0
  3126  0A52  1303               	bcf	3,6	;RP1=0, select bank0
  3127  0A53  151F               	bsf	31,2	;volatile
  3128  0A54                     l32:
  3129  0A54  0008               	return
  3130  0A55                     __end_of_ADC_Conv_MainFunction:
  3131                           
  3132                           	psect	text15
  3133  0989                     __ptext15:	
  3134 ;; *************** function _ADC_Value_Ready_CallBack *****************
  3135 ;; Defined at:
  3136 ;;		line 61 in file "ADC/ADC.c"
  3137 ;; Parameters:    Size  Location     Type
  3138 ;;		None
  3139 ;; Auto vars:     Size  Location     Type
  3140 ;;  ADC_Value       2   47[BANK1 ] unsigned int 
  3141 ;; Return value:  Size  Location     Type
  3142 ;;                  1    wreg      void 
  3143 ;; Registers used:
  3144 ;;		wreg, fsr0l, fsr0h, status,2, status,0, btemp+1, pclath, cstack
  3145 ;; Tracked objects:
  3146 ;;		On entry : 0/0
  3147 ;;		On exit  : 0/0
  3148 ;;		Unchanged: 0/0
  3149 ;; Data sizes:     COMMON   BANK0   BANK1   BANK3   BANK2
  3150 ;;      Params:         0       0       0       0       0
  3151 ;;      Locals:         0       0       2       0       0
  3152 ;;      Temps:          0       0       0       0       0
  3153 ;;      Totals:         0       0       2       0       0
  3154 ;;Total ram usage:        2 bytes
  3155 ;; Hardware stack levels used:    1
  3156 ;; Hardware stack levels required when called:    7
  3157 ;; This function calls:
  3158 ;;		_Temperature_Calc
  3159 ;; This function is called by:
  3160 ;;		_ADC_Conv_MainFunction
  3161 ;; This function uses a non-reentrant model
  3162 ;;
  3163                           
  3164                           
  3165                           ;psect for function _ADC_Value_Ready_CallBack
  3166  0989                     _ADC_Value_Ready_CallBack:
  3167  0989                     l2964:	
  3168                           ;incstack = 0
  3169 ;; hardware stack exceeded
  3170                           ; Regs used in _ADC_Value_Ready_CallBack: [wreg-fsr0h+status,2+status,0+btemp+1+pclath+c
      +                          stack]
  3171                           
  3172                           
  3173                           ;ADC/ADC.c: 63:   uint16_t ADC_Value=(ADRESH<<8)|(ADRESL);
  3174  0989  1283               	bcf	3,5	;RP0=0, select bank0
  3175  098A  1303               	bcf	3,6	;RP1=0, select bank0
  3176  098B  081E               	movf	30,w	;volatile
  3177  098C  1683               	bsf	3,5	;RP0=1, select bank1
  3178  098D  1303               	bcf	3,6	;RP1=0, select bank1
  3179  098E  00D0               	movwf	(ADC_Value_Ready_CallBack@ADC_Value+1)^(0+128)
  3180  098F  081E               	movf	30,w	;volatile
  3181  0990  00CF               	movwf	ADC_Value_Ready_CallBack@ADC_Value^(0+128)
  3182  0991                     l2966:
  3183                           
  3184                           ;ADC/ADC.c: 64:   Temperature_Calc(ADC_Value);
  3185  0991  084F               	movf	ADC_Value_Ready_CallBack@ADC_Value^(0+128),w
  3186  0992  120A  118A  26D2  120A  158A  	fcall	_Temperature_Calc
  3187  0997                     l35:
  3188  0997  0008               	return
  3189  0998                     __end_of_ADC_Value_Ready_CallBack:
  3190                           
  3191                           	psect	text16
  3192  06D2                     __ptext16:	
  3193 ;; *************** function _Temperature_Calc *****************
  3194 ;; Defined at:
  3195 ;;		line 14 in file "Temperature/Temperature.c"
  3196 ;; Parameters:    Size  Location     Type
  3197 ;;  ADC_VALUE       1    wreg     unsigned char 
  3198 ;; Auto vars:     Size  Location     Type
  3199 ;;  ADC_VALUE       1   46[BANK1 ] unsigned char 
  3200 ;; Return value:  Size  Location     Type
  3201 ;;                  1    wreg      void 
  3202 ;; Registers used:
  3203 ;;		wreg, fsr0l, fsr0h, status,2, status,0, btemp+1, pclath, cstack
  3204 ;; Tracked objects:
  3205 ;;		On entry : 0/0
  3206 ;;		On exit  : 0/0
  3207 ;;		Unchanged: 0/0
  3208 ;; Data sizes:     COMMON   BANK0   BANK1   BANK3   BANK2
  3209 ;;      Params:         0       0       0       0       0
  3210 ;;      Locals:         0       0       1       0       0
  3211 ;;      Temps:          0       0       4       0       0
  3212 ;;      Totals:         0       0       5       0       0
  3213 ;;Total ram usage:        5 bytes
  3214 ;; Hardware stack levels used:    1
  3215 ;; Hardware stack levels required when called:    6
  3216 ;; This function calls:
  3217 ;;		_Average_Value
  3218 ;;		___flmul
  3219 ;;		___fltol
  3220 ;;		___lwmod
  3221 ;;		___xxtofl
  3222 ;; This function is called by:
  3223 ;;		_ADC_Value_Ready_CallBack
  3224 ;; This function uses a non-reentrant model
  3225 ;;
  3226                           
  3227                           
  3228                           ;psect for function _Temperature_Calc
  3229  06D2                     _Temperature_Calc:
  3230                           
  3231                           ;incstack = 0
  3232 ;; hardware stack exceeded
  3233                           ; Regs used in _Temperature_Calc: [wreg-fsr0h+status,2+status,0+btemp+1+pclath+cstack]
  3234                           ;Temperature_Calc@ADC_VALUE stored from wreg
  3235  06D2  1683               	bsf	3,5	;RP0=1, select bank1
  3236  06D3  1303               	bcf	3,6	;RP1=0, select bank1
  3237  06D4  00CE               	movwf	Temperature_Calc@ADC_VALUE^(0+128)
  3238  06D5                     l2954:
  3239                           
  3240                           ;Temperature/Temperature.c: 14: void Temperature_Calc(uint8_t ADC_VALUE);Temperature/Tem
      +                          perature.c: 15: {;Temperature/Temperature.c: 16:  Temperature.Temp_Value=ADC_VALUE * 0.4
      +                          882;
  3241  06D5  084E               	movf	Temperature_Calc@ADC_VALUE^(0+128),w
  3242  06D6  00CA               	movwf	??_Temperature_Calc^(0+128)
  3243  06D7  01CB               	clrf	(??_Temperature_Calc^(0+128)+1)
  3244  06D8  01CC               	clrf	(??_Temperature_Calc^(0+128)+2)
  3245  06D9  01CD               	clrf	(??_Temperature_Calc^(0+128)+3)
  3246  06DA  084D               	movf	(??_Temperature_Calc+3)^(0+128),w
  3247  06DB  1283               	bcf	3,5	;RP0=0, select bank0
  3248  06DC  1303               	bcf	3,6	;RP1=0, select bank0
  3249  06DD  00BD               	movwf	___xxtofl@val+3
  3250  06DE  1683               	bsf	3,5	;RP0=1, select bank1
  3251  06DF  1303               	bcf	3,6	;RP1=0, select bank1
  3252  06E0  084C               	movf	(??_Temperature_Calc+2)^(0+128),w
  3253  06E1  1283               	bcf	3,5	;RP0=0, select bank0
  3254  06E2  1303               	bcf	3,6	;RP1=0, select bank0
  3255  06E3  00BC               	movwf	___xxtofl@val+2
  3256  06E4  1683               	bsf	3,5	;RP0=1, select bank1
  3257  06E5  1303               	bcf	3,6	;RP1=0, select bank1
  3258  06E6  084B               	movf	(??_Temperature_Calc+1)^(0+128),w
  3259  06E7  1283               	bcf	3,5	;RP0=0, select bank0
  3260  06E8  1303               	bcf	3,6	;RP1=0, select bank0
  3261  06E9  00BB               	movwf	___xxtofl@val+1
  3262  06EA  1683               	bsf	3,5	;RP0=1, select bank1
  3263  06EB  1303               	bcf	3,6	;RP1=0, select bank1
  3264  06EC  084A               	movf	??_Temperature_Calc^(0+128),w
  3265  06ED  1283               	bcf	3,5	;RP0=0, select bank0
  3266  06EE  1303               	bcf	3,6	;RP1=0, select bank0
  3267  06EF  00BA               	movwf	___xxtofl@val
  3268  06F0  3001               	movlw	1
  3269  06F1  120A  118A  2415  120A  118A  	fcall	___xxtofl
  3270  06F6  1283               	bcf	3,5	;RP0=0, select bank0
  3271  06F7  1303               	bcf	3,6	;RP1=0, select bank0
  3272  06F8  083D               	movf	?___xxtofl+3,w
  3273  06F9  1683               	bsf	3,5	;RP0=1, select bank1
  3274  06FA  1303               	bcf	3,6	;RP1=0, select bank1
  3275  06FB  00AD               	movwf	(___flmul@a+3)^(0+128)
  3276  06FC  1283               	bcf	3,5	;RP0=0, select bank0
  3277  06FD  1303               	bcf	3,6	;RP1=0, select bank0
  3278  06FE  083C               	movf	?___xxtofl+2,w
  3279  06FF  1683               	bsf	3,5	;RP0=1, select bank1
  3280  0700  1303               	bcf	3,6	;RP1=0, select bank1
  3281  0701  00AC               	movwf	(___flmul@a+2)^(0+128)
  3282  0702  1283               	bcf	3,5	;RP0=0, select bank0
  3283  0703  1303               	bcf	3,6	;RP1=0, select bank0
  3284  0704  083B               	movf	?___xxtofl+1,w
  3285  0705  1683               	bsf	3,5	;RP0=1, select bank1
  3286  0706  1303               	bcf	3,6	;RP1=0, select bank1
  3287  0707  00AB               	movwf	(___flmul@a+1)^(0+128)
  3288  0708  1283               	bcf	3,5	;RP0=0, select bank0
  3289  0709  1303               	bcf	3,6	;RP1=0, select bank0
  3290  070A  083A               	movf	?___xxtofl,w
  3291  070B  1683               	bsf	3,5	;RP0=1, select bank1
  3292  070C  1303               	bcf	3,6	;RP1=0, select bank1
  3293  070D  00AA               	movwf	___flmul@a^(0+128)
  3294  070E  303E               	movlw	62
  3295  070F  00A9               	movwf	(___flmul@b+3)^(0+128)
  3296  0710  30F9               	movlw	249
  3297  0711  00A8               	movwf	(___flmul@b+2)^(0+128)
  3298  0712  30F5               	movlw	245
  3299  0713  00A7               	movwf	(___flmul@b+1)^(0+128)
  3300  0714  305A               	movlw	90
  3301  0715  00A6               	movwf	___flmul@b^(0+128)
  3302  0716  120A  118A  205A  120A  118A  	fcall	___flmul
  3303  071B  1683               	bsf	3,5	;RP0=1, select bank1
  3304  071C  1303               	bcf	3,6	;RP1=0, select bank1
  3305  071D  0829               	movf	(?___flmul+3)^(0+128),w
  3306  071E  00C3               	movwf	(___fltol@f1+3)^(0+128)
  3307  071F  0828               	movf	(?___flmul+2)^(0+128),w
  3308  0720  00C2               	movwf	(___fltol@f1+2)^(0+128)
  3309  0721  0827               	movf	(?___flmul+1)^(0+128),w
  3310  0722  00C1               	movwf	(___fltol@f1+1)^(0+128)
  3311  0723  0826               	movf	?___flmul^(0+128),w
  3312  0724  00C0               	movwf	___fltol@f1^(0+128)
  3313  0725  120A  158A  2784  120A  118A  	fcall	___fltol
  3314  072A  1683               	bsf	3,5	;RP0=1, select bank1
  3315  072B  1303               	bcf	3,6	;RP1=0, select bank1
  3316  072C  0840               	movf	?___fltol^(0+128),w
  3317  072D  00FF               	movwf	btemp+1
  3318  072E  087F               	movf	btemp+1,w
  3319  072F  1283               	bcf	3,5	;RP0=0, select bank0
  3320  0730  1303               	bcf	3,6	;RP1=0, select bank0
  3321  0731  00CD               	movwf	_Temperature
  3322  0732                     l2956:
  3323                           
  3324                           ;Temperature/Temperature.c: 17:  Average_Value(Temperature.Temp_Value, &Temperature.Aver
      +                          age_Value);
  3325  0732  304E               	movlw	(low ((_Temperature| 0+1)))& (0+255)
  3326  0733  00FF               	movwf	btemp+1
  3327  0734  087F               	movf	btemp+1,w
  3328  0735  1683               	bsf	3,5	;RP0=1, select bank1
  3329  0736  1303               	bcf	3,6	;RP1=0, select bank1
  3330  0737  00A5               	movwf	Average_Value@Avrage_Values^(0+128)
  3331  0738  1283               	bcf	3,5	;RP0=0, select bank0
  3332  0739  1303               	bcf	3,6	;RP1=0, select bank0
  3333  073A  084D               	movf	_Temperature,w
  3334  073B  120A  118A  262A  120A  118A  	fcall	_Average_Value
  3335  0740                     l2958:
  3336                           
  3337                           ;Temperature/Temperature.c: 18:  Temperature.Average_NValues=(Temperature.Average_NValue
      +                          s+1)%10U;
  3338  0740  300A               	movlw	10
  3339  0741  1283               	bcf	3,5	;RP0=0, select bank0
  3340  0742  1303               	bcf	3,6	;RP1=0, select bank0
  3341  0743  00BA               	movwf	___lwmod@divisor
  3342  0744  3000               	movlw	0
  3343  0745  00BB               	movwf	___lwmod@divisor+1
  3344  0746  0851               	movf	_Temperature+4,w
  3345  0747  3E01               	addlw	1
  3346  0748  00BC               	movwf	___lwmod@dividend
  3347  0749  3000               	movlw	0
  3348  074A  1803               	skipnc
  3349  074B  3001               	movlw	1
  3350  074C  00BD               	movwf	___lwmod@dividend+1
  3351  074D  120A  158A  23D7  120A  118A  	fcall	___lwmod
  3352  0752  1283               	bcf	3,5	;RP0=0, select bank0
  3353  0753  1303               	bcf	3,6	;RP1=0, select bank0
  3354  0754  083A               	movf	?___lwmod,w
  3355  0755  00FF               	movwf	btemp+1
  3356  0756  087F               	movf	btemp+1,w
  3357  0757  00D1               	movwf	_Temperature+4
  3358  0758                     l2960:
  3359                           
  3360                           ;Temperature/Temperature.c: 20:  if(Temperature.Average_NValues==9)
  3361  0758  3009               	movlw	9
  3362  0759  0651               	xorwf	_Temperature+4,w
  3363  075A  1D03               	btfss	3,2
  3364  075B  2F5D               	goto	u4271
  3365  075C  2F5E               	goto	u4270
  3366  075D                     u4271:
  3367  075D  2F5F               	goto	l339
  3368  075E                     u4270:
  3369  075E                     l2962:
  3370                           
  3371                           ;Temperature/Temperature.c: 21:  {;Temperature/Temperature.c: 22:     Temperature.Averag
      +                          e_Value_Ready_Flag=1;
  3372  075E  1450               	bsf	_Temperature+3,0
  3373  075F                     l339:
  3374  075F  0008               	return
  3375  0760                     __end_of_Temperature_Calc:
  3376                           
  3377                           	psect	text17
  3378  0415                     __ptext17:	
  3379 ;; *************** function ___xxtofl *****************
  3380 ;; Defined at:
  3381 ;;		line 10 in file "C:\Program Files (x86)\Microchip\xc8\v2.20\pic\sources\c90\common\xxtofl.c"
  3382 ;; Parameters:    Size  Location     Type
  3383 ;;  sign            1    wreg     unsigned char 
  3384 ;;  val             4   26[BANK0 ] long 
  3385 ;; Auto vars:     Size  Location     Type
  3386 ;;  sign            1    0[BANK1 ] unsigned char 
  3387 ;;  arg             4    2[BANK1 ] unsigned long 
  3388 ;;  exp             1    1[BANK1 ] unsigned char 
  3389 ;; Return value:  Size  Location     Type
  3390 ;;                  4   26[BANK0 ] unsigned char 
  3391 ;; Registers used:
  3392 ;;		wreg, status,2, status,0, btemp+1
  3393 ;; Tracked objects:
  3394 ;;		On entry : 0/0
  3395 ;;		On exit  : 0/0
  3396 ;;		Unchanged: 0/0
  3397 ;; Data sizes:     COMMON   BANK0   BANK1   BANK3   BANK2
  3398 ;;      Params:         0       4       0       0       0
  3399 ;;      Locals:         0       0       6       0       0
  3400 ;;      Temps:          0       4       0       0       0
  3401 ;;      Totals:         0       8       6       0       0
  3402 ;;Total ram usage:       14 bytes
  3403 ;; Hardware stack levels used:    1
  3404 ;; Hardware stack levels required when called:    4
  3405 ;; This function calls:
  3406 ;;		Nothing
  3407 ;; This function is called by:
  3408 ;;		_Temperature_Calc
  3409 ;; This function uses a non-reentrant model
  3410 ;;
  3411                           
  3412                           
  3413                           ;psect for function ___xxtofl
  3414  0415                     ___xxtofl:
  3415                           
  3416                           ;incstack = 0
  3417 ;; hardware stack exceeded
  3418                           ; Regs used in ___xxtofl: [wreg+status,2+status,0+btemp+1]
  3419                           ;___xxtofl@sign stored from wreg
  3420  0415  1683               	bsf	3,5	;RP0=1, select bank1
  3421  0416  1303               	bcf	3,6	;RP1=0, select bank1
  3422  0417  00A0               	movwf	___xxtofl@sign^(0+128)
  3423  0418                     l2906:
  3424  0418  0820               	movf	___xxtofl@sign^(0+128),w
  3425  0419  1903               	btfsc	3,2
  3426  041A  2C1C               	goto	u4131
  3427  041B  2C1D               	goto	u4130
  3428  041C                     u4131:
  3429  041C  2C41               	goto	l2912
  3430  041D                     u4130:
  3431  041D                     l2908:
  3432  041D  1283               	bcf	3,5	;RP0=0, select bank0
  3433  041E  1303               	bcf	3,6	;RP1=0, select bank0
  3434  041F  1FBD               	btfss	___xxtofl@val+3,7
  3435  0420  2C22               	goto	u4141
  3436  0421  2C23               	goto	u4140
  3437  0422                     u4141:
  3438  0422  2C41               	goto	l2912
  3439  0423                     u4140:
  3440  0423                     l2910:
  3441  0423  093A               	comf	___xxtofl@val,w
  3442  0424  1683               	bsf	3,5	;RP0=1, select bank1
  3443  0425  1303               	bcf	3,6	;RP1=0, select bank1
  3444  0426  00A2               	movwf	___xxtofl@arg^(0+128)
  3445  0427  1283               	bcf	3,5	;RP0=0, select bank0
  3446  0428  1303               	bcf	3,6	;RP1=0, select bank0
  3447  0429  093B               	comf	___xxtofl@val+1,w
  3448  042A  1683               	bsf	3,5	;RP0=1, select bank1
  3449  042B  1303               	bcf	3,6	;RP1=0, select bank1
  3450  042C  00A3               	movwf	(___xxtofl@arg+1)^(0+128)
  3451  042D  1283               	bcf	3,5	;RP0=0, select bank0
  3452  042E  1303               	bcf	3,6	;RP1=0, select bank0
  3453  042F  093C               	comf	___xxtofl@val+2,w
  3454  0430  1683               	bsf	3,5	;RP0=1, select bank1
  3455  0431  1303               	bcf	3,6	;RP1=0, select bank1
  3456  0432  00A4               	movwf	(___xxtofl@arg+2)^(0+128)
  3457  0433  1283               	bcf	3,5	;RP0=0, select bank0
  3458  0434  1303               	bcf	3,6	;RP1=0, select bank0
  3459  0435  093D               	comf	___xxtofl@val+3,w
  3460  0436  1683               	bsf	3,5	;RP0=1, select bank1
  3461  0437  1303               	bcf	3,6	;RP1=0, select bank1
  3462  0438  00A5               	movwf	(___xxtofl@arg+3)^(0+128)
  3463  0439  0AA2               	incf	___xxtofl@arg^(0+128),f
  3464  043A  1903               	skipnz
  3465  043B  0AA3               	incf	(___xxtofl@arg+1)^(0+128),f
  3466  043C  1903               	skipnz
  3467  043D  0AA4               	incf	(___xxtofl@arg+2)^(0+128),f
  3468  043E  1903               	skipnz
  3469  043F  0AA5               	incf	(___xxtofl@arg+3)^(0+128),f
  3470  0440  2C58               	goto	l905
  3471  0441                     l2912:
  3472  0441  1283               	bcf	3,5	;RP0=0, select bank0
  3473  0442  083D               	movf	___xxtofl@val+3,w
  3474  0443  1683               	bsf	3,5	;RP0=1, select bank1
  3475  0444  1303               	bcf	3,6	;RP1=0, select bank1
  3476  0445  00A5               	movwf	(___xxtofl@arg+3)^(0+128)
  3477  0446  1283               	bcf	3,5	;RP0=0, select bank0
  3478  0447  1303               	bcf	3,6	;RP1=0, select bank0
  3479  0448  083C               	movf	___xxtofl@val+2,w
  3480  0449  1683               	bsf	3,5	;RP0=1, select bank1
  3481  044A  1303               	bcf	3,6	;RP1=0, select bank1
  3482  044B  00A4               	movwf	(___xxtofl@arg+2)^(0+128)
  3483  044C  1283               	bcf	3,5	;RP0=0, select bank0
  3484  044D  1303               	bcf	3,6	;RP1=0, select bank0
  3485  044E  083B               	movf	___xxtofl@val+1,w
  3486  044F  1683               	bsf	3,5	;RP0=1, select bank1
  3487  0450  1303               	bcf	3,6	;RP1=0, select bank1
  3488  0451  00A3               	movwf	(___xxtofl@arg+1)^(0+128)
  3489  0452  1283               	bcf	3,5	;RP0=0, select bank0
  3490  0453  1303               	bcf	3,6	;RP1=0, select bank0
  3491  0454  083A               	movf	___xxtofl@val,w
  3492  0455  1683               	bsf	3,5	;RP0=1, select bank1
  3493  0456  1303               	bcf	3,6	;RP1=0, select bank1
  3494  0457  00A2               	movwf	___xxtofl@arg^(0+128)
  3495  0458                     l905:
  3496  0458  1283               	bcf	3,5	;RP0=0, select bank0
  3497  0459  1303               	bcf	3,6	;RP1=0, select bank0
  3498  045A  083D               	movf	___xxtofl@val+3,w
  3499  045B  043C               	iorwf	___xxtofl@val+2,w
  3500  045C  043B               	iorwf	___xxtofl@val+1,w
  3501  045D  043A               	iorwf	___xxtofl@val,w
  3502  045E  1D03               	skipz
  3503  045F  2C61               	goto	u4151
  3504  0460  2C62               	goto	u4150
  3505  0461                     u4151:
  3506  0461  2C6B               	goto	l2918
  3507  0462                     u4150:
  3508  0462                     l2914:
  3509  0462  3000               	movlw	0
  3510  0463  00BD               	movwf	?___xxtofl+3
  3511  0464  3000               	movlw	0
  3512  0465  00BC               	movwf	?___xxtofl+2
  3513  0466  3000               	movlw	0
  3514  0467  00BB               	movwf	?___xxtofl+1
  3515  0468  3000               	movlw	0
  3516  0469  00BA               	movwf	?___xxtofl
  3517  046A  2D1F               	goto	l907
  3518  046B                     l2918:
  3519  046B  3096               	movlw	150
  3520  046C  00FF               	movwf	btemp+1
  3521  046D  087F               	movf	btemp+1,w
  3522  046E  1683               	bsf	3,5	;RP0=1, select bank1
  3523  046F  1303               	bcf	3,6	;RP1=0, select bank1
  3524  0470  00A1               	movwf	___xxtofl@exp^(0+128)
  3525  0471  2C7F               	goto	l2924
  3526  0472                     l2920:
  3527  0472  3001               	movlw	1
  3528  0473  00FF               	movwf	btemp+1
  3529  0474  087F               	movf	btemp+1,w
  3530  0475  07A1               	addwf	___xxtofl@exp^(0+128),f
  3531  0476                     l2922:
  3532  0476  3001               	movlw	1
  3533  0477                     u4165:
  3534  0477  1003               	clrc
  3535  0478  0CA5               	rrf	(___xxtofl@arg+3)^(0+128),f
  3536  0479  0CA4               	rrf	(___xxtofl@arg+2)^(0+128),f
  3537  047A  0CA3               	rrf	(___xxtofl@arg+1)^(0+128),f
  3538  047B  0CA2               	rrf	___xxtofl@arg^(0+128),f
  3539  047C  3EFF               	addlw	-1
  3540  047D  1D03               	skipz
  3541  047E  2C77               	goto	u4165
  3542  047F                     l2924:
  3543  047F  30FE               	movlw	254
  3544  0480  0525               	andwf	(___xxtofl@arg+3)^(0+128),w
  3545  0481  1D03               	btfss	3,2
  3546  0482  2C84               	goto	u4171
  3547  0483  2C85               	goto	u4170
  3548  0484                     u4171:
  3549  0484  2C72               	goto	l2920
  3550  0485                     u4170:
  3551  0485  2CA1               	goto	l2932
  3552  0486                     l2926:
  3553  0486  3001               	movlw	1
  3554  0487  00FF               	movwf	btemp+1
  3555  0488  087F               	movf	btemp+1,w
  3556  0489  07A1               	addwf	___xxtofl@exp^(0+128),f
  3557  048A                     l2928:
  3558  048A  3001               	movlw	1
  3559  048B  07A2               	addwf	___xxtofl@arg^(0+128),f
  3560  048C  3000               	movlw	0
  3561  048D  1803               	skipnc
  3562  048E  3001               	movlw	1
  3563  048F  07A3               	addwf	(___xxtofl@arg+1)^(0+128),f
  3564  0490  3000               	movlw	0
  3565  0491  1803               	skipnc
  3566  0492  3001               	movlw	1
  3567  0493  07A4               	addwf	(___xxtofl@arg+2)^(0+128),f
  3568  0494  3000               	movlw	0
  3569  0495  1803               	skipnc
  3570  0496  3001               	movlw	1
  3571  0497  07A5               	addwf	(___xxtofl@arg+3)^(0+128),f
  3572  0498                     l2930:
  3573  0498  3001               	movlw	1
  3574  0499                     u4185:
  3575  0499  1003               	clrc
  3576  049A  0CA5               	rrf	(___xxtofl@arg+3)^(0+128),f
  3577  049B  0CA4               	rrf	(___xxtofl@arg+2)^(0+128),f
  3578  049C  0CA3               	rrf	(___xxtofl@arg+1)^(0+128),f
  3579  049D  0CA2               	rrf	___xxtofl@arg^(0+128),f
  3580  049E  3EFF               	addlw	-1
  3581  049F  1D03               	skipz
  3582  04A0  2C99               	goto	u4185
  3583  04A1                     l2932:
  3584  04A1  30FF               	movlw	255
  3585  04A2  0525               	andwf	(___xxtofl@arg+3)^(0+128),w
  3586  04A3  1D03               	btfss	3,2
  3587  04A4  2CA6               	goto	u4191
  3588  04A5  2CA7               	goto	u4190
  3589  04A6                     u4191:
  3590  04A6  2C86               	goto	l2926
  3591  04A7                     u4190:
  3592  04A7  2CB9               	goto	l2936
  3593  04A8                     l2934:
  3594  04A8  3001               	movlw	1
  3595  04A9  02A1               	subwf	___xxtofl@exp^(0+128),f
  3596  04AA  3001               	movlw	1
  3597  04AB  1283               	bcf	3,5	;RP0=0, select bank0
  3598  04AC  1303               	bcf	3,6	;RP1=0, select bank0
  3599  04AD  00BE               	movwf	??___xxtofl
  3600  04AE                     u4205:
  3601  04AE  1003               	clrc
  3602  04AF  1683               	bsf	3,5	;RP0=1, select bank1
  3603  04B0  1303               	bcf	3,6	;RP1=0, select bank1
  3604  04B1  0DA2               	rlf	___xxtofl@arg^(0+128),f
  3605  04B2  0DA3               	rlf	(___xxtofl@arg+1)^(0+128),f
  3606  04B3  0DA4               	rlf	(___xxtofl@arg+2)^(0+128),f
  3607  04B4  0DA5               	rlf	(___xxtofl@arg+3)^(0+128),f
  3608  04B5  1283               	bcf	3,5	;RP0=0, select bank0
  3609  04B6  1303               	bcf	3,6	;RP1=0, select bank0
  3610  04B7  0BBE               	decfsz	??___xxtofl,f
  3611  04B8  2CAE               	goto	u4205
  3612  04B9                     l2936:
  3613  04B9  1683               	bsf	3,5	;RP0=1, select bank1
  3614  04BA  1303               	bcf	3,6	;RP1=0, select bank1
  3615  04BB  1BA4               	btfsc	(___xxtofl@arg+2)^(0+128),7
  3616  04BC  2CBE               	goto	u4211
  3617  04BD  2CBF               	goto	u4210
  3618  04BE                     u4211:
  3619  04BE  2CC5               	goto	l918
  3620  04BF                     u4210:
  3621  04BF                     l2938:
  3622  04BF  3002               	movlw	2
  3623  04C0  0221               	subwf	___xxtofl@exp^(0+128),w
  3624  04C1  1803               	skipnc
  3625  04C2  2CC4               	goto	u4221
  3626  04C3  2CC5               	goto	u4220
  3627  04C4                     u4221:
  3628  04C4  2CA8               	goto	l2934
  3629  04C5                     u4220:
  3630  04C5                     l918:
  3631  04C5  1821               	btfsc	___xxtofl@exp^(0+128),0
  3632  04C6  2CC8               	goto	u4231
  3633  04C7  2CC9               	goto	u4230
  3634  04C8                     u4231:
  3635  04C8  2CD1               	goto	l919
  3636  04C9                     u4230:
  3637  04C9                     l2940:
  3638  04C9  30FF               	movlw	255
  3639  04CA  05A2               	andwf	___xxtofl@arg^(0+128),f
  3640  04CB  30FF               	movlw	255
  3641  04CC  05A3               	andwf	(___xxtofl@arg+1)^(0+128),f
  3642  04CD  307F               	movlw	127
  3643  04CE  05A4               	andwf	(___xxtofl@arg+2)^(0+128),f
  3644  04CF  30FF               	movlw	255
  3645  04D0  05A5               	andwf	(___xxtofl@arg+3)^(0+128),f
  3646  04D1                     l919:
  3647  04D1  1003               	clrc
  3648  04D2  0CA1               	rrf	___xxtofl@exp^(0+128),f
  3649  04D3                     l2942:
  3650  04D3  0821               	movf	___xxtofl@exp^(0+128),w
  3651  04D4  1283               	bcf	3,5	;RP0=0, select bank0
  3652  04D5  1303               	bcf	3,6	;RP1=0, select bank0
  3653  04D6  00BE               	movwf	??___xxtofl
  3654  04D7  01BF               	clrf	??___xxtofl+1
  3655  04D8  01C0               	clrf	??___xxtofl+2
  3656  04D9  01C1               	clrf	??___xxtofl+3
  3657  04DA  3018               	movlw	24
  3658  04DB                     u4245:
  3659  04DB  1003               	clrc
  3660  04DC  0DBE               	rlf	??___xxtofl,f
  3661  04DD  0DBF               	rlf	??___xxtofl+1,f
  3662  04DE  0DC0               	rlf	??___xxtofl+2,f
  3663  04DF  0DC1               	rlf	??___xxtofl+3,f
  3664  04E0                     u4240:
  3665  04E0  3EFF               	addlw	-1
  3666  04E1  1D03               	skipz
  3667  04E2  2CDB               	goto	u4245
  3668  04E3  083E               	movf	??___xxtofl,w
  3669  04E4  1683               	bsf	3,5	;RP0=1, select bank1
  3670  04E5  1303               	bcf	3,6	;RP1=0, select bank1
  3671  04E6  04A2               	iorwf	___xxtofl@arg^(0+128),f
  3672  04E7  1283               	bcf	3,5	;RP0=0, select bank0
  3673  04E8  1303               	bcf	3,6	;RP1=0, select bank0
  3674  04E9  083F               	movf	??___xxtofl+1,w
  3675  04EA  1683               	bsf	3,5	;RP0=1, select bank1
  3676  04EB  1303               	bcf	3,6	;RP1=0, select bank1
  3677  04EC  04A3               	iorwf	(___xxtofl@arg+1)^(0+128),f
  3678  04ED  1283               	bcf	3,5	;RP0=0, select bank0
  3679  04EE  1303               	bcf	3,6	;RP1=0, select bank0
  3680  04EF  0840               	movf	??___xxtofl+2,w
  3681  04F0  1683               	bsf	3,5	;RP0=1, select bank1
  3682  04F1  1303               	bcf	3,6	;RP1=0, select bank1
  3683  04F2  04A4               	iorwf	(___xxtofl@arg+2)^(0+128),f
  3684  04F3  1283               	bcf	3,5	;RP0=0, select bank0
  3685  04F4  1303               	bcf	3,6	;RP1=0, select bank0
  3686  04F5  0841               	movf	??___xxtofl+3,w
  3687  04F6  1683               	bsf	3,5	;RP0=1, select bank1
  3688  04F7  1303               	bcf	3,6	;RP1=0, select bank1
  3689  04F8  04A5               	iorwf	(___xxtofl@arg+3)^(0+128),f
  3690  04F9                     l2944:
  3691  04F9  0820               	movf	___xxtofl@sign^(0+128),w
  3692  04FA  1903               	btfsc	3,2
  3693  04FB  2CFD               	goto	u4251
  3694  04FC  2CFE               	goto	u4250
  3695  04FD                     u4251:
  3696  04FD  2D07               	goto	l2950
  3697  04FE                     u4250:
  3698  04FE                     l2946:
  3699  04FE  1283               	bcf	3,5	;RP0=0, select bank0
  3700  04FF  1303               	bcf	3,6	;RP1=0, select bank0
  3701  0500  1FBD               	btfss	___xxtofl@val+3,7
  3702  0501  2D03               	goto	u4261
  3703  0502  2D04               	goto	u4260
  3704  0503                     u4261:
  3705  0503  2D07               	goto	l2950
  3706  0504                     u4260:
  3707  0504                     l2948:
  3708  0504  1683               	bsf	3,5	;RP0=1, select bank1
  3709  0505  1303               	bcf	3,6	;RP1=0, select bank1
  3710  0506  17A5               	bsf	(___xxtofl@arg^(0+128)+3),7
  3711  0507                     l2950:
  3712  0507  1683               	bsf	3,5	;RP0=1, select bank1
  3713  0508  1303               	bcf	3,6	;RP1=0, select bank1
  3714  0509  0825               	movf	(___xxtofl@arg+3)^(0+128),w
  3715  050A  1283               	bcf	3,5	;RP0=0, select bank0
  3716  050B  1303               	bcf	3,6	;RP1=0, select bank0
  3717  050C  00BD               	movwf	?___xxtofl+3
  3718  050D  1683               	bsf	3,5	;RP0=1, select bank1
  3719  050E  1303               	bcf	3,6	;RP1=0, select bank1
  3720  050F  0824               	movf	(___xxtofl@arg+2)^(0+128),w
  3721  0510  1283               	bcf	3,5	;RP0=0, select bank0
  3722  0511  1303               	bcf	3,6	;RP1=0, select bank0
  3723  0512  00BC               	movwf	?___xxtofl+2
  3724  0513  1683               	bsf	3,5	;RP0=1, select bank1
  3725  0514  1303               	bcf	3,6	;RP1=0, select bank1
  3726  0515  0823               	movf	(___xxtofl@arg+1)^(0+128),w
  3727  0516  1283               	bcf	3,5	;RP0=0, select bank0
  3728  0517  1303               	bcf	3,6	;RP1=0, select bank0
  3729  0518  00BB               	movwf	?___xxtofl+1
  3730  0519  1683               	bsf	3,5	;RP0=1, select bank1
  3731  051A  1303               	bcf	3,6	;RP1=0, select bank1
  3732  051B  0822               	movf	___xxtofl@arg^(0+128),w
  3733  051C  1283               	bcf	3,5	;RP0=0, select bank0
  3734  051D  1303               	bcf	3,6	;RP1=0, select bank0
  3735  051E  00BA               	movwf	?___xxtofl
  3736  051F                     l907:
  3737  051F  0008               	return
  3738  0520                     __end_of___xxtofl:
  3739                           
  3740                           	psect	text18
  3741  0F84                     __ptext18:	
  3742 ;; *************** function ___fltol *****************
  3743 ;; Defined at:
  3744 ;;		line 43 in file "C:\Program Files (x86)\Microchip\xc8\v2.20\pic\sources\c90\common\fltol.c"
  3745 ;; Parameters:    Size  Location     Type
  3746 ;;  f1              4   32[BANK1 ] unsigned char 
  3747 ;; Auto vars:     Size  Location     Type
  3748 ;;  exp1            1   41[BANK1 ] unsigned char 
  3749 ;;  sign1           1   40[BANK1 ] unsigned char 
  3750 ;; Return value:  Size  Location     Type
  3751 ;;                  4   32[BANK1 ] long 
  3752 ;; Registers used:
  3753 ;;		wreg, status,2, status,0, btemp+1
  3754 ;; Tracked objects:
  3755 ;;		On entry : 0/0
  3756 ;;		On exit  : 0/0
  3757 ;;		Unchanged: 0/0
  3758 ;; Data sizes:     COMMON   BANK0   BANK1   BANK3   BANK2
  3759 ;;      Params:         0       0       4       0       0
  3760 ;;      Locals:         0       0       2       0       0
  3761 ;;      Temps:          0       0       4       0       0
  3762 ;;      Totals:         0       0      10       0       0
  3763 ;;Total ram usage:       10 bytes
  3764 ;; Hardware stack levels used:    1
  3765 ;; Hardware stack levels required when called:    4
  3766 ;; This function calls:
  3767 ;;		Nothing
  3768 ;; This function is called by:
  3769 ;;		_Temperature_Calc
  3770 ;; This function uses a non-reentrant model
  3771 ;;
  3772                           
  3773                           
  3774                           ;psect for function ___fltol
  3775  0F84                     ___fltol:
  3776  0F84                     l2726:	
  3777                           ;incstack = 0
  3778 ;; hardware stack exceeded
  3779                           ; Regs used in ___fltol: [wreg+status,2+status,0+btemp+1]
  3780                           
  3781  0F84  1003               	clrc
  3782  0F85  1683               	bsf	3,5	;RP0=1, select bank1
  3783  0F86  1303               	bcf	3,6	;RP1=0, select bank1
  3784  0F87  0D42               	rlf	(___fltol@f1+2)^(0+128),w
  3785  0F88  0D43               	rlf	(___fltol@f1+3)^(0+128),w
  3786  0F89  00FF               	movwf	btemp+1
  3787  0F8A  087F               	movf	btemp+1,w
  3788  0F8B  00C9               	movwf	___fltol@exp1^(0+128)
  3789  0F8C  0849               	movf	___fltol@exp1^(0+128),w
  3790  0F8D  1D03               	btfss	3,2
  3791  0F8E  2F90               	goto	u3661
  3792  0F8F  2F91               	goto	u3660
  3793  0F90                     u3661:
  3794  0F90  2F9A               	goto	l2732
  3795  0F91                     u3660:
  3796  0F91                     l2728:
  3797  0F91  3000               	movlw	0
  3798  0F92  00C3               	movwf	(?___fltol+3)^(0+128)
  3799  0F93  3000               	movlw	0
  3800  0F94  00C2               	movwf	(?___fltol+2)^(0+128)
  3801  0F95  3000               	movlw	0
  3802  0F96  00C1               	movwf	(?___fltol+1)^(0+128)
  3803  0F97  3000               	movlw	0
  3804  0F98  00C0               	movwf	?___fltol^(0+128)
  3805  0F99  2FFF               	goto	l658
  3806  0F9A                     l2732:
  3807  0F9A  0840               	movf	___fltol@f1^(0+128),w
  3808  0F9B  00C4               	movwf	??___fltol^(0+128)
  3809  0F9C  0841               	movf	(___fltol@f1+1)^(0+128),w
  3810  0F9D  00C5               	movwf	(??___fltol^(0+128)+1)
  3811  0F9E  0842               	movf	(___fltol@f1+2)^(0+128),w
  3812  0F9F  00C6               	movwf	(??___fltol^(0+128)+2)
  3813  0FA0  0843               	movf	(___fltol@f1+3)^(0+128),w
  3814  0FA1  00C7               	movwf	(??___fltol^(0+128)+3)
  3815  0FA2  301F               	movlw	31
  3816  0FA3                     u3675:
  3817  0FA3  1003               	clrc
  3818  0FA4  0CC7               	rrf	(??___fltol^(0+128)+3),f
  3819  0FA5  0CC6               	rrf	(??___fltol^(0+128)+2),f
  3820  0FA6  0CC5               	rrf	(??___fltol^(0+128)+1),f
  3821  0FA7  0CC4               	rrf	??___fltol^(0+128),f
  3822  0FA8                     u3670:
  3823  0FA8  3EFF               	addlw	-1
  3824  0FA9  1D03               	skipz
  3825  0FAA  2FA3               	goto	u3675
  3826  0FAB  0844               	movf	??___fltol^(0+128),w
  3827  0FAC  00FF               	movwf	btemp+1
  3828  0FAD  087F               	movf	btemp+1,w
  3829  0FAE  00C8               	movwf	___fltol@sign1^(0+128)
  3830  0FAF                     l2734:
  3831  0FAF  17C2               	bsf	(___fltol@f1^(0+128)+2),7
  3832  0FB0                     l2736:
  3833  0FB0  30FF               	movlw	255
  3834  0FB1  05C0               	andwf	___fltol@f1^(0+128),f
  3835  0FB2  30FF               	movlw	255
  3836  0FB3  05C1               	andwf	(___fltol@f1+1)^(0+128),f
  3837  0FB4  30FF               	movlw	255
  3838  0FB5  05C2               	andwf	(___fltol@f1+2)^(0+128),f
  3839  0FB6  3000               	movlw	0
  3840  0FB7  05C3               	andwf	(___fltol@f1+3)^(0+128),f
  3841  0FB8                     l2738:
  3842  0FB8  3096               	movlw	150
  3843  0FB9  02C9               	subwf	___fltol@exp1^(0+128),f
  3844  0FBA                     l2740:
  3845  0FBA  1FC9               	btfss	___fltol@exp1^(0+128),7
  3846  0FBB  2FBD               	goto	u3681
  3847  0FBC  2FBE               	goto	u3680
  3848  0FBD                     u3681:
  3849  0FBD  2FD8               	goto	l2752
  3850  0FBE                     u3680:
  3851  0FBE                     l2742:
  3852  0FBE  0849               	movf	___fltol@exp1^(0+128),w
  3853  0FBF  3A80               	xorlw	128
  3854  0FC0  3E97               	addlw	151
  3855  0FC1  1803               	skipnc
  3856  0FC2  2FC4               	goto	u3691
  3857  0FC3  2FC5               	goto	u3690
  3858  0FC4                     u3691:
  3859  0FC4  2FC6               	goto	l2748
  3860  0FC5                     u3690:
  3861  0FC5  2F91               	goto	l2728
  3862  0FC6                     l2748:
  3863  0FC6  3001               	movlw	1
  3864  0FC7                     u3705:
  3865  0FC7  1003               	clrc
  3866  0FC8  0CC3               	rrf	(___fltol@f1+3)^(0+128),f
  3867  0FC9  0CC2               	rrf	(___fltol@f1+2)^(0+128),f
  3868  0FCA  0CC1               	rrf	(___fltol@f1+1)^(0+128),f
  3869  0FCB  0CC0               	rrf	___fltol@f1^(0+128),f
  3870  0FCC  3EFF               	addlw	-1
  3871  0FCD  1D03               	skipz
  3872  0FCE  2FC7               	goto	u3705
  3873  0FCF                     l2750:
  3874  0FCF  3001               	movlw	1
  3875  0FD0  00FF               	movwf	btemp+1
  3876  0FD1  087F               	movf	btemp+1,w
  3877  0FD2  07C9               	addwf	___fltol@exp1^(0+128),f
  3878  0FD3  1D03               	btfss	3,2
  3879  0FD4  2FD6               	goto	u3711
  3880  0FD5  2FD7               	goto	u3710
  3881  0FD6                     u3711:
  3882  0FD6  2FC6               	goto	l2748
  3883  0FD7                     u3710:
  3884  0FD7  2FEF               	goto	l2760
  3885  0FD8                     l2752:
  3886  0FD8  3020               	movlw	32
  3887  0FD9  0249               	subwf	___fltol@exp1^(0+128),w
  3888  0FDA  1C03               	skipc
  3889  0FDB  2FDD               	goto	u3721
  3890  0FDC  2FDE               	goto	u3720
  3891  0FDD                     u3721:
  3892  0FDD  2FEA               	goto	l665
  3893  0FDE                     u3720:
  3894  0FDE  2F91               	goto	l2728
  3895  0FDF                     l2758:
  3896  0FDF  3001               	movlw	1
  3897  0FE0  00C4               	movwf	??___fltol^(0+128)
  3898  0FE1                     u3735:
  3899  0FE1  1003               	clrc
  3900  0FE2  0DC0               	rlf	___fltol@f1^(0+128),f
  3901  0FE3  0DC1               	rlf	(___fltol@f1+1)^(0+128),f
  3902  0FE4  0DC2               	rlf	(___fltol@f1+2)^(0+128),f
  3903  0FE5  0DC3               	rlf	(___fltol@f1+3)^(0+128),f
  3904  0FE6  0BC4               	decfsz	??___fltol^(0+128),f
  3905  0FE7  2FE1               	goto	u3735
  3906  0FE8  3001               	movlw	1
  3907  0FE9  02C9               	subwf	___fltol@exp1^(0+128),f
  3908  0FEA                     l665:
  3909  0FEA  0849               	movf	___fltol@exp1^(0+128),w
  3910  0FEB  1D03               	btfss	3,2
  3911  0FEC  2FEE               	goto	u3741
  3912  0FED  2FEF               	goto	u3740
  3913  0FEE                     u3741:
  3914  0FEE  2FDF               	goto	l2758
  3915  0FEF                     u3740:
  3916  0FEF                     l2760:
  3917  0FEF  0848               	movf	___fltol@sign1^(0+128),w
  3918  0FF0  1903               	btfsc	3,2
  3919  0FF1  2FF3               	goto	u3751
  3920  0FF2  2FF4               	goto	u3750
  3921  0FF3                     u3751:
  3922  0FF3  2FFF               	goto	l668
  3923  0FF4                     u3750:
  3924  0FF4                     l2762:
  3925  0FF4  09C0               	comf	___fltol@f1^(0+128),f
  3926  0FF5  09C1               	comf	(___fltol@f1+1)^(0+128),f
  3927  0FF6  09C2               	comf	(___fltol@f1+2)^(0+128),f
  3928  0FF7  09C3               	comf	(___fltol@f1+3)^(0+128),f
  3929  0FF8  0AC0               	incf	___fltol@f1^(0+128),f
  3930  0FF9  1903               	skipnz
  3931  0FFA  0AC1               	incf	(___fltol@f1+1)^(0+128),f
  3932  0FFB  1903               	skipnz
  3933  0FFC  0AC2               	incf	(___fltol@f1+2)^(0+128),f
  3934  0FFD  1903               	skipnz
  3935  0FFE  0AC3               	incf	(___fltol@f1+3)^(0+128),f
  3936  0FFF                     l668:
  3937  0FFF                     l658:
  3938  0FFF  0008               	return
  3939  1000                     __end_of___fltol:
  3940                           
  3941                           	psect	text19
  3942  005A                     __ptext19:	
  3943 ;; *************** function ___flmul *****************
  3944 ;; Defined at:
  3945 ;;		line 8 in file "C:\Program Files (x86)\Microchip\xc8\v2.20\pic\sources\c90\common\sprcmul.c"
  3946 ;; Parameters:    Size  Location     Type
  3947 ;;  b               4    6[BANK1 ] long 
  3948 ;;  a               4   10[BANK1 ] long 
  3949 ;; Auto vars:     Size  Location     Type
  3950 ;;  prod            4   26[BANK1 ] struct .
  3951 ;;  grs             4   21[BANK1 ] unsigned long 
  3952 ;;  temp            2   30[BANK1 ] struct .
  3953 ;;  bexp            1   25[BANK1 ] unsigned char 
  3954 ;;  aexp            1   20[BANK1 ] unsigned char 
  3955 ;;  sign            1   19[BANK1 ] unsigned char 
  3956 ;; Return value:  Size  Location     Type
  3957 ;;                  4    6[BANK1 ] unsigned char 
  3958 ;; Registers used:
  3959 ;;		wreg, status,2, status,0, btemp+1, pclath, cstack
  3960 ;; Tracked objects:
  3961 ;;		On entry : 0/0
  3962 ;;		On exit  : 0/0
  3963 ;;		Unchanged: 0/0
  3964 ;; Data sizes:     COMMON   BANK0   BANK1   BANK3   BANK2
  3965 ;;      Params:         0       0       8       0       0
  3966 ;;      Locals:         0       0      13       0       0
  3967 ;;      Temps:          0       0       5       0       0
  3968 ;;      Totals:         0       0      26       0       0
  3969 ;;Total ram usage:       26 bytes
  3970 ;; Hardware stack levels used:    1
  3971 ;; Hardware stack levels required when called:    5
  3972 ;; This function calls:
  3973 ;;		__Umul8_16
  3974 ;; This function is called by:
  3975 ;;		_Temperature_Calc
  3976 ;; This function uses a non-reentrant model
  3977 ;;
  3978                           
  3979                           
  3980                           ;psect for function ___flmul
  3981  005A                     ___flmul:
  3982  005A                     l2764:	
  3983                           ;incstack = 0
  3984 ;; hardware stack exceeded
  3985                           ; Regs used in ___flmul: [wreg+status,2+status,0+btemp+1+pclath+cstack]
  3986                           
  3987  005A  1683               	bsf	3,5	;RP0=1, select bank1
  3988  005B  1303               	bcf	3,6	;RP1=0, select bank1
  3989  005C  0829               	movf	(___flmul@b^(0+128)+3),w
  3990  005D  3980               	andlw	128
  3991  005E  00FF               	movwf	btemp+1
  3992  005F  087F               	movf	btemp+1,w
  3993  0060  00B3               	movwf	___flmul@sign^(0+128)
  3994  0061                     l2766:
  3995  0061  0829               	movf	(___flmul@b^(0+128)+3),w
  3996  0062  00AE               	movwf	??___flmul^(0+128)
  3997  0063  072E               	addwf	??___flmul^(0+128),w
  3998  0064  00FF               	movwf	btemp+1
  3999  0065  087F               	movf	btemp+1,w
  4000  0066  00B9               	movwf	___flmul@bexp^(0+128)
  4001  0067                     l2768:
  4002  0067  1FA8               	btfss	(___flmul@b^(0+128)+2),7
  4003  0068  286A               	goto	u3761
  4004  0069  286B               	goto	u3760
  4005  006A                     u3761:
  4006  006A  286C               	goto	l2772
  4007  006B                     u3760:
  4008  006B                     l2770:
  4009  006B  1439               	bsf	___flmul@bexp^(0+128),0
  4010  006C                     l2772:
  4011  006C  0839               	movf	___flmul@bexp^(0+128),w
  4012  006D  1903               	btfsc	3,2
  4013  006E  2870               	goto	u3771
  4014  006F  2871               	goto	u3770
  4015  0070                     u3771:
  4016  0070  2880               	goto	l2780
  4017  0071                     u3770:
  4018  0071                     l2774:
  4019  0071  0A39               	incf	___flmul@bexp^(0+128),w
  4020  0072  1D03               	btfss	3,2
  4021  0073  2875               	goto	u3781
  4022  0074  2876               	goto	u3780
  4023  0075                     u3781:
  4024  0075  287E               	goto	l2778
  4025  0076                     u3780:
  4026  0076                     l2776:
  4027  0076  3000               	movlw	0
  4028  0077  00A9               	movwf	(___flmul@b+3)^(0+128)
  4029  0078  3000               	movlw	0
  4030  0079  00A8               	movwf	(___flmul@b+2)^(0+128)
  4031  007A  3000               	movlw	0
  4032  007B  00A7               	movwf	(___flmul@b+1)^(0+128)
  4033  007C  3000               	movlw	0
  4034  007D  00A6               	movwf	___flmul@b^(0+128)
  4035  007E                     l2778:
  4036  007E  17A8               	bsf	(___flmul@b^(0+128)+2),7
  4037  007F  2888               	goto	l2782
  4038  0080                     l2780:
  4039  0080  3000               	movlw	0
  4040  0081  00A9               	movwf	(___flmul@b+3)^(0+128)
  4041  0082  3000               	movlw	0
  4042  0083  00A8               	movwf	(___flmul@b+2)^(0+128)
  4043  0084  3000               	movlw	0
  4044  0085  00A7               	movwf	(___flmul@b+1)^(0+128)
  4045  0086  3000               	movlw	0
  4046  0087  00A6               	movwf	___flmul@b^(0+128)
  4047  0088                     l2782:
  4048  0088  082D               	movf	(___flmul@a^(0+128)+3),w
  4049  0089  3980               	andlw	128
  4050  008A  00FF               	movwf	btemp+1
  4051  008B  087F               	movf	btemp+1,w
  4052  008C  06B3               	xorwf	___flmul@sign^(0+128),f
  4053  008D                     l2784:
  4054  008D  082D               	movf	(___flmul@a^(0+128)+3),w
  4055  008E  00AE               	movwf	??___flmul^(0+128)
  4056  008F  072E               	addwf	??___flmul^(0+128),w
  4057  0090  00FF               	movwf	btemp+1
  4058  0091  087F               	movf	btemp+1,w
  4059  0092  00B4               	movwf	___flmul@aexp^(0+128)
  4060  0093                     l2786:
  4061  0093  1FAC               	btfss	(___flmul@a^(0+128)+2),7
  4062  0094  2896               	goto	u3791
  4063  0095  2897               	goto	u3790
  4064  0096                     u3791:
  4065  0096  2898               	goto	l2790
  4066  0097                     u3790:
  4067  0097                     l2788:
  4068  0097  1434               	bsf	___flmul@aexp^(0+128),0
  4069  0098                     l2790:
  4070  0098  0834               	movf	___flmul@aexp^(0+128),w
  4071  0099  1903               	btfsc	3,2
  4072  009A  289C               	goto	u3801
  4073  009B  289D               	goto	u3800
  4074  009C                     u3801:
  4075  009C  28AC               	goto	l2798
  4076  009D                     u3800:
  4077  009D                     l2792:
  4078  009D  0A34               	incf	___flmul@aexp^(0+128),w
  4079  009E  1D03               	btfss	3,2
  4080  009F  28A1               	goto	u3811
  4081  00A0  28A2               	goto	u3810
  4082  00A1                     u3811:
  4083  00A1  28AA               	goto	l2796
  4084  00A2                     u3810:
  4085  00A2                     l2794:
  4086  00A2  3000               	movlw	0
  4087  00A3  00AD               	movwf	(___flmul@a+3)^(0+128)
  4088  00A4  3000               	movlw	0
  4089  00A5  00AC               	movwf	(___flmul@a+2)^(0+128)
  4090  00A6  3000               	movlw	0
  4091  00A7  00AB               	movwf	(___flmul@a+1)^(0+128)
  4092  00A8  3000               	movlw	0
  4093  00A9  00AA               	movwf	___flmul@a^(0+128)
  4094  00AA                     l2796:
  4095  00AA  17AC               	bsf	(___flmul@a^(0+128)+2),7
  4096  00AB  28B4               	goto	l2800
  4097  00AC                     l2798:
  4098  00AC  3000               	movlw	0
  4099  00AD  00AD               	movwf	(___flmul@a+3)^(0+128)
  4100  00AE  3000               	movlw	0
  4101  00AF  00AC               	movwf	(___flmul@a+2)^(0+128)
  4102  00B0  3000               	movlw	0
  4103  00B1  00AB               	movwf	(___flmul@a+1)^(0+128)
  4104  00B2  3000               	movlw	0
  4105  00B3  00AA               	movwf	___flmul@a^(0+128)
  4106  00B4                     l2800:
  4107  00B4  0834               	movf	___flmul@aexp^(0+128),w
  4108  00B5  1903               	btfsc	3,2
  4109  00B6  28B8               	goto	u3821
  4110  00B7  28B9               	goto	u3820
  4111  00B8                     u3821:
  4112  00B8  28BE               	goto	l2804
  4113  00B9                     u3820:
  4114  00B9                     l2802:
  4115  00B9  0839               	movf	___flmul@bexp^(0+128),w
  4116  00BA  1D03               	btfss	3,2
  4117  00BB  28BD               	goto	u3831
  4118  00BC  28BE               	goto	u3830
  4119  00BD                     u3831:
  4120  00BD  28C7               	goto	l2808
  4121  00BE                     u3830:
  4122  00BE                     l2804:
  4123  00BE  3000               	movlw	0
  4124  00BF  00A9               	movwf	(?___flmul+3)^(0+128)
  4125  00C0  3000               	movlw	0
  4126  00C1  00A8               	movwf	(?___flmul+2)^(0+128)
  4127  00C2  3000               	movlw	0
  4128  00C3  00A7               	movwf	(?___flmul+1)^(0+128)
  4129  00C4  3000               	movlw	0
  4130  00C5  00A6               	movwf	?___flmul^(0+128)
  4131  00C6  2C14               	goto	l861
  4132  00C7                     l2808:
  4133  00C7  0826               	movf	___flmul@b^(0+128),w
  4134  00C8  00FF               	movwf	btemp+1
  4135  00C9  087F               	movf	btemp+1,w
  4136  00CA  1283               	bcf	3,5	;RP0=0, select bank0
  4137  00CB  1303               	bcf	3,6	;RP1=0, select bank0
  4138  00CC  00BA               	movwf	__Umul8_16@multiplicand
  4139  00CD  1683               	bsf	3,5	;RP0=1, select bank1
  4140  00CE  1303               	bcf	3,6	;RP1=0, select bank1
  4141  00CF  082C               	movf	(___flmul@a^(0+128)+2),w
  4142  00D0  120A  158A  2307  120A  118A  	fcall	__Umul8_16
  4143  00D5  1283               	bcf	3,5	;RP0=0, select bank0
  4144  00D6  1303               	bcf	3,6	;RP1=0, select bank0
  4145  00D7  083B               	movf	?__Umul8_16+1,w
  4146  00D8  1683               	bsf	3,5	;RP0=1, select bank1
  4147  00D9  1303               	bcf	3,6	;RP1=0, select bank1
  4148  00DA  00BF               	movwf	(___flmul@temp+1)^(0+128)
  4149  00DB  1283               	bcf	3,5	;RP0=0, select bank0
  4150  00DC  1303               	bcf	3,6	;RP1=0, select bank0
  4151  00DD  083A               	movf	?__Umul8_16,w
  4152  00DE  1683               	bsf	3,5	;RP0=1, select bank1
  4153  00DF  1303               	bcf	3,6	;RP1=0, select bank1
  4154  00E0  00BE               	movwf	___flmul@temp^(0+128)
  4155  00E1                     l2810:
  4156  00E1  083E               	movf	___flmul@temp^(0+128),w
  4157  00E2  00AE               	movwf	??___flmul^(0+128)
  4158  00E3  01AF               	clrf	(??___flmul^(0+128)+1)
  4159  00E4  01B0               	clrf	(??___flmul^(0+128)+2)
  4160  00E5  01B1               	clrf	(??___flmul^(0+128)+3)
  4161  00E6  0831               	movf	(??___flmul+3)^(0+128),w
  4162  00E7  00B8               	movwf	(___flmul@grs+3)^(0+128)
  4163  00E8  0830               	movf	(??___flmul+2)^(0+128),w
  4164  00E9  00B7               	movwf	(___flmul@grs+2)^(0+128)
  4165  00EA  082F               	movf	(??___flmul+1)^(0+128),w
  4166  00EB  00B6               	movwf	(___flmul@grs+1)^(0+128)
  4167  00EC  082E               	movf	??___flmul^(0+128),w
  4168  00ED  00B5               	movwf	___flmul@grs^(0+128)
  4169  00EE                     l2812:
  4170  00EE  083F               	movf	(___flmul@temp^(0+128)+1),w
  4171  00EF  00AE               	movwf	??___flmul^(0+128)
  4172  00F0  01AF               	clrf	(??___flmul^(0+128)+1)
  4173  00F1  01B0               	clrf	(??___flmul^(0+128)+2)
  4174  00F2  01B1               	clrf	(??___flmul^(0+128)+3)
  4175  00F3  0831               	movf	(??___flmul+3)^(0+128),w
  4176  00F4  00BD               	movwf	(___flmul@prod+3)^(0+128)
  4177  00F5  0830               	movf	(??___flmul+2)^(0+128),w
  4178  00F6  00BC               	movwf	(___flmul@prod+2)^(0+128)
  4179  00F7  082F               	movf	(??___flmul+1)^(0+128),w
  4180  00F8  00BB               	movwf	(___flmul@prod+1)^(0+128)
  4181  00F9  082E               	movf	??___flmul^(0+128),w
  4182  00FA  00BA               	movwf	___flmul@prod^(0+128)
  4183  00FB  0827               	movf	(___flmul@b^(0+128)+1),w
  4184  00FC  00FF               	movwf	btemp+1
  4185  00FD  087F               	movf	btemp+1,w
  4186  00FE  1283               	bcf	3,5	;RP0=0, select bank0
  4187  00FF  1303               	bcf	3,6	;RP1=0, select bank0
  4188  0100  00BA               	movwf	__Umul8_16@multiplicand
  4189  0101  1683               	bsf	3,5	;RP0=1, select bank1
  4190  0102  1303               	bcf	3,6	;RP1=0, select bank1
  4191  0103  082B               	movf	(___flmul@a^(0+128)+1),w
  4192  0104  120A  158A  2307  120A  118A  	fcall	__Umul8_16
  4193  0109  1283               	bcf	3,5	;RP0=0, select bank0
  4194  010A  1303               	bcf	3,6	;RP1=0, select bank0
  4195  010B  083B               	movf	?__Umul8_16+1,w
  4196  010C  1683               	bsf	3,5	;RP0=1, select bank1
  4197  010D  1303               	bcf	3,6	;RP1=0, select bank1
  4198  010E  00BF               	movwf	(___flmul@temp+1)^(0+128)
  4199  010F  1283               	bcf	3,5	;RP0=0, select bank0
  4200  0110  1303               	bcf	3,6	;RP1=0, select bank0
  4201  0111  083A               	movf	?__Umul8_16,w
  4202  0112  1683               	bsf	3,5	;RP0=1, select bank1
  4203  0113  1303               	bcf	3,6	;RP1=0, select bank1
  4204  0114  00BE               	movwf	___flmul@temp^(0+128)
  4205  0115                     l2814:
  4206  0115  083E               	movf	___flmul@temp^(0+128),w
  4207  0116  00AE               	movwf	??___flmul^(0+128)
  4208  0117  01AF               	clrf	(??___flmul^(0+128)+1)
  4209  0118  01B0               	clrf	(??___flmul^(0+128)+2)
  4210  0119  01B1               	clrf	(??___flmul^(0+128)+3)
  4211  011A  082E               	movf	??___flmul^(0+128),w
  4212  011B  07B5               	addwf	___flmul@grs^(0+128),f
  4213  011C  082F               	movf	(??___flmul+1)^(0+128),w
  4214  011D  1103               	clrz
  4215  011E  1803               	skipnc
  4216  011F  3E01               	addlw	1
  4217  0120  1903               	skipnz
  4218  0121  2923               	goto	u3841
  4219  0122  07B6               	addwf	(___flmul@grs+1)^(0+128),f
  4220  0123                     u3841:
  4221  0123  0830               	movf	(??___flmul+2)^(0+128),w
  4222  0124  1103               	clrz
  4223  0125  1803               	skipnc
  4224  0126  3E01               	addlw	1
  4225  0127  1903               	skipnz
  4226  0128  292A               	goto	u3842
  4227  0129  07B7               	addwf	(___flmul@grs+2)^(0+128),f
  4228  012A                     u3842:
  4229  012A  0831               	movf	(??___flmul+3)^(0+128),w
  4230  012B  1103               	clrz
  4231  012C  1803               	skipnc
  4232  012D  3E01               	addlw	1
  4233  012E  1903               	skipnz
  4234  012F  2931               	goto	u3843
  4235  0130  07B8               	addwf	(___flmul@grs+3)^(0+128),f
  4236  0131                     u3843:
  4237  0131                     l2816:
  4238  0131  083F               	movf	(___flmul@temp^(0+128)+1),w
  4239  0132  00AE               	movwf	??___flmul^(0+128)
  4240  0133  01AF               	clrf	(??___flmul^(0+128)+1)
  4241  0134  01B0               	clrf	(??___flmul^(0+128)+2)
  4242  0135  01B1               	clrf	(??___flmul^(0+128)+3)
  4243  0136  082E               	movf	??___flmul^(0+128),w
  4244  0137  07BA               	addwf	___flmul@prod^(0+128),f
  4245  0138  082F               	movf	(??___flmul+1)^(0+128),w
  4246  0139  1103               	clrz
  4247  013A  1803               	skipnc
  4248  013B  3E01               	addlw	1
  4249  013C  1903               	skipnz
  4250  013D  293F               	goto	u3851
  4251  013E  07BB               	addwf	(___flmul@prod+1)^(0+128),f
  4252  013F                     u3851:
  4253  013F  0830               	movf	(??___flmul+2)^(0+128),w
  4254  0140  1103               	clrz
  4255  0141  1803               	skipnc
  4256  0142  3E01               	addlw	1
  4257  0143  1903               	skipnz
  4258  0144  2946               	goto	u3852
  4259  0145  07BC               	addwf	(___flmul@prod+2)^(0+128),f
  4260  0146                     u3852:
  4261  0146  0831               	movf	(??___flmul+3)^(0+128),w
  4262  0147  1103               	clrz
  4263  0148  1803               	skipnc
  4264  0149  3E01               	addlw	1
  4265  014A  1903               	skipnz
  4266  014B  294D               	goto	u3853
  4267  014C  07BD               	addwf	(___flmul@prod+3)^(0+128),f
  4268  014D                     u3853:
  4269  014D  0828               	movf	(___flmul@b^(0+128)+2),w
  4270  014E  00FF               	movwf	btemp+1
  4271  014F  087F               	movf	btemp+1,w
  4272  0150  1283               	bcf	3,5	;RP0=0, select bank0
  4273  0151  1303               	bcf	3,6	;RP1=0, select bank0
  4274  0152  00BA               	movwf	__Umul8_16@multiplicand
  4275  0153  1683               	bsf	3,5	;RP0=1, select bank1
  4276  0154  1303               	bcf	3,6	;RP1=0, select bank1
  4277  0155  082A               	movf	___flmul@a^(0+128),w
  4278  0156  120A  158A  2307  120A  118A  	fcall	__Umul8_16
  4279  015B  1283               	bcf	3,5	;RP0=0, select bank0
  4280  015C  1303               	bcf	3,6	;RP1=0, select bank0
  4281  015D  083B               	movf	?__Umul8_16+1,w
  4282  015E  1683               	bsf	3,5	;RP0=1, select bank1
  4283  015F  1303               	bcf	3,6	;RP1=0, select bank1
  4284  0160  00BF               	movwf	(___flmul@temp+1)^(0+128)
  4285  0161  1283               	bcf	3,5	;RP0=0, select bank0
  4286  0162  1303               	bcf	3,6	;RP1=0, select bank0
  4287  0163  083A               	movf	?__Umul8_16,w
  4288  0164  1683               	bsf	3,5	;RP0=1, select bank1
  4289  0165  1303               	bcf	3,6	;RP1=0, select bank1
  4290  0166  00BE               	movwf	___flmul@temp^(0+128)
  4291  0167                     l2818:
  4292  0167  083E               	movf	___flmul@temp^(0+128),w
  4293  0168  00AE               	movwf	??___flmul^(0+128)
  4294  0169  01AF               	clrf	(??___flmul^(0+128)+1)
  4295  016A  01B0               	clrf	(??___flmul^(0+128)+2)
  4296  016B  01B1               	clrf	(??___flmul^(0+128)+3)
  4297  016C  082E               	movf	??___flmul^(0+128),w
  4298  016D  07B5               	addwf	___flmul@grs^(0+128),f
  4299  016E  082F               	movf	(??___flmul+1)^(0+128),w
  4300  016F  1103               	clrz
  4301  0170  1803               	skipnc
  4302  0171  3E01               	addlw	1
  4303  0172  1903               	skipnz
  4304  0173  2975               	goto	u3861
  4305  0174  07B6               	addwf	(___flmul@grs+1)^(0+128),f
  4306  0175                     u3861:
  4307  0175  0830               	movf	(??___flmul+2)^(0+128),w
  4308  0176  1103               	clrz
  4309  0177  1803               	skipnc
  4310  0178  3E01               	addlw	1
  4311  0179  1903               	skipnz
  4312  017A  297C               	goto	u3862
  4313  017B  07B7               	addwf	(___flmul@grs+2)^(0+128),f
  4314  017C                     u3862:
  4315  017C  0831               	movf	(??___flmul+3)^(0+128),w
  4316  017D  1103               	clrz
  4317  017E  1803               	skipnc
  4318  017F  3E01               	addlw	1
  4319  0180  1903               	skipnz
  4320  0181  2983               	goto	u3863
  4321  0182  07B8               	addwf	(___flmul@grs+3)^(0+128),f
  4322  0183                     u3863:
  4323  0183                     l2820:
  4324  0183  083F               	movf	(___flmul@temp^(0+128)+1),w
  4325  0184  00AE               	movwf	??___flmul^(0+128)
  4326  0185  01AF               	clrf	(??___flmul^(0+128)+1)
  4327  0186  01B0               	clrf	(??___flmul^(0+128)+2)
  4328  0187  01B1               	clrf	(??___flmul^(0+128)+3)
  4329  0188  082E               	movf	??___flmul^(0+128),w
  4330  0189  07BA               	addwf	___flmul@prod^(0+128),f
  4331  018A  082F               	movf	(??___flmul+1)^(0+128),w
  4332  018B  1103               	clrz
  4333  018C  1803               	skipnc
  4334  018D  3E01               	addlw	1
  4335  018E  1903               	skipnz
  4336  018F  2991               	goto	u3871
  4337  0190  07BB               	addwf	(___flmul@prod+1)^(0+128),f
  4338  0191                     u3871:
  4339  0191  0830               	movf	(??___flmul+2)^(0+128),w
  4340  0192  1103               	clrz
  4341  0193  1803               	skipnc
  4342  0194  3E01               	addlw	1
  4343  0195  1903               	skipnz
  4344  0196  2998               	goto	u3872
  4345  0197  07BC               	addwf	(___flmul@prod+2)^(0+128),f
  4346  0198                     u3872:
  4347  0198  0831               	movf	(??___flmul+3)^(0+128),w
  4348  0199  1103               	clrz
  4349  019A  1803               	skipnc
  4350  019B  3E01               	addlw	1
  4351  019C  1903               	skipnz
  4352  019D  299F               	goto	u3873
  4353  019E  07BD               	addwf	(___flmul@prod+3)^(0+128),f
  4354  019F                     u3873:
  4355  019F                     l2822:
  4356  019F  3008               	movlw	8
  4357  01A0  00AE               	movwf	??___flmul^(0+128)
  4358  01A1                     u3885:
  4359  01A1  1003               	clrc
  4360  01A2  0DB5               	rlf	___flmul@grs^(0+128),f
  4361  01A3  0DB6               	rlf	(___flmul@grs+1)^(0+128),f
  4362  01A4  0DB7               	rlf	(___flmul@grs+2)^(0+128),f
  4363  01A5  0DB8               	rlf	(___flmul@grs+3)^(0+128),f
  4364  01A6  0BAE               	decfsz	??___flmul^(0+128),f
  4365  01A7  29A1               	goto	u3885
  4366  01A8                     l2824:
  4367  01A8  0827               	movf	(___flmul@b^(0+128)+1),w
  4368  01A9  00FF               	movwf	btemp+1
  4369  01AA  087F               	movf	btemp+1,w
  4370  01AB  1283               	bcf	3,5	;RP0=0, select bank0
  4371  01AC  1303               	bcf	3,6	;RP1=0, select bank0
  4372  01AD  00BA               	movwf	__Umul8_16@multiplicand
  4373  01AE  1683               	bsf	3,5	;RP0=1, select bank1
  4374  01AF  1303               	bcf	3,6	;RP1=0, select bank1
  4375  01B0  082A               	movf	___flmul@a^(0+128),w
  4376  01B1  120A  158A  2307  120A  118A  	fcall	__Umul8_16
  4377  01B6  1283               	bcf	3,5	;RP0=0, select bank0
  4378  01B7  1303               	bcf	3,6	;RP1=0, select bank0
  4379  01B8  083B               	movf	?__Umul8_16+1,w
  4380  01B9  1683               	bsf	3,5	;RP0=1, select bank1
  4381  01BA  1303               	bcf	3,6	;RP1=0, select bank1
  4382  01BB  00BF               	movwf	(___flmul@temp+1)^(0+128)
  4383  01BC  1283               	bcf	3,5	;RP0=0, select bank0
  4384  01BD  1303               	bcf	3,6	;RP1=0, select bank0
  4385  01BE  083A               	movf	?__Umul8_16,w
  4386  01BF  1683               	bsf	3,5	;RP0=1, select bank1
  4387  01C0  1303               	bcf	3,6	;RP1=0, select bank1
  4388  01C1  00BE               	movwf	___flmul@temp^(0+128)
  4389  01C2                     l2826:
  4390  01C2  083E               	movf	___flmul@temp^(0+128),w
  4391  01C3  00AE               	movwf	??___flmul^(0+128)
  4392  01C4  083F               	movf	(___flmul@temp+1)^(0+128),w
  4393  01C5  00AF               	movwf	(??___flmul^(0+128)+1)
  4394  01C6  01B0               	clrf	(??___flmul^(0+128)+2)
  4395  01C7  01B1               	clrf	(??___flmul^(0+128)+3)
  4396  01C8  082E               	movf	??___flmul^(0+128),w
  4397  01C9  07B5               	addwf	___flmul@grs^(0+128),f
  4398  01CA  082F               	movf	(??___flmul+1)^(0+128),w
  4399  01CB  1103               	clrz
  4400  01CC  1803               	skipnc
  4401  01CD  3E01               	addlw	1
  4402  01CE  1903               	skipnz
  4403  01CF  29D1               	goto	u3891
  4404  01D0  07B6               	addwf	(___flmul@grs+1)^(0+128),f
  4405  01D1                     u3891:
  4406  01D1  0830               	movf	(??___flmul+2)^(0+128),w
  4407  01D2  1103               	clrz
  4408  01D3  1803               	skipnc
  4409  01D4  3E01               	addlw	1
  4410  01D5  1903               	skipnz
  4411  01D6  29D8               	goto	u3892
  4412  01D7  07B7               	addwf	(___flmul@grs+2)^(0+128),f
  4413  01D8                     u3892:
  4414  01D8  0831               	movf	(??___flmul+3)^(0+128),w
  4415  01D9  1103               	clrz
  4416  01DA  1803               	skipnc
  4417  01DB  3E01               	addlw	1
  4418  01DC  1903               	skipnz
  4419  01DD  29DF               	goto	u3893
  4420  01DE  07B8               	addwf	(___flmul@grs+3)^(0+128),f
  4421  01DF                     u3893:
  4422  01DF                     l2828:
  4423  01DF  0826               	movf	___flmul@b^(0+128),w
  4424  01E0  00FF               	movwf	btemp+1
  4425  01E1  087F               	movf	btemp+1,w
  4426  01E2  1283               	bcf	3,5	;RP0=0, select bank0
  4427  01E3  1303               	bcf	3,6	;RP1=0, select bank0
  4428  01E4  00BA               	movwf	__Umul8_16@multiplicand
  4429  01E5  1683               	bsf	3,5	;RP0=1, select bank1
  4430  01E6  1303               	bcf	3,6	;RP1=0, select bank1
  4431  01E7  082B               	movf	(___flmul@a^(0+128)+1),w
  4432  01E8  120A  158A  2307  120A  118A  	fcall	__Umul8_16
  4433  01ED  1283               	bcf	3,5	;RP0=0, select bank0
  4434  01EE  1303               	bcf	3,6	;RP1=0, select bank0
  4435  01EF  083B               	movf	?__Umul8_16+1,w
  4436  01F0  1683               	bsf	3,5	;RP0=1, select bank1
  4437  01F1  1303               	bcf	3,6	;RP1=0, select bank1
  4438  01F2  00BF               	movwf	(___flmul@temp+1)^(0+128)
  4439  01F3  1283               	bcf	3,5	;RP0=0, select bank0
  4440  01F4  1303               	bcf	3,6	;RP1=0, select bank0
  4441  01F5  083A               	movf	?__Umul8_16,w
  4442  01F6  1683               	bsf	3,5	;RP0=1, select bank1
  4443  01F7  1303               	bcf	3,6	;RP1=0, select bank1
  4444  01F8  00BE               	movwf	___flmul@temp^(0+128)
  4445  01F9                     l2830:
  4446  01F9  083E               	movf	___flmul@temp^(0+128),w
  4447  01FA  00AE               	movwf	??___flmul^(0+128)
  4448  01FB  083F               	movf	(___flmul@temp+1)^(0+128),w
  4449  01FC  00AF               	movwf	(??___flmul^(0+128)+1)
  4450  01FD  01B0               	clrf	(??___flmul^(0+128)+2)
  4451  01FE  01B1               	clrf	(??___flmul^(0+128)+3)
  4452  01FF  082E               	movf	??___flmul^(0+128),w
  4453  0200  07B5               	addwf	___flmul@grs^(0+128),f
  4454  0201  082F               	movf	(??___flmul+1)^(0+128),w
  4455  0202  1103               	clrz
  4456  0203  1803               	skipnc
  4457  0204  3E01               	addlw	1
  4458  0205  1903               	skipnz
  4459  0206  2A08               	goto	u3901
  4460  0207  07B6               	addwf	(___flmul@grs+1)^(0+128),f
  4461  0208                     u3901:
  4462  0208  0830               	movf	(??___flmul+2)^(0+128),w
  4463  0209  1103               	clrz
  4464  020A  1803               	skipnc
  4465  020B  3E01               	addlw	1
  4466  020C  1903               	skipnz
  4467  020D  2A0F               	goto	u3902
  4468  020E  07B7               	addwf	(___flmul@grs+2)^(0+128),f
  4469  020F                     u3902:
  4470  020F  0831               	movf	(??___flmul+3)^(0+128),w
  4471  0210  1103               	clrz
  4472  0211  1803               	skipnc
  4473  0212  3E01               	addlw	1
  4474  0213  1903               	skipnz
  4475  0214  2A16               	goto	u3903
  4476  0215  07B8               	addwf	(___flmul@grs+3)^(0+128),f
  4477  0216                     u3903:
  4478  0216                     l2832:
  4479  0216  3008               	movlw	8
  4480  0217  00AE               	movwf	??___flmul^(0+128)
  4481  0218                     u3915:
  4482  0218  1003               	clrc
  4483  0219  0DB5               	rlf	___flmul@grs^(0+128),f
  4484  021A  0DB6               	rlf	(___flmul@grs+1)^(0+128),f
  4485  021B  0DB7               	rlf	(___flmul@grs+2)^(0+128),f
  4486  021C  0DB8               	rlf	(___flmul@grs+3)^(0+128),f
  4487  021D  0BAE               	decfsz	??___flmul^(0+128),f
  4488  021E  2A18               	goto	u3915
  4489  021F  0826               	movf	___flmul@b^(0+128),w
  4490  0220  00FF               	movwf	btemp+1
  4491  0221  087F               	movf	btemp+1,w
  4492  0222  1283               	bcf	3,5	;RP0=0, select bank0
  4493  0223  1303               	bcf	3,6	;RP1=0, select bank0
  4494  0224  00BA               	movwf	__Umul8_16@multiplicand
  4495  0225  1683               	bsf	3,5	;RP0=1, select bank1
  4496  0226  1303               	bcf	3,6	;RP1=0, select bank1
  4497  0227  082A               	movf	___flmul@a^(0+128),w
  4498  0228  120A  158A  2307  120A  118A  	fcall	__Umul8_16
  4499  022D  1283               	bcf	3,5	;RP0=0, select bank0
  4500  022E  1303               	bcf	3,6	;RP1=0, select bank0
  4501  022F  083B               	movf	?__Umul8_16+1,w
  4502  0230  1683               	bsf	3,5	;RP0=1, select bank1
  4503  0231  1303               	bcf	3,6	;RP1=0, select bank1
  4504  0232  00BF               	movwf	(___flmul@temp+1)^(0+128)
  4505  0233  1283               	bcf	3,5	;RP0=0, select bank0
  4506  0234  1303               	bcf	3,6	;RP1=0, select bank0
  4507  0235  083A               	movf	?__Umul8_16,w
  4508  0236  1683               	bsf	3,5	;RP0=1, select bank1
  4509  0237  1303               	bcf	3,6	;RP1=0, select bank1
  4510  0238  00BE               	movwf	___flmul@temp^(0+128)
  4511  0239                     l2834:
  4512  0239  083E               	movf	___flmul@temp^(0+128),w
  4513  023A  00AE               	movwf	??___flmul^(0+128)
  4514  023B  083F               	movf	(___flmul@temp+1)^(0+128),w
  4515  023C  00AF               	movwf	(??___flmul^(0+128)+1)
  4516  023D  01B0               	clrf	(??___flmul^(0+128)+2)
  4517  023E  01B1               	clrf	(??___flmul^(0+128)+3)
  4518  023F  082E               	movf	??___flmul^(0+128),w
  4519  0240  07B5               	addwf	___flmul@grs^(0+128),f
  4520  0241  082F               	movf	(??___flmul+1)^(0+128),w
  4521  0242  1103               	clrz
  4522  0243  1803               	skipnc
  4523  0244  3E01               	addlw	1
  4524  0245  1903               	skipnz
  4525  0246  2A48               	goto	u3921
  4526  0247  07B6               	addwf	(___flmul@grs+1)^(0+128),f
  4527  0248                     u3921:
  4528  0248  0830               	movf	(??___flmul+2)^(0+128),w
  4529  0249  1103               	clrz
  4530  024A  1803               	skipnc
  4531  024B  3E01               	addlw	1
  4532  024C  1903               	skipnz
  4533  024D  2A4F               	goto	u3922
  4534  024E  07B7               	addwf	(___flmul@grs+2)^(0+128),f
  4535  024F                     u3922:
  4536  024F  0831               	movf	(??___flmul+3)^(0+128),w
  4537  0250  1103               	clrz
  4538  0251  1803               	skipnc
  4539  0252  3E01               	addlw	1
  4540  0253  1903               	skipnz
  4541  0254  2A56               	goto	u3923
  4542  0255  07B8               	addwf	(___flmul@grs+3)^(0+128),f
  4543  0256                     u3923:
  4544  0256                     l2836:
  4545  0256  0827               	movf	(___flmul@b^(0+128)+1),w
  4546  0257  00FF               	movwf	btemp+1
  4547  0258  087F               	movf	btemp+1,w
  4548  0259  1283               	bcf	3,5	;RP0=0, select bank0
  4549  025A  1303               	bcf	3,6	;RP1=0, select bank0
  4550  025B  00BA               	movwf	__Umul8_16@multiplicand
  4551  025C  1683               	bsf	3,5	;RP0=1, select bank1
  4552  025D  1303               	bcf	3,6	;RP1=0, select bank1
  4553  025E  082C               	movf	(___flmul@a^(0+128)+2),w
  4554  025F  120A  158A  2307  120A  118A  	fcall	__Umul8_16
  4555  0264  1283               	bcf	3,5	;RP0=0, select bank0
  4556  0265  1303               	bcf	3,6	;RP1=0, select bank0
  4557  0266  083B               	movf	?__Umul8_16+1,w
  4558  0267  1683               	bsf	3,5	;RP0=1, select bank1
  4559  0268  1303               	bcf	3,6	;RP1=0, select bank1
  4560  0269  00BF               	movwf	(___flmul@temp+1)^(0+128)
  4561  026A  1283               	bcf	3,5	;RP0=0, select bank0
  4562  026B  1303               	bcf	3,6	;RP1=0, select bank0
  4563  026C  083A               	movf	?__Umul8_16,w
  4564  026D  1683               	bsf	3,5	;RP0=1, select bank1
  4565  026E  1303               	bcf	3,6	;RP1=0, select bank1
  4566  026F  00BE               	movwf	___flmul@temp^(0+128)
  4567  0270  083E               	movf	___flmul@temp^(0+128),w
  4568  0271  00AE               	movwf	??___flmul^(0+128)
  4569  0272  083F               	movf	(___flmul@temp+1)^(0+128),w
  4570  0273  00AF               	movwf	(??___flmul^(0+128)+1)
  4571  0274  01B0               	clrf	(??___flmul^(0+128)+2)
  4572  0275  01B1               	clrf	(??___flmul^(0+128)+3)
  4573  0276  082E               	movf	??___flmul^(0+128),w
  4574  0277  07BA               	addwf	___flmul@prod^(0+128),f
  4575  0278  082F               	movf	(??___flmul+1)^(0+128),w
  4576  0279  1103               	clrz
  4577  027A  1803               	skipnc
  4578  027B  3E01               	addlw	1
  4579  027C  1903               	skipnz
  4580  027D  2A7F               	goto	u3931
  4581  027E  07BB               	addwf	(___flmul@prod+1)^(0+128),f
  4582  027F                     u3931:
  4583  027F  0830               	movf	(??___flmul+2)^(0+128),w
  4584  0280  1103               	clrz
  4585  0281  1803               	skipnc
  4586  0282  3E01               	addlw	1
  4587  0283  1903               	skipnz
  4588  0284  2A86               	goto	u3932
  4589  0285  07BC               	addwf	(___flmul@prod+2)^(0+128),f
  4590  0286                     u3932:
  4591  0286  0831               	movf	(??___flmul+3)^(0+128),w
  4592  0287  1103               	clrz
  4593  0288  1803               	skipnc
  4594  0289  3E01               	addlw	1
  4595  028A  1903               	skipnz
  4596  028B  2A8D               	goto	u3933
  4597  028C  07BD               	addwf	(___flmul@prod+3)^(0+128),f
  4598  028D                     u3933:
  4599  028D                     l2838:
  4600  028D  0828               	movf	(___flmul@b^(0+128)+2),w
  4601  028E  00FF               	movwf	btemp+1
  4602  028F  087F               	movf	btemp+1,w
  4603  0290  1283               	bcf	3,5	;RP0=0, select bank0
  4604  0291  1303               	bcf	3,6	;RP1=0, select bank0
  4605  0292  00BA               	movwf	__Umul8_16@multiplicand
  4606  0293  1683               	bsf	3,5	;RP0=1, select bank1
  4607  0294  1303               	bcf	3,6	;RP1=0, select bank1
  4608  0295  082B               	movf	(___flmul@a^(0+128)+1),w
  4609  0296  120A  158A  2307  120A  118A  	fcall	__Umul8_16
  4610  029B  1283               	bcf	3,5	;RP0=0, select bank0
  4611  029C  1303               	bcf	3,6	;RP1=0, select bank0
  4612  029D  083B               	movf	?__Umul8_16+1,w
  4613  029E  1683               	bsf	3,5	;RP0=1, select bank1
  4614  029F  1303               	bcf	3,6	;RP1=0, select bank1
  4615  02A0  00BF               	movwf	(___flmul@temp+1)^(0+128)
  4616  02A1  1283               	bcf	3,5	;RP0=0, select bank0
  4617  02A2  1303               	bcf	3,6	;RP1=0, select bank0
  4618  02A3  083A               	movf	?__Umul8_16,w
  4619  02A4  1683               	bsf	3,5	;RP0=1, select bank1
  4620  02A5  1303               	bcf	3,6	;RP1=0, select bank1
  4621  02A6  00BE               	movwf	___flmul@temp^(0+128)
  4622  02A7                     l2840:
  4623  02A7  083E               	movf	___flmul@temp^(0+128),w
  4624  02A8  00AE               	movwf	??___flmul^(0+128)
  4625  02A9  083F               	movf	(___flmul@temp+1)^(0+128),w
  4626  02AA  00AF               	movwf	(??___flmul^(0+128)+1)
  4627  02AB  01B0               	clrf	(??___flmul^(0+128)+2)
  4628  02AC  01B1               	clrf	(??___flmul^(0+128)+3)
  4629  02AD  082E               	movf	??___flmul^(0+128),w
  4630  02AE  07BA               	addwf	___flmul@prod^(0+128),f
  4631  02AF  082F               	movf	(??___flmul+1)^(0+128),w
  4632  02B0  1103               	clrz
  4633  02B1  1803               	skipnc
  4634  02B2  3E01               	addlw	1
  4635  02B3  1903               	skipnz
  4636  02B4  2AB6               	goto	u3941
  4637  02B5  07BB               	addwf	(___flmul@prod+1)^(0+128),f
  4638  02B6                     u3941:
  4639  02B6  0830               	movf	(??___flmul+2)^(0+128),w
  4640  02B7  1103               	clrz
  4641  02B8  1803               	skipnc
  4642  02B9  3E01               	addlw	1
  4643  02BA  1903               	skipnz
  4644  02BB  2ABD               	goto	u3942
  4645  02BC  07BC               	addwf	(___flmul@prod+2)^(0+128),f
  4646  02BD                     u3942:
  4647  02BD  0831               	movf	(??___flmul+3)^(0+128),w
  4648  02BE  1103               	clrz
  4649  02BF  1803               	skipnc
  4650  02C0  3E01               	addlw	1
  4651  02C1  1903               	skipnz
  4652  02C2  2AC4               	goto	u3943
  4653  02C3  07BD               	addwf	(___flmul@prod+3)^(0+128),f
  4654  02C4                     u3943:
  4655  02C4  0828               	movf	(___flmul@b^(0+128)+2),w
  4656  02C5  00FF               	movwf	btemp+1
  4657  02C6  087F               	movf	btemp+1,w
  4658  02C7  1283               	bcf	3,5	;RP0=0, select bank0
  4659  02C8  1303               	bcf	3,6	;RP1=0, select bank0
  4660  02C9  00BA               	movwf	__Umul8_16@multiplicand
  4661  02CA  1683               	bsf	3,5	;RP0=1, select bank1
  4662  02CB  1303               	bcf	3,6	;RP1=0, select bank1
  4663  02CC  082C               	movf	(___flmul@a^(0+128)+2),w
  4664  02CD  120A  158A  2307  120A  118A  	fcall	__Umul8_16
  4665  02D2  1283               	bcf	3,5	;RP0=0, select bank0
  4666  02D3  1303               	bcf	3,6	;RP1=0, select bank0
  4667  02D4  083B               	movf	?__Umul8_16+1,w
  4668  02D5  1683               	bsf	3,5	;RP0=1, select bank1
  4669  02D6  1303               	bcf	3,6	;RP1=0, select bank1
  4670  02D7  00BF               	movwf	(___flmul@temp+1)^(0+128)
  4671  02D8  1283               	bcf	3,5	;RP0=0, select bank0
  4672  02D9  1303               	bcf	3,6	;RP1=0, select bank0
  4673  02DA  083A               	movf	?__Umul8_16,w
  4674  02DB  1683               	bsf	3,5	;RP0=1, select bank1
  4675  02DC  1303               	bcf	3,6	;RP1=0, select bank1
  4676  02DD  00BE               	movwf	___flmul@temp^(0+128)
  4677  02DE                     l2842:
  4678  02DE  083E               	movf	___flmul@temp^(0+128),w
  4679  02DF  00AE               	movwf	??___flmul^(0+128)
  4680  02E0  083F               	movf	(___flmul@temp+1)^(0+128),w
  4681  02E1  00AF               	movwf	(??___flmul^(0+128)+1)
  4682  02E2  01B0               	clrf	(??___flmul^(0+128)+2)
  4683  02E3  01B1               	clrf	(??___flmul^(0+128)+3)
  4684  02E4  3008               	movlw	8
  4685  02E5                     u3955:
  4686  02E5  1003               	clrc
  4687  02E6  0DAE               	rlf	??___flmul^(0+128),f
  4688  02E7  0DAF               	rlf	(??___flmul^(0+128)+1),f
  4689  02E8  0DB0               	rlf	(??___flmul^(0+128)+2),f
  4690  02E9  0DB1               	rlf	(??___flmul^(0+128)+3),f
  4691  02EA                     u3950:
  4692  02EA  3EFF               	addlw	-1
  4693  02EB  1D03               	skipz
  4694  02EC  2AE5               	goto	u3955
  4695  02ED  082E               	movf	??___flmul^(0+128),w
  4696  02EE  07BA               	addwf	___flmul@prod^(0+128),f
  4697  02EF  082F               	movf	(??___flmul+1)^(0+128),w
  4698  02F0  1103               	clrz
  4699  02F1  1803               	skipnc
  4700  02F2  3E01               	addlw	1
  4701  02F3  1903               	skipnz
  4702  02F4  2AF6               	goto	u3961
  4703  02F5  07BB               	addwf	(___flmul@prod+1)^(0+128),f
  4704  02F6                     u3961:
  4705  02F6  0830               	movf	(??___flmul+2)^(0+128),w
  4706  02F7  1103               	clrz
  4707  02F8  1803               	skipnc
  4708  02F9  3E01               	addlw	1
  4709  02FA  1903               	skipnz
  4710  02FB  2AFD               	goto	u3962
  4711  02FC  07BC               	addwf	(___flmul@prod+2)^(0+128),f
  4712  02FD                     u3962:
  4713  02FD  0831               	movf	(??___flmul+3)^(0+128),w
  4714  02FE  1103               	clrz
  4715  02FF  1803               	skipnc
  4716  0300  3E01               	addlw	1
  4717  0301  1903               	skipnz
  4718  0302  2B04               	goto	u3963
  4719  0303  07BD               	addwf	(___flmul@prod+3)^(0+128),f
  4720  0304                     u3963:
  4721  0304                     l2844:
  4722  0304  0835               	movf	___flmul@grs^(0+128),w
  4723  0305  00AE               	movwf	??___flmul^(0+128)
  4724  0306  0836               	movf	(___flmul@grs+1)^(0+128),w
  4725  0307  00AF               	movwf	(??___flmul^(0+128)+1)
  4726  0308  0837               	movf	(___flmul@grs+2)^(0+128),w
  4727  0309  00B0               	movwf	(??___flmul^(0+128)+2)
  4728  030A  0838               	movf	(___flmul@grs+3)^(0+128),w
  4729  030B  00B1               	movwf	(??___flmul^(0+128)+3)
  4730  030C  3018               	movlw	24
  4731  030D                     u3975:
  4732  030D  1003               	clrc
  4733  030E  0CB1               	rrf	(??___flmul^(0+128)+3),f
  4734  030F  0CB0               	rrf	(??___flmul^(0+128)+2),f
  4735  0310  0CAF               	rrf	(??___flmul^(0+128)+1),f
  4736  0311  0CAE               	rrf	??___flmul^(0+128),f
  4737  0312                     u3970:
  4738  0312  3EFF               	addlw	-1
  4739  0313  1D03               	skipz
  4740  0314  2B0D               	goto	u3975
  4741  0315  082E               	movf	??___flmul^(0+128),w
  4742  0316  07BA               	addwf	___flmul@prod^(0+128),f
  4743  0317  082F               	movf	(??___flmul+1)^(0+128),w
  4744  0318  1103               	clrz
  4745  0319  1803               	skipnc
  4746  031A  3E01               	addlw	1
  4747  031B  1903               	skipnz
  4748  031C  2B1E               	goto	u3981
  4749  031D  07BB               	addwf	(___flmul@prod+1)^(0+128),f
  4750  031E                     u3981:
  4751  031E  0830               	movf	(??___flmul+2)^(0+128),w
  4752  031F  1103               	clrz
  4753  0320  1803               	skipnc
  4754  0321  3E01               	addlw	1
  4755  0322  1903               	skipnz
  4756  0323  2B25               	goto	u3982
  4757  0324  07BC               	addwf	(___flmul@prod+2)^(0+128),f
  4758  0325                     u3982:
  4759  0325  0831               	movf	(??___flmul+3)^(0+128),w
  4760  0326  1103               	clrz
  4761  0327  1803               	skipnc
  4762  0328  3E01               	addlw	1
  4763  0329  1903               	skipnz
  4764  032A  2B2C               	goto	u3983
  4765  032B  07BD               	addwf	(___flmul@prod+3)^(0+128),f
  4766  032C                     u3983:
  4767  032C                     l2846:
  4768  032C  3008               	movlw	8
  4769  032D  00AE               	movwf	??___flmul^(0+128)
  4770  032E                     u3995:
  4771  032E  1003               	clrc
  4772  032F  0DB5               	rlf	___flmul@grs^(0+128),f
  4773  0330  0DB6               	rlf	(___flmul@grs+1)^(0+128),f
  4774  0331  0DB7               	rlf	(___flmul@grs+2)^(0+128),f
  4775  0332  0DB8               	rlf	(___flmul@grs+3)^(0+128),f
  4776  0333  0BAE               	decfsz	??___flmul^(0+128),f
  4777  0334  2B2E               	goto	u3995
  4778  0335                     l2848:
  4779  0335  0839               	movf	___flmul@bexp^(0+128),w
  4780  0336  0734               	addwf	___flmul@aexp^(0+128),w
  4781  0337  00AE               	movwf	??___flmul^(0+128)
  4782  0338  01AF               	clrf	(??___flmul^(0+128)+1)
  4783  0339  0DAF               	rlf	(??___flmul+1)^(0+128),f
  4784  033A  082E               	movf	??___flmul^(0+128),w
  4785  033B  3E82               	addlw	130
  4786  033C  00BE               	movwf	___flmul@temp^(0+128)
  4787  033D  082F               	movf	(??___flmul+1)^(0+128),w
  4788  033E  1803               	skipnc
  4789  033F  3E01               	addlw	1
  4790  0340  3EFF               	addlw	255
  4791  0341  00BF               	movwf	(___flmul@temp+1)^(0+128)
  4792  0342  2B60               	goto	l2860
  4793  0343                     l2850:
  4794  0343  3001               	movlw	1
  4795  0344  00AE               	movwf	??___flmul^(0+128)
  4796  0345                     u4005:
  4797  0345  1003               	clrc
  4798  0346  0DBA               	rlf	___flmul@prod^(0+128),f
  4799  0347  0DBB               	rlf	(___flmul@prod+1)^(0+128),f
  4800  0348  0DBC               	rlf	(___flmul@prod+2)^(0+128),f
  4801  0349  0DBD               	rlf	(___flmul@prod+3)^(0+128),f
  4802  034A  0BAE               	decfsz	??___flmul^(0+128),f
  4803  034B  2B45               	goto	u4005
  4804  034C                     l2852:
  4805  034C  1FB8               	btfss	(___flmul@grs+3)^(0+128),7
  4806  034D  2B4F               	goto	u4011
  4807  034E  2B50               	goto	u4010
  4808  034F                     u4011:
  4809  034F  2B51               	goto	l2856
  4810  0350                     u4010:
  4811  0350                     l2854:
  4812  0350  143A               	bsf	___flmul@prod^(0+128),0
  4813  0351                     l2856:
  4814  0351  3001               	movlw	1
  4815  0352  00AE               	movwf	??___flmul^(0+128)
  4816  0353                     u4025:
  4817  0353  1003               	clrc
  4818  0354  0DB5               	rlf	___flmul@grs^(0+128),f
  4819  0355  0DB6               	rlf	(___flmul@grs+1)^(0+128),f
  4820  0356  0DB7               	rlf	(___flmul@grs+2)^(0+128),f
  4821  0357  0DB8               	rlf	(___flmul@grs+3)^(0+128),f
  4822  0358  0BAE               	decfsz	??___flmul^(0+128),f
  4823  0359  2B53               	goto	u4025
  4824  035A                     l2858:
  4825  035A  30FF               	movlw	255
  4826  035B  07BE               	addwf	___flmul@temp^(0+128),f
  4827  035C  1803               	skipnc
  4828  035D  0ABF               	incf	(___flmul@temp+1)^(0+128),f
  4829  035E  30FF               	movlw	255
  4830  035F  07BF               	addwf	(___flmul@temp+1)^(0+128),f
  4831  0360                     l2860:
  4832  0360  1FBC               	btfss	(___flmul@prod+2)^(0+128),7
  4833  0361  2B63               	goto	u4031
  4834  0362  2B64               	goto	u4030
  4835  0363                     u4031:
  4836  0363  2B43               	goto	l2850
  4837  0364                     u4030:
  4838  0364                     l2862:
  4839  0364  01B4               	clrf	___flmul@aexp^(0+128)
  4840  0365                     l2864:
  4841  0365  1FB8               	btfss	(___flmul@grs+3)^(0+128),7
  4842  0366  2B68               	goto	u4041
  4843  0367  2B69               	goto	u4040
  4844  0368                     u4041:
  4845  0368  2B85               	goto	l2872
  4846  0369                     u4040:
  4847  0369                     l2866:
  4848  0369  30FF               	movlw	255
  4849  036A  0535               	andwf	___flmul@grs^(0+128),w
  4850  036B  00AE               	movwf	??___flmul^(0+128)
  4851  036C  30FF               	movlw	255
  4852  036D  0536               	andwf	(___flmul@grs+1)^(0+128),w
  4853  036E  00AF               	movwf	(??___flmul^(0+128)+1)
  4854  036F  30FF               	movlw	255
  4855  0370  0537               	andwf	(___flmul@grs+2)^(0+128),w
  4856  0371  00B0               	movwf	(??___flmul^(0+128)+2)
  4857  0372  307F               	movlw	127
  4858  0373  0538               	andwf	(___flmul@grs+3)^(0+128),w
  4859  0374  00B1               	movwf	(??___flmul^(0+128)+3)
  4860  0375  0831               	movf	(??___flmul+3)^(0+128),w
  4861  0376  0430               	iorwf	(??___flmul+2)^(0+128),w
  4862  0377  042F               	iorwf	(??___flmul+1)^(0+128),w
  4863  0378  042E               	iorwf	??___flmul^(0+128),w
  4864  0379  1903               	skipnz
  4865  037A  2B7C               	goto	u4051
  4866  037B  2B7D               	goto	u4050
  4867  037C                     u4051:
  4868  037C  2B80               	goto	l867
  4869  037D                     u4050:
  4870  037D                     l2868:
  4871  037D  01B4               	clrf	___flmul@aexp^(0+128)
  4872  037E  0AB4               	incf	___flmul@aexp^(0+128),f
  4873  037F  2B85               	goto	l2872
  4874  0380                     l867:
  4875  0380  1C3A               	btfss	___flmul@prod^(0+128),0
  4876  0381  2B83               	goto	u4061
  4877  0382  2B84               	goto	u4060
  4878  0383                     u4061:
  4879  0383  2B85               	goto	l2872
  4880  0384                     u4060:
  4881  0384  2B7D               	goto	l2868
  4882  0385                     l2872:
  4883  0385  0834               	movf	___flmul@aexp^(0+128),w
  4884  0386  1903               	btfsc	3,2
  4885  0387  2B89               	goto	u4071
  4886  0388  2B8A               	goto	u4070
  4887  0389                     u4071:
  4888  0389  2BBB               	goto	l2882
  4889  038A                     u4070:
  4890  038A                     l2874:
  4891  038A  3001               	movlw	1
  4892  038B  07BA               	addwf	___flmul@prod^(0+128),f
  4893  038C  3000               	movlw	0
  4894  038D  1803               	skipnc
  4895  038E  3001               	movlw	1
  4896  038F  07BB               	addwf	(___flmul@prod+1)^(0+128),f
  4897  0390  3000               	movlw	0
  4898  0391  1803               	skipnc
  4899  0392  3001               	movlw	1
  4900  0393  07BC               	addwf	(___flmul@prod+2)^(0+128),f
  4901  0394  3000               	movlw	0
  4902  0395  1803               	skipnc
  4903  0396  3001               	movlw	1
  4904  0397  07BD               	addwf	(___flmul@prod+3)^(0+128),f
  4905  0398                     l2876:
  4906  0398  1C3D               	btfss	(___flmul@prod+3)^(0+128),0
  4907  0399  2B9B               	goto	u4081
  4908  039A  2B9C               	goto	u4080
  4909  039B                     u4081:
  4910  039B  2BBB               	goto	l2882
  4911  039C                     u4080:
  4912  039C                     l2878:
  4913  039C  083A               	movf	___flmul@prod^(0+128),w
  4914  039D  00AE               	movwf	??___flmul^(0+128)
  4915  039E  083B               	movf	(___flmul@prod+1)^(0+128),w
  4916  039F  00AF               	movwf	(??___flmul^(0+128)+1)
  4917  03A0  083C               	movf	(___flmul@prod+2)^(0+128),w
  4918  03A1  00B0               	movwf	(??___flmul^(0+128)+2)
  4919  03A2  083D               	movf	(___flmul@prod+3)^(0+128),w
  4920  03A3  00B1               	movwf	(??___flmul^(0+128)+3)
  4921  03A4  3001               	movlw	1
  4922  03A5  00B2               	movwf	(??___flmul+4)^(0+128)
  4923  03A6                     u4095:
  4924  03A6  0D31               	rlf	(??___flmul^(0+128)+3),w
  4925  03A7  0CB1               	rrf	(??___flmul^(0+128)+3),f
  4926  03A8  0CB0               	rrf	(??___flmul^(0+128)+2),f
  4927  03A9  0CAF               	rrf	(??___flmul^(0+128)+1),f
  4928  03AA  0CAE               	rrf	??___flmul^(0+128),f
  4929  03AB                     u4090:
  4930  03AB  0BB2               	decfsz	(??___flmul+4)^(0+128),f
  4931  03AC  2BA6               	goto	u4095
  4932  03AD  0831               	movf	(??___flmul+3)^(0+128),w
  4933  03AE  00BD               	movwf	(___flmul@prod+3)^(0+128)
  4934  03AF  0830               	movf	(??___flmul+2)^(0+128),w
  4935  03B0  00BC               	movwf	(___flmul@prod+2)^(0+128)
  4936  03B1  082F               	movf	(??___flmul+1)^(0+128),w
  4937  03B2  00BB               	movwf	(___flmul@prod+1)^(0+128)
  4938  03B3  082E               	movf	??___flmul^(0+128),w
  4939  03B4  00BA               	movwf	___flmul@prod^(0+128)
  4940  03B5                     l2880:
  4941  03B5  3001               	movlw	1
  4942  03B6  07BE               	addwf	___flmul@temp^(0+128),f
  4943  03B7  1803               	skipnc
  4944  03B8  0ABF               	incf	(___flmul@temp+1)^(0+128),f
  4945  03B9  3000               	movlw	0
  4946  03BA  07BF               	addwf	(___flmul@temp+1)^(0+128),f
  4947  03BB                     l2882:
  4948  03BB  083F               	movf	(___flmul@temp+1)^(0+128),w
  4949  03BC  3A80               	xorlw	128
  4950  03BD  00FF               	movwf	btemp+1
  4951  03BE  3080               	movlw	128
  4952  03BF  027F               	subwf	btemp+1,w
  4953  03C0  1D03               	skipz
  4954  03C1  2BC4               	goto	u4105
  4955  03C2  30FF               	movlw	255
  4956  03C3  023E               	subwf	___flmul@temp^(0+128),w
  4957  03C4                     u4105:
  4958  03C4  1C03               	skipc
  4959  03C5  2BC7               	goto	u4101
  4960  03C6  2BC8               	goto	u4100
  4961  03C7                     u4101:
  4962  03C7  2BD3               	goto	l2886
  4963  03C8                     u4100:
  4964  03C8                     l2884:
  4965  03C8  307F               	movlw	127
  4966  03C9  1683               	bsf	3,5	;RP0=1, select bank1
  4967  03CA  1303               	bcf	3,6	;RP1=0, select bank1
  4968  03CB  00BD               	movwf	(___flmul@prod+3)^(0+128)
  4969  03CC  3080               	movlw	128
  4970  03CD  00BC               	movwf	(___flmul@prod+2)^(0+128)
  4971  03CE  3000               	movlw	0
  4972  03CF  00BB               	movwf	(___flmul@prod+1)^(0+128)
  4973  03D0  3000               	movlw	0
  4974  03D1  00BA               	movwf	___flmul@prod^(0+128)
  4975  03D2  2C08               	goto	l873
  4976  03D3                     l2886:
  4977  03D3  1683               	bsf	3,5	;RP0=1, select bank1
  4978  03D4  1303               	bcf	3,6	;RP1=0, select bank1
  4979  03D5  083F               	movf	(___flmul@temp+1)^(0+128),w
  4980  03D6  3A80               	xorlw	128
  4981  03D7  00FF               	movwf	btemp+1
  4982  03D8  3080               	movlw	128
  4983  03D9  027F               	subwf	btemp+1,w
  4984  03DA  1D03               	skipz
  4985  03DB  2BDE               	goto	u4115
  4986  03DC  3001               	movlw	1
  4987  03DD  023E               	subwf	___flmul@temp^(0+128),w
  4988  03DE                     u4115:
  4989  03DE  1803               	skipnc
  4990  03DF  2BE1               	goto	u4111
  4991  03E0  2BE2               	goto	u4110
  4992  03E1                     u4111:
  4993  03E1  2BEE               	goto	l2892
  4994  03E2                     u4110:
  4995  03E2                     l2888:
  4996  03E2  3000               	movlw	0
  4997  03E3  1683               	bsf	3,5	;RP0=1, select bank1
  4998  03E4  1303               	bcf	3,6	;RP1=0, select bank1
  4999  03E5  00BD               	movwf	(___flmul@prod+3)^(0+128)
  5000  03E6  3000               	movlw	0
  5001  03E7  00BC               	movwf	(___flmul@prod+2)^(0+128)
  5002  03E8  3000               	movlw	0
  5003  03E9  00BB               	movwf	(___flmul@prod+1)^(0+128)
  5004  03EA  3000               	movlw	0
  5005  03EB  00BA               	movwf	___flmul@prod^(0+128)
  5006  03EC                     l2890:
  5007  03EC  01B3               	clrf	___flmul@sign^(0+128)
  5008  03ED  2C08               	goto	l873
  5009  03EE                     l2892:
  5010  03EE  1683               	bsf	3,5	;RP0=1, select bank1
  5011  03EF  1303               	bcf	3,6	;RP1=0, select bank1
  5012  03F0  083E               	movf	___flmul@temp^(0+128),w
  5013  03F1  00FF               	movwf	btemp+1
  5014  03F2  087F               	movf	btemp+1,w
  5015  03F3  00B9               	movwf	___flmul@bexp^(0+128)
  5016  03F4                     l2894:
  5017  03F4  30FF               	movlw	255
  5018  03F5  05BA               	andwf	___flmul@prod^(0+128),f
  5019  03F6  30FF               	movlw	255
  5020  03F7  05BB               	andwf	(___flmul@prod+1)^(0+128),f
  5021  03F8  307F               	movlw	127
  5022  03F9  05BC               	andwf	(___flmul@prod+2)^(0+128),f
  5023  03FA  3000               	movlw	0
  5024  03FB  05BD               	andwf	(___flmul@prod+3)^(0+128),f
  5025  03FC                     l2896:
  5026  03FC  1C39               	btfss	___flmul@bexp^(0+128),0
  5027  03FD  2BFF               	goto	u4121
  5028  03FE  2C00               	goto	u4120
  5029  03FF                     u4121:
  5030  03FF  2C01               	goto	l2900
  5031  0400                     u4120:
  5032  0400                     l2898:
  5033  0400  17BC               	bsf	(___flmul@prod^(0+128)+2),7
  5034  0401                     l2900:
  5035  0401  0839               	movf	___flmul@bexp^(0+128),w
  5036  0402  00AE               	movwf	??___flmul^(0+128)
  5037  0403  1003               	clrc
  5038  0404  0C2E               	rrf	??___flmul^(0+128),w
  5039  0405  00FF               	movwf	btemp+1
  5040  0406  087F               	movf	btemp+1,w
  5041  0407  00BD               	movwf	(___flmul@prod^(0+128)+3)
  5042  0408                     l873:
  5043  0408  0833               	movf	___flmul@sign^(0+128),w
  5044  0409  00FF               	movwf	btemp+1
  5045  040A  087F               	movf	btemp+1,w
  5046  040B  04BD               	iorwf	(___flmul@prod^(0+128)+3),f
  5047  040C                     l2902:
  5048  040C  083D               	movf	(___flmul@prod+3)^(0+128),w
  5049  040D  00A9               	movwf	(?___flmul+3)^(0+128)
  5050  040E  083C               	movf	(___flmul@prod+2)^(0+128),w
  5051  040F  00A8               	movwf	(?___flmul+2)^(0+128)
  5052  0410  083B               	movf	(___flmul@prod+1)^(0+128),w
  5053  0411  00A7               	movwf	(?___flmul+1)^(0+128)
  5054  0412  083A               	movf	___flmul@prod^(0+128),w
  5055  0413  00A6               	movwf	?___flmul^(0+128)
  5056  0414                     l861:
  5057  0414  0008               	return
  5058  0415                     __end_of___flmul:
  5059                           
  5060                           	psect	text20
  5061  0B07                     __ptext20:	
  5062 ;; *************** function __Umul8_16 *****************
  5063 ;; Defined at:
  5064 ;;		line 4 in file "C:\Program Files (x86)\Microchip\xc8\v2.20\pic\sources\c90\common\Umul8_16.c"
  5065 ;; Parameters:    Size  Location     Type
  5066 ;;  multiplier      1    wreg     unsigned char 
  5067 ;;  multiplicand    1   26[BANK0 ] unsigned char 
  5068 ;; Auto vars:     Size  Location     Type
  5069 ;;  multiplier      1   34[BANK0 ] unsigned char 
  5070 ;;  word_mpld       2   32[BANK0 ] unsigned int 
  5071 ;;  product         2   30[BANK0 ] unsigned int 
  5072 ;; Return value:  Size  Location     Type
  5073 ;;                  2   26[BANK0 ] unsigned int 
  5074 ;; Registers used:
  5075 ;;		wreg, status,2, status,0
  5076 ;; Tracked objects:
  5077 ;;		On entry : 0/0
  5078 ;;		On exit  : 0/0
  5079 ;;		Unchanged: 0/0
  5080 ;; Data sizes:     COMMON   BANK0   BANK1   BANK3   BANK2
  5081 ;;      Params:         0       2       0       0       0
  5082 ;;      Locals:         0       5       0       0       0
  5083 ;;      Temps:          0       2       0       0       0
  5084 ;;      Totals:         0       9       0       0       0
  5085 ;;Total ram usage:        9 bytes
  5086 ;; Hardware stack levels used:    1
  5087 ;; Hardware stack levels required when called:    4
  5088 ;; This function calls:
  5089 ;;		Nothing
  5090 ;; This function is called by:
  5091 ;;		___flmul
  5092 ;; This function uses a non-reentrant model
  5093 ;;
  5094                           
  5095                           
  5096                           ;psect for function __Umul8_16
  5097  0B07                     __Umul8_16:
  5098                           
  5099                           ;incstack = 0
  5100 ;; hardware stack exceeded
  5101                           ; Regs used in __Umul8_16: [wreg+status,2+status,0]
  5102                           ;__Umul8_16@multiplier stored from wreg
  5103  0B07  1283               	bcf	3,5	;RP0=0, select bank0
  5104  0B08  1303               	bcf	3,6	;RP1=0, select bank0
  5105  0B09  00C2               	movwf	__Umul8_16@multiplier
  5106  0B0A                     l1880:
  5107  0B0A  01BE               	clrf	__Umul8_16@product
  5108  0B0B  01BF               	clrf	__Umul8_16@product+1
  5109  0B0C                     l1882:
  5110  0B0C  083A               	movf	__Umul8_16@multiplicand,w
  5111  0B0D  00BC               	movwf	??__Umul8_16
  5112  0B0E  01BD               	clrf	??__Umul8_16+1
  5113  0B0F  083C               	movf	??__Umul8_16,w
  5114  0B10  00C0               	movwf	__Umul8_16@word_mpld
  5115  0B11  083D               	movf	??__Umul8_16+1,w
  5116  0B12  00C1               	movwf	__Umul8_16@word_mpld+1
  5117  0B13                     l1884:
  5118  0B13  1C42               	btfss	__Umul8_16@multiplier,0
  5119  0B14  2B16               	goto	u1911
  5120  0B15  2B17               	goto	u1910
  5121  0B16                     u1911:
  5122  0B16  2B1D               	goto	l880
  5123  0B17                     u1910:
  5124  0B17                     l1886:
  5125  0B17  0840               	movf	__Umul8_16@word_mpld,w
  5126  0B18  07BE               	addwf	__Umul8_16@product,f
  5127  0B19  1803               	skipnc
  5128  0B1A  0ABF               	incf	__Umul8_16@product+1,f
  5129  0B1B  0841               	movf	__Umul8_16@word_mpld+1,w
  5130  0B1C  07BF               	addwf	__Umul8_16@product+1,f
  5131  0B1D                     l880:
  5132  0B1D  3001               	movlw	1
  5133  0B1E                     u1925:
  5134  0B1E  1003               	clrc
  5135  0B1F  0DC0               	rlf	__Umul8_16@word_mpld,f
  5136  0B20  0DC1               	rlf	__Umul8_16@word_mpld+1,f
  5137  0B21  3EFF               	addlw	-1
  5138  0B22  1D03               	skipz
  5139  0B23  2B1E               	goto	u1925
  5140  0B24  1003               	clrc
  5141  0B25  0CC2               	rrf	__Umul8_16@multiplier,f
  5142  0B26                     l1888:
  5143  0B26  0842               	movf	__Umul8_16@multiplier,w
  5144  0B27  1D03               	btfss	3,2
  5145  0B28  2B2A               	goto	u1931
  5146  0B29  2B2B               	goto	u1930
  5147  0B2A                     u1931:
  5148  0B2A  2B13               	goto	l1884
  5149  0B2B                     u1930:
  5150  0B2B                     l1890:
  5151  0B2B  083F               	movf	__Umul8_16@product+1,w
  5152  0B2C  00BB               	movwf	?__Umul8_16+1
  5153  0B2D  083E               	movf	__Umul8_16@product,w
  5154  0B2E  00BA               	movwf	?__Umul8_16
  5155  0B2F                     l882:
  5156  0B2F  0008               	return
  5157  0B30                     __end_of__Umul8_16:
  5158                           
  5159                           	psect	text21
  5160  062A                     __ptext21:	
  5161 ;; *************** function _Average_Value *****************
  5162 ;; Defined at:
  5163 ;;		line 12 in file "Average/Average.c"
  5164 ;; Parameters:    Size  Location     Type
  5165 ;;  Value           1    wreg     unsigned char 
  5166 ;;  Avrage_Value    1    5[BANK1 ] PTR unsigned char 
  5167 ;;		 -> Temperature(5), 
  5168 ;; Auto vars:     Size  Location     Type
  5169 ;;  Value           1   11[BANK1 ] unsigned char 
  5170 ;;  index           1   16[BANK1 ] unsigned char 
  5171 ;;  Avrage_buffe    4   12[BANK1 ] unsigned long 
  5172 ;; Return value:  Size  Location     Type
  5173 ;;                  1    wreg      void 
  5174 ;; Registers used:
  5175 ;;		wreg, fsr0l, fsr0h, status,2, status,0, btemp+1, pclath, cstack
  5176 ;; Tracked objects:
  5177 ;;		On entry : 0/0
  5178 ;;		On exit  : 0/0
  5179 ;;		Unchanged: 0/0
  5180 ;; Data sizes:     COMMON   BANK0   BANK1   BANK3   BANK2
  5181 ;;      Params:         0       0       1       0       0
  5182 ;;      Locals:         0       0       6       0       0
  5183 ;;      Temps:          0       0       5       0       0
  5184 ;;      Totals:         0       0      12       0       0
  5185 ;;Total ram usage:       12 bytes
  5186 ;; Hardware stack levels used:    1
  5187 ;; Hardware stack levels required when called:    5
  5188 ;; This function calls:
  5189 ;;		___lldiv
  5190 ;;		___lwmod
  5191 ;; This function is called by:
  5192 ;;		_Temperature_Calc
  5193 ;; This function uses a non-reentrant model
  5194 ;;
  5195                           
  5196                           
  5197                           ;psect for function _Average_Value
  5198  062A                     _Average_Value:
  5199                           
  5200                           ;incstack = 0
  5201 ;; hardware stack exceeded
  5202                           ; Regs used in _Average_Value: [wreg-fsr0h+status,2+status,0+btemp+1+pclath+cstack]
  5203                           ;Average_Value@Value stored from wreg
  5204  062A  1683               	bsf	3,5	;RP0=1, select bank1
  5205  062B  1303               	bcf	3,6	;RP1=0, select bank1
  5206  062C  00AB               	movwf	Average_Value@Value^(0+128)
  5207  062D                     l2706:
  5208                           
  5209                           ;Average/Average.c: 12: void Average_Value(uint8_t Value,uint8_t *Avrage_Values);Average
      +                          /Average.c: 13: {;Average/Average.c: 14:  uint32_t Avrage_buffer=0;
  5210  062D  3000               	movlw	0
  5211  062E  00AF               	movwf	(Average_Value@Avrage_buffer+3)^(0+128)
  5212  062F  3000               	movlw	0
  5213  0630  00AE               	movwf	(Average_Value@Avrage_buffer+2)^(0+128)
  5214  0631  3000               	movlw	0
  5215  0632  00AD               	movwf	(Average_Value@Avrage_buffer+1)^(0+128)
  5216  0633  3000               	movlw	0
  5217  0634  00AC               	movwf	Average_Value@Avrage_buffer^(0+128)
  5218  0635                     l2708:
  5219                           
  5220                           ;Average/Average.c: 16:  temb_val[Average_Nvalues]=Value;
  5221  0635  082B               	movf	Average_Value@Value^(0+128),w
  5222  0636  00A6               	movwf	??_Average_Value^(0+128)
  5223  0637  01A7               	clrf	(??_Average_Value^(0+128)+1)
  5224  0638  01A8               	clrf	(??_Average_Value^(0+128)+2)
  5225  0639  01A9               	clrf	(??_Average_Value^(0+128)+3)
  5226  063A  1283               	bcf	3,5	;RP0=0, select bank0
  5227  063B  1303               	bcf	3,6	;RP1=0, select bank0
  5228  063C  0855               	movf	_Average_Nvalues,w
  5229  063D  1683               	bsf	3,5	;RP0=1, select bank1
  5230  063E  1303               	bcf	3,6	;RP1=0, select bank1
  5231  063F  00AA               	movwf	(??_Average_Value+4)^(0+128)
  5232  0640  3001               	movlw	1
  5233  0641                     u3625:
  5234  0641  1003               	clrc
  5235  0642  0DAA               	rlf	(??_Average_Value+4)^(0+128),f
  5236  0643  3EFF               	addlw	-1
  5237  0644  1D03               	skipz
  5238  0645  2E41               	goto	u3625
  5239  0646  1003               	clrc
  5240  0647  0D2A               	rlf	(??_Average_Value+4)^(0+128),w
  5241  0648  3E90               	addlw	(low (_temb_val| (0+256)))& (0+255)
  5242  0649  0084               	movwf	4
  5243  064A  0826               	movf	??_Average_Value^(0+128),w
  5244  064B  1783               	bsf	3,7	;select IRP bank3
  5245  064C  0080               	movwf	0
  5246  064D  0A84               	incf	4,f
  5247  064E  0827               	movf	(??_Average_Value+1)^(0+128),w
  5248  064F  0080               	movwf	0
  5249  0650  0A84               	incf	4,f
  5250  0651  0828               	movf	(??_Average_Value+2)^(0+128),w
  5251  0652  0080               	movwf	0
  5252  0653  0A84               	incf	4,f
  5253  0654  0829               	movf	(??_Average_Value+3)^(0+128),w
  5254  0655  0080               	movwf	0
  5255  0656                     l2710:
  5256                           
  5257                           ;Average/Average.c: 18:  Average_Nvalues= (Average_Nvalues+1)%10U;
  5258  0656  300A               	movlw	10
  5259  0657  1283               	bcf	3,5	;RP0=0, select bank0
  5260  0658  1303               	bcf	3,6	;RP1=0, select bank0
  5261  0659  00BA               	movwf	___lwmod@divisor
  5262  065A  3000               	movlw	0
  5263  065B  00BB               	movwf	___lwmod@divisor+1
  5264  065C  0855               	movf	_Average_Nvalues,w
  5265  065D  3E01               	addlw	1
  5266  065E  00BC               	movwf	___lwmod@dividend
  5267  065F  3000               	movlw	0
  5268  0660  1803               	skipnc
  5269  0661  3001               	movlw	1
  5270  0662  00BD               	movwf	___lwmod@dividend+1
  5271  0663  120A  158A  23D7  120A  118A  	fcall	___lwmod
  5272  0668  1283               	bcf	3,5	;RP0=0, select bank0
  5273  0669  1303               	bcf	3,6	;RP1=0, select bank0
  5274  066A  083A               	movf	?___lwmod,w
  5275  066B  00FF               	movwf	btemp+1
  5276  066C  087F               	movf	btemp+1,w
  5277  066D  00D5               	movwf	_Average_Nvalues
  5278  066E                     l2712:
  5279                           
  5280                           ;Average/Average.c: 20:  for(uint8_t index=0;index<10U;index++)
  5281  066E  1683               	bsf	3,5	;RP0=1, select bank1
  5282  066F  1303               	bcf	3,6	;RP1=0, select bank1
  5283  0670  01B0               	clrf	Average_Value@index^(0+128)
  5284  0671                     l2718:
  5285                           
  5286                           ;Average/Average.c: 21:  {;Average/Average.c: 22:   Avrage_buffer+=temb_val[index];
  5287  0671  0830               	movf	Average_Value@index^(0+128),w
  5288  0672  00A6               	movwf	??_Average_Value^(0+128)
  5289  0673  3001               	movlw	1
  5290  0674                     u3635:
  5291  0674  1003               	clrc
  5292  0675  0DA6               	rlf	??_Average_Value^(0+128),f
  5293  0676  3EFF               	addlw	-1
  5294  0677  1D03               	skipz
  5295  0678  2E74               	goto	u3635
  5296  0679  1003               	clrc
  5297  067A  0D26               	rlf	??_Average_Value^(0+128),w
  5298  067B  3E90               	addlw	(low (_temb_val| (0+256)))& (0+255)
  5299  067C  0084               	movwf	4
  5300  067D  1783               	bsf	3,7	;select IRP bank3
  5301  067E  0800               	movf	0,w
  5302  067F  07AC               	addwf	Average_Value@Avrage_buffer^(0+128),f
  5303  0680  0A84               	incf	4,f
  5304  0681  0800               	movf	0,w
  5305  0682  1803               	skipnc
  5306  0683  0F00               	incfsz	0,w
  5307  0684  2E86               	goto	u3641
  5308  0685  2E87               	goto	u3642
  5309  0686                     u3641:
  5310  0686  07AD               	addwf	(Average_Value@Avrage_buffer+1)^(0+128),f
  5311  0687                     u3642:
  5312  0687  0A84               	incf	4,f
  5313  0688  0800               	movf	0,w
  5314  0689  1803               	skipnc
  5315  068A  0F00               	incfsz	0,w
  5316  068B  2E8D               	goto	u3643
  5317  068C  2E8E               	goto	u3644
  5318  068D                     u3643:
  5319  068D  07AE               	addwf	(Average_Value@Avrage_buffer+2)^(0+128),f
  5320  068E                     u3644:
  5321  068E  0A84               	incf	4,f
  5322  068F  0800               	movf	0,w
  5323  0690  1803               	skipnc
  5324  0691  0F00               	incfsz	0,w
  5325  0692  2E94               	goto	u3645
  5326  0693  2E95               	goto	u3646
  5327  0694                     u3645:
  5328  0694  07AF               	addwf	(Average_Value@Avrage_buffer+3)^(0+128),f
  5329  0695                     u3646:
  5330  0695                     l2720:
  5331                           
  5332                           ;Average/Average.c: 23:  }
  5333  0695  3001               	movlw	1
  5334  0696  00FF               	movwf	btemp+1
  5335  0697  087F               	movf	btemp+1,w
  5336  0698  07B0               	addwf	Average_Value@index^(0+128),f
  5337  0699                     l2722:
  5338  0699  300A               	movlw	10
  5339  069A  0230               	subwf	Average_Value@index^(0+128),w
  5340  069B  1C03               	skipc
  5341  069C  2E9E               	goto	u3651
  5342  069D  2E9F               	goto	u3650
  5343  069E                     u3651:
  5344  069E  2E71               	goto	l2718
  5345  069F                     u3650:
  5346  069F                     l2724:
  5347                           
  5348                           ;Average/Average.c: 26:    *Avrage_Values=Avrage_buffer/10U;
  5349  069F  3000               	movlw	0
  5350  06A0  1283               	bcf	3,5	;RP0=0, select bank0
  5351  06A1  1303               	bcf	3,6	;RP1=0, select bank0
  5352  06A2  00BD               	movwf	___lldiv@divisor+3
  5353  06A3  3000               	movlw	0
  5354  06A4  00BC               	movwf	___lldiv@divisor+2
  5355  06A5  3000               	movlw	0
  5356  06A6  00BB               	movwf	___lldiv@divisor+1
  5357  06A7  300A               	movlw	10
  5358  06A8  00BA               	movwf	___lldiv@divisor
  5359  06A9  1683               	bsf	3,5	;RP0=1, select bank1
  5360  06AA  1303               	bcf	3,6	;RP1=0, select bank1
  5361  06AB  082F               	movf	(Average_Value@Avrage_buffer+3)^(0+128),w
  5362  06AC  1283               	bcf	3,5	;RP0=0, select bank0
  5363  06AD  1303               	bcf	3,6	;RP1=0, select bank0
  5364  06AE  00C1               	movwf	___lldiv@dividend+3
  5365  06AF  1683               	bsf	3,5	;RP0=1, select bank1
  5366  06B0  1303               	bcf	3,6	;RP1=0, select bank1
  5367  06B1  082E               	movf	(Average_Value@Avrage_buffer+2)^(0+128),w
  5368  06B2  1283               	bcf	3,5	;RP0=0, select bank0
  5369  06B3  1303               	bcf	3,6	;RP1=0, select bank0
  5370  06B4  00C0               	movwf	___lldiv@dividend+2
  5371  06B5  1683               	bsf	3,5	;RP0=1, select bank1
  5372  06B6  1303               	bcf	3,6	;RP1=0, select bank1
  5373  06B7  082D               	movf	(Average_Value@Avrage_buffer+1)^(0+128),w
  5374  06B8  1283               	bcf	3,5	;RP0=0, select bank0
  5375  06B9  1303               	bcf	3,6	;RP1=0, select bank0
  5376  06BA  00BF               	movwf	___lldiv@dividend+1
  5377  06BB  1683               	bsf	3,5	;RP0=1, select bank1
  5378  06BC  1303               	bcf	3,6	;RP1=0, select bank1
  5379  06BD  082C               	movf	Average_Value@Avrage_buffer^(0+128),w
  5380  06BE  1283               	bcf	3,5	;RP0=0, select bank0
  5381  06BF  1303               	bcf	3,6	;RP1=0, select bank0
  5382  06C0  00BE               	movwf	___lldiv@dividend
  5383  06C1  120A  118A  2760  120A  118A  	fcall	___lldiv
  5384  06C6  1283               	bcf	3,5	;RP0=0, select bank0
  5385  06C7  1303               	bcf	3,6	;RP1=0, select bank0
  5386  06C8  083A               	movf	?___lldiv,w
  5387  06C9  00FF               	movwf	btemp+1
  5388  06CA  1683               	bsf	3,5	;RP0=1, select bank1
  5389  06CB  1303               	bcf	3,6	;RP1=0, select bank1
  5390  06CC  0825               	movf	Average_Value@Avrage_Values^(0+128),w
  5391  06CD  0084               	movwf	4
  5392  06CE  087F               	movf	btemp+1,w
  5393  06CF  1383               	bcf	3,7	;select IRP bank0
  5394  06D0  0080               	movwf	0
  5395  06D1                     l78:
  5396  06D1  0008               	return
  5397  06D2                     __end_of_Average_Value:
  5398                           
  5399                           	psect	text22
  5400  0BD7                     __ptext22:	
  5401 ;; *************** function ___lwmod *****************
  5402 ;; Defined at:
  5403 ;;		line 5 in file "C:\Program Files (x86)\Microchip\xc8\v2.20\pic\sources\c90\common\lwmod.c"
  5404 ;; Parameters:    Size  Location     Type
  5405 ;;  divisor         2   26[BANK0 ] unsigned int 
  5406 ;;  dividend        2   28[BANK0 ] unsigned int 
  5407 ;; Auto vars:     Size  Location     Type
  5408 ;;  counter         1   30[BANK0 ] unsigned char 
  5409 ;; Return value:  Size  Location     Type
  5410 ;;                  2   26[BANK0 ] unsigned int 
  5411 ;; Registers used:
  5412 ;;		wreg, status,2, status,0, btemp+1
  5413 ;; Tracked objects:
  5414 ;;		On entry : 0/0
  5415 ;;		On exit  : 0/0
  5416 ;;		Unchanged: 0/0
  5417 ;; Data sizes:     COMMON   BANK0   BANK1   BANK3   BANK2
  5418 ;;      Params:         0       4       0       0       0
  5419 ;;      Locals:         0       1       0       0       0
  5420 ;;      Temps:          0       0       0       0       0
  5421 ;;      Totals:         0       5       0       0       0
  5422 ;;Total ram usage:        5 bytes
  5423 ;; Hardware stack levels used:    1
  5424 ;; Hardware stack levels required when called:    4
  5425 ;; This function calls:
  5426 ;;		Nothing
  5427 ;; This function is called by:
  5428 ;;		_Average_Value
  5429 ;;		_Temperature_Calc
  5430 ;; This function uses a non-reentrant model
  5431 ;;
  5432                           
  5433                           
  5434                           ;psect for function ___lwmod
  5435  0BD7                     ___lwmod:
  5436  0BD7                     l1858:	
  5437                           ;incstack = 0
  5438 ;; hardware stack exceeded
  5439                           ; Regs used in ___lwmod: [wreg+status,2+status,0+btemp+1]
  5440                           
  5441  0BD7  1283               	bcf	3,5	;RP0=0, select bank0
  5442  0BD8  1303               	bcf	3,6	;RP1=0, select bank0
  5443  0BD9  083A               	movf	___lwmod@divisor,w
  5444  0BDA  043B               	iorwf	___lwmod@divisor+1,w
  5445  0BDB  1903               	btfsc	3,2
  5446  0BDC  2BDE               	goto	u1851
  5447  0BDD  2BDF               	goto	u1850
  5448  0BDE                     u1851:
  5449  0BDE  2C0E               	goto	l1876
  5450  0BDF                     u1850:
  5451  0BDF                     l1860:
  5452  0BDF  01BE               	clrf	___lwmod@counter
  5453  0BE0  0ABE               	incf	___lwmod@counter,f
  5454  0BE1  2BED               	goto	l1866
  5455  0BE2                     l1862:
  5456  0BE2  3001               	movlw	1
  5457  0BE3                     u1865:
  5458  0BE3  1003               	clrc
  5459  0BE4  0DBA               	rlf	___lwmod@divisor,f
  5460  0BE5  0DBB               	rlf	___lwmod@divisor+1,f
  5461  0BE6  3EFF               	addlw	-1
  5462  0BE7  1D03               	skipz
  5463  0BE8  2BE3               	goto	u1865
  5464  0BE9                     l1864:
  5465  0BE9  3001               	movlw	1
  5466  0BEA  00FF               	movwf	btemp+1
  5467  0BEB  087F               	movf	btemp+1,w
  5468  0BEC  07BE               	addwf	___lwmod@counter,f
  5469  0BED                     l1866:
  5470  0BED  1FBB               	btfss	___lwmod@divisor+1,7
  5471  0BEE  2BF0               	goto	u1871
  5472  0BEF  2BF1               	goto	u1870
  5473  0BF0                     u1871:
  5474  0BF0  2BE2               	goto	l1862
  5475  0BF1                     u1870:
  5476  0BF1                     l1868:
  5477  0BF1  083B               	movf	___lwmod@divisor+1,w
  5478  0BF2  023D               	subwf	___lwmod@dividend+1,w
  5479  0BF3  1D03               	skipz
  5480  0BF4  2BF7               	goto	u1885
  5481  0BF5  083A               	movf	___lwmod@divisor,w
  5482  0BF6  023C               	subwf	___lwmod@dividend,w
  5483  0BF7                     u1885:
  5484  0BF7  1C03               	skipc
  5485  0BF8  2BFA               	goto	u1881
  5486  0BF9  2BFB               	goto	u1880
  5487  0BFA                     u1881:
  5488  0BFA  2C01               	goto	l1872
  5489  0BFB                     u1880:
  5490  0BFB                     l1870:
  5491  0BFB  083A               	movf	___lwmod@divisor,w
  5492  0BFC  02BC               	subwf	___lwmod@dividend,f
  5493  0BFD  083B               	movf	___lwmod@divisor+1,w
  5494  0BFE  1C03               	skipc
  5495  0BFF  03BD               	decf	___lwmod@dividend+1,f
  5496  0C00  02BD               	subwf	___lwmod@dividend+1,f
  5497  0C01                     l1872:
  5498  0C01  3001               	movlw	1
  5499  0C02                     u1895:
  5500  0C02  1003               	clrc
  5501  0C03  0CBB               	rrf	___lwmod@divisor+1,f
  5502  0C04  0CBA               	rrf	___lwmod@divisor,f
  5503  0C05  3EFF               	addlw	-1
  5504  0C06  1D03               	skipz
  5505  0C07  2C02               	goto	u1895
  5506  0C08                     l1874:
  5507  0C08  3001               	movlw	1
  5508  0C09  02BE               	subwf	___lwmod@counter,f
  5509  0C0A  1D03               	btfss	3,2
  5510  0C0B  2C0D               	goto	u1901
  5511  0C0C  2C0E               	goto	u1900
  5512  0C0D                     u1901:
  5513  0C0D  2BF1               	goto	l1868
  5514  0C0E                     u1900:
  5515  0C0E                     l1876:
  5516  0C0E  083D               	movf	___lwmod@dividend+1,w
  5517  0C0F  00BB               	movwf	?___lwmod+1
  5518  0C10  083C               	movf	___lwmod@dividend,w
  5519  0C11  00BA               	movwf	?___lwmod
  5520  0C12                     l754:
  5521  0C12  0008               	return
  5522  0C13                     __end_of___lwmod:
  5523                           
  5524                           	psect	text23
  5525  0760                     __ptext23:	
  5526 ;; *************** function ___lldiv *****************
  5527 ;; Defined at:
  5528 ;;		line 5 in file "C:\Program Files (x86)\Microchip\xc8\v2.20\pic\sources\c90\common\__lldiv.c"
  5529 ;; Parameters:    Size  Location     Type
  5530 ;;  divisor         4   26[BANK0 ] unsigned long 
  5531 ;;  dividend        4   30[BANK0 ] unsigned long 
  5532 ;; Auto vars:     Size  Location     Type
  5533 ;;  quotient        4    0[BANK1 ] unsigned long 
  5534 ;;  counter         1    4[BANK1 ] unsigned char 
  5535 ;; Return value:  Size  Location     Type
  5536 ;;                  4   26[BANK0 ] unsigned long 
  5537 ;; Registers used:
  5538 ;;		wreg, status,2, status,0, btemp+1
  5539 ;; Tracked objects:
  5540 ;;		On entry : 0/0
  5541 ;;		On exit  : 0/0
  5542 ;;		Unchanged: 0/0
  5543 ;; Data sizes:     COMMON   BANK0   BANK1   BANK3   BANK2
  5544 ;;      Params:         0       8       0       0       0
  5545 ;;      Locals:         0       0       5       0       0
  5546 ;;      Temps:          0       1       0       0       0
  5547 ;;      Totals:         0       9       5       0       0
  5548 ;;Total ram usage:       14 bytes
  5549 ;; Hardware stack levels used:    1
  5550 ;; Hardware stack levels required when called:    4
  5551 ;; This function calls:
  5552 ;;		Nothing
  5553 ;; This function is called by:
  5554 ;;		_Average_Value
  5555 ;; This function uses a non-reentrant model
  5556 ;;
  5557                           
  5558                           
  5559                           ;psect for function ___lldiv
  5560  0760                     ___lldiv:
  5561  0760                     l2680:	
  5562                           ;incstack = 0
  5563 ;; hardware stack exceeded
  5564                           ; Regs used in ___lldiv: [wreg+status,2+status,0+btemp+1]
  5565                           
  5566  0760  3000               	movlw	0
  5567  0761  1683               	bsf	3,5	;RP0=1, select bank1
  5568  0762  1303               	bcf	3,6	;RP1=0, select bank1
  5569  0763  00A3               	movwf	(___lldiv@quotient+3)^(0+128)
  5570  0764  3000               	movlw	0
  5571  0765  00A2               	movwf	(___lldiv@quotient+2)^(0+128)
  5572  0766  3000               	movlw	0
  5573  0767  00A1               	movwf	(___lldiv@quotient+1)^(0+128)
  5574  0768  3000               	movlw	0
  5575  0769  00A0               	movwf	___lldiv@quotient^(0+128)
  5576  076A  1283               	bcf	3,5	;RP0=0, select bank0
  5577  076B  1303               	bcf	3,6	;RP1=0, select bank0
  5578  076C  083D               	movf	___lldiv@divisor+3,w
  5579  076D  043C               	iorwf	___lldiv@divisor+2,w
  5580  076E  043B               	iorwf	___lldiv@divisor+1,w
  5581  076F  043A               	iorwf	___lldiv@divisor,w
  5582  0770  1903               	skipnz
  5583  0771  2F73               	goto	u3551
  5584  0772  2F74               	goto	u3550
  5585  0773                     u3551:
  5586  0773  2FD1               	goto	l2702
  5587  0774                     u3550:
  5588  0774                     l2682:
  5589  0774  1683               	bsf	3,5	;RP0=1, select bank1
  5590  0775  1303               	bcf	3,6	;RP1=0, select bank1
  5591  0776  01A4               	clrf	___lldiv@counter^(0+128)
  5592  0777  0AA4               	incf	___lldiv@counter^(0+128),f
  5593  0778  2F88               	goto	l2688
  5594  0779                     l2684:
  5595  0779  3001               	movlw	1
  5596  077A  00C2               	movwf	??___lldiv
  5597  077B                     u3565:
  5598  077B  1003               	clrc
  5599  077C  0DBA               	rlf	___lldiv@divisor,f
  5600  077D  0DBB               	rlf	___lldiv@divisor+1,f
  5601  077E  0DBC               	rlf	___lldiv@divisor+2,f
  5602  077F  0DBD               	rlf	___lldiv@divisor+3,f
  5603  0780  0BC2               	decfsz	??___lldiv,f
  5604  0781  2F7B               	goto	u3565
  5605  0782                     l2686:
  5606  0782  3001               	movlw	1
  5607  0783  00FF               	movwf	btemp+1
  5608  0784  087F               	movf	btemp+1,w
  5609  0785  1683               	bsf	3,5	;RP0=1, select bank1
  5610  0786  1303               	bcf	3,6	;RP1=0, select bank1
  5611  0787  07A4               	addwf	___lldiv@counter^(0+128),f
  5612  0788                     l2688:
  5613  0788  1283               	bcf	3,5	;RP0=0, select bank0
  5614  0789  1303               	bcf	3,6	;RP1=0, select bank0
  5615  078A  1FBD               	btfss	___lldiv@divisor+3,7
  5616  078B  2F8D               	goto	u3571
  5617  078C  2F8E               	goto	u3570
  5618  078D                     u3571:
  5619  078D  2F79               	goto	l2684
  5620  078E                     u3570:
  5621  078E                     l2690:
  5622  078E  3001               	movlw	1
  5623  078F  1283               	bcf	3,5	;RP0=0, select bank0
  5624  0790  00C2               	movwf	??___lldiv
  5625  0791                     u3585:
  5626  0791  1003               	clrc
  5627  0792  1683               	bsf	3,5	;RP0=1, select bank1
  5628  0793  1303               	bcf	3,6	;RP1=0, select bank1
  5629  0794  0DA0               	rlf	___lldiv@quotient^(0+128),f
  5630  0795  0DA1               	rlf	(___lldiv@quotient+1)^(0+128),f
  5631  0796  0DA2               	rlf	(___lldiv@quotient+2)^(0+128),f
  5632  0797  0DA3               	rlf	(___lldiv@quotient+3)^(0+128),f
  5633  0798  1283               	bcf	3,5	;RP0=0, select bank0
  5634  0799  1303               	bcf	3,6	;RP1=0, select bank0
  5635  079A  0BC2               	decfsz	??___lldiv,f
  5636  079B  2F91               	goto	u3585
  5637  079C                     l2692:
  5638  079C  083D               	movf	___lldiv@divisor+3,w
  5639  079D  0241               	subwf	___lldiv@dividend+3,w
  5640  079E  1D03               	skipz
  5641  079F  2FAA               	goto	u3595
  5642  07A0  083C               	movf	___lldiv@divisor+2,w
  5643  07A1  0240               	subwf	___lldiv@dividend+2,w
  5644  07A2  1D03               	skipz
  5645  07A3  2FAA               	goto	u3595
  5646  07A4  083B               	movf	___lldiv@divisor+1,w
  5647  07A5  023F               	subwf	___lldiv@dividend+1,w
  5648  07A6  1D03               	skipz
  5649  07A7  2FAA               	goto	u3595
  5650  07A8  083A               	movf	___lldiv@divisor,w
  5651  07A9  023E               	subwf	___lldiv@dividend,w
  5652  07AA                     u3595:
  5653  07AA  1C03               	skipc
  5654  07AB  2FAD               	goto	u3591
  5655  07AC  2FAE               	goto	u3590
  5656  07AD                     u3591:
  5657  07AD  2FBF               	goto	l2698
  5658  07AE                     u3590:
  5659  07AE                     l2694:
  5660  07AE  083A               	movf	___lldiv@divisor,w
  5661  07AF  02BE               	subwf	___lldiv@dividend,f
  5662  07B0  083B               	movf	___lldiv@divisor+1,w
  5663  07B1  1C03               	skipc
  5664  07B2  0F3B               	incfsz	___lldiv@divisor+1,w
  5665  07B3  02BF               	subwf	___lldiv@dividend+1,f
  5666  07B4  083C               	movf	___lldiv@divisor+2,w
  5667  07B5  1C03               	skipc
  5668  07B6  0F3C               	incfsz	___lldiv@divisor+2,w
  5669  07B7  02C0               	subwf	___lldiv@dividend+2,f
  5670  07B8  083D               	movf	___lldiv@divisor+3,w
  5671  07B9  1C03               	skipc
  5672  07BA  0F3D               	incfsz	___lldiv@divisor+3,w
  5673  07BB  02C1               	subwf	___lldiv@dividend+3,f
  5674  07BC                     l2696:
  5675  07BC  1683               	bsf	3,5	;RP0=1, select bank1
  5676  07BD  1303               	bcf	3,6	;RP1=0, select bank1
  5677  07BE  1420               	bsf	___lldiv@quotient^(0+128),0
  5678  07BF                     l2698:
  5679  07BF  3001               	movlw	1
  5680  07C0                     u3605:
  5681  07C0  1003               	clrc
  5682  07C1  1283               	bcf	3,5	;RP0=0, select bank0
  5683  07C2  0CBD               	rrf	___lldiv@divisor+3,f
  5684  07C3  0CBC               	rrf	___lldiv@divisor+2,f
  5685  07C4  0CBB               	rrf	___lldiv@divisor+1,f
  5686  07C5  0CBA               	rrf	___lldiv@divisor,f
  5687  07C6  3EFF               	addlw	-1
  5688  07C7  1D03               	skipz
  5689  07C8  2FC0               	goto	u3605
  5690  07C9                     l2700:
  5691  07C9  3001               	movlw	1
  5692  07CA  1683               	bsf	3,5	;RP0=1, select bank1
  5693  07CB  1303               	bcf	3,6	;RP1=0, select bank1
  5694  07CC  02A4               	subwf	___lldiv@counter^(0+128),f
  5695  07CD  1D03               	btfss	3,2
  5696  07CE  2FD0               	goto	u3611
  5697  07CF  2FD1               	goto	u3610
  5698  07D0                     u3611:
  5699  07D0  2F8E               	goto	l2690
  5700  07D1                     u3610:
  5701  07D1                     l2702:
  5702  07D1  1683               	bsf	3,5	;RP0=1, select bank1
  5703  07D2  1303               	bcf	3,6	;RP1=0, select bank1
  5704  07D3  0823               	movf	(___lldiv@quotient+3)^(0+128),w
  5705  07D4  1283               	bcf	3,5	;RP0=0, select bank0
  5706  07D5  1303               	bcf	3,6	;RP1=0, select bank0
  5707  07D6  00BD               	movwf	?___lldiv+3
  5708  07D7  1683               	bsf	3,5	;RP0=1, select bank1
  5709  07D8  1303               	bcf	3,6	;RP1=0, select bank1
  5710  07D9  0822               	movf	(___lldiv@quotient+2)^(0+128),w
  5711  07DA  1283               	bcf	3,5	;RP0=0, select bank0
  5712  07DB  1303               	bcf	3,6	;RP1=0, select bank0
  5713  07DC  00BC               	movwf	?___lldiv+2
  5714  07DD  1683               	bsf	3,5	;RP0=1, select bank1
  5715  07DE  1303               	bcf	3,6	;RP1=0, select bank1
  5716  07DF  0821               	movf	(___lldiv@quotient+1)^(0+128),w
  5717  07E0  1283               	bcf	3,5	;RP0=0, select bank0
  5718  07E1  1303               	bcf	3,6	;RP1=0, select bank0
  5719  07E2  00BB               	movwf	?___lldiv+1
  5720  07E3  1683               	bsf	3,5	;RP0=1, select bank1
  5721  07E4  1303               	bcf	3,6	;RP1=0, select bank1
  5722  07E5  0820               	movf	___lldiv@quotient^(0+128),w
  5723  07E6  1283               	bcf	3,5	;RP0=0, select bank0
  5724  07E7  1303               	bcf	3,6	;RP1=0, select bank0
  5725  07E8  00BA               	movwf	?___lldiv
  5726  07E9                     l508:
  5727  07E9  0008               	return
  5728  07EA                     __end_of___lldiv:
  5729                           
  5730                           	psect	text24
  5731  0520                     __ptext24:	
  5732 ;; *************** function _Display_MainFunction *****************
  5733 ;; Defined at:
  5734 ;;		line 31 in file "Display/Display.c"
  5735 ;; Parameters:    Size  Location     Type
  5736 ;;		None
  5737 ;; Auto vars:     Size  Location     Type
  5738 ;;		None
  5739 ;; Return value:  Size  Location     Type
  5740 ;;                  1    wreg      void 
  5741 ;; Registers used:
  5742 ;;		wreg, fsr0l, fsr0h, status,2, status,0, btemp+1, pclath, cstack
  5743 ;; Tracked objects:
  5744 ;;		On entry : 0/0
  5745 ;;		On exit  : 0/0
  5746 ;;		Unchanged: 0/0
  5747 ;; Data sizes:     COMMON   BANK0   BANK1   BANK3   BANK2
  5748 ;;      Params:         0       0       0       0       0
  5749 ;;      Locals:         0       0       0       0       0
  5750 ;;      Temps:          0       0       2       0       0
  5751 ;;      Totals:         0       0       2       0       0
  5752 ;;Total ram usage:        2 bytes
  5753 ;; Hardware stack levels used:    1
  5754 ;; Hardware stack levels required when called:    6
  5755 ;; This function calls:
  5756 ;;		_Display_Blink
  5757 ;;		___awdiv
  5758 ;;		___awmod
  5759 ;; This function is called by:
  5760 ;;		_Scheduler_Task1
  5761 ;; This function uses a non-reentrant model
  5762 ;;
  5763                           
  5764                           
  5765                           ;psect for function _Display_MainFunction
  5766  0520                     _Display_MainFunction:
  5767  0520                     l3010:	
  5768                           ;incstack = 0
  5769 ;; hardware stack exceeded
  5770                           ; Regs used in _Display_MainFunction: [wreg-fsr0h+status,2+status,0+btemp+1+pclath+cstac
      +                          k]
  5771                           
  5772                           
  5773                           ;Display/Display.c: 33:  static uint8_t Digit_1=0;;Display/Display.c: 34:  static uint8_
      +                          t Digit_2=0;;Display/Display.c: 35:  static uint8_t Tempreture=0;;Display/Display.c: 36:
      +                            static uint8_t Display=0;;Display/Display.c: 37:  static uint8_t Enable_Digit_Selector
      +                          =1;;Display/Display.c: 39:   if(Mode.Select_Mode==Normal_Mode)
  5774  0520  1683               	bsf	3,5	;RP0=1, select bank1
  5775  0521  1303               	bcf	3,6	;RP1=0, select bank1
  5776  0522  0352               	decf	_Mode^(0+128),w
  5777  0523  1D03               	btfss	3,2
  5778  0524  2D26               	goto	u4371
  5779  0525  2D27               	goto	u4370
  5780  0526                     u4371:
  5781  0526  2D30               	goto	l3016
  5782  0527                     u4370:
  5783  0527                     l3012:
  5784                           
  5785                           ;Display/Display.c: 40:   {;Display/Display.c: 41:    Tempreture=Temperature.Average_Val
      +                          ue;
  5786  0527  1283               	bcf	3,5	;RP0=0, select bank0
  5787  0528  1303               	bcf	3,6	;RP1=0, select bank0
  5788  0529  084E               	movf	_Temperature+1,w
  5789  052A  00FF               	movwf	btemp+1
  5790  052B  087F               	movf	btemp+1,w
  5791  052C  00C9               	movwf	Display_MainFunction@Tempreture
  5792  052D                     l3014:
  5793                           
  5794                           ;Display/Display.c: 42:    Enable_Display=Enable_Display_On;
  5795  052D  01CC               	clrf	_Enable_Display
  5796  052E  0ACC               	incf	_Enable_Display,f
  5797                           
  5798                           ;Display/Display.c: 43:   }
  5799  052F  2D4C               	goto	l3024
  5800  0530                     l3016:
  5801  0530  3002               	movlw	2
  5802  0531  0652               	xorwf	_Mode^(0+128),w
  5803  0532  1D03               	btfss	3,2
  5804  0533  2D35               	goto	u4381
  5805  0534  2D36               	goto	u4380
  5806  0535                     u4381:
  5807  0535  2D3D               	goto	l3020
  5808  0536                     u4380:
  5809  0536                     l3018:
  5810                           
  5811                           ;Display/Display.c: 45:   {;Display/Display.c: 46:    Tempreture=Temperature.Set_Temp;
  5812  0536  1283               	bcf	3,5	;RP0=0, select bank0
  5813  0537  1303               	bcf	3,6	;RP1=0, select bank0
  5814  0538  084F               	movf	_Temperature+2,w
  5815  0539  00FF               	movwf	btemp+1
  5816  053A  087F               	movf	btemp+1,w
  5817  053B  00C9               	movwf	Display_MainFunction@Tempreture
  5818                           
  5819                           ;Display/Display.c: 47:   }
  5820  053C  2D4C               	goto	l3024
  5821  053D                     l3020:
  5822  053D  0852               	movf	_Mode^(0+128),w
  5823  053E  1D03               	btfss	3,2
  5824  053F  2D41               	goto	u4391
  5825  0540  2D42               	goto	u4390
  5826  0541                     u4391:
  5827  0541  2D4C               	goto	l3024
  5828  0542                     u4390:
  5829  0542                     l3022:
  5830                           
  5831                           ;Display/Display.c: 49:   {;Display/Display.c: 50:   (PORTA &= ~(1<<5)) ;
  5832  0542  30DF               	movlw	223
  5833  0543  00FF               	movwf	btemp+1
  5834  0544  087F               	movf	btemp+1,w
  5835  0545  1283               	bcf	3,5	;RP0=0, select bank0
  5836  0546  1303               	bcf	3,6	;RP1=0, select bank0
  5837  0547  0585               	andwf	5,f	;volatile
  5838                           
  5839                           ;Display/Display.c: 51:   (PORTA &= ~(1<<4)) ;
  5840  0548  30EF               	movlw	239
  5841  0549  00FF               	movwf	btemp+1
  5842  054A  087F               	movf	btemp+1,w
  5843  054B  0585               	andwf	5,f	;volatile
  5844  054C                     l3024:
  5845                           
  5846                           ;Display/Display.c: 55:  if(Mode.Select_Mode!=Off_Mode)
  5847  054C  1683               	bsf	3,5	;RP0=1, select bank1
  5848  054D  1303               	bcf	3,6	;RP1=0, select bank1
  5849  054E  0852               	movf	_Mode^(0+128),w
  5850  054F  1903               	btfsc	3,2
  5851  0550  2D52               	goto	u4401
  5852  0551  2D53               	goto	u4400
  5853  0552                     u4401:
  5854  0552  2E29               	goto	l156
  5855  0553                     u4400:
  5856  0553                     l3026:
  5857                           
  5858                           ;Display/Display.c: 56:  {;Display/Display.c: 57:   if(Enable_Display==Enable_Display_On
      +                          )
  5859  0553  1283               	bcf	3,5	;RP0=0, select bank0
  5860  0554  1303               	bcf	3,6	;RP1=0, select bank0
  5861  0555  034C               	decf	_Enable_Display,w
  5862  0556  1D03               	btfss	3,2
  5863  0557  2D59               	goto	u4411
  5864  0558  2D5A               	goto	u4410
  5865  0559                     u4411:
  5866  0559  2E14               	goto	l3072
  5867  055A                     u4410:
  5868  055A                     l3028:
  5869                           
  5870                           ;Display/Display.c: 58:   {;Display/Display.c: 59:          Digit_1=Tempreture%10;
  5871  055A  300A               	movlw	10
  5872  055B  00BA               	movwf	___awmod@divisor
  5873  055C  3000               	movlw	0
  5874  055D  00BB               	movwf	___awmod@divisor+1
  5875  055E  0849               	movf	Display_MainFunction@Tempreture,w
  5876  055F  1683               	bsf	3,5	;RP0=1, select bank1
  5877  0560  1303               	bcf	3,6	;RP1=0, select bank1
  5878  0561  00A4               	movwf	??_Display_MainFunction^(0+128)
  5879  0562  01A5               	clrf	(??_Display_MainFunction^(0+128)+1)
  5880  0563  0824               	movf	??_Display_MainFunction^(0+128),w
  5881  0564  1283               	bcf	3,5	;RP0=0, select bank0
  5882  0565  1303               	bcf	3,6	;RP1=0, select bank0
  5883  0566  00BC               	movwf	___awmod@dividend
  5884  0567  1683               	bsf	3,5	;RP0=1, select bank1
  5885  0568  1303               	bcf	3,6	;RP1=0, select bank1
  5886  0569  0825               	movf	(??_Display_MainFunction+1)^(0+128),w
  5887  056A  1283               	bcf	3,5	;RP0=0, select bank0
  5888  056B  1303               	bcf	3,6	;RP1=0, select bank0
  5889  056C  00BD               	movwf	___awmod@dividend+1
  5890  056D  120A  158A  2584  120A  118A  	fcall	___awmod
  5891  0572  1283               	bcf	3,5	;RP0=0, select bank0
  5892  0573  1303               	bcf	3,6	;RP1=0, select bank0
  5893  0574  083A               	movf	?___awmod,w
  5894  0575  00FF               	movwf	btemp+1
  5895  0576  087F               	movf	btemp+1,w
  5896  0577  00CB               	movwf	Display_MainFunction@Digit_1
  5897                           
  5898                           ;Display/Display.c: 60:          Digit_2=Tempreture/10;
  5899  0578  300A               	movlw	10
  5900  0579  00BA               	movwf	___awdiv@divisor
  5901  057A  3000               	movlw	0
  5902  057B  00BB               	movwf	___awdiv@divisor+1
  5903  057C  0849               	movf	Display_MainFunction@Tempreture,w
  5904  057D  1683               	bsf	3,5	;RP0=1, select bank1
  5905  057E  1303               	bcf	3,6	;RP1=0, select bank1
  5906  057F  00A4               	movwf	??_Display_MainFunction^(0+128)
  5907  0580  01A5               	clrf	(??_Display_MainFunction^(0+128)+1)
  5908  0581  0824               	movf	??_Display_MainFunction^(0+128),w
  5909  0582  1283               	bcf	3,5	;RP0=0, select bank0
  5910  0583  1303               	bcf	3,6	;RP1=0, select bank0
  5911  0584  00BC               	movwf	___awdiv@dividend
  5912  0585  1683               	bsf	3,5	;RP0=1, select bank1
  5913  0586  1303               	bcf	3,6	;RP1=0, select bank1
  5914  0587  0825               	movf	(??_Display_MainFunction+1)^(0+128),w
  5915  0588  1283               	bcf	3,5	;RP0=0, select bank0
  5916  0589  1303               	bcf	3,6	;RP1=0, select bank0
  5917  058A  00BD               	movwf	___awdiv@dividend+1
  5918  058B  120A  158A  26AD  120A  118A  	fcall	___awdiv
  5919  0590  1283               	bcf	3,5	;RP0=0, select bank0
  5920  0591  1303               	bcf	3,6	;RP1=0, select bank0
  5921  0592  083A               	movf	?___awdiv,w
  5922  0593  00FF               	movwf	btemp+1
  5923  0594  087F               	movf	btemp+1,w
  5924  0595  00CA               	movwf	Display_MainFunction@Digit_2
  5925  0596                     l3030:
  5926                           
  5927                           ;Display/Display.c: 61:          Enable_Digit_Selector^=1;
  5928  0596  3001               	movlw	1
  5929  0597  00FF               	movwf	btemp+1
  5930  0598  087F               	movf	btemp+1,w
  5931  0599  06D4               	xorwf	Display_MainFunction@Enable_Digit_Selector,f
  5932  059A                     l3032:
  5933                           
  5934                           ;Display/Display.c: 63:          if(Enable_Digit_Selector==0)
  5935  059A  0854               	movf	Display_MainFunction@Enable_Digit_Selector,w
  5936  059B  1D03               	btfss	3,2
  5937  059C  2D9E               	goto	u4421
  5938  059D  2D9F               	goto	u4420
  5939  059E                     u4421:
  5940  059E  2DA9               	goto	l3040
  5941  059F                     u4420:
  5942  059F                     l3034:
  5943                           
  5944                           ;Display/Display.c: 64:          {;Display/Display.c: 65:           Display=Digit_1;
  5945  059F  084B               	movf	Display_MainFunction@Digit_1,w
  5946  05A0  00FF               	movwf	btemp+1
  5947  05A1  087F               	movf	btemp+1,w
  5948  05A2  00C8               	movwf	Display_MainFunction@Display
  5949  05A3                     l3036:
  5950                           
  5951                           ;Display/Display.c: 66:            (PORTA &= ~(1<<4));
  5952  05A3  30EF               	movlw	239
  5953  05A4  00FF               	movwf	btemp+1
  5954  05A5  087F               	movf	btemp+1,w
  5955  05A6  0585               	andwf	5,f	;volatile
  5956  05A7                     l3038:
  5957                           
  5958                           ;Display/Display.c: 67:            (PORTA|= (1<<5)) ;
  5959  05A7  1685               	bsf	5,5	;volatile
  5960                           
  5961                           ;Display/Display.c: 69:          }
  5962  05A8  2DEA               	goto	l3070
  5963  05A9                     l3040:
  5964  05A9  0354               	decf	Display_MainFunction@Enable_Digit_Selector,w
  5965  05AA  1D03               	btfss	3,2
  5966  05AB  2DAD               	goto	u4431
  5967  05AC  2DAE               	goto	u4430
  5968  05AD                     u4431:
  5969  05AD  2DEA               	goto	l3070
  5970  05AE                     u4430:
  5971  05AE                     l3042:
  5972                           
  5973                           ;Display/Display.c: 71:          {;Display/Display.c: 72:           Display=Digit_2;
  5974  05AE  084A               	movf	Display_MainFunction@Digit_2,w
  5975  05AF  00FF               	movwf	btemp+1
  5976  05B0  087F               	movf	btemp+1,w
  5977  05B1  00C8               	movwf	Display_MainFunction@Display
  5978  05B2                     l3044:
  5979                           
  5980                           ;Display/Display.c: 73:           (PORTA &= ~(1<<5));
  5981  05B2  30DF               	movlw	223
  5982  05B3  00FF               	movwf	btemp+1
  5983  05B4  087F               	movf	btemp+1,w
  5984  05B5  0585               	andwf	5,f	;volatile
  5985  05B6                     l3046:
  5986                           
  5987                           ;Display/Display.c: 74:           (PORTA|= (1<<4));
  5988  05B6  1605               	bsf	5,4	;volatile
  5989  05B7  2DEA               	goto	l3070
  5990  05B8                     l3048:
  5991                           
  5992                           ;Display/Display.c: 83:              PORTD=0b00111111;
  5993  05B8  303F               	movlw	63
  5994  05B9  1283               	bcf	3,5	;RP0=0, select bank0
  5995  05BA  1303               	bcf	3,6	;RP1=0, select bank0
  5996  05BB  0088               	movwf	8	;volatile
  5997                           
  5998                           ;Display/Display.c: 84:              break;
  5999  05BC  2E14               	goto	l3072
  6000  05BD                     l3050:
  6001                           
  6002                           ;Display/Display.c: 87:              PORTD=0b00000110;
  6003  05BD  3006               	movlw	6
  6004  05BE  1283               	bcf	3,5	;RP0=0, select bank0
  6005  05BF  1303               	bcf	3,6	;RP1=0, select bank0
  6006  05C0  0088               	movwf	8	;volatile
  6007                           
  6008                           ;Display/Display.c: 88:              break;
  6009  05C1  2E14               	goto	l3072
  6010  05C2                     l3052:
  6011                           
  6012                           ;Display/Display.c: 91:              PORTD=0b01011011;
  6013  05C2  305B               	movlw	91
  6014  05C3  1283               	bcf	3,5	;RP0=0, select bank0
  6015  05C4  1303               	bcf	3,6	;RP1=0, select bank0
  6016  05C5  0088               	movwf	8	;volatile
  6017                           
  6018                           ;Display/Display.c: 92:              break;
  6019  05C6  2E14               	goto	l3072
  6020  05C7                     l3054:
  6021                           
  6022                           ;Display/Display.c: 95:              PORTD=0b01001111;
  6023  05C7  304F               	movlw	79
  6024  05C8  1283               	bcf	3,5	;RP0=0, select bank0
  6025  05C9  1303               	bcf	3,6	;RP1=0, select bank0
  6026  05CA  0088               	movwf	8	;volatile
  6027                           
  6028                           ;Display/Display.c: 96:              break;
  6029  05CB  2E14               	goto	l3072
  6030  05CC                     l3056:
  6031                           
  6032                           ;Display/Display.c: 99:              PORTD=0b01100110;
  6033  05CC  3066               	movlw	102
  6034  05CD  1283               	bcf	3,5	;RP0=0, select bank0
  6035  05CE  1303               	bcf	3,6	;RP1=0, select bank0
  6036  05CF  0088               	movwf	8	;volatile
  6037                           
  6038                           ;Display/Display.c: 100:              break;
  6039  05D0  2E14               	goto	l3072
  6040  05D1                     l3058:
  6041                           
  6042                           ;Display/Display.c: 103:              PORTD=0b01101101;
  6043  05D1  306D               	movlw	109
  6044  05D2  1283               	bcf	3,5	;RP0=0, select bank0
  6045  05D3  1303               	bcf	3,6	;RP1=0, select bank0
  6046  05D4  0088               	movwf	8	;volatile
  6047                           
  6048                           ;Display/Display.c: 104:              break;
  6049  05D5  2E14               	goto	l3072
  6050  05D6                     l3060:
  6051                           
  6052                           ;Display/Display.c: 107:              PORTD=0b01111101;
  6053  05D6  307D               	movlw	125
  6054  05D7  1283               	bcf	3,5	;RP0=0, select bank0
  6055  05D8  1303               	bcf	3,6	;RP1=0, select bank0
  6056  05D9  0088               	movwf	8	;volatile
  6057                           
  6058                           ;Display/Display.c: 108:              break;
  6059  05DA  2E14               	goto	l3072
  6060  05DB                     l3062:
  6061                           
  6062                           ;Display/Display.c: 111:              PORTD=0b00000111;
  6063  05DB  3007               	movlw	7
  6064  05DC  1283               	bcf	3,5	;RP0=0, select bank0
  6065  05DD  1303               	bcf	3,6	;RP1=0, select bank0
  6066  05DE  0088               	movwf	8	;volatile
  6067                           
  6068                           ;Display/Display.c: 112:              break;
  6069  05DF  2E14               	goto	l3072
  6070  05E0                     l3064:
  6071                           
  6072                           ;Display/Display.c: 115:              PORTD=0b01111111;
  6073  05E0  307F               	movlw	127
  6074  05E1  1283               	bcf	3,5	;RP0=0, select bank0
  6075  05E2  1303               	bcf	3,6	;RP1=0, select bank0
  6076  05E3  0088               	movwf	8	;volatile
  6077                           
  6078                           ;Display/Display.c: 116:              break;
  6079  05E4  2E14               	goto	l3072
  6080  05E5                     l3066:
  6081                           
  6082                           ;Display/Display.c: 119:              PORTD=0b01101111;
  6083  05E5  306F               	movlw	111
  6084  05E6  1283               	bcf	3,5	;RP0=0, select bank0
  6085  05E7  1303               	bcf	3,6	;RP1=0, select bank0
  6086  05E8  0088               	movwf	8	;volatile
  6087                           
  6088                           ;Display/Display.c: 120:              break;
  6089  05E9  2E14               	goto	l3072
  6090  05EA                     l3070:
  6091  05EA  0848               	movf	Display_MainFunction@Display,w
  6092  05EB  1683               	bsf	3,5	;RP0=1, select bank1
  6093  05EC  1303               	bcf	3,6	;RP1=0, select bank1
  6094  05ED  00A4               	movwf	??_Display_MainFunction^(0+128)
  6095  05EE  01A5               	clrf	(??_Display_MainFunction^(0+128)+1)
  6096                           
  6097                           ; Switch on 2 bytes has been partitioned into a top level switch of size 1, and 1 sub-sw
      +                          itches
  6098                           ; Switch size 1, requested type "simple"
  6099                           ; Number of cases is 1, Range of values is 0 to 0
  6100                           ; switch strategies available:
  6101                           ; Name         Instructions Cycles
  6102                           ; simple_byte            4     3 (average)
  6103                           ; direct_byte           11     8 (fixed)
  6104                           ; jumptable            260     6 (fixed)
  6105                           ;	Chosen strategy is simple_byte
  6106  05EF  0825               	movf	(??_Display_MainFunction+1)^(0+128),w
  6107  05F0  3A00               	xorlw	0	; case 0
  6108  05F1  1903               	skipnz
  6109  05F2  2DF4               	goto	l3224
  6110  05F3  2E14               	goto	l3072
  6111  05F4                     l3224:
  6112                           
  6113                           ; Switch size 1, requested type "simple"
  6114                           ; Number of cases is 10, Range of values is 0 to 9
  6115                           ; switch strategies available:
  6116                           ; Name         Instructions Cycles
  6117                           ; simple_byte           31    16 (average)
  6118                           ; direct_byte           38     8 (fixed)
  6119                           ; jumptable            260     6 (fixed)
  6120                           ;	Chosen strategy is simple_byte
  6121  05F4  0824               	movf	??_Display_MainFunction^(0+128),w
  6122  05F5  3A00               	xorlw	0	; case 0
  6123  05F6  1903               	skipnz
  6124  05F7  2DB8               	goto	l3048
  6125  05F8  3A01               	xorlw	1	; case 1
  6126  05F9  1903               	skipnz
  6127  05FA  2DBD               	goto	l3050
  6128  05FB  3A03               	xorlw	3	; case 2
  6129  05FC  1903               	skipnz
  6130  05FD  2DC2               	goto	l3052
  6131  05FE  3A01               	xorlw	1	; case 3
  6132  05FF  1903               	skipnz
  6133  0600  2DC7               	goto	l3054
  6134  0601  3A07               	xorlw	7	; case 4
  6135  0602  1903               	skipnz
  6136  0603  2DCC               	goto	l3056
  6137  0604  3A01               	xorlw	1	; case 5
  6138  0605  1903               	skipnz
  6139  0606  2DD1               	goto	l3058
  6140  0607  3A03               	xorlw	3	; case 6
  6141  0608  1903               	skipnz
  6142  0609  2DD6               	goto	l3060
  6143  060A  3A01               	xorlw	1	; case 7
  6144  060B  1903               	skipnz
  6145  060C  2DDB               	goto	l3062
  6146  060D  3A0F               	xorlw	15	; case 8
  6147  060E  1903               	skipnz
  6148  060F  2DE0               	goto	l3064
  6149  0610  3A01               	xorlw	1	; case 9
  6150  0611  1903               	skipnz
  6151  0612  2DE5               	goto	l3066
  6152  0613  2E14               	goto	l3072
  6153  0614                     l3072:
  6154                           
  6155                           ;Display/Display.c: 125:   if(Mode.Select_Mode==Setting_Mode)
  6156  0614  3002               	movlw	2
  6157  0615  1683               	bsf	3,5	;RP0=1, select bank1
  6158  0616  1303               	bcf	3,6	;RP1=0, select bank1
  6159  0617  0652               	xorwf	_Mode^(0+128),w
  6160  0618  1D03               	btfss	3,2
  6161  0619  2E1B               	goto	u4441
  6162  061A  2E1C               	goto	u4440
  6163  061B                     u4441:
  6164  061B  2E29               	goto	l156
  6165  061C                     u4440:
  6166  061C                     l3074:
  6167                           
  6168                           ;Display/Display.c: 126:   {;Display/Display.c: 127:    Display_Blink(1000,20);
  6169  061C  30E8               	movlw	232
  6170  061D  00A0               	movwf	Display_Blink@Times_Ms^(0+128)
  6171  061E  3003               	movlw	3
  6172  061F  00A1               	movwf	(Display_Blink@Times_Ms^(0+128)+1)
  6173  0620  3014               	movlw	20
  6174  0621  00A2               	movwf	Display_Blink@Task_Peroid^(0+128)
  6175  0622  3000               	movlw	0
  6176  0623  00A3               	movwf	(Display_Blink@Task_Peroid^(0+128)+1)
  6177  0624  120A  158A  2491  120A  118A  	fcall	_Display_Blink
  6178  0629                     l156:
  6179  0629  0008               	return
  6180  062A                     __end_of_Display_MainFunction:
  6181                           
  6182                           	psect	text25
  6183  0D84                     __ptext25:	
  6184 ;; *************** function ___awmod *****************
  6185 ;; Defined at:
  6186 ;;		line 5 in file "C:\Program Files (x86)\Microchip\xc8\v2.20\pic\sources\c90\common\awmod.c"
  6187 ;; Parameters:    Size  Location     Type
  6188 ;;  divisor         2   26[BANK0 ] int 
  6189 ;;  dividend        2   28[BANK0 ] int 
  6190 ;; Auto vars:     Size  Location     Type
  6191 ;;  sign            1   31[BANK0 ] unsigned char 
  6192 ;;  counter         1   30[BANK0 ] unsigned char 
  6193 ;; Return value:  Size  Location     Type
  6194 ;;                  2   26[BANK0 ] int 
  6195 ;; Registers used:
  6196 ;;		wreg, status,2, status,0, btemp+1
  6197 ;; Tracked objects:
  6198 ;;		On entry : 0/0
  6199 ;;		On exit  : 0/0
  6200 ;;		Unchanged: 0/0
  6201 ;; Data sizes:     COMMON   BANK0   BANK1   BANK3   BANK2
  6202 ;;      Params:         0       4       0       0       0
  6203 ;;      Locals:         0       2       0       0       0
  6204 ;;      Temps:          0       0       0       0       0
  6205 ;;      Totals:         0       6       0       0       0
  6206 ;;Total ram usage:        6 bytes
  6207 ;; Hardware stack levels used:    1
  6208 ;; Hardware stack levels required when called:    4
  6209 ;; This function calls:
  6210 ;;		Nothing
  6211 ;; This function is called by:
  6212 ;;		_Display_MainFunction
  6213 ;; This function uses a non-reentrant model
  6214 ;;
  6215                           
  6216                           
  6217                           ;psect for function ___awmod
  6218  0D84                     ___awmod:
  6219  0D84                     l2256:	
  6220                           ;incstack = 0
  6221                           ; Regs used in ___awmod: [wreg+status,2+status,0+btemp+1]
  6222                           
  6223  0D84  1283               	bcf	3,5	;RP0=0, select bank0
  6224  0D85  1303               	bcf	3,6	;RP1=0, select bank0
  6225  0D86  01BF               	clrf	___awmod@sign
  6226  0D87                     l2258:
  6227  0D87  1FBD               	btfss	___awmod@dividend+1,7
  6228  0D88  2D8A               	goto	u2851
  6229  0D89  2D8B               	goto	u2850
  6230  0D8A                     u2851:
  6231  0D8A  2D92               	goto	l2264
  6232  0D8B                     u2850:
  6233  0D8B                     l2260:
  6234  0D8B  09BC               	comf	___awmod@dividend,f
  6235  0D8C  09BD               	comf	___awmod@dividend+1,f
  6236  0D8D  0ABC               	incf	___awmod@dividend,f
  6237  0D8E  1903               	skipnz
  6238  0D8F  0ABD               	incf	___awmod@dividend+1,f
  6239  0D90                     l2262:
  6240  0D90  01BF               	clrf	___awmod@sign
  6241  0D91  0ABF               	incf	___awmod@sign,f
  6242  0D92                     l2264:
  6243  0D92  1FBB               	btfss	___awmod@divisor+1,7
  6244  0D93  2D95               	goto	u2861
  6245  0D94  2D96               	goto	u2860
  6246  0D95                     u2861:
  6247  0D95  2D9B               	goto	l2268
  6248  0D96                     u2860:
  6249  0D96                     l2266:
  6250  0D96  09BA               	comf	___awmod@divisor,f
  6251  0D97  09BB               	comf	___awmod@divisor+1,f
  6252  0D98  0ABA               	incf	___awmod@divisor,f
  6253  0D99  1903               	skipnz
  6254  0D9A  0ABB               	incf	___awmod@divisor+1,f
  6255  0D9B                     l2268:
  6256  0D9B  083A               	movf	___awmod@divisor,w
  6257  0D9C  043B               	iorwf	___awmod@divisor+1,w
  6258  0D9D  1903               	btfsc	3,2
  6259  0D9E  2DA0               	goto	u2871
  6260  0D9F  2DA1               	goto	u2870
  6261  0DA0                     u2871:
  6262  0DA0  2DD0               	goto	l2286
  6263  0DA1                     u2870:
  6264  0DA1                     l2270:
  6265  0DA1  01BE               	clrf	___awmod@counter
  6266  0DA2  0ABE               	incf	___awmod@counter,f
  6267  0DA3  2DAF               	goto	l2276
  6268  0DA4                     l2272:
  6269  0DA4  3001               	movlw	1
  6270  0DA5                     u2885:
  6271  0DA5  1003               	clrc
  6272  0DA6  0DBA               	rlf	___awmod@divisor,f
  6273  0DA7  0DBB               	rlf	___awmod@divisor+1,f
  6274  0DA8  3EFF               	addlw	-1
  6275  0DA9  1D03               	skipz
  6276  0DAA  2DA5               	goto	u2885
  6277  0DAB                     l2274:
  6278  0DAB  3001               	movlw	1
  6279  0DAC  00FF               	movwf	btemp+1
  6280  0DAD  087F               	movf	btemp+1,w
  6281  0DAE  07BE               	addwf	___awmod@counter,f
  6282  0DAF                     l2276:
  6283  0DAF  1FBB               	btfss	___awmod@divisor+1,7
  6284  0DB0  2DB2               	goto	u2891
  6285  0DB1  2DB3               	goto	u2890
  6286  0DB2                     u2891:
  6287  0DB2  2DA4               	goto	l2272
  6288  0DB3                     u2890:
  6289  0DB3                     l2278:
  6290  0DB3  083B               	movf	___awmod@divisor+1,w
  6291  0DB4  023D               	subwf	___awmod@dividend+1,w
  6292  0DB5  1D03               	skipz
  6293  0DB6  2DB9               	goto	u2905
  6294  0DB7  083A               	movf	___awmod@divisor,w
  6295  0DB8  023C               	subwf	___awmod@dividend,w
  6296  0DB9                     u2905:
  6297  0DB9  1C03               	skipc
  6298  0DBA  2DBC               	goto	u2901
  6299  0DBB  2DBD               	goto	u2900
  6300  0DBC                     u2901:
  6301  0DBC  2DC3               	goto	l2282
  6302  0DBD                     u2900:
  6303  0DBD                     l2280:
  6304  0DBD  083A               	movf	___awmod@divisor,w
  6305  0DBE  02BC               	subwf	___awmod@dividend,f
  6306  0DBF  083B               	movf	___awmod@divisor+1,w
  6307  0DC0  1C03               	skipc
  6308  0DC1  03BD               	decf	___awmod@dividend+1,f
  6309  0DC2  02BD               	subwf	___awmod@dividend+1,f
  6310  0DC3                     l2282:
  6311  0DC3  3001               	movlw	1
  6312  0DC4                     u2915:
  6313  0DC4  1003               	clrc
  6314  0DC5  0CBB               	rrf	___awmod@divisor+1,f
  6315  0DC6  0CBA               	rrf	___awmod@divisor,f
  6316  0DC7  3EFF               	addlw	-1
  6317  0DC8  1D03               	skipz
  6318  0DC9  2DC4               	goto	u2915
  6319  0DCA                     l2284:
  6320  0DCA  3001               	movlw	1
  6321  0DCB  02BE               	subwf	___awmod@counter,f
  6322  0DCC  1D03               	btfss	3,2
  6323  0DCD  2DCF               	goto	u2921
  6324  0DCE  2DD0               	goto	u2920
  6325  0DCF                     u2921:
  6326  0DCF  2DB3               	goto	l2278
  6327  0DD0                     u2920:
  6328  0DD0                     l2286:
  6329  0DD0  083F               	movf	___awmod@sign,w
  6330  0DD1  1903               	btfsc	3,2
  6331  0DD2  2DD4               	goto	u2931
  6332  0DD3  2DD5               	goto	u2930
  6333  0DD4                     u2931:
  6334  0DD4  2DDA               	goto	l2290
  6335  0DD5                     u2930:
  6336  0DD5                     l2288:
  6337  0DD5  09BC               	comf	___awmod@dividend,f
  6338  0DD6  09BD               	comf	___awmod@dividend+1,f
  6339  0DD7  0ABC               	incf	___awmod@dividend,f
  6340  0DD8  1903               	skipnz
  6341  0DD9  0ABD               	incf	___awmod@dividend+1,f
  6342  0DDA                     l2290:
  6343  0DDA  083D               	movf	___awmod@dividend+1,w
  6344  0DDB  00BB               	movwf	?___awmod+1
  6345  0DDC  083C               	movf	___awmod@dividend,w
  6346  0DDD  00BA               	movwf	?___awmod
  6347  0DDE                     l638:
  6348  0DDE  0008               	return
  6349  0DDF                     __end_of___awmod:
  6350                           
  6351                           	psect	text26
  6352  0EAD                     __ptext26:	
  6353 ;; *************** function ___awdiv *****************
  6354 ;; Defined at:
  6355 ;;		line 5 in file "C:\Program Files (x86)\Microchip\xc8\v2.20\pic\sources\c90\common\awdiv.c"
  6356 ;; Parameters:    Size  Location     Type
  6357 ;;  divisor         2   26[BANK0 ] int 
  6358 ;;  dividend        2   28[BANK0 ] int 
  6359 ;; Auto vars:     Size  Location     Type
  6360 ;;  quotient        2   32[BANK0 ] int 
  6361 ;;  sign            1   31[BANK0 ] unsigned char 
  6362 ;;  counter         1   30[BANK0 ] unsigned char 
  6363 ;; Return value:  Size  Location     Type
  6364 ;;                  2   26[BANK0 ] int 
  6365 ;; Registers used:
  6366 ;;		wreg, status,2, status,0, btemp+1
  6367 ;; Tracked objects:
  6368 ;;		On entry : 0/0
  6369 ;;		On exit  : 0/0
  6370 ;;		Unchanged: 0/0
  6371 ;; Data sizes:     COMMON   BANK0   BANK1   BANK3   BANK2
  6372 ;;      Params:         0       4       0       0       0
  6373 ;;      Locals:         0       4       0       0       0
  6374 ;;      Temps:          0       0       0       0       0
  6375 ;;      Totals:         0       8       0       0       0
  6376 ;;Total ram usage:        8 bytes
  6377 ;; Hardware stack levels used:    1
  6378 ;; Hardware stack levels required when called:    4
  6379 ;; This function calls:
  6380 ;;		Nothing
  6381 ;; This function is called by:
  6382 ;;		_Display_MainFunction
  6383 ;; This function uses a non-reentrant model
  6384 ;;
  6385                           
  6386                           
  6387                           ;psect for function ___awdiv
  6388  0EAD                     ___awdiv:
  6389  0EAD                     l2212:	
  6390                           ;incstack = 0
  6391                           ; Regs used in ___awdiv: [wreg+status,2+status,0+btemp+1]
  6392                           
  6393  0EAD  1283               	bcf	3,5	;RP0=0, select bank0
  6394  0EAE  1303               	bcf	3,6	;RP1=0, select bank0
  6395  0EAF  01BF               	clrf	___awdiv@sign
  6396  0EB0                     l2214:
  6397  0EB0  1FBB               	btfss	___awdiv@divisor+1,7
  6398  0EB1  2EB3               	goto	u2751
  6399  0EB2  2EB4               	goto	u2750
  6400  0EB3                     u2751:
  6401  0EB3  2EBB               	goto	l2220
  6402  0EB4                     u2750:
  6403  0EB4                     l2216:
  6404  0EB4  09BA               	comf	___awdiv@divisor,f
  6405  0EB5  09BB               	comf	___awdiv@divisor+1,f
  6406  0EB6  0ABA               	incf	___awdiv@divisor,f
  6407  0EB7  1903               	skipnz
  6408  0EB8  0ABB               	incf	___awdiv@divisor+1,f
  6409  0EB9                     l2218:
  6410  0EB9  01BF               	clrf	___awdiv@sign
  6411  0EBA  0ABF               	incf	___awdiv@sign,f
  6412  0EBB                     l2220:
  6413  0EBB  1FBD               	btfss	___awdiv@dividend+1,7
  6414  0EBC  2EBE               	goto	u2761
  6415  0EBD  2EBF               	goto	u2760
  6416  0EBE                     u2761:
  6417  0EBE  2EC8               	goto	l2226
  6418  0EBF                     u2760:
  6419  0EBF                     l2222:
  6420  0EBF  09BC               	comf	___awdiv@dividend,f
  6421  0EC0  09BD               	comf	___awdiv@dividend+1,f
  6422  0EC1  0ABC               	incf	___awdiv@dividend,f
  6423  0EC2  1903               	skipnz
  6424  0EC3  0ABD               	incf	___awdiv@dividend+1,f
  6425  0EC4                     l2224:
  6426  0EC4  3001               	movlw	1
  6427  0EC5  00FF               	movwf	btemp+1
  6428  0EC6  087F               	movf	btemp+1,w
  6429  0EC7  06BF               	xorwf	___awdiv@sign,f
  6430  0EC8                     l2226:
  6431  0EC8  01C0               	clrf	___awdiv@quotient
  6432  0EC9  01C1               	clrf	___awdiv@quotient+1
  6433  0ECA                     l2228:
  6434  0ECA  083A               	movf	___awdiv@divisor,w
  6435  0ECB  043B               	iorwf	___awdiv@divisor+1,w
  6436  0ECC  1903               	btfsc	3,2
  6437  0ECD  2ECF               	goto	u2771
  6438  0ECE  2ED0               	goto	u2770
  6439  0ECF                     u2771:
  6440  0ECF  2F07               	goto	l2248
  6441  0ED0                     u2770:
  6442  0ED0                     l2230:
  6443  0ED0  01BE               	clrf	___awdiv@counter
  6444  0ED1  0ABE               	incf	___awdiv@counter,f
  6445  0ED2  2EDE               	goto	l2236
  6446  0ED3                     l2232:
  6447  0ED3  3001               	movlw	1
  6448  0ED4                     u2785:
  6449  0ED4  1003               	clrc
  6450  0ED5  0DBA               	rlf	___awdiv@divisor,f
  6451  0ED6  0DBB               	rlf	___awdiv@divisor+1,f
  6452  0ED7  3EFF               	addlw	-1
  6453  0ED8  1D03               	skipz
  6454  0ED9  2ED4               	goto	u2785
  6455  0EDA                     l2234:
  6456  0EDA  3001               	movlw	1
  6457  0EDB  00FF               	movwf	btemp+1
  6458  0EDC  087F               	movf	btemp+1,w
  6459  0EDD  07BE               	addwf	___awdiv@counter,f
  6460  0EDE                     l2236:
  6461  0EDE  1FBB               	btfss	___awdiv@divisor+1,7
  6462  0EDF  2EE1               	goto	u2791
  6463  0EE0  2EE2               	goto	u2790
  6464  0EE1                     u2791:
  6465  0EE1  2ED3               	goto	l2232
  6466  0EE2                     u2790:
  6467  0EE2                     l2238:
  6468  0EE2  3001               	movlw	1
  6469  0EE3                     u2805:
  6470  0EE3  1003               	clrc
  6471  0EE4  0DC0               	rlf	___awdiv@quotient,f
  6472  0EE5  0DC1               	rlf	___awdiv@quotient+1,f
  6473  0EE6  3EFF               	addlw	-1
  6474  0EE7  1D03               	skipz
  6475  0EE8  2EE3               	goto	u2805
  6476  0EE9  083B               	movf	___awdiv@divisor+1,w
  6477  0EEA  023D               	subwf	___awdiv@dividend+1,w
  6478  0EEB  1D03               	skipz
  6479  0EEC  2EEF               	goto	u2815
  6480  0EED  083A               	movf	___awdiv@divisor,w
  6481  0EEE  023C               	subwf	___awdiv@dividend,w
  6482  0EEF                     u2815:
  6483  0EEF  1C03               	skipc
  6484  0EF0  2EF2               	goto	u2811
  6485  0EF1  2EF3               	goto	u2810
  6486  0EF2                     u2811:
  6487  0EF2  2EFA               	goto	l2244
  6488  0EF3                     u2810:
  6489  0EF3                     l2240:
  6490  0EF3  083A               	movf	___awdiv@divisor,w
  6491  0EF4  02BC               	subwf	___awdiv@dividend,f
  6492  0EF5  083B               	movf	___awdiv@divisor+1,w
  6493  0EF6  1C03               	skipc
  6494  0EF7  03BD               	decf	___awdiv@dividend+1,f
  6495  0EF8  02BD               	subwf	___awdiv@dividend+1,f
  6496  0EF9                     l2242:
  6497  0EF9  1440               	bsf	___awdiv@quotient,0
  6498  0EFA                     l2244:
  6499  0EFA  3001               	movlw	1
  6500  0EFB                     u2825:
  6501  0EFB  1003               	clrc
  6502  0EFC  0CBB               	rrf	___awdiv@divisor+1,f
  6503  0EFD  0CBA               	rrf	___awdiv@divisor,f
  6504  0EFE  3EFF               	addlw	-1
  6505  0EFF  1D03               	skipz
  6506  0F00  2EFB               	goto	u2825
  6507  0F01                     l2246:
  6508  0F01  3001               	movlw	1
  6509  0F02  02BE               	subwf	___awdiv@counter,f
  6510  0F03  1D03               	btfss	3,2
  6511  0F04  2F06               	goto	u2831
  6512  0F05  2F07               	goto	u2830
  6513  0F06                     u2831:
  6514  0F06  2EE2               	goto	l2238
  6515  0F07                     u2830:
  6516  0F07                     l2248:
  6517  0F07  083F               	movf	___awdiv@sign,w
  6518  0F08  1903               	btfsc	3,2
  6519  0F09  2F0B               	goto	u2841
  6520  0F0A  2F0C               	goto	u2840
  6521  0F0B                     u2841:
  6522  0F0B  2F11               	goto	l2252
  6523  0F0C                     u2840:
  6524  0F0C                     l2250:
  6525  0F0C  09C0               	comf	___awdiv@quotient,f
  6526  0F0D  09C1               	comf	___awdiv@quotient+1,f
  6527  0F0E  0AC0               	incf	___awdiv@quotient,f
  6528  0F0F  1903               	skipnz
  6529  0F10  0AC1               	incf	___awdiv@quotient+1,f
  6530  0F11                     l2252:
  6531  0F11  0841               	movf	___awdiv@quotient+1,w
  6532  0F12  00BB               	movwf	?___awdiv+1
  6533  0F13  0840               	movf	___awdiv@quotient,w
  6534  0F14  00BA               	movwf	?___awdiv
  6535  0F15                     l625:
  6536  0F15  0008               	return
  6537  0F16                     __end_of___awdiv:
  6538                           
  6539                           	psect	text27
  6540  0C91                     __ptext27:	
  6541 ;; *************** function _Display_Blink *****************
  6542 ;; Defined at:
  6543 ;;		line 135 in file "Display/Display.c"
  6544 ;; Parameters:    Size  Location     Type
  6545 ;;  Times_Ms        2    0[BANK1 ] unsigned int 
  6546 ;;  Task_Peroid     2    2[BANK1 ] unsigned int 
  6547 ;; Auto vars:     Size  Location     Type
  6548 ;;		None
  6549 ;; Return value:  Size  Location     Type
  6550 ;;                  1    wreg      void 
  6551 ;; Registers used:
  6552 ;;		wreg, status,2, status,0, btemp+1, pclath, cstack
  6553 ;; Tracked objects:
  6554 ;;		On entry : 0/0
  6555 ;;		On exit  : 0/0
  6556 ;;		Unchanged: 0/0
  6557 ;; Data sizes:     COMMON   BANK0   BANK1   BANK3   BANK2
  6558 ;;      Params:         0       0       4       0       0
  6559 ;;      Locals:         0       0       0       0       0
  6560 ;;      Temps:          0       2       0       0       0
  6561 ;;      Totals:         0       2       4       0       0
  6562 ;;Total ram usage:        6 bytes
  6563 ;; Hardware stack levels used:    1
  6564 ;; Hardware stack levels required when called:    5
  6565 ;; This function calls:
  6566 ;;		___wmul
  6567 ;; This function is called by:
  6568 ;;		_Display_MainFunction
  6569 ;; This function uses a non-reentrant model
  6570 ;;
  6571                           
  6572                           
  6573                           ;psect for function _Display_Blink
  6574  0C91                     _Display_Blink:
  6575  0C91                     l2968:	
  6576                           ;incstack = 0
  6577 ;; hardware stack exceeded
  6578                           ; Regs used in _Display_Blink: [wreg+status,2+status,0+btemp+1+pclath+cstack]
  6579                           
  6580                           
  6581                           ;Display/Display.c: 135: void Display_Blink(uint16_t Times_Ms,uint16_t Task_Peroid);Disp
      +                          lay/Display.c: 136: {;Display/Display.c: 137:   uint8_t static Counter=1;;Display/Displa
      +                          y.c: 139:   if(Counter*Task_Peroid==Times_Ms)
  6582  0C91  1283               	bcf	3,5	;RP0=0, select bank0
  6583  0C92  1303               	bcf	3,6	;RP1=0, select bank0
  6584  0C93  0853               	movf	Display_Blink@Counter,w
  6585  0C94  00C0               	movwf	??_Display_Blink
  6586  0C95  01C1               	clrf	??_Display_Blink+1
  6587  0C96  0840               	movf	??_Display_Blink,w
  6588  0C97  00BA               	movwf	___wmul@multiplier
  6589  0C98  0841               	movf	??_Display_Blink+1,w
  6590  0C99  00BB               	movwf	___wmul@multiplier+1
  6591  0C9A  1683               	bsf	3,5	;RP0=1, select bank1
  6592  0C9B  1303               	bcf	3,6	;RP1=0, select bank1
  6593  0C9C  0823               	movf	(Display_Blink@Task_Peroid+1)^(0+128),w
  6594  0C9D  1283               	bcf	3,5	;RP0=0, select bank0
  6595  0C9E  1303               	bcf	3,6	;RP1=0, select bank0
  6596  0C9F  00BD               	movwf	___wmul@multiplicand+1
  6597  0CA0  1683               	bsf	3,5	;RP0=1, select bank1
  6598  0CA1  1303               	bcf	3,6	;RP1=0, select bank1
  6599  0CA2  0822               	movf	Display_Blink@Task_Peroid^(0+128),w
  6600  0CA3  1283               	bcf	3,5	;RP0=0, select bank0
  6601  0CA4  1303               	bcf	3,6	;RP1=0, select bank0
  6602  0CA5  00BC               	movwf	___wmul@multiplicand
  6603  0CA6  120A  158A  22E0  120A  158A  	fcall	___wmul
  6604  0CAB  1683               	bsf	3,5	;RP0=1, select bank1
  6605  0CAC  1303               	bcf	3,6	;RP1=0, select bank1
  6606  0CAD  0821               	movf	(Display_Blink@Times_Ms+1)^(0+128),w
  6607  0CAE  1283               	bcf	3,5	;RP0=0, select bank0
  6608  0CAF  1303               	bcf	3,6	;RP1=0, select bank0
  6609  0CB0  063B               	xorwf	?___wmul+1,w
  6610  0CB1  1D03               	skipz
  6611  0CB2  2CB9               	goto	u4285
  6612  0CB3  1683               	bsf	3,5	;RP0=1, select bank1
  6613  0CB4  1303               	bcf	3,6	;RP1=0, select bank1
  6614  0CB5  0820               	movf	Display_Blink@Times_Ms^(0+128),w
  6615  0CB6  1283               	bcf	3,5	;RP0=0, select bank0
  6616  0CB7  1303               	bcf	3,6	;RP1=0, select bank0
  6617  0CB8  063A               	xorwf	?___wmul,w
  6618  0CB9                     u4285:
  6619  0CB9  1D03               	skipz
  6620  0CBA  2CBC               	goto	u4281
  6621  0CBB  2CBD               	goto	u4280
  6622  0CBC                     u4281:
  6623  0CBC  2CD5               	goto	l2982
  6624  0CBD                     u4280:
  6625  0CBD                     l2970:
  6626                           
  6627                           ;Display/Display.c: 140:   {;Display/Display.c: 141:       if(Enable_Display==Enable_Dis
      +                          play_On)
  6628  0CBD  034C               	decf	_Enable_Display,w
  6629  0CBE  1D03               	btfss	3,2
  6630  0CBF  2CC1               	goto	u4291
  6631  0CC0  2CC2               	goto	u4290
  6632  0CC1                     u4291:
  6633  0CC1  2CCC               	goto	l2978
  6634  0CC2                     u4290:
  6635  0CC2                     l2972:
  6636                           
  6637                           ;Display/Display.c: 142:       {;Display/Display.c: 143:        Enable_Display=Enable_Di
      +                          splay_Off;
  6638  0CC2  01CC               	clrf	_Enable_Display
  6639  0CC3                     l2974:
  6640                           
  6641                           ;Display/Display.c: 144:         (PORTA &= ~(1<<5)) ;
  6642  0CC3  30DF               	movlw	223
  6643  0CC4  00FF               	movwf	btemp+1
  6644  0CC5  087F               	movf	btemp+1,w
  6645  0CC6  0585               	andwf	5,f	;volatile
  6646  0CC7                     l2976:
  6647                           
  6648                           ;Display/Display.c: 145:         (PORTA &= ~(1<<4)) ;
  6649  0CC7  30EF               	movlw	239
  6650  0CC8  00FF               	movwf	btemp+1
  6651  0CC9  087F               	movf	btemp+1,w
  6652  0CCA  0585               	andwf	5,f	;volatile
  6653                           
  6654                           ;Display/Display.c: 147:       }
  6655  0CCB  2CD3               	goto	l163
  6656  0CCC                     l2978:
  6657  0CCC  084C               	movf	_Enable_Display,w
  6658  0CCD  1D03               	btfss	3,2
  6659  0CCE  2CD0               	goto	u4301
  6660  0CCF  2CD1               	goto	u4300
  6661  0CD0                     u4301:
  6662  0CD0  2CD3               	goto	l163
  6663  0CD1                     u4300:
  6664  0CD1                     l2980:
  6665                           
  6666                           ;Display/Display.c: 149:       {;Display/Display.c: 150:        Enable_Display=Enable_Di
      +                          splay_On;
  6667  0CD1  01CC               	clrf	_Enable_Display
  6668  0CD2  0ACC               	incf	_Enable_Display,f
  6669  0CD3                     l163:
  6670                           
  6671                           ;Display/Display.c: 152:       Counter=1;
  6672  0CD3  01D3               	clrf	Display_Blink@Counter
  6673  0CD4  0AD3               	incf	Display_Blink@Counter,f
  6674  0CD5                     l2982:
  6675                           
  6676                           ;Display/Display.c: 154:   Counter++;
  6677  0CD5  3001               	movlw	1
  6678  0CD6  00FF               	movwf	btemp+1
  6679  0CD7  087F               	movf	btemp+1,w
  6680  0CD8  07D3               	addwf	Display_Blink@Counter,f
  6681  0CD9                     l165:
  6682  0CD9  0008               	return
  6683  0CDA                     __end_of_Display_Blink:
  6684                           
  6685                           	psect	text28
  6686  0AE0                     __ptext28:	
  6687 ;; *************** function ___wmul *****************
  6688 ;; Defined at:
  6689 ;;		line 15 in file "C:\Program Files (x86)\Microchip\xc8\v2.20\pic\sources\c90\common\Umul16.c"
  6690 ;; Parameters:    Size  Location     Type
  6691 ;;  multiplier      2   26[BANK0 ] unsigned int 
  6692 ;;  multiplicand    2   28[BANK0 ] unsigned int 
  6693 ;; Auto vars:     Size  Location     Type
  6694 ;;  product         2   30[BANK0 ] unsigned int 
  6695 ;; Return value:  Size  Location     Type
  6696 ;;                  2   26[BANK0 ] unsigned int 
  6697 ;; Registers used:
  6698 ;;		wreg, status,2, status,0
  6699 ;; Tracked objects:
  6700 ;;		On entry : 0/0
  6701 ;;		On exit  : 0/0
  6702 ;;		Unchanged: 0/0
  6703 ;; Data sizes:     COMMON   BANK0   BANK1   BANK3   BANK2
  6704 ;;      Params:         0       4       0       0       0
  6705 ;;      Locals:         0       2       0       0       0
  6706 ;;      Temps:          0       0       0       0       0
  6707 ;;      Totals:         0       6       0       0       0
  6708 ;;Total ram usage:        6 bytes
  6709 ;; Hardware stack levels used:    1
  6710 ;; Hardware stack levels required when called:    4
  6711 ;; This function calls:
  6712 ;;		Nothing
  6713 ;; This function is called by:
  6714 ;;		_Display_Blink
  6715 ;;		_LED_BLINKING
  6716 ;;		_Start_Setting_Timer
  6717 ;; This function uses a non-reentrant model
  6718 ;;
  6719                           
  6720                           
  6721                           ;psect for function ___wmul
  6722  0AE0                     ___wmul:
  6723  0AE0                     l2152:	
  6724                           ;incstack = 0
  6725 ;; hardware stack exceeded
  6726                           ; Regs used in ___wmul: [wreg+status,2+status,0]
  6727                           
  6728  0AE0  1283               	bcf	3,5	;RP0=0, select bank0
  6729  0AE1  1303               	bcf	3,6	;RP1=0, select bank0
  6730  0AE2  01BE               	clrf	___wmul@product
  6731  0AE3  01BF               	clrf	___wmul@product+1
  6732  0AE4                     l2154:
  6733  0AE4  1C3A               	btfss	___wmul@multiplier,0
  6734  0AE5  2AE7               	goto	u2601
  6735  0AE6  2AE8               	goto	u2600
  6736  0AE7                     u2601:
  6737  0AE7  2AEE               	goto	l472
  6738  0AE8                     u2600:
  6739  0AE8                     l2156:
  6740  0AE8  083C               	movf	___wmul@multiplicand,w
  6741  0AE9  07BE               	addwf	___wmul@product,f
  6742  0AEA  1803               	skipnc
  6743  0AEB  0ABF               	incf	___wmul@product+1,f
  6744  0AEC  083D               	movf	___wmul@multiplicand+1,w
  6745  0AED  07BF               	addwf	___wmul@product+1,f
  6746  0AEE                     l472:
  6747  0AEE  3001               	movlw	1
  6748  0AEF                     u2615:
  6749  0AEF  1003               	clrc
  6750  0AF0  0DBC               	rlf	___wmul@multiplicand,f
  6751  0AF1  0DBD               	rlf	___wmul@multiplicand+1,f
  6752  0AF2  3EFF               	addlw	-1
  6753  0AF3  1D03               	skipz
  6754  0AF4  2AEF               	goto	u2615
  6755  0AF5                     l2158:
  6756  0AF5  3001               	movlw	1
  6757  0AF6                     u2625:
  6758  0AF6  1003               	clrc
  6759  0AF7  0CBB               	rrf	___wmul@multiplier+1,f
  6760  0AF8  0CBA               	rrf	___wmul@multiplier,f
  6761  0AF9  3EFF               	addlw	-1
  6762  0AFA  1D03               	skipz
  6763  0AFB  2AF6               	goto	u2625
  6764  0AFC                     l2160:
  6765  0AFC  083A               	movf	___wmul@multiplier,w
  6766  0AFD  043B               	iorwf	___wmul@multiplier+1,w
  6767  0AFE  1D03               	btfss	3,2
  6768  0AFF  2B01               	goto	u2631
  6769  0B00  2B02               	goto	u2630
  6770  0B01                     u2631:
  6771  0B01  2AE4               	goto	l2154
  6772  0B02                     u2630:
  6773  0B02                     l2162:
  6774  0B02  083F               	movf	___wmul@product+1,w
  6775  0B03  00BB               	movwf	?___wmul+1
  6776  0B04  083E               	movf	___wmul@product,w
  6777  0B05  00BA               	movwf	?___wmul
  6778  0B06                     l474:
  6779  0B06  0008               	return
  6780  0B07                     __end_of___wmul:
  6781                           
  6782                           	psect	text29
  6783  0998                     __ptext29:	
  6784 ;; *************** function _Scheduler_Init *****************
  6785 ;; Defined at:
  6786 ;;		line 29 in file "Scheduler/Scheduler.c"
  6787 ;; Parameters:    Size  Location     Type
  6788 ;;		None
  6789 ;; Auto vars:     Size  Location     Type
  6790 ;;		None
  6791 ;; Return value:  Size  Location     Type
  6792 ;;                  1    wreg      void 
  6793 ;; Registers used:
  6794 ;;		wreg, fsr0l, fsr0h, status,2, status,0, btemp+1, pclath, cstack
  6795 ;; Tracked objects:
  6796 ;;		On entry : 0/0
  6797 ;;		On exit  : 0/0
  6798 ;;		Unchanged: 0/0
  6799 ;; Data sizes:     COMMON   BANK0   BANK1   BANK3   BANK2
  6800 ;;      Params:         0       0       0       0       0
  6801 ;;      Locals:         0       0       0       0       0
  6802 ;;      Temps:          0       0       0       0       0
  6803 ;;      Totals:         0       0       0       0       0
  6804 ;;Total ram usage:        0 bytes
  6805 ;; Hardware stack levels used:    1
  6806 ;; Hardware stack levels required when called:    5
  6807 ;; This function calls:
  6808 ;;		_memset
  6809 ;; This function is called by:
  6810 ;;		_main
  6811 ;; This function uses a non-reentrant model
  6812 ;;
  6813                           
  6814                           
  6815                           ;psect for function _Scheduler_Init
  6816  0998                     _Scheduler_Init:
  6817  0998                     l3156:	
  6818                           ;incstack = 0
  6819                           ; Regs used in _Scheduler_Init: [wreg-fsr0h+status,2+status,0+btemp+1+pclath+cstack]
  6820                           
  6821                           
  6822                           ;Scheduler/Scheduler.c: 31:   memset( Scheduler_ActivationFlags , 0 , sizeof( Scheduler_
      +                          ActivationFlags ) );
  6823  0998  3000               	movlw	0
  6824  0999  1283               	bcf	3,5	;RP0=0, select bank0
  6825  099A  1303               	bcf	3,6	;RP1=0, select bank0
  6826  099B  00BA               	movwf	memset@c
  6827  099C  00BB               	movwf	memset@c+1
  6828  099D  3003               	movlw	3
  6829  099E  00BC               	movwf	memset@n
  6830  099F  3000               	movlw	0
  6831  09A0  00BD               	movwf	memset@n+1
  6832  09A1  30D5               	movlw	(low (_Scheduler_ActivationFlags| 0))& (0+255)
  6833  09A2  120A  158A  2274  120A  158A  	fcall	_memset
  6834  09A7                     l288:
  6835  09A7  0008               	return
  6836  09A8                     __end_of_Scheduler_Init:
  6837                           
  6838                           	psect	text30
  6839  0A74                     __ptext30:	
  6840 ;; *************** function _memset *****************
  6841 ;; Defined at:
  6842 ;;		line 8 in file "C:\Program Files (x86)\Microchip\xc8\v2.20\pic\sources\c90\common\memset.c"
  6843 ;; Parameters:    Size  Location     Type
  6844 ;;  p1              1    wreg     PTR void 
  6845 ;;		 -> Scheduler_ActivationFlags(3), 
  6846 ;;  c               2   26[BANK0 ] int 
  6847 ;;  n               2   28[BANK0 ] unsigned int 
  6848 ;; Auto vars:     Size  Location     Type
  6849 ;;  p1              1   31[BANK0 ] PTR void 
  6850 ;;		 -> Scheduler_ActivationFlags(3), 
  6851 ;;  p               1   30[BANK0 ] PTR unsigned char 
  6852 ;;		 -> Scheduler_ActivationFlags(3), 
  6853 ;; Return value:  Size  Location     Type
  6854 ;;                  1    wreg      PTR void 
  6855 ;; Registers used:
  6856 ;;		wreg, fsr0l, fsr0h, status,2, status,0, btemp+1
  6857 ;; Tracked objects:
  6858 ;;		On entry : 0/0
  6859 ;;		On exit  : 0/0
  6860 ;;		Unchanged: 0/0
  6861 ;; Data sizes:     COMMON   BANK0   BANK1   BANK3   BANK2
  6862 ;;      Params:         0       4       0       0       0
  6863 ;;      Locals:         0       2       0       0       0
  6864 ;;      Temps:          0       0       0       0       0
  6865 ;;      Totals:         0       6       0       0       0
  6866 ;;Total ram usage:        6 bytes
  6867 ;; Hardware stack levels used:    1
  6868 ;; Hardware stack levels required when called:    4
  6869 ;; This function calls:
  6870 ;;		Nothing
  6871 ;; This function is called by:
  6872 ;;		_Scheduler_Init
  6873 ;; This function uses a non-reentrant model
  6874 ;;
  6875                           
  6876                           
  6877                           ;psect for function _memset
  6878  0A74                     _memset:
  6879                           
  6880                           ;incstack = 0
  6881                           ; Regs used in _memset: [wreg-fsr0h+status,2+status,0+btemp+1]
  6882                           ;memset@p1 stored from wreg
  6883  0A74  1283               	bcf	3,5	;RP0=0, select bank0
  6884  0A75  1303               	bcf	3,6	;RP1=0, select bank0
  6885  0A76  00BF               	movwf	memset@p1
  6886  0A77                     l3124:
  6887  0A77  083F               	movf	memset@p1,w
  6888  0A78  00FF               	movwf	btemp+1
  6889  0A79  087F               	movf	btemp+1,w
  6890  0A7A  00BE               	movwf	memset@p
  6891  0A7B  2A87               	goto	l3130
  6892  0A7C                     l3126:
  6893  0A7C  083A               	movf	memset@c,w
  6894  0A7D  00FF               	movwf	btemp+1
  6895  0A7E  083E               	movf	memset@p,w
  6896  0A7F  0084               	movwf	4
  6897  0A80  087F               	movf	btemp+1,w
  6898  0A81  1383               	bcf	3,7	;select IRP bank0
  6899  0A82  0080               	movwf	0
  6900  0A83                     l3128:
  6901  0A83  3001               	movlw	1
  6902  0A84  00FF               	movwf	btemp+1
  6903  0A85  087F               	movf	btemp+1,w
  6904  0A86  07BE               	addwf	memset@p,f
  6905  0A87                     l3130:
  6906  0A87  3001               	movlw	1
  6907  0A88  02BC               	subwf	memset@n,f
  6908  0A89  3000               	movlw	0
  6909  0A8A  1C03               	skipc
  6910  0A8B  03BD               	decf	memset@n+1,f
  6911  0A8C  02BD               	subwf	memset@n+1,f
  6912  0A8D  0A3C               	incf	memset@n,w
  6913  0A8E  1D03               	skipz
  6914  0A8F  2A94               	goto	u4621
  6915  0A90  0A3D               	incf	memset@n+1,w
  6916  0A91  1D03               	btfss	3,2
  6917  0A92  2A94               	goto	u4621
  6918  0A93  2A95               	goto	u4620
  6919  0A94                     u4621:
  6920  0A94  2A7C               	goto	l3126
  6921  0A95                     u4620:
  6922  0A95                     l926:
  6923  0A95  0008               	return
  6924  0A96                     __end_of_memset:
  6925                           
  6926                           	psect	text31
  6927  0921                     __ptext31:	
  6928 ;; *************** function _On_Off_Init *****************
  6929 ;; Defined at:
  6930 ;;		line 12 in file "Buttons/Buttons.c"
  6931 ;; Parameters:    Size  Location     Type
  6932 ;;		None
  6933 ;; Auto vars:     Size  Location     Type
  6934 ;;		None
  6935 ;; Return value:  Size  Location     Type
  6936 ;;                  1    wreg      void 
  6937 ;; Registers used:
  6938 ;;		None
  6939 ;; Tracked objects:
  6940 ;;		On entry : 0/0
  6941 ;;		On exit  : 0/0
  6942 ;;		Unchanged: 0/0
  6943 ;; Data sizes:     COMMON   BANK0   BANK1   BANK3   BANK2
  6944 ;;      Params:         0       0       0       0       0
  6945 ;;      Locals:         0       0       0       0       0
  6946 ;;      Temps:          0       0       0       0       0
  6947 ;;      Totals:         0       0       0       0       0
  6948 ;;Total ram usage:        0 bytes
  6949 ;; Hardware stack levels used:    1
  6950 ;; Hardware stack levels required when called:    4
  6951 ;; This function calls:
  6952 ;;		Nothing
  6953 ;; This function is called by:
  6954 ;;		_main
  6955 ;; This function uses a non-reentrant model
  6956 ;;
  6957                           
  6958                           
  6959                           ;psect for function _On_Off_Init
  6960  0921                     _On_Off_Init:
  6961  0921                     l2582:	
  6962                           ;incstack = 0
  6963                           ; Regs used in _On_Off_Init: []
  6964                           
  6965                           
  6966                           ;Buttons/Buttons.c: 15:     TRISBbits.TRISB0=1;
  6967  0921  1683               	bsf	3,5	;RP0=1, select bank1
  6968  0922  1303               	bcf	3,6	;RP1=0, select bank1
  6969  0923  1406               	bsf	6,0	;volatile
  6970                           
  6971                           ;Buttons/Buttons.c: 16:     INTCONbits.INTE=1;
  6972  0924  160B               	bsf	11,4	;volatile
  6973                           
  6974                           ;Buttons/Buttons.c: 17:     INTCONbits.INTF=0;
  6975  0925  108B               	bcf	11,1	;volatile
  6976                           
  6977                           ;Buttons/Buttons.c: 18:     INTEDG=1;
  6978  0926  1701               	bsf	1,6	;volatile
  6979  0927                     l91:
  6980  0927  0008               	return
  6981  0928                     __end_of_On_Off_Init:
  6982                           
  6983                           	psect	text32
  6984  0946                     __ptext32:	
  6985 ;; *************** function _Mode_Init *****************
  6986 ;; Defined at:
  6987 ;;		line 16 in file "WaterHeater_Mode/WaterHeater_Mode.c"
  6988 ;; Parameters:    Size  Location     Type
  6989 ;;		None
  6990 ;; Auto vars:     Size  Location     Type
  6991 ;;		None
  6992 ;; Return value:  Size  Location     Type
  6993 ;;                  1    wreg      void 
  6994 ;; Registers used:
  6995 ;;		wreg, status,2, btemp+1
  6996 ;; Tracked objects:
  6997 ;;		On entry : 0/0
  6998 ;;		On exit  : 0/0
  6999 ;;		Unchanged: 0/0
  7000 ;; Data sizes:     COMMON   BANK0   BANK1   BANK3   BANK2
  7001 ;;      Params:         0       0       0       0       0
  7002 ;;      Locals:         0       0       0       0       0
  7003 ;;      Temps:          0       0       0       0       0
  7004 ;;      Totals:         0       0       0       0       0
  7005 ;;Total ram usage:        0 bytes
  7006 ;; Hardware stack levels used:    1
  7007 ;; Hardware stack levels required when called:    4
  7008 ;; This function calls:
  7009 ;;		Nothing
  7010 ;; This function is called by:
  7011 ;;		_main
  7012 ;; This function uses a non-reentrant model
  7013 ;;
  7014                           
  7015                           
  7016                           ;psect for function _Mode_Init
  7017  0946                     _Mode_Init:
  7018  0946                     l2590:	
  7019                           ;incstack = 0
  7020                           ; Regs used in _Mode_Init: [wreg+status,2+btemp+1]
  7021                           
  7022                           
  7023                           ;WaterHeater_Mode/WaterHeater_Mode.c: 19:  Mode.Select_Mode=Off_Mode;
  7024  0946  1683               	bsf	3,5	;RP0=1, select bank1
  7025  0947  1303               	bcf	3,6	;RP1=0, select bank1
  7026  0948  01D2               	clrf	_Mode^(0+128)
  7027  0949                     l2592:
  7028                           
  7029                           ;WaterHeater_Mode/WaterHeater_Mode.c: 20:  Mode.Setting_Mode_Timer=1;
  7030  0949  01D3               	clrf	(_Mode^(0+128)+1)
  7031  094A  0AD3               	incf	(_Mode^(0+128)+1),f
  7032  094B                     l2594:
  7033                           
  7034                           ;WaterHeater_Mode/WaterHeater_Mode.c: 22:  Temperature.Set_Temp=(60U);
  7035  094B  303C               	movlw	60
  7036  094C  00FF               	movwf	btemp+1
  7037  094D  087F               	movf	btemp+1,w
  7038  094E  1283               	bcf	3,5	;RP0=0, select bank0
  7039  094F  1303               	bcf	3,6	;RP1=0, select bank0
  7040  0950  00CF               	movwf	_Temperature+2
  7041  0951                     l370:
  7042  0951  0008               	return
  7043  0952                     __end_of_Mode_Init:
  7044                           
  7045                           	psect	text33
  7046  0A55                     __ptext33:	
  7047 ;; *************** function _GPIO_Init *****************
  7048 ;; Defined at:
  7049 ;;		line 12 in file "gpio/gpio.c"
  7050 ;; Parameters:    Size  Location     Type
  7051 ;;		None
  7052 ;; Auto vars:     Size  Location     Type
  7053 ;;		None
  7054 ;; Return value:  Size  Location     Type
  7055 ;;                  1    wreg      void 
  7056 ;; Registers used:
  7057 ;;		wreg, status,2, status,0, btemp+1
  7058 ;; Tracked objects:
  7059 ;;		On entry : 0/0
  7060 ;;		On exit  : 0/0
  7061 ;;		Unchanged: 0/0
  7062 ;; Data sizes:     COMMON   BANK0   BANK1   BANK3   BANK2
  7063 ;;      Params:         0       0       0       0       0
  7064 ;;      Locals:         0       0       0       0       0
  7065 ;;      Temps:          0       0       0       0       0
  7066 ;;      Totals:         0       0       0       0       0
  7067 ;;Total ram usage:        0 bytes
  7068 ;; Hardware stack levels used:    1
  7069 ;; Hardware stack levels required when called:    4
  7070 ;; This function calls:
  7071 ;;		Nothing
  7072 ;; This function is called by:
  7073 ;;		_main
  7074 ;; This function uses a non-reentrant model
  7075 ;;
  7076                           
  7077                           
  7078                           ;psect for function _GPIO_Init
  7079  0A55                     _GPIO_Init:
  7080  0A55                     l2560:	
  7081                           ;incstack = 0
  7082                           ; Regs used in _GPIO_Init: [wreg+status,2+status,0+btemp+1]
  7083                           
  7084  0A55  30DF               	movlw	223
  7085  0A56  00FF               	movwf	btemp+1
  7086  0A57  087F               	movf	btemp+1,w
  7087  0A58  1683               	bsf	3,5	;RP0=1, select bank1
  7088  0A59  1303               	bcf	3,6	;RP1=0, select bank1
  7089  0A5A  0587               	andwf	7,f	;volatile
  7090  0A5B                     l2562:
  7091  0A5B  30FB               	movlw	251
  7092  0A5C  00FF               	movwf	btemp+1
  7093  0A5D  087F               	movf	btemp+1,w
  7094  0A5E  0587               	andwf	7,f	;volatile
  7095  0A5F                     l2564:
  7096  0A5F  30EF               	movlw	239
  7097  0A60  00FF               	movwf	btemp+1
  7098  0A61  087F               	movf	btemp+1,w
  7099  0A62  0586               	andwf	6,f	;volatile
  7100  0A63                     l2566:
  7101  0A63  30DF               	movlw	223
  7102  0A64  00FF               	movwf	btemp+1
  7103  0A65  087F               	movf	btemp+1,w
  7104  0A66  0585               	andwf	5,f	;volatile
  7105  0A67                     l2568:
  7106  0A67  30EF               	movlw	239
  7107  0A68  00FF               	movwf	btemp+1
  7108  0A69  087F               	movf	btemp+1,w
  7109  0A6A  0585               	andwf	5,f	;volatile
  7110  0A6B                     l235:
  7111  0A6B  1486               	bsf	6,1	;volatile
  7112  0A6C                     l239:
  7113  0A6C  1506               	bsf	6,2	;volatile
  7114  0A6D                     l2574:
  7115  0A6D  30F7               	movlw	247
  7116  0A6E  00FF               	movwf	btemp+1
  7117  0A6F  087F               	movf	btemp+1,w
  7118  0A70  0587               	andwf	7,f	;volatile
  7119  0A71                     l247:
  7120  0A71  1607               	bsf	7,4	;volatile
  7121  0A72                     l2578:
  7122  0A72  0188               	clrf	8	;volatile
  7123  0A73                     l254:
  7124  0A73  0008               	return
  7125  0A74                     __end_of_GPIO_Init:
  7126                           
  7127                           	psect	text34
  7128  097A                     __ptext34:	
  7129 ;; *************** function _Elements_Init *****************
  7130 ;; Defined at:
  7131 ;;		line 20 in file "Elements/Elements.c"
  7132 ;; Parameters:    Size  Location     Type
  7133 ;;		None
  7134 ;; Auto vars:     Size  Location     Type
  7135 ;;		None
  7136 ;; Return value:  Size  Location     Type
  7137 ;;                  1    wreg      void 
  7138 ;; Registers used:
  7139 ;;		wreg, status,2, status,0, btemp+1
  7140 ;; Tracked objects:
  7141 ;;		On entry : 0/0
  7142 ;;		On exit  : 0/0
  7143 ;;		Unchanged: 0/0
  7144 ;; Data sizes:     COMMON   BANK0   BANK1   BANK3   BANK2
  7145 ;;      Params:         0       0       0       0       0
  7146 ;;      Locals:         0       0       0       0       0
  7147 ;;      Temps:          0       0       0       0       0
  7148 ;;      Totals:         0       0       0       0       0
  7149 ;;Total ram usage:        0 bytes
  7150 ;; Hardware stack levels used:    1
  7151 ;; Hardware stack levels required when called:    4
  7152 ;; This function calls:
  7153 ;;		Nothing
  7154 ;; This function is called by:
  7155 ;;		_main
  7156 ;; This function uses a non-reentrant model
  7157 ;;
  7158                           
  7159                           
  7160                           ;psect for function _Elements_Init
  7161  097A                     _Elements_Init:
  7162  097A                     l2588:	
  7163                           ;incstack = 0
  7164                           ; Regs used in _Elements_Init: [wreg+status,2+status,0+btemp+1]
  7165                           
  7166                           
  7167                           ;Elements/Elements.c: 22:  (PORTB &= ~(1<<4));
  7168  097A  30EF               	movlw	239
  7169  097B  00FF               	movwf	btemp+1
  7170  097C  087F               	movf	btemp+1,w
  7171  097D  1283               	bcf	3,5	;RP0=0, select bank0
  7172  097E  1303               	bcf	3,6	;RP1=0, select bank0
  7173  097F  0586               	andwf	6,f	;volatile
  7174                           
  7175                           ;Elements/Elements.c: 23:  (PORTC &= ~(1<<5));
  7176  0980  30DF               	movlw	223
  7177  0981  00FF               	movwf	btemp+1
  7178  0982  087F               	movf	btemp+1,w
  7179  0983  0587               	andwf	7,f	;volatile
  7180                           
  7181                           ;Elements/Elements.c: 24:  (PORTC &= ~(1<<2));
  7182  0984  30FB               	movlw	251
  7183  0985  00FF               	movwf	btemp+1
  7184  0986  087F               	movf	btemp+1,w
  7185  0987  0587               	andwf	7,f	;volatile
  7186  0988                     l178:
  7187  0988  0008               	return
  7188  0989                     __end_of_Elements_Init:
  7189                           
  7190                           	psect	text35
  7191  095F                     __ptext35:	
  7192 ;; *************** function _Display_Init *****************
  7193 ;; Defined at:
  7194 ;;		line 22 in file "Display/Display.c"
  7195 ;; Parameters:    Size  Location     Type
  7196 ;;		None
  7197 ;; Auto vars:     Size  Location     Type
  7198 ;;		None
  7199 ;; Return value:  Size  Location     Type
  7200 ;;                  1    wreg      void 
  7201 ;; Registers used:
  7202 ;;		wreg, status,2, status,0, btemp+1
  7203 ;; Tracked objects:
  7204 ;;		On entry : 0/0
  7205 ;;		On exit  : 0/0
  7206 ;;		Unchanged: 0/0
  7207 ;; Data sizes:     COMMON   BANK0   BANK1   BANK3   BANK2
  7208 ;;      Params:         0       0       0       0       0
  7209 ;;      Locals:         0       0       0       0       0
  7210 ;;      Temps:          0       0       0       0       0
  7211 ;;      Totals:         0       0       0       0       0
  7212 ;;Total ram usage:        0 bytes
  7213 ;; Hardware stack levels used:    1
  7214 ;; Hardware stack levels required when called:    4
  7215 ;; This function calls:
  7216 ;;		Nothing
  7217 ;; This function is called by:
  7218 ;;		_main
  7219 ;; This function uses a non-reentrant model
  7220 ;;
  7221                           
  7222                           
  7223                           ;psect for function _Display_Init
  7224  095F                     _Display_Init:
  7225  095F                     l2584:	
  7226                           ;incstack = 0
  7227                           ; Regs used in _Display_Init: [wreg+status,2+status,0+btemp+1]
  7228                           
  7229                           
  7230                           ;Display/Display.c: 24:  (PORTA &= ~(1<<5)) ;
  7231  095F  30DF               	movlw	223
  7232  0960  00FF               	movwf	btemp+1
  7233  0961  087F               	movf	btemp+1,w
  7234  0962  1283               	bcf	3,5	;RP0=0, select bank0
  7235  0963  1303               	bcf	3,6	;RP1=0, select bank0
  7236  0964  0585               	andwf	5,f	;volatile
  7237                           
  7238                           ;Display/Display.c: 25:  (PORTA &= ~(1<<4)) ;
  7239  0965  30EF               	movlw	239
  7240  0966  00FF               	movwf	btemp+1
  7241  0967  087F               	movf	btemp+1,w
  7242  0968  0585               	andwf	5,f	;volatile
  7243  0969                     l2586:
  7244                           
  7245                           ;Display/Display.c: 26:  PORTD=0b00111111;
  7246  0969  303F               	movlw	63
  7247  096A  0088               	movwf	8	;volatile
  7248  096B                     l120:
  7249  096B  0008               	return
  7250  096C                     __end_of_Display_Init:
  7251                           
  7252                           	psect	text36
  7253  0952                     __ptext36:	
  7254 ;; *************** function _ADC_Start_Conv *****************
  7255 ;; Defined at:
  7256 ;;		line 39 in file "ADC/ADC.c"
  7257 ;; Parameters:    Size  Location     Type
  7258 ;;		None
  7259 ;; Auto vars:     Size  Location     Type
  7260 ;;		None
  7261 ;; Return value:  Size  Location     Type
  7262 ;;                  1    wreg      void 
  7263 ;; Registers used:
  7264 ;;		None
  7265 ;; Tracked objects:
  7266 ;;		On entry : 0/0
  7267 ;;		On exit  : 0/0
  7268 ;;		Unchanged: 0/0
  7269 ;; Data sizes:     COMMON   BANK0   BANK1   BANK3   BANK2
  7270 ;;      Params:         0       0       0       0       0
  7271 ;;      Locals:         0       0       0       0       0
  7272 ;;      Temps:          0       0       0       0       0
  7273 ;;      Totals:         0       0       0       0       0
  7274 ;;Total ram usage:        0 bytes
  7275 ;; Hardware stack levels used:    1
  7276 ;; Hardware stack levels required when called:    4
  7277 ;; This function calls:
  7278 ;;		Nothing
  7279 ;; This function is called by:
  7280 ;;		_main
  7281 ;; This function uses a non-reentrant model
  7282 ;;
  7283                           
  7284                           
  7285                           ;psect for function _ADC_Start_Conv
  7286  0952                     _ADC_Start_Conv:
  7287  0952                     l2556:	
  7288                           ;incstack = 0
  7289                           ; Regs used in _ADC_Start_Conv: []
  7290                           
  7291                           
  7292                           ;ADC/ADC.c: 41:  if (ADC_Info.ADC_INIT_FLAG==1)
  7293  0952  1683               	bsf	3,5	;RP0=1, select bank1
  7294  0953  1303               	bcf	3,6	;RP1=0, select bank1
  7295  0954  1C54               	btfss	_ADC_Info^(0+128),0
  7296  0955  2957               	goto	u3471
  7297  0956  2958               	goto	u3470
  7298  0957                     u3471:
  7299  0957  295E               	goto	l27
  7300  0958                     u3470:
  7301  0958                     l2558:
  7302                           
  7303                           ;ADC/ADC.c: 42:  {;ADC/ADC.c: 43:      ADCON0bits.GO_DONE=1 ;
  7304  0958  1283               	bcf	3,5	;RP0=0, select bank0
  7305  0959  1303               	bcf	3,6	;RP1=0, select bank0
  7306  095A  151F               	bsf	31,2	;volatile
  7307                           
  7308                           ;ADC/ADC.c: 44:      ADC_Info.ADC_START_FLAG=1;
  7309  095B  1683               	bsf	3,5	;RP0=1, select bank1
  7310  095C  1303               	bcf	3,6	;RP1=0, select bank1
  7311  095D  14D4               	bsf	_ADC_Info^(0+128),1
  7312  095E                     l27:
  7313  095E  0008               	return
  7314  095F                     __end_of_ADC_Start_Conv:
  7315                           
  7316                           	psect	text37
  7317  0A19                     __ptext37:	
  7318 ;; *************** function _ADC_Init *****************
  7319 ;; Defined at:
  7320 ;;		line 13 in file "ADC/ADC.c"
  7321 ;; Parameters:    Size  Location     Type
  7322 ;;		None
  7323 ;; Auto vars:     Size  Location     Type
  7324 ;;		None
  7325 ;; Return value:  Size  Location     Type
  7326 ;;                  1    wreg      void 
  7327 ;; Registers used:
  7328 ;;		None
  7329 ;; Tracked objects:
  7330 ;;		On entry : 0/0
  7331 ;;		On exit  : 0/0
  7332 ;;		Unchanged: 0/0
  7333 ;; Data sizes:     COMMON   BANK0   BANK1   BANK3   BANK2
  7334 ;;      Params:         0       0       0       0       0
  7335 ;;      Locals:         0       0       0       0       0
  7336 ;;      Temps:          0       0       0       0       0
  7337 ;;      Totals:         0       0       0       0       0
  7338 ;;Total ram usage:        0 bytes
  7339 ;; Hardware stack levels used:    1
  7340 ;; Hardware stack levels required when called:    4
  7341 ;; This function calls:
  7342 ;;		Nothing
  7343 ;; This function is called by:
  7344 ;;		_main
  7345 ;; This function uses a non-reentrant model
  7346 ;;
  7347                           
  7348                           
  7349                           ;psect for function _ADC_Init
  7350  0A19                     _ADC_Init:
  7351  0A19                     l2554:	
  7352                           ;incstack = 0
  7353                           ; Regs used in _ADC_Init: []
  7354                           
  7355                           
  7356                           ;ADC/ADC.c: 16:     TRISAbits.TRISA2=1;
  7357  0A19  1683               	bsf	3,5	;RP0=1, select bank1
  7358  0A1A  1303               	bcf	3,6	;RP1=0, select bank1
  7359  0A1B  1505               	bsf	5,2	;volatile
  7360                           
  7361                           ;ADC/ADC.c: 17:     ADCON1bits.ADFM=1;
  7362  0A1C  179F               	bsf	31,7	;volatile
  7363                           
  7364                           ;ADC/ADC.c: 19:     ADCON0bits.ADCS0=1 ;
  7365  0A1D  1283               	bcf	3,5	;RP0=0, select bank0
  7366  0A1E  1303               	bcf	3,6	;RP1=0, select bank0
  7367  0A1F  171F               	bsf	31,6	;volatile
  7368                           
  7369                           ;ADC/ADC.c: 20:     ADCON0bits.ADCS1=0;
  7370  0A20  139F               	bcf	31,7	;volatile
  7371                           
  7372                           ;ADC/ADC.c: 21:     ADCON1bits.ADCS2=1 ;
  7373  0A21  1683               	bsf	3,5	;RP0=1, select bank1
  7374  0A22  1303               	bcf	3,6	;RP1=0, select bank1
  7375  0A23  171F               	bsf	31,6	;volatile
  7376                           
  7377                           ;ADC/ADC.c: 24:     ADCON0bits.CHS0=0;
  7378  0A24  1283               	bcf	3,5	;RP0=0, select bank0
  7379  0A25  1303               	bcf	3,6	;RP1=0, select bank0
  7380  0A26  119F               	bcf	31,3	;volatile
  7381                           
  7382                           ;ADC/ADC.c: 25:     ADCON0bits.CHS1=1;
  7383  0A27  161F               	bsf	31,4	;volatile
  7384                           
  7385                           ;ADC/ADC.c: 26:     ADCON0bits.CHS2=0;
  7386  0A28  129F               	bcf	31,5	;volatile
  7387                           
  7388                           ;ADC/ADC.c: 29:     ADCON1bits.PCFG0=0;
  7389  0A29  1683               	bsf	3,5	;RP0=1, select bank1
  7390  0A2A  1303               	bcf	3,6	;RP1=0, select bank1
  7391  0A2B  101F               	bcf	31,0	;volatile
  7392                           
  7393                           ;ADC/ADC.c: 30:     ADCON1bits.PCFG1=1;
  7394  0A2C  149F               	bsf	31,1	;volatile
  7395                           
  7396                           ;ADC/ADC.c: 31:     ADCON1bits.PCFG2=0;
  7397  0A2D  111F               	bcf	31,2	;volatile
  7398                           
  7399                           ;ADC/ADC.c: 32:     ADCON1bits.PCFG3=0;
  7400  0A2E  119F               	bcf	31,3	;volatile
  7401                           
  7402                           ;ADC/ADC.c: 34:     ADCON0bits.ADON=1;
  7403  0A2F  1283               	bcf	3,5	;RP0=0, select bank0
  7404  0A30  1303               	bcf	3,6	;RP1=0, select bank0
  7405  0A31  141F               	bsf	31,0	;volatile
  7406                           
  7407                           ;ADC/ADC.c: 35:     ADCON0bits.GO_DONE=0;
  7408  0A32  111F               	bcf	31,2	;volatile
  7409                           
  7410                           ;ADC/ADC.c: 36:     ADC_Info.ADC_INIT_FLAG=1;
  7411  0A33  1683               	bsf	3,5	;RP0=1, select bank1
  7412  0A34  1303               	bcf	3,6	;RP1=0, select bank1
  7413  0A35  1454               	bsf	_ADC_Info^(0+128),0
  7414  0A36                     l23:
  7415  0A36  0008               	return
  7416  0A37                     __end_of_ADC_Init:
  7417                           
  7418                           	psect	text38
  7419  0A96                     __ptext38:	
  7420 ;; *************** function _myISR *****************
  7421 ;; Defined at:
  7422 ;;		line 11 in file "Interrupt/Interrupt.c"
  7423 ;; Parameters:    Size  Location     Type
  7424 ;;		None
  7425 ;; Auto vars:     Size  Location     Type
  7426 ;;		None
  7427 ;; Return value:  Size  Location     Type
  7428 ;;                  1    wreg      void 
  7429 ;; Registers used:
  7430 ;;		wreg, fsr0l, fsr0h, status,2, status,0, btemp+1, pclath, cstack
  7431 ;; Tracked objects:
  7432 ;;		On entry : 0/0
  7433 ;;		On exit  : 0/0
  7434 ;;		Unchanged: 0/0
  7435 ;; Data sizes:     COMMON   BANK0   BANK1   BANK3   BANK2
  7436 ;;      Params:         0       0       0       0       0
  7437 ;;      Locals:         0       0       0       0       0
  7438 ;;      Temps:          0       4       0       0       0
  7439 ;;      Totals:         0       4       0       0       0
  7440 ;;Total ram usage:        4 bytes
  7441 ;; Hardware stack levels used:    1
  7442 ;; Hardware stack levels required when called:    3
  7443 ;; This function calls:
  7444 ;;		_EXTI_On_Off_CallBack
  7445 ;;		_Timer0_CallBack
  7446 ;; This function is called by:
  7447 ;;		Interrupt level 1
  7448 ;; This function uses a non-reentrant model
  7449 ;;
  7450                           
  7451                           
  7452                           ;psect for function _myISR
  7453  0A96                     _myISR:
  7454  0A96                     i1l3192:
  7455                           
  7456                           ;Interrupt/Interrupt.c: 13:  if(INTCONbits.INTF)
  7457  0A96  1C8B               	btfss	11,1	;volatile
  7458  0A97  2A99               	goto	u467_21
  7459  0A98  2A9A               	goto	u467_20
  7460  0A99                     u467_21:
  7461  0A99  2AA1               	goto	i1l267
  7462  0A9A                     u467_20:
  7463  0A9A                     i1l3194:
  7464                           
  7465                           ;Interrupt/Interrupt.c: 14:  {;Interrupt/Interrupt.c: 15:         INTCONbits.INTF=0;
  7466  0A9A  108B               	bcf	11,1	;volatile
  7467  0A9B                     i1l3196:
  7468                           
  7469                           ;Interrupt/Interrupt.c: 16:   EXTI_On_Off_CallBack();
  7470  0A9B  120A  158A  21CD  120A  158A  	fcall	_EXTI_On_Off_CallBack
  7471                           
  7472                           ;Interrupt/Interrupt.c: 18:  }
  7473  0AA0  2AAD               	goto	i1l270
  7474  0AA1                     i1l267:	
  7475                           ;Interrupt/Interrupt.c: 19:  else if(INTCONbits.TMR0IF)
  7476                           
  7477  0AA1  1D0B               	btfss	11,2	;volatile
  7478  0AA2  2AA4               	goto	u468_21
  7479  0AA3  2AA5               	goto	u468_20
  7480  0AA4                     u468_21:
  7481  0AA4  2AAD               	goto	i1l270
  7482  0AA5                     u468_20:
  7483  0AA5                     i1l3198:
  7484                           
  7485                           ;Interrupt/Interrupt.c: 20:  {;Interrupt/Interrupt.c: 21:         INTCONbits.TMR0IF=0;
  7486  0AA5  110B               	bcf	11,2	;volatile
  7487  0AA6                     i1l3200:
  7488                           
  7489                           ;Interrupt/Interrupt.c: 22:         TMR0=100;
  7490  0AA6  3064               	movlw	100
  7491  0AA7  0081               	movwf	1	;volatile
  7492  0AA8                     i1l3202:
  7493                           
  7494                           ;Interrupt/Interrupt.c: 23:   Timer0_CallBack();
  7495  0AA8  120A  158A  21FB  120A  158A  	fcall	_Timer0_CallBack
  7496  0AAD                     i1l270:
  7497  0AAD  1283               	bcf	3,5	;RP0=0, select bank0
  7498  0AAE  1303               	bcf	3,6	;RP1=0, select bank0
  7499  0AAF  0839               	movf	??_myISR+3,w
  7500  0AB0  00FF               	movwf	btemp+1
  7501  0AB1  0838               	movf	??_myISR+2,w
  7502  0AB2  008A               	movwf	10
  7503  0AB3  0837               	movf	??_myISR+1,w
  7504  0AB4  0084               	movwf	4
  7505  0AB5  0E36               	swapf	??_myISR^0,w
  7506  0AB6  0083               	movwf	3
  7507  0AB7  0EFE               	swapf	btemp,f
  7508  0AB8  0E7E               	swapf	btemp,w
  7509  0AB9  0009               	retfie
  7510  0ABA                     __end_of_myISR:
  7511                           
  7512                           	psect	intentry
  7513  0004                     __pintentry:	
  7514                           ;incstack = 0
  7515 ;; hardware stack exceeded
  7516                           ; Regs used in _myISR: [wreg-fsr0h+status,2+status,0+btemp+1+pclath+cstack]
  7517                           
  7518  0004                     interrupt_function:
  7519  007E                     saved_w	set	btemp
  7520  0004  00FE               	movwf	btemp
  7521  0005  0E03               	swapf	3,w
  7522  0006  1283               	bcf	3,5	;RP0=0, select bank0
  7523  0007  1303               	bcf	3,6	;RP1=0, select bank0
  7524  0008  00B6               	movwf	??_myISR
  7525  0009  0804               	movf	4,w
  7526  000A  00B7               	movwf	??_myISR+1
  7527  000B  080A               	movf	10,w
  7528  000C  00B8               	movwf	??_myISR+2
  7529  000D  087F               	movf	btemp+1,w
  7530  000E  00B9               	movwf	??_myISR+3
  7531  000F  120A  158A  2A96   	ljmp	_myISR
  7532                           
  7533                           	psect	text39
  7534  09FB                     __ptext39:	
  7535 ;; *************** function _Timer0_CallBack *****************
  7536 ;; Defined at:
  7537 ;;		line 30 in file "Timer/Timer.c"
  7538 ;; Parameters:    Size  Location     Type
  7539 ;;		None
  7540 ;; Auto vars:     Size  Location     Type
  7541 ;;		None
  7542 ;; Return value:  Size  Location     Type
  7543 ;;                  1    wreg      void 
  7544 ;; Registers used:
  7545 ;;		wreg, fsr0l, fsr0h, status,2, status,0, btemp+1, pclath, cstack
  7546 ;; Tracked objects:
  7547 ;;		On entry : 0/0
  7548 ;;		On exit  : 0/0
  7549 ;;		Unchanged: 0/0
  7550 ;; Data sizes:     COMMON   BANK0   BANK1   BANK3   BANK2
  7551 ;;      Params:         0       0       0       0       0
  7552 ;;      Locals:         0       0       0       0       0
  7553 ;;      Temps:          0       0       0       0       0
  7554 ;;      Totals:         0       0       0       0       0
  7555 ;;Total ram usage:        0 bytes
  7556 ;; Hardware stack levels used:    1
  7557 ;; Hardware stack levels required when called:    2
  7558 ;; This function calls:
  7559 ;;		_Scheduler_ActivateTask
  7560 ;; This function is called by:
  7561 ;;		_myISR
  7562 ;; This function uses a non-reentrant model
  7563 ;;
  7564                           
  7565                           
  7566                           ;psect for function _Timer0_CallBack
  7567  09FB                     _Timer0_CallBack:
  7568  09FB                     i1l3174:	
  7569                           ;incstack = 0
  7570 ;; hardware stack exceeded
  7571                           ; Regs used in _Timer0_CallBack: [wreg-fsr0h+status,2+status,0+btemp+1+pclath+cstack]
  7572                           
  7573                           
  7574                           ;Timer/Timer.c: 32:  Tick_Num++;
  7575  09FB  3001               	movlw	1
  7576  09FC  1283               	bcf	3,5	;RP0=0, select bank0
  7577  09FD  1303               	bcf	3,6	;RP1=0, select bank0
  7578  09FE  07C3               	addwf	_Tick_Num,f
  7579  09FF  3000               	movlw	0
  7580  0A00  1803               	skipnc
  7581  0A01  3001               	movlw	1
  7582  0A02  07C4               	addwf	_Tick_Num+1,f
  7583  0A03  3000               	movlw	0
  7584  0A04  1803               	skipnc
  7585  0A05  3001               	movlw	1
  7586  0A06  07C5               	addwf	_Tick_Num+2,f
  7587  0A07  3000               	movlw	0
  7588  0A08  1803               	skipnc
  7589  0A09  3001               	movlw	1
  7590  0A0A  07C6               	addwf	_Tick_Num+3,f
  7591  0A0B                     i1l3176:
  7592                           
  7593                           ;Timer/Timer.c: 33:  Scheduler_ActivateTask(Tick_Num );
  7594  0A0B  0846               	movf	_Tick_Num+3,w
  7595  0A0C  00B0               	movwf	Scheduler_ActivateTask@SystemTick+3
  7596  0A0D  0845               	movf	_Tick_Num+2,w
  7597  0A0E  00AF               	movwf	Scheduler_ActivateTask@SystemTick+2
  7598  0A0F  0844               	movf	_Tick_Num+1,w
  7599  0A10  00AE               	movwf	Scheduler_ActivateTask@SystemTick+1
  7600  0A11  0843               	movf	_Tick_Num,w
  7601  0A12  00AD               	movwf	Scheduler_ActivateTask@SystemTick
  7602  0A13  120A  158A  2716  120A  158A  	fcall	_Scheduler_ActivateTask
  7603  0A18                     i1l355:
  7604  0A18  0008               	return
  7605  0A19                     __end_of_Timer0_CallBack:
  7606                           
  7607                           	psect	text40
  7608  0F16                     __ptext40:	
  7609 ;; *************** function _Scheduler_ActivateTask *****************
  7610 ;; Defined at:
  7611 ;;		line 35 in file "Scheduler/Scheduler.c"
  7612 ;; Parameters:    Size  Location     Type
  7613 ;;  SystemTick      4   13[BANK0 ] unsigned long 
  7614 ;; Auto vars:     Size  Location     Type
  7615 ;;  IntityIndex     1   21[BANK0 ] unsigned char 
  7616 ;;  SystemTick_L    4   17[BANK0 ] unsigned long 
  7617 ;; Return value:  Size  Location     Type
  7618 ;;                  1    wreg      void 
  7619 ;; Registers used:
  7620 ;;		wreg, fsr0l, fsr0h, status,2, status,0, btemp+1, pclath, cstack
  7621 ;; Tracked objects:
  7622 ;;		On entry : 0/0
  7623 ;;		On exit  : 0/0
  7624 ;;		Unchanged: 0/0
  7625 ;; Data sizes:     COMMON   BANK0   BANK1   BANK3   BANK2
  7626 ;;      Params:         0       4       0       0       0
  7627 ;;      Locals:         0       5       0       0       0
  7628 ;;      Temps:          0       0       0       0       0
  7629 ;;      Totals:         0       9       0       0       0
  7630 ;;Total ram usage:        9 bytes
  7631 ;; Hardware stack levels used:    1
  7632 ;; Hardware stack levels required when called:    1
  7633 ;; This function calls:
  7634 ;;		___llmod
  7635 ;;		i1___bmul
  7636 ;;		i1___lldiv
  7637 ;; This function is called by:
  7638 ;;		_Timer0_CallBack
  7639 ;; This function uses a non-reentrant model
  7640 ;;
  7641                           
  7642                           
  7643                           ;psect for function _Scheduler_ActivateTask
  7644  0F16                     _Scheduler_ActivateTask:
  7645  0F16                     i1l3132:	
  7646                           ;incstack = 0
  7647 ;; hardware stack exceeded
  7648                           ; Regs used in _Scheduler_ActivateTask: [wreg-fsr0h+status,2+status,0+btemp+1+pclath+cst
      +                          ack]
  7649                           
  7650                           
  7651                           ;Scheduler/Scheduler.c: 35: void Scheduler_ActivateTask(uint32_t SystemTick);Scheduler/S
      +                          cheduler.c: 36: {;Scheduler/Scheduler.c: 37:   uint32_t SystemTick_Loc=SystemTick;
  7652  0F16  1283               	bcf	3,5	;RP0=0, select bank0
  7653  0F17  1303               	bcf	3,6	;RP1=0, select bank0
  7654  0F18  0830               	movf	Scheduler_ActivateTask@SystemTick+3,w
  7655  0F19  00B4               	movwf	Scheduler_ActivateTask@SystemTick_Loc+3
  7656  0F1A  082F               	movf	Scheduler_ActivateTask@SystemTick+2,w
  7657  0F1B  00B3               	movwf	Scheduler_ActivateTask@SystemTick_Loc+2
  7658  0F1C  082E               	movf	Scheduler_ActivateTask@SystemTick+1,w
  7659  0F1D  00B2               	movwf	Scheduler_ActivateTask@SystemTick_Loc+1
  7660  0F1E  082D               	movf	Scheduler_ActivateTask@SystemTick,w
  7661  0F1F  00B1               	movwf	Scheduler_ActivateTask@SystemTick_Loc
  7662  0F20                     i1l3134:
  7663                           
  7664                           ;Scheduler/Scheduler.c: 39:   for( uint8_t IntityIndex = 0 ; IntityIndex < ( 3U ) ; Inti
      +                          tyIndex++ )
  7665  0F20  01B5               	clrf	Scheduler_ActivateTask@IntityIndex
  7666  0F21                     i1l3140:
  7667                           
  7668                           ;Scheduler/Scheduler.c: 40:   {;Scheduler/Scheduler.c: 41:     if( ( ((SystemTick_Loc)%(
      +                          Scheduler_Intitys[IntityIndex].Peroid/(20UL)))?0:1 ) )
  7669  0F21  3000               	movlw	0
  7670  0F22  00F6               	movwf	i1___lldiv@divisor+3
  7671  0F23  3000               	movlw	0
  7672  0F24  00F5               	movwf	i1___lldiv@divisor+2
  7673  0F25  3000               	movlw	0
  7674  0F26  00F4               	movwf	i1___lldiv@divisor+1
  7675  0F27  3014               	movlw	20
  7676  0F28  00F3               	movwf	i1___lldiv@divisor
  7677  0F29  3005               	movlw	5
  7678  0F2A  00FF               	movwf	btemp+1
  7679  0F2B  087F               	movf	btemp+1,w
  7680  0F2C  00F0               	movwf	i1___bmul@multiplicand
  7681  0F2D  0835               	movf	Scheduler_ActivateTask@IntityIndex,w
  7682  0F2E  120A  158A  21B8  120A  158A  	fcall	i1___bmul
  7683  0F33  3E02               	addlw	low (((_Scheduler_Intitys-__stringbase)| (0+32768)+1))
  7684  0F34  0084               	movwf	4
  7685  0F35  120A  118A  27EA  120A  158A  	fcall	stringdir
  7686  0F3A  00F7               	movwf	i1___lldiv@dividend
  7687  0F3B  120A  118A  27EA  120A  158A  	fcall	stringdir
  7688  0F40  00F8               	movwf	i1___lldiv@dividend+1
  7689  0F41  120A  118A  27EA  120A  158A  	fcall	stringdir
  7690  0F46  00F9               	movwf	i1___lldiv@dividend+2
  7691  0F47  120A  118A  27EA  120A  158A  	fcall	stringdir
  7692  0F4C  00FA               	movwf	i1___lldiv@dividend+3
  7693  0F4D  120A  158A  2645  120A  158A  	fcall	i1___lldiv
  7694  0F52  0876               	movf	?i1___lldiv+3,w
  7695  0F53  1283               	bcf	3,5	;RP0=0, select bank0
  7696  0F54  1303               	bcf	3,6	;RP1=0, select bank0
  7697  0F55  00A8               	movwf	___llmod@divisor+3
  7698  0F56  0875               	movf	?i1___lldiv+2,w
  7699  0F57  00A7               	movwf	___llmod@divisor+2
  7700  0F58  0874               	movf	?i1___lldiv+1,w
  7701  0F59  00A6               	movwf	___llmod@divisor+1
  7702  0F5A  0873               	movf	?i1___lldiv,w
  7703  0F5B  00A5               	movwf	___llmod@divisor
  7704  0F5C  0834               	movf	Scheduler_ActivateTask@SystemTick_Loc+3,w
  7705  0F5D  00AC               	movwf	___llmod@dividend+3
  7706  0F5E  0833               	movf	Scheduler_ActivateTask@SystemTick_Loc+2,w
  7707  0F5F  00AB               	movwf	___llmod@dividend+2
  7708  0F60  0832               	movf	Scheduler_ActivateTask@SystemTick_Loc+1,w
  7709  0F61  00AA               	movwf	___llmod@dividend+1
  7710  0F62  0831               	movf	Scheduler_ActivateTask@SystemTick_Loc,w
  7711  0F63  00A9               	movwf	___llmod@dividend
  7712  0F64  120A  158A  252E  120A  158A  	fcall	___llmod
  7713  0F69  1283               	bcf	3,5	;RP0=0, select bank0
  7714  0F6A  1303               	bcf	3,6	;RP1=0, select bank0
  7715  0F6B  0828               	movf	?___llmod+3,w
  7716  0F6C  0427               	iorwf	?___llmod+2,w
  7717  0F6D  0426               	iorwf	?___llmod+1,w
  7718  0F6E  0425               	iorwf	?___llmod,w
  7719  0F6F  1D03               	skipz
  7720  0F70  2F72               	goto	u463_21
  7721  0F71  2F73               	goto	u463_20
  7722  0F72                     u463_21:
  7723  0F72  2F79               	goto	i1l3144
  7724  0F73                     u463_20:
  7725  0F73                     i1l3142:
  7726                           
  7727                           ;Scheduler/Scheduler.c: 42:     {;Scheduler/Scheduler.c: 43:      Scheduler_ActivationFl
      +                          ags[IntityIndex] = 1 ;
  7728  0F73  0835               	movf	Scheduler_ActivateTask@IntityIndex,w
  7729  0F74  3ED5               	addlw	(low (_Scheduler_ActivationFlags| 0))& (0+255)
  7730  0F75  0084               	movwf	4
  7731  0F76  1383               	bcf	3,7	;select IRP bank1
  7732  0F77  0180               	clrf	0
  7733  0F78  0A80               	incf	0,f
  7734  0F79                     i1l3144:
  7735                           
  7736                           ;Scheduler/Scheduler.c: 45:   }
  7737  0F79  3001               	movlw	1
  7738  0F7A  00FF               	movwf	btemp+1
  7739  0F7B  087F               	movf	btemp+1,w
  7740  0F7C  07B5               	addwf	Scheduler_ActivateTask@IntityIndex,f
  7741  0F7D                     i1l3146:
  7742  0F7D  3003               	movlw	3
  7743  0F7E  0235               	subwf	Scheduler_ActivateTask@IntityIndex,w
  7744  0F7F  1C03               	skipc
  7745  0F80  2F82               	goto	u464_21
  7746  0F81  2F83               	goto	u464_20
  7747  0F82                     u464_21:
  7748  0F82  2F21               	goto	i1l3140
  7749  0F83                     u464_20:
  7750  0F83                     i1l294:
  7751  0F83  0008               	return
  7752  0F84                     __end_of_Scheduler_ActivateTask:
  7753                           
  7754                           	psect	text41
  7755  0E45                     __ptext41:	
  7756 ;; *************** function i1___lldiv *****************
  7757 ;; Defined at:
  7758 ;;		line 5 in file "C:\Program Files (x86)\Microchip\xc8\v2.20\pic\sources\c90\common\__lldiv.c"
  7759 ;; Parameters:    Size  Location     Type
  7760 ;;  divisor         4    3[COMMON] unsigned long 
  7761 ;;  dividend        4    7[COMMON] unsigned long 
  7762 ;; Auto vars:     Size  Location     Type
  7763 ;;  quotient        4    0[BANK0 ] unsigned long 
  7764 ;;  counter         1    4[BANK0 ] unsigned char 
  7765 ;; Return value:  Size  Location     Type
  7766 ;;                  4    3[COMMON] unsigned long 
  7767 ;; Registers used:
  7768 ;;		wreg, status,2, status,0, btemp+1
  7769 ;; Tracked objects:
  7770 ;;		On entry : 0/0
  7771 ;;		On exit  : 0/0
  7772 ;;		Unchanged: 0/0
  7773 ;; Data sizes:     COMMON   BANK0   BANK1   BANK3   BANK2
  7774 ;;      Params:         8       0       0       0       0
  7775 ;;      Locals:         0       5       0       0       0
  7776 ;;      Temps:          1       0       0       0       0
  7777 ;;      Totals:         9       5       0       0       0
  7778 ;;Total ram usage:       14 bytes
  7779 ;; Hardware stack levels used:    1
  7780 ;; This function calls:
  7781 ;;		Nothing
  7782 ;; This function is called by:
  7783 ;;		_Scheduler_ActivateTask
  7784 ;; This function uses a non-reentrant model
  7785 ;;
  7786                           
  7787                           
  7788                           ;psect for function i1___lldiv
  7789  0E45                     i1___lldiv:
  7790  0E45                     i1l2464:	
  7791                           ;incstack = 0
  7792 ;; hardware stack exceeded
  7793                           ; Regs used in i1___lldiv: [wreg+status,2+status,0+btemp+1]
  7794                           
  7795  0E45  3000               	movlw	0
  7796  0E46  1283               	bcf	3,5	;RP0=0, select bank0
  7797  0E47  1303               	bcf	3,6	;RP1=0, select bank0
  7798  0E48  00A3               	movwf	i1___lldiv@quotient+3
  7799  0E49  3000               	movlw	0
  7800  0E4A  00A2               	movwf	i1___lldiv@quotient+2
  7801  0E4B  3000               	movlw	0
  7802  0E4C  00A1               	movwf	i1___lldiv@quotient+1
  7803  0E4D  3000               	movlw	0
  7804  0E4E  00A0               	movwf	i1___lldiv@quotient
  7805  0E4F  0876               	movf	i1___lldiv@divisor+3,w
  7806  0E50  0475               	iorwf	i1___lldiv@divisor+2,w
  7807  0E51  0474               	iorwf	i1___lldiv@divisor+1,w
  7808  0E52  0473               	iorwf	i1___lldiv@divisor,w
  7809  0E53  1903               	skipnz
  7810  0E54  2E56               	goto	u333_21
  7811  0E55  2E57               	goto	u333_20
  7812  0E56                     u333_21:
  7813  0E56  2EA4               	goto	i1l2486
  7814  0E57                     u333_20:
  7815  0E57                     i1l2466:
  7816  0E57  01A4               	clrf	i1___lldiv@counter
  7817  0E58  0AA4               	incf	i1___lldiv@counter,f
  7818  0E59  2E67               	goto	i1l2472
  7819  0E5A                     i1l2468:
  7820  0E5A  3001               	movlw	1
  7821  0E5B  00FB               	movwf	??i1___lldiv
  7822  0E5C                     u334_25:
  7823  0E5C  1003               	clrc
  7824  0E5D  0DF3               	rlf	i1___lldiv@divisor,f
  7825  0E5E  0DF4               	rlf	i1___lldiv@divisor+1,f
  7826  0E5F  0DF5               	rlf	i1___lldiv@divisor+2,f
  7827  0E60  0DF6               	rlf	i1___lldiv@divisor+3,f
  7828  0E61  0BFB               	decfsz	??i1___lldiv,f
  7829  0E62  2E5C               	goto	u334_25
  7830  0E63                     i1l2470:
  7831  0E63  3001               	movlw	1
  7832  0E64  00FF               	movwf	btemp+1
  7833  0E65  087F               	movf	btemp+1,w
  7834  0E66  07A4               	addwf	i1___lldiv@counter,f
  7835  0E67                     i1l2472:
  7836  0E67  1FF6               	btfss	i1___lldiv@divisor+3,7
  7837  0E68  2E6A               	goto	u335_21
  7838  0E69  2E6B               	goto	u335_20
  7839  0E6A                     u335_21:
  7840  0E6A  2E5A               	goto	i1l2468
  7841  0E6B                     u335_20:
  7842  0E6B                     i1l2474:
  7843  0E6B  3001               	movlw	1
  7844  0E6C  00FB               	movwf	??i1___lldiv
  7845  0E6D                     u336_25:
  7846  0E6D  1003               	clrc
  7847  0E6E  0DA0               	rlf	i1___lldiv@quotient,f
  7848  0E6F  0DA1               	rlf	i1___lldiv@quotient+1,f
  7849  0E70  0DA2               	rlf	i1___lldiv@quotient+2,f
  7850  0E71  0DA3               	rlf	i1___lldiv@quotient+3,f
  7851  0E72  0BFB               	decfsz	??i1___lldiv,f
  7852  0E73  2E6D               	goto	u336_25
  7853  0E74                     i1l2476:
  7854  0E74  0876               	movf	i1___lldiv@divisor+3,w
  7855  0E75  027A               	subwf	i1___lldiv@dividend+3,w
  7856  0E76  1D03               	skipz
  7857  0E77  2E82               	goto	u337_25
  7858  0E78  0875               	movf	i1___lldiv@divisor+2,w
  7859  0E79  0279               	subwf	i1___lldiv@dividend+2,w
  7860  0E7A  1D03               	skipz
  7861  0E7B  2E82               	goto	u337_25
  7862  0E7C  0874               	movf	i1___lldiv@divisor+1,w
  7863  0E7D  0278               	subwf	i1___lldiv@dividend+1,w
  7864  0E7E  1D03               	skipz
  7865  0E7F  2E82               	goto	u337_25
  7866  0E80  0873               	movf	i1___lldiv@divisor,w
  7867  0E81  0277               	subwf	i1___lldiv@dividend,w
  7868  0E82                     u337_25:
  7869  0E82  1C03               	skipc
  7870  0E83  2E85               	goto	u337_21
  7871  0E84  2E86               	goto	u337_20
  7872  0E85                     u337_21:
  7873  0E85  2E95               	goto	i1l2482
  7874  0E86                     u337_20:
  7875  0E86                     i1l2478:
  7876  0E86  0873               	movf	i1___lldiv@divisor,w
  7877  0E87  02F7               	subwf	i1___lldiv@dividend,f
  7878  0E88  0874               	movf	i1___lldiv@divisor+1,w
  7879  0E89  1C03               	skipc
  7880  0E8A  0F74               	incfsz	i1___lldiv@divisor+1,w
  7881  0E8B  02F8               	subwf	i1___lldiv@dividend+1,f
  7882  0E8C  0875               	movf	i1___lldiv@divisor+2,w
  7883  0E8D  1C03               	skipc
  7884  0E8E  0F75               	incfsz	i1___lldiv@divisor+2,w
  7885  0E8F  02F9               	subwf	i1___lldiv@dividend+2,f
  7886  0E90  0876               	movf	i1___lldiv@divisor+3,w
  7887  0E91  1C03               	skipc
  7888  0E92  0F76               	incfsz	i1___lldiv@divisor+3,w
  7889  0E93  02FA               	subwf	i1___lldiv@dividend+3,f
  7890  0E94                     i1l2480:
  7891  0E94  1420               	bsf	i1___lldiv@quotient,0
  7892  0E95                     i1l2482:
  7893  0E95  3001               	movlw	1
  7894  0E96                     u338_25:
  7895  0E96  1003               	clrc
  7896  0E97  0CF6               	rrf	i1___lldiv@divisor+3,f
  7897  0E98  0CF5               	rrf	i1___lldiv@divisor+2,f
  7898  0E99  0CF4               	rrf	i1___lldiv@divisor+1,f
  7899  0E9A  0CF3               	rrf	i1___lldiv@divisor,f
  7900  0E9B  3EFF               	addlw	-1
  7901  0E9C  1D03               	skipz
  7902  0E9D  2E96               	goto	u338_25
  7903  0E9E                     i1l2484:
  7904  0E9E  3001               	movlw	1
  7905  0E9F  02A4               	subwf	i1___lldiv@counter,f
  7906  0EA0  1D03               	btfss	3,2
  7907  0EA1  2EA3               	goto	u339_21
  7908  0EA2  2EA4               	goto	u339_20
  7909  0EA3                     u339_21:
  7910  0EA3  2E6B               	goto	i1l2474
  7911  0EA4                     u339_20:
  7912  0EA4                     i1l2486:
  7913  0EA4  0823               	movf	i1___lldiv@quotient+3,w
  7914  0EA5  00F6               	movwf	?i1___lldiv+3
  7915  0EA6  0822               	movf	i1___lldiv@quotient+2,w
  7916  0EA7  00F5               	movwf	?i1___lldiv+2
  7917  0EA8  0821               	movf	i1___lldiv@quotient+1,w
  7918  0EA9  00F4               	movwf	?i1___lldiv+1
  7919  0EAA  0820               	movf	i1___lldiv@quotient,w
  7920  0EAB  00F3               	movwf	?i1___lldiv
  7921  0EAC                     i1l508:
  7922  0EAC  0008               	return
  7923  0EAD                     __end_ofi1___lldiv:
  7924                           
  7925                           	psect	text42
  7926  09B8                     __ptext42:	
  7927 ;; *************** function i1___bmul *****************
  7928 ;; Defined at:
  7929 ;;		line 4 in file "C:\Program Files (x86)\Microchip\xc8\v2.20\pic\sources\c90\common\Umul8.c"
  7930 ;; Parameters:    Size  Location     Type
  7931 ;;  multiplier      1    wreg     unsigned char 
  7932 ;;  multiplicand    1    0[COMMON] unsigned char 
  7933 ;; Auto vars:     Size  Location     Type
  7934 ;;  multiplier      1    2[COMMON] unsigned char 
  7935 ;;  product         1    1[COMMON] unsigned char 
  7936 ;; Return value:  Size  Location     Type
  7937 ;;                  1    wreg      unsigned char 
  7938 ;; Registers used:
  7939 ;;		wreg, status,2, status,0, btemp+1
  7940 ;; Tracked objects:
  7941 ;;		On entry : 0/0
  7942 ;;		On exit  : 0/0
  7943 ;;		Unchanged: 0/0
  7944 ;; Data sizes:     COMMON   BANK0   BANK1   BANK3   BANK2
  7945 ;;      Params:         1       0       0       0       0
  7946 ;;      Locals:         2       0       0       0       0
  7947 ;;      Temps:          0       0       0       0       0
  7948 ;;      Totals:         3       0       0       0       0
  7949 ;;Total ram usage:        3 bytes
  7950 ;; Hardware stack levels used:    1
  7951 ;; This function calls:
  7952 ;;		Nothing
  7953 ;; This function is called by:
  7954 ;;		_Scheduler_ActivateTask
  7955 ;; This function uses a non-reentrant model
  7956 ;;
  7957                           
  7958                           
  7959                           ;psect for function i1___bmul
  7960  09B8                     i1___bmul:
  7961                           
  7962                           ;incstack = 0
  7963 ;; hardware stack exceeded
  7964                           ; Regs used in i1___bmul: [wreg+status,2+status,0+btemp+1]
  7965                           ;i1___bmul@multiplier stored from wreg
  7966  09B8  00F2               	movwf	i1___bmul@multiplier
  7967  09B9                     i1l2490:
  7968  09B9  01F1               	clrf	i1___bmul@product
  7969  09BA                     i1l2492:
  7970  09BA  1C72               	btfss	i1___bmul@multiplier,0
  7971  09BB  29BD               	goto	u340_21
  7972  09BC  29BE               	goto	u340_20
  7973  09BD                     u340_21:
  7974  09BD  29C2               	goto	i1l2496
  7975  09BE                     u340_20:
  7976  09BE                     i1l2494:
  7977  09BE  0870               	movf	i1___bmul@multiplicand,w
  7978  09BF  00FF               	movwf	btemp+1
  7979  09C0  087F               	movf	btemp+1,w
  7980  09C1  07F1               	addwf	i1___bmul@product,f
  7981  09C2                     i1l2496:
  7982  09C2  1003               	clrc
  7983  09C3  0DF0               	rlf	i1___bmul@multiplicand,f
  7984  09C4                     i1l2498:
  7985  09C4  1003               	clrc
  7986  09C5  0CF2               	rrf	i1___bmul@multiplier,f
  7987  09C6                     i1l2500:
  7988  09C6  0872               	movf	i1___bmul@multiplier,w
  7989  09C7  1D03               	btfss	3,2
  7990  09C8  29CA               	goto	u341_21
  7991  09C9  29CB               	goto	u341_20
  7992  09CA                     u341_21:
  7993  09CA  29BA               	goto	i1l2492
  7994  09CB                     u341_20:
  7995  09CB                     i1l2502:
  7996  09CB  0871               	movf	i1___bmul@product,w
  7997  09CC                     i1l498:
  7998  09CC  0008               	return
  7999  09CD                     __end_ofi1___bmul:
  8000                           
  8001                           	psect	text43
  8002  0D2E                     __ptext43:	
  8003 ;; *************** function ___llmod *****************
  8004 ;; Defined at:
  8005 ;;		line 5 in file "C:\Program Files (x86)\Microchip\xc8\v2.20\pic\sources\c90\common\llmod.c"
  8006 ;; Parameters:    Size  Location     Type
  8007 ;;  divisor         4    5[BANK0 ] unsigned long 
  8008 ;;  dividend        4    9[BANK0 ] unsigned long 
  8009 ;; Auto vars:     Size  Location     Type
  8010 ;;  counter         1   13[COMMON] unsigned char 
  8011 ;; Return value:  Size  Location     Type
  8012 ;;                  4    5[BANK0 ] unsigned long 
  8013 ;; Registers used:
  8014 ;;		wreg, status,2, status,0, btemp+1
  8015 ;; Tracked objects:
  8016 ;;		On entry : 0/0
  8017 ;;		On exit  : 0/0
  8018 ;;		Unchanged: 0/0
  8019 ;; Data sizes:     COMMON   BANK0   BANK1   BANK3   BANK2
  8020 ;;      Params:         0       8       0       0       0
  8021 ;;      Locals:         1       0       0       0       0
  8022 ;;      Temps:          1       0       0       0       0
  8023 ;;      Totals:         2       8       0       0       0
  8024 ;;Total ram usage:       10 bytes
  8025 ;; Hardware stack levels used:    1
  8026 ;; This function calls:
  8027 ;;		Nothing
  8028 ;; This function is called by:
  8029 ;;		_Scheduler_ActivateTask
  8030 ;; This function uses a non-reentrant model
  8031 ;;
  8032                           
  8033                           
  8034                           ;psect for function ___llmod
  8035  0D2E                     ___llmod:
  8036  0D2E                     i1l2442:	
  8037                           ;incstack = 0
  8038 ;; hardware stack exceeded
  8039                           ; Regs used in ___llmod: [wreg+status,2+status,0+btemp+1]
  8040                           
  8041  0D2E  1283               	bcf	3,5	;RP0=0, select bank0
  8042  0D2F  1303               	bcf	3,6	;RP1=0, select bank0
  8043  0D30  0828               	movf	___llmod@divisor+3,w
  8044  0D31  0427               	iorwf	___llmod@divisor+2,w
  8045  0D32  0426               	iorwf	___llmod@divisor+1,w
  8046  0D33  0425               	iorwf	___llmod@divisor,w
  8047  0D34  1903               	skipnz
  8048  0D35  2D37               	goto	u327_21
  8049  0D36  2D38               	goto	u327_20
  8050  0D37                     u327_21:
  8051  0D37  2D7B               	goto	i1l2460
  8052  0D38                     u327_20:
  8053  0D38                     i1l2444:
  8054  0D38  01FD               	clrf	___llmod@counter
  8055  0D39  0AFD               	incf	___llmod@counter,f
  8056  0D3A  2D48               	goto	i1l2450
  8057  0D3B                     i1l2446:
  8058  0D3B  3001               	movlw	1
  8059  0D3C  00FC               	movwf	??___llmod
  8060  0D3D                     u328_25:
  8061  0D3D  1003               	clrc
  8062  0D3E  0DA5               	rlf	___llmod@divisor,f
  8063  0D3F  0DA6               	rlf	___llmod@divisor+1,f
  8064  0D40  0DA7               	rlf	___llmod@divisor+2,f
  8065  0D41  0DA8               	rlf	___llmod@divisor+3,f
  8066  0D42  0BFC               	decfsz	??___llmod,f
  8067  0D43  2D3D               	goto	u328_25
  8068  0D44                     i1l2448:
  8069  0D44  3001               	movlw	1
  8070  0D45  00FF               	movwf	btemp+1
  8071  0D46  087F               	movf	btemp+1,w
  8072  0D47  07FD               	addwf	___llmod@counter,f
  8073  0D48                     i1l2450:
  8074  0D48  1FA8               	btfss	___llmod@divisor+3,7
  8075  0D49  2D4B               	goto	u329_21
  8076  0D4A  2D4C               	goto	u329_20
  8077  0D4B                     u329_21:
  8078  0D4B  2D3B               	goto	i1l2446
  8079  0D4C                     u329_20:
  8080  0D4C                     i1l2452:
  8081  0D4C  0828               	movf	___llmod@divisor+3,w
  8082  0D4D  022C               	subwf	___llmod@dividend+3,w
  8083  0D4E  1D03               	skipz
  8084  0D4F  2D5A               	goto	u330_25
  8085  0D50  0827               	movf	___llmod@divisor+2,w
  8086  0D51  022B               	subwf	___llmod@dividend+2,w
  8087  0D52  1D03               	skipz
  8088  0D53  2D5A               	goto	u330_25
  8089  0D54  0826               	movf	___llmod@divisor+1,w
  8090  0D55  022A               	subwf	___llmod@dividend+1,w
  8091  0D56  1D03               	skipz
  8092  0D57  2D5A               	goto	u330_25
  8093  0D58  0825               	movf	___llmod@divisor,w
  8094  0D59  0229               	subwf	___llmod@dividend,w
  8095  0D5A                     u330_25:
  8096  0D5A  1C03               	skipc
  8097  0D5B  2D5D               	goto	u330_21
  8098  0D5C  2D5E               	goto	u330_20
  8099  0D5D                     u330_21:
  8100  0D5D  2D6C               	goto	i1l2456
  8101  0D5E                     u330_20:
  8102  0D5E                     i1l2454:
  8103  0D5E  0825               	movf	___llmod@divisor,w
  8104  0D5F  02A9               	subwf	___llmod@dividend,f
  8105  0D60  0826               	movf	___llmod@divisor+1,w
  8106  0D61  1C03               	skipc
  8107  0D62  0F26               	incfsz	___llmod@divisor+1,w
  8108  0D63  02AA               	subwf	___llmod@dividend+1,f
  8109  0D64  0827               	movf	___llmod@divisor+2,w
  8110  0D65  1C03               	skipc
  8111  0D66  0F27               	incfsz	___llmod@divisor+2,w
  8112  0D67  02AB               	subwf	___llmod@dividend+2,f
  8113  0D68  0828               	movf	___llmod@divisor+3,w
  8114  0D69  1C03               	skipc
  8115  0D6A  0F28               	incfsz	___llmod@divisor+3,w
  8116  0D6B  02AC               	subwf	___llmod@dividend+3,f
  8117  0D6C                     i1l2456:
  8118  0D6C  3001               	movlw	1
  8119  0D6D                     u331_25:
  8120  0D6D  1003               	clrc
  8121  0D6E  0CA8               	rrf	___llmod@divisor+3,f
  8122  0D6F  0CA7               	rrf	___llmod@divisor+2,f
  8123  0D70  0CA6               	rrf	___llmod@divisor+1,f
  8124  0D71  0CA5               	rrf	___llmod@divisor,f
  8125  0D72  3EFF               	addlw	-1
  8126  0D73  1D03               	skipz
  8127  0D74  2D6D               	goto	u331_25
  8128  0D75                     i1l2458:
  8129  0D75  3001               	movlw	1
  8130  0D76  02FD               	subwf	___llmod@counter,f
  8131  0D77  1D03               	btfss	3,2
  8132  0D78  2D7A               	goto	u332_21
  8133  0D79  2D7B               	goto	u332_20
  8134  0D7A                     u332_21:
  8135  0D7A  2D4C               	goto	i1l2452
  8136  0D7B                     u332_20:
  8137  0D7B                     i1l2460:
  8138  0D7B  082C               	movf	___llmod@dividend+3,w
  8139  0D7C  00A8               	movwf	?___llmod+3
  8140  0D7D  082B               	movf	___llmod@dividend+2,w
  8141  0D7E  00A7               	movwf	?___llmod+2
  8142  0D7F  082A               	movf	___llmod@dividend+1,w
  8143  0D80  00A6               	movwf	?___llmod+1
  8144  0D81  0829               	movf	___llmod@dividend,w
  8145  0D82  00A5               	movwf	?___llmod
  8146  0D83                     i1l694:
  8147  0D83  0008               	return
  8148  0D84                     __end_of___llmod:
  8149                           
  8150                           	psect	text44
  8151  09CD                     __ptext44:	
  8152 ;; *************** function _EXTI_On_Off_CallBack *****************
  8153 ;; Defined at:
  8154 ;;		line 23 in file "Buttons/Buttons.c"
  8155 ;; Parameters:    Size  Location     Type
  8156 ;;		None
  8157 ;; Auto vars:     Size  Location     Type
  8158 ;;		None
  8159 ;; Return value:  Size  Location     Type
  8160 ;;                  1    wreg      void 
  8161 ;; Registers used:
  8162 ;;		wreg, status,2, status,0
  8163 ;; Tracked objects:
  8164 ;;		On entry : 0/0
  8165 ;;		On exit  : 0/0
  8166 ;;		Unchanged: 0/0
  8167 ;; Data sizes:     COMMON   BANK0   BANK1   BANK3   BANK2
  8168 ;;      Params:         0       0       0       0       0
  8169 ;;      Locals:         0       0       0       0       0
  8170 ;;      Temps:          0       0       0       0       0
  8171 ;;      Totals:         0       0       0       0       0
  8172 ;;Total ram usage:        0 bytes
  8173 ;; Hardware stack levels used:    1
  8174 ;; This function calls:
  8175 ;;		Nothing
  8176 ;; This function is called by:
  8177 ;;		_myISR
  8178 ;; This function uses a non-reentrant model
  8179 ;;
  8180                           
  8181                           
  8182                           ;psect for function _EXTI_On_Off_CallBack
  8183  09CD                     _EXTI_On_Off_CallBack:
  8184  09CD                     i1l2620:	
  8185                           ;incstack = 0
  8186 ;; hardware stack exceeded
  8187                           ; Regs used in _EXTI_On_Off_CallBack: [wreg+status,2+status,0]
  8188                           
  8189                           
  8190                           ;Buttons/Buttons.c: 25:  if((Mode.Select_Mode==Setting_Mode) || (Mode.Select_Mode==Norma
      +                          l_Mode))
  8191  09CD  3002               	movlw	2
  8192  09CE  1683               	bsf	3,5	;RP0=1, select bank1
  8193  09CF  1303               	bcf	3,6	;RP1=0, select bank1
  8194  09D0  0652               	xorwf	_Mode^(0+128),w
  8195  09D1  1903               	btfsc	3,2
  8196  09D2  29D4               	goto	u350_21
  8197  09D3  29D5               	goto	u350_20
  8198  09D4                     u350_21:
  8199  09D4  29DA               	goto	i1l2624
  8200  09D5                     u350_20:
  8201  09D5                     i1l2622:
  8202  09D5  0352               	decf	_Mode^(0+128),w
  8203  09D6  1D03               	btfss	3,2
  8204  09D7  29D9               	goto	u351_21
  8205  09D8  29DA               	goto	u351_20
  8206  09D9                     u351_21:
  8207  09D9  29DC               	goto	i1l2626
  8208  09DA                     u351_20:
  8209  09DA                     i1l2624:
  8210                           
  8211                           ;Buttons/Buttons.c: 26:   {;Buttons/Buttons.c: 28:     Mode.Select_Mode=Off_Mode;
  8212  09DA  01D2               	clrf	_Mode^(0+128)
  8213                           
  8214                           ;Buttons/Buttons.c: 30:   }
  8215  09DB  29E3               	goto	i1l99
  8216  09DC                     i1l2626:
  8217  09DC  0852               	movf	_Mode^(0+128),w
  8218  09DD  1D03               	btfss	3,2
  8219  09DE  29E0               	goto	u352_21
  8220  09DF  29E1               	goto	u352_20
  8221  09E0                     u352_21:
  8222  09E0  29E3               	goto	i1l99
  8223  09E1                     u352_20:
  8224  09E1                     i1l2628:
  8225                           
  8226                           ;Buttons/Buttons.c: 32:   {;Buttons/Buttons.c: 34:    Mode.Select_Mode=Normal_Mode;
  8227  09E1  01D2               	clrf	_Mode^(0+128)
  8228  09E2  0AD2               	incf	_Mode^(0+128),f
  8229  09E3                     i1l99:
  8230  09E3  0008               	return
  8231  09E4                     __end_of_EXTI_On_Off_CallBack:
  8232  0006                     
  8233                           	psect	functab
  8234  004B                     __pfunctab:
  8235  004B                     __fptable:
  8236  004B                     fptable:
  8237  004B  00FF               	movwf	(btemp+1)& (0+127)
  8238  004C  3000               	movlw	high fptable
  8239  004D  008A               	movwf	10
  8240  004E  087F               	movf	(btemp+1)& (0+127),w
  8241  004F  0782               	addwf	2,f
  8242  0050                     fpbase:
  8243  0050  2850               	goto	fpbase	; Call via a null pointer and you will get stuck here.
  8244  0051                     fp__Scheduler_Task3:
  8245  0051  120A  158A  296C   	ljmp	_Scheduler_Task3
  8246  0054                     fp__Scheduler_Task1:
  8247  0054  120A  158A  291B   	ljmp	_Scheduler_Task1
  8248  0057                     fp__Scheduler_Task2:
  8249  0057  120A  158A  293B   	ljmp	_Scheduler_Task2
  8250  005A                     __end_of__fptable:
  8251  007E                     btemp	set	126	;btemp
  8252  007E                     wtemp0	set	126
  8253                           
  8254                           	psect	config
  8255                           
  8256                           ;Config register CONFIG @ 0x2007
  8257                           ;	Oscillator Selection bits
  8258                           ;	FOSC = HS, HS oscillator
  8259                           ;	Watchdog Timer Enable bit
  8260                           ;	WDTE = OFF, WDT disabled
  8261                           ;	Power-up Timer Enable bit
  8262                           ;	PWRTE = OFF, PWRT disabled
  8263                           ;	Brown-out Reset Enable bit
  8264                           ;	BOREN = OFF, BOR disabled
  8265                           ;	Low-Voltage (Single-Supply) In-Circuit Serial Programming Enable bit
  8266                           ;	LVP = OFF, RB3 is digital I/O, HV on MCLR must be used for programming
  8267                           ;	Data EEPROM Memory Code Protection bit
  8268                           ;	CPD = OFF, Data EEPROM code protection off
  8269                           ;	Flash Program Memory Write Enable bits
  8270                           ;	WRT = OFF, Write protection off; all program memory may be written to by EECON control
  8271                           ;	In-Circuit Debugger Mode bit
  8272                           ;	DEBUG = 0x1, unprogrammed default
  8273                           ;	Flash Program Memory Code Protection bit
  8274                           ;	CP = OFF, Code protection off
  8275  2007                     	org	8199
  8276  2007  3F3A               	dw	16186

Data Sizes:
    Strings     0
    Constant    15
    Data        4
    BSS         61
    Persistent  0
    Stack       0

Auto Spaces:
    Space          Size  Autos    Used
    COMMON           14     14      14
    BANK0            80     35      54
    BANK1            80     50      56
    BANK3            96      0      40
    BANK2            96      0       0

Pointer List with Targets:

    Scheduler_Start$1226	const PTR FTN()void  size(1) Largest target is 1
		 -> Scheduler_Task3(), Scheduler_Task2(), Scheduler_Task1(), 

    memset@p1	PTR void  size(1) Largest target is 3
		 -> Scheduler_ActivationFlags(BANK1[3]), 

    memset@p	PTR unsigned char  size(1) Largest target is 3
		 -> Scheduler_ActivationFlags(BANK1[3]), 

    sp__memset	PTR void  size(1) Largest target is 3
		 -> Scheduler_ActivationFlags(BANK1[3]), 

    S436$fuction_ptr	PTR FTN()void  size(1) Largest target is 1
		 -> Scheduler_Task3(), Scheduler_Task2(), Scheduler_Task1(), 

    Scheduler_Intitys.fuction_ptr	PTR FTN()void  size(1) Largest target is 1
		 -> Scheduler_Task3(), Scheduler_Task2(), Scheduler_Task1(), 

    Average_Value@Avrage_Values	PTR unsigned char  size(1) Largest target is 5
		 -> Temperature(BANK0[5]), 


Critical Paths under _main in COMMON

    None.

Critical Paths under _myISR in COMMON

    _Scheduler_ActivateTask->___llmod
    i1___lldiv->i1___bmul
    ___llmod->i1___lldiv

Critical Paths under _main in BANK0

    _Scheduler_Task3->_Mode_MainFunction
    _Mode_MainFunction->_Start_Setting_Timer
    _Start_Setting_Timer->___wmul
    _LED_MainFunction->_LED_BLINKING
    _LED_BLINKING->___wmul
    ___flmul->__Umul8_16
    _Average_Value->___lldiv
    _Display_MainFunction->_Display_Blink
    _Display_MainFunction->___awdiv
    _Display_Blink->___wmul
    _Scheduler_Init->_memset

Critical Paths under _myISR in BANK0

    _Timer0_CallBack->_Scheduler_ActivateTask
    _Scheduler_ActivateTask->___llmod
    ___llmod->i1___lldiv

Critical Paths under _main in BANK1

    _main->_Scheduler_Start
    _Mode_MainFunction->_Start_Setting_Timer
    _LED_MainFunction->_LED_BLINKING
    _ADC_Conv_MainFunction->_ADC_Value_Ready_CallBack
    _ADC_Value_Ready_CallBack->_Temperature_Calc
    _Temperature_Calc->___fltol
    ___fltol->___flmul
    ___flmul->___xxtofl
    _Average_Value->___lldiv
    _Scheduler_Task1->_Display_MainFunction
    _Display_MainFunction->_Display_Blink

Critical Paths under _myISR in BANK1

    None.

Critical Paths under _main in BANK3

    None.

Critical Paths under _myISR in BANK3

    None.

Critical Paths under _main in BANK2

    None.

Critical Paths under _myISR in BANK2

    None.

Call Graph Tables:

 ---------------------------------------------------------------------------------
 (Depth) Function   	        Calls       Base Space   Used Autos Params    Refs
 ---------------------------------------------------------------------------------
 (0) _main                                                 0     0      0   10578
                           _ADC_Init
                     _ADC_Start_Conv
                       _Display_Init
                      _Elements_Init
                          _GPIO_Init
                          _Mode_Init
                        _On_Off_Init
                     _Scheduler_Init
                    _Scheduler_Start
                        _Timer0_Init
 ---------------------------------------------------------------------------------
 (1) _Timer0_Init                                          0     0      0       0
 ---------------------------------------------------------------------------------
 (1) _Scheduler_Start                                      1     1      0   10175
                                             49 BANK1      1     1      0
                    _Scheduler_Task1 *
                    _Scheduler_Task2 *
                    _Scheduler_Task3 *
                             ___bmul
 ---------------------------------------------------------------------------------
 (2) ___bmul                                               3     2      1     125
                                             26 BANK0      3     2      1
 ---------------------------------------------------------------------------------
 (2) _Scheduler_Task3                                      0     0      0    1034
                   _Elements_Control
                  _Mode_MainFunction
 ---------------------------------------------------------------------------------
 (3) _Mode_MainFunction                                    1     1      0     990
                                             34 BANK0      1     1      0
               _Read_UP_DOWN_BUTTONS
                _Reset_Setting_Timer
                _Start_Setting_Timer
 ---------------------------------------------------------------------------------
 (4) _Start_Setting_Timer                                  6     2      4     990
                                             32 BANK0      2     2      0
                                              0 BANK1      4     0      4
                             ___wmul
 ---------------------------------------------------------------------------------
 (4) _Reset_Setting_Timer                                  0     0      0       0
 ---------------------------------------------------------------------------------
 (4) _Read_UP_DOWN_BUTTONS                                 1     1      0       0
                                             26 BANK0      1     1      0
 ---------------------------------------------------------------------------------
 (3) _Elements_Control                                     5     5      0      44
                                             26 BANK0      5     5      0
 ---------------------------------------------------------------------------------
 (2) _Scheduler_Task2                                      0     0      0    6965
              _ADC_Conv_MainFunction
                   _LED_MainFunction
 ---------------------------------------------------------------------------------
 (3) _LED_MainFunction                                     0     0      0     990
                       _LED_BLINKING
 ---------------------------------------------------------------------------------
 (4) _LED_BLINKING                                         6     2      4     990
                                             32 BANK0      2     2      0
                                              0 BANK1      4     0      4
                             ___wmul
 ---------------------------------------------------------------------------------
 (3) _ADC_Conv_MainFunction                                0     0      0    5975
           _ADC_Value_Ready_CallBack
 ---------------------------------------------------------------------------------
 (4) _ADC_Value_Ready_CallBack                             2     2      0    5975
                                             47 BANK1      2     2      0
                   _Temperature_Calc
 ---------------------------------------------------------------------------------
 (5) _Temperature_Calc                                     5     5      0    5941
                                             42 BANK1      5     5      0
                      _Average_Value
                            ___flmul
                            ___fltol
                            ___lwmod
                           ___xxtofl
 ---------------------------------------------------------------------------------
 (6) ___xxtofl                                            14    10      4     566
                                             26 BANK0      8     4      4
                                              0 BANK1      6     6      0
 ---------------------------------------------------------------------------------
 (6) ___fltol                                             10     6      4     427
                                             32 BANK1     10     6      4
                            ___flmul (ARG)
                           ___xxtofl (ARG)
 ---------------------------------------------------------------------------------
 (6) ___flmul                                             26    18      8    3172
                                              6 BANK1     26    18      8
                          __Umul8_16
                           ___xxtofl (ARG)
 ---------------------------------------------------------------------------------
 (7) __Umul8_16                                            9     7      2     799
                                             26 BANK0      9     7      2
 ---------------------------------------------------------------------------------
 (6) _Average_Value                                       12    11      1    1282
                                              5 BANK1     12    11      1
                            ___lldiv
                            ___lwmod
 ---------------------------------------------------------------------------------
 (6) ___lwmod                                              5     1      4     463
                                             26 BANK0      5     1      4
 ---------------------------------------------------------------------------------
 (7) ___lldiv                                             14     6      8     531
                                             26 BANK0      9     1      8
                                              0 BANK1      5     5      0
 ---------------------------------------------------------------------------------
 (2) _Scheduler_Task1                                      0     0      0    1890
               _Display_MainFunction
 ---------------------------------------------------------------------------------
 (3) _Display_MainFunction                                 2     2      0    1890
                                              4 BANK1      2     2      0
                      _Display_Blink
                            ___awdiv
                            ___awmod
 ---------------------------------------------------------------------------------
 (4) ___awmod                                              6     2      4     448
                                             26 BANK0      6     2      4
 ---------------------------------------------------------------------------------
 (4) ___awdiv                                              8     4      4     452
                                             26 BANK0      8     4      4
 ---------------------------------------------------------------------------------
 (4) _Display_Blink                                        6     2      4     990
                                             32 BANK0      2     2      0
                                              0 BANK1      4     0      4
                             ___wmul
 ---------------------------------------------------------------------------------
 (5) ___wmul                                               6     2      4     748
                                             26 BANK0      6     2      4
 ---------------------------------------------------------------------------------
 (1) _Scheduler_Init                                       0     0      0     403
                             _memset
 ---------------------------------------------------------------------------------
 (2) _memset                                               6     2      4     403
                                             26 BANK0      6     2      4
 ---------------------------------------------------------------------------------
 (1) _On_Off_Init                                          0     0      0       0
 ---------------------------------------------------------------------------------
 (1) _Mode_Init                                            0     0      0       0
 ---------------------------------------------------------------------------------
 (1) _GPIO_Init                                            0     0      0       0
 ---------------------------------------------------------------------------------
 (1) _Elements_Init                                        0     0      0       0
 ---------------------------------------------------------------------------------
 (1) _Display_Init                                         0     0      0       0
 ---------------------------------------------------------------------------------
 (1) _ADC_Start_Conv                                       0     0      0       0
 ---------------------------------------------------------------------------------
 (1) _ADC_Init                                             0     0      0       0
 ---------------------------------------------------------------------------------
 Estimated maximum stack depth 7
 ---------------------------------------------------------------------------------
 (Depth) Function   	        Calls       Base Space   Used Autos Params    Refs
 ---------------------------------------------------------------------------------
 (8) _myISR                                                4     4      0     897
                                             22 BANK0      4     4      0
               _EXTI_On_Off_CallBack
                    _Timer0_CallBack
 ---------------------------------------------------------------------------------
 (9) _Timer0_CallBack                                      0     0      0     897
             _Scheduler_ActivateTask
 ---------------------------------------------------------------------------------
 (10) _Scheduler_ActivateTask                              9     5      4     897
                                             13 BANK0      9     5      4
                            ___llmod
                           i1___bmul
                          i1___lldiv
 ---------------------------------------------------------------------------------
 (11) i1___lldiv                                          14     6      8     214
                                              3 COMMON     9     1      8
                                              0 BANK0      5     5      0
                           i1___bmul (ARG)
 ---------------------------------------------------------------------------------
 (11) i1___bmul                                            3     2      1      87
                                              0 COMMON     3     2      1
 ---------------------------------------------------------------------------------
 (11) ___llmod                                            10     2      8     311
                                             12 COMMON     2     2      0
                                              5 BANK0      8     0      8
                           i1___bmul (ARG)
                          i1___lldiv (ARG)
 ---------------------------------------------------------------------------------
 (9) _EXTI_On_Off_CallBack                                 0     0      0       0
 ---------------------------------------------------------------------------------
 Estimated maximum stack depth 11
 ---------------------------------------------------------------------------------

 Call Graph Graphs:

 _main (ROOT)
   _ADC_Init
   _ADC_Start_Conv
   _Display_Init
   _Elements_Init
   _GPIO_Init
   _Mode_Init
   _On_Off_Init
   _Scheduler_Init
     _memset
   _Scheduler_Start
     _Scheduler_Task1 *
       _Display_MainFunction
         _Display_Blink
           ___wmul
         ___awdiv
         ___awmod
     _Scheduler_Task2 *
       _ADC_Conv_MainFunction
         _ADC_Value_Ready_CallBack
           _Temperature_Calc
             _Average_Value
               ___lldiv
               ___lwmod
             ___flmul
               __Umul8_16
               ___xxtofl (ARG)
             ___fltol
               ___flmul (ARG)
                 __Umul8_16
                 ___xxtofl (ARG)
               ___xxtofl (ARG)
             ___lwmod
             ___xxtofl
       _LED_MainFunction
         _LED_BLINKING
           ___wmul
     _Scheduler_Task3 *
       _Elements_Control
       _Mode_MainFunction
         _Read_UP_DOWN_BUTTONS
         _Reset_Setting_Timer
         _Start_Setting_Timer
           ___wmul
     ___bmul *
   _Timer0_Init

 _myISR (ROOT)
   _EXTI_On_Off_CallBack
   _Timer0_CallBack
     _Scheduler_ActivateTask
       ___llmod
         i1___bmul (ARG)
         i1___lldiv (ARG)
           i1___bmul (ARG)
       i1___bmul
       i1___lldiv
         i1___bmul (ARG)

 Address spaces:
Name               Size   Autos  Total    Cost      Usage
BANK3               60      0      28       9       41.7%
BITBANK3            60      0       0       8        0.0%
SFR3                 0      0       0       4        0.0%
BITSFR3              0      0       0       4        0.0%
BANK2               60      0       0      11        0.0%
BITBANK2            60      0       0      10        0.0%
SFR2                 0      0       0       5        0.0%
BITSFR2              0      0       0       5        0.0%
BANK1               50     32      38       7       70.0%
BITBANK1            50      0       0       6        0.0%
SFR1                 0      0       0       2        0.0%
BITSFR1              0      0       0       2        0.0%
BANK0               50     23      36       5       67.5%
BITBANK0            50      0       0       4        0.0%
SFR0                 0      0       0       1        0.0%
BITSFR0              0      0       0       1        0.0%
COMMON               E      E       E       1      100.0%
BITCOMMON            E      0       0       0        0.0%
CODE                 0      0       0       0        0.0%
DATA                 0      0      A4      12        0.0%
ABS                  0      0      A4       3        0.0%
NULL                 0      0       0       0        0.0%
STACK                0      0       0       2        0.0%
EEDATA             100      0       0       0        0.0%


Microchip Technology PIC Macro Assembler V2.20 build 20200408173844 
Symbol Table                                                                                   Sun Jul 12 16:53:18 2020

                                        pc 0002                             ___bmul@product 003B  
                                       l23 0A36                                         l32 0A54  
                                       l27 095E                                         l35 0997  
                                       l66 0B62                                         l91 0927  
                                       l67 0B62                                         l78 06D1  
                             ___awdiv@sign 003F                                         fsr 0004  
                      ___wmul@multiplicand 003C                        __Umul8_16@word_mpld 0040  
                         ??_ADC_Start_Conv 003A                                        l120 096B  
                                      l105 0ADF                                        l203 0D2D  
                                      l235 0A6B                                        l163 0CD3  
                                      l323 0920                                        l156 0629  
                                      l165 0CD9                                        l254 0A73  
                                      l326 0945                                        l247 0A71  
                                      l239 0A6C                                        l352 09B7  
                                      l185 0B9D                                        l329 0979  
                                      l178 0988                                        l370 0951  
                                      l339 075F                                        l195 0C90  
                                      l508 07E9                                        l381 093A  
                                      l279 0B9E                                        l288 09A7  
                                      l472 0AEE                                        l625 0F15  
                                      l377 0E44                                        l474 0B06  
                                      l386 0C4E                                        l638 0DDE  
                                      l665 0FEA                                        l905 0458  
                                      l754 0C12                                        l658 0FFF  
                                      l498 09FA                                        l907 051F  
                                      l668 0FFF                                        l861 0414  
                                      l926 0A95                                        l918 04C5  
                                      l919 04D1                                        l880 0B1D  
                                      l873 0408                                        l882 0B2F  
                                      l867 0380                       ?_Reset_Setting_Timer 0070  
                                      fsr0 0004                                        indf 0000  
                             ___awmod@sign 003F                               ___flmul@aexp 00B4  
                             ___flmul@bexp 00B9                               ___flmul@sign 00B3  
                             ___flmul@temp 00BE                               ___flmul@prod 00BA  
                             ___fltol@exp1 00C9                                       l3000 0A3D  
                                     l3010 0520                                       l3002 0A41  
                                     l2210 0938                                       l2220 0EBB  
                                     l2212 0EAD                                       l3020 053D  
                                     l3012 0527                                       l3004 0A46  
                                     l3100 0DE4                                       l2230 0ED0  
                                     l2222 0EBF                                       l2214 0EB0  
                                     l3030 0596                                       l3022 0542  
                                     l3014 052D                                       l3006 0A4C  
                                     l3110 0E19                                       l3102 0DEC  
                                     l2160 0AFC                                       l2152 0AE0  
                                     l2240 0EF3                                       l2232 0ED3  
                                     l2224 0EC4                                       l2216 0EB4  
                                     l3040 05A9                                       l3032 059A  
                                     l3024 054C                                       l3016 0530  
                                     l3008 0A51                                       l2400 0CFE  
                                     l2208 0930                                       l3120 0E41  
                                     l3112 0E1D                                       l3104 0DF9  
                                     l3130 0A87                                       l2162 0B02  
                                     l2154 0AE4                                       l2250 0F0C  
                                     l2242 0EF9                                       l2234 0EDA  
                                     l2226 0EC8                                       l2218 0EB9  
                                     l3050 05BD                                       l3042 05AE  
                                     l3034 059F                                       l3026 0553  
                                     l3018 0536                                       l2410 0D20  
                                     l2402 0D02                                       l2170 0ABA  
                                     l3106 0E07                                       l3114 0E23  
                                     l3124 0A77                                       l2156 0AE8  
                                     l2252 0F11                                       l2244 0EFA  
                                     l2236 0EDE                                       l2228 0ECA  
                                     l2260 0D8B                                       l3060 05D6  
                                     l3052 05C2                                       l3044 05B2  
                                     l3036 05A3                                       l3028 055A  
                                     l2412 0D21                                       l2404 0D03  
                                     l2172 0AC8                                       l3116 0E2F  
                                     l3108 0E13                                       l3126 0A7C  
                                     l2158 0AF5                                       l2246 0F01  
                                     l2238 0EE2                                       l2270 0DA1  
                                     l2262 0D90                                       l3062 05DB  
                                     l3054 05C7                                       l3046 05B6  
                                     l3070 05EA                                       l3038 05A7  
                                     l2406 0D08                                       l2414 0D24  
                                     l2174 0AD4                                       l3118 0E3B  
                                     l3150 093B                                       l3128 0A83  
                                     l2248 0F07                                       l2280 0DBD  
                                     l2272 0DA4                                       l2264 0D92  
                                     l2256 0D84                                       l3224 05F4  
                                     l3064 05E0                                       l3056 05CC  
                                     l3048 05B8                                       l3072 0614  
                                     l3080 0C4F                                       l2408 0D1C  
                                     l2176 0ADB                                       l3152 0940  
                                     l2600 09B2                                       l2290 0DDA  
                                     l2282 0DC3                                       l2274 0DAB  
                                     l2266 0D96                                       l2258 0D87  
                                     l3074 061C                                       l3066 05E5  
                                     l3058 05D1                                       l3090 0C79  
                                     l3082 0C57                                       l3154 096C  
                                     l3170 0BCB                                       l2602 09B6  
                                     l3156 0998                                       l2284 0DCA  
                                     l2276 0DAF                                       l2268 0D9B  
                                     l2700 07C9                                       l3092 0C7D  
                                     l3084 0C5E                                       l3148 091B  
                                     l2540 09E8                                       l3172 0BCF  
                                     l3164 0BA1                                       l3180 0B35  
                                     l2278 0DB3                                       l2286 0DD0  
                                     l2702 07D1                                       l2710 0656  
                                     l3094 0C84                                       l3086 0C6C  
                                     l2550 09F9                                       l2542 09EC  
                                     l3166 0BAA                                       l3158 0B9E  
                                     l3190 0B5D                                       l3182 0B3A  
                                     l2560 0A55                                       l2288 0DD5  
                                     l2720 0695                                       l2712 066E  
                                     l2800 00B4                                       l3096 0C8A  
                                     l3088 0C72                                       l2544 09F0  
                                     l3168 0BC4                                       l3184 0B4E  
                                     l2554 0A19                                       l2562 0A5B  
                                     l2722 0699                                       l2706 062D  
                                     l2810 00E1                                       l2802 00B9  
                                     l2394 0CDD                                       l3098 0DDF  
                                     l2546 09F2                                       l2538 09E7  
                                     l3186 0B53                                       l3178 0B30  
                                     l2556 0952                                       l2564 0A5F  
                                     l1860 0BDF                                       l2724 069F  
                                     l2708 0635                                       l2900 0401  
                                     l2820 0183                                       l2812 00EE  
                                     l2804 00BE                                       l2740 0FBA  
                                     l2732 0F9A                                       l2396 0CE1  
                                     l2548 09F4                                       l3188 0B58  
                                     l2558 0958                                       l2574 0A6D  
                                     l2566 0A63                                       l2590 0946  
                                     l2582 0921                                       l1870 0BFB  
                                     l1862 0BE2                                       l2718 0671  
                                     l2902 040C                                       l2830 01F9  
                                     l2822 019F                                       l2814 0115  
                                     l2750 0FCF                                       l2742 0FBE  
                                     l2734 0FAF                                       l2726 0F84  
                                     l2910 0423                                       l2398 0CE8  
                                     l2584 095F                                       l2568 0A67  
                                     l2592 0949                                       l2680 0760  
                                     l1872 0C01                                       l1864 0BE9  
                                     l1880 0B0A                                       l2840 02A7  
                                     l2832 0216                                       l2824 01A8  
                                     l2816 0131                                       l2808 00C7  
                                     l2760 0FEF                                       l2752 0FD8  
                                     l2736 0FB0                                       l2728 0F91  
                                     l2920 0472                                       l2912 0441  
                                     l2586 0969                                       l2578 0A72  
                                     l2594 094B                                       l2690 078E  
                                     l2682 0774                                       l1874 0C08  
                                     l1866 0BED                                       l1858 0BD7  
                                     l1890 0B2B                                       l1882 0B0C  
                                     l2850 0343                                       l2842 02DE  
                                     l2834 0239                                       l2826 01C2  
                                     l2818 0167                                       l2770 006B  
                                     l2762 0FF4                                       l2738 0FB8  
                                     l2930 0498                                       l2922 0476  
                                     l2914 0462                                       l2906 0418  
                                     l2588 097A                                       l2692 079C  
                                     l2684 0779                                       l1868 0BF1  
                                     l1876 0C0E                                       l1884 0B13  
                                     l2852 034C                                       l2860 0360  
                                     l2844 0304                                       l2836 0256  
                                     l2828 01DF                                       l2780 0080  
                                     l2772 006C                                       l2764 005A  
                                     l2748 0FC6                                       l2940 04C9  
                                     l2932 04A1                                       l2924 047F  
                                     l2908 041D                                       l2694 07AE  
                                     l2686 0782                                       l1886 0B17  
                                     l2862 0364                                       l2854 0350  
                                     l2846 032C                                       l2838 028D  
                                     l2790 0098                                       l2782 0088  
                                     l2774 0071                                       l2766 0061  
                                     l2758 0FDF                                       l2950 0507  
                                     l2942 04D3                                       l2934 04A8  
                                     l2926 0486                                       l2918 046B  
                                     l2598 09A8                                       l2696 07BC  
                                     l2688 0788                                       l1888 0B26  
                                     l2880 03B5                                       l2872 0385  
                                     l2864 0365                                       l2856 0351  
                                     l2848 0335                                       l2792 009D  
                                     l2784 008D                                       l2776 0076  
                                     l2768 0067                                       l2944 04F9  
                                     l2936 04B9                                       l2928 048A  
                                     l2960 0758                                       l2970 0CBD  
                                     l2698 07BF                                       l2890 03EC  
                                     l2874 038A                                       l2882 03BB  
                                     l2866 0369                                       l2858 035A  
                                     l2794 00A2                                       l2786 0093  
                                     l2778 007E                                       l2946 04FE  
                                     l2938 04BF                                       l2962 075E  
                                     l2954 06D5                                       l2980 0CD1  
                                     l2972 0CC2                                       l2892 03EE  
                                     l2884 03C8                                       l2876 0398  
                                     l2868 037D                                       l2796 00AA  
                                     l2788 0097                                       l2948 0504  
                                     l2956 0732                                       l2964 0989  
                                     l2974 0CC3                                       l2982 0CD5  
                                     l2894 03F4                                       l2886 03D3  
                                     l2878 039C                                       l2798 00AC  
                                     l2958 0740                                       l2966 0991  
                                     l2990 0B99                                       l2976 0CC7  
                                     l2968 0C91                                       l2896 03FC  
                                     l2888 03E2                                       l2984 0B66  
                                     l2992 0C13                                       l2978 0CCC  
                                     l2898 0400                                       l2986 0B92  
                                     l2994 0C41                                       l2988 0B96  
                                     l2996 0C48                                       l2998 0A37  
                           ??_LED_BLINKING 0040                                       u3120 0CE1  
                                     u3121 0CE0                                       u4010 0350  
                                     u3130 0CE8                                       u4011 034F  
                                     u3131 0CE7                                       u4100 03C8  
                                     u3140 0CFE                                       u4101 03C7  
                                     u4005 0345                                       u3141 0CFD  
                                     u4110 03E2                                       u4030 0364  
                                     u3150 0D1C                                       u4111 03E1  
                                     u4031 0363                                       u3151 0D1B  
                                     u2600 0AE8                                       u4120 0400  
                                     u4040 0369                                       u2601 0AE7  
                                     u4121 03FF                                       u4105 03C4  
                                     u4041 0368                                       u4025 0353  
                                     u3145 0CFA                                       u4050 037D  
                                     u4210 04BF                                       u4130 041D  
                                     u4115 03DE                                       u4051 037C  
                                     u4211 04BE                                       u4131 041C  
                                     u3155 0D18                                       u4300 0CD1  
                                     u1900 0C0E                                       u4060 0384  
                                     u4220 04C5                                       u4140 0423  
                                     u4301 0CD0                                       u1901 0C0D  
                                     u4061 0383                                       u4221 04C4  
                                     u4205 04AE                                       u4141 0422  
                                     u2630 0B02                                       u1910 0B17  
                                     u4070 038A                                       u4230 04C9  
                                     u4150 0462                                       u4310 0B92  
                                     u2631 0B01                                       u2615 0AEF  
                                     u1911 0B16                                       u4071 0389  
                                     u4231 04C8                                       u4151 0461  
                                     u4311 0B91                                       u4400 0553  
                                     u4080 039C                                       u4240 04E0  
                                     u4320 0C41                                       u2625 0AF6  
                                     u4401 0552                                       u4081 039B  
                                     u4321 0C40                                       u2810 0EF3  
                                     u4410 055A                                       u3610 07D1  
                                     u1850 0BDF                                       u1930 0B2B  
                                     u4090 03AB                                       u4250 04FE  
                                     u4170 0485                                       u4330 0A3D  
                                     u2650 0AC8                                       u3450 09EC  
                                     u2811 0EF2                                       u4411 0559  
                                     u3611 07D0                                       u1851 0BDE  
                                     u1931 0B2A                                       u4251 04FD  
                                     u4171 0484                                       u4331 0A3C  
                                     u4315 0B8E                                       u2651 0AC7  
                                     u3451 09EB                                       u2900 0DBD  
                                     u4420 059F                                       u4260 0504  
                                     u4340 0A41                                       u4500 0C8A  
                                     u2740 0938                                       u3460 09F9  
                                     u2805 0EE3                                       u2901 0DBC  
                                     u4421 059E                                       u3605 07C0  
                                     u1925 0B1E                                       u4261 0503  
                                     u4245 04DB                                       u4165 0477  
                                     u4341 0A40                                       u4501 0C89  
                                     u2645 0ABF                                       u2741 0937  
                                     u4325 0C3D                                       u3461 09F8  
                                     u3470 0958                                       u2830 0F07  
                                     u2750 0EB4                                       u4430 05AE  
                                     u3550 0774                                       u1870 0BF1  
                                     u3710 0FD7                                       u4190 04A7  
                                     u4270 075E                                       u4350 0A46  
                                     u2670 0AD4                                       u4510 0DEC  
                                     u3471 0957                                       u2831 0F06  
                                     u2815 0EEF                                       u2751 0EB3  
                                     u4431 05AD                                       u3551 0773  
                                     u1871 0BF0                                       u4095 03A6  
                                     u3711 0FD6                                       u4191 04A6  
                                     u4271 075D                                       u4351 0A45  
                                     u2671 0AD3                                       u4511 0DEB  
                                     u4280 0CBD                                       u2840 0F0C  
                                     u2760 0EBF                                       u2920 0DD0  
                                     u4440 061C                                       u1880 0BFB  
                                     u3800 009D                                       u3720 0FDE  
                                     u4360 0A4C                                       u2680 0ADB  
                                     u4600 0E3B                                       u4281 0CBC  
                                     u2841 0F0B                                       u2825 0EFB  
                                     u2761 0EBE                                       u2921 0DCF  
                                     u2905 0DB9                                       u4441 061B  
                                     u1881 0BFA                                       u1865 0BE3  
                                     u3641 0686                                       u3625 0641  
                                     u3801 009C                                       u3721 0FDD  
                                     u3705 0FC7                                       u4185 0499  
                                     u4361 0A4B                                       u2681 0ADA  
                                     u2665 0ACB                                       u4601 0E3A  
                                     u4290 0CC2                                       u2770 0ED0  
                                     u2930 0DD5                                       u2850 0D8B  
                                     u4370 0527                                       u3570 078E  
                                     u3650 069F                                       u3642 0687  
                                     u3810 00A2                                       u4450 0C57  
                                     u4610 0E41                                       u4530 0E07  
                                     u4291 0CC1                                       u2771 0ECF  
                                     u2931 0DD4                                       u2915 0DC4  
                                     u2851 0D8A                                       u4371 0526  
                                     u3571 078D                                       u3651 069E  
                                     u3643 068D                                       u3635 0674  
                                     u3811 00A1                                       u4451 0C56  
                                     u4611 0E40                                       u4531 0E06  
                                     u4620 0A95                                       u2860 0D96  
                                     u4380 0536                                       u3644 068E  
                                     u3820 00B9                                       u3740 0FEF  
                                     u3660 0F91                                       u4460 0C5E  
                                     u4621 0A94                                       u4285 0CB9  
                                     u2861 0D95                                       u4381 0535  
                                     u3565 077B                                       u1885 0BF7  
                                     u3645 0694                                       u3901 0208  
                                     u3821 00B8                                       u3741 0FEE  
                                     u3661 0F90                                       u4461 0C5D  
                                     u4525 0DFE                                       u2790 0EE2  
                                     u2870 0DA1                                       u4390 0542  
                                     u3590 07AE                                       u3646 0695  
                                     u3902 020F                                       u3830 00BE  
                                     u3750 0FF4                                       u3670 0FA8  
                                     u4470 0C72                                       u4550 0E13  
                                     u2791 0EE1                                       u2871 0DA0  
                                     u4391 0541                                       u3591 07AD  
                                     u1895 0C02                                       u3903 0216  
                                     u3831 00BD                                       u3751 0FF3  
                                     u3735 0FE1                                       u4471 0C71  
                                     u4551 0E12                                       u3760 006B  
                                     u3680 0FBE                                       u4480 0C79  
                                     u4560 0E19                                       u2785 0ED4  
                                     u3585 0791                                       u3921 0248  
                                     u3841 0123                                       u3761 006A  
                                     u3681 0FBD                                       u4481 0C78  
                                     u4561 0E18                                       u4545 0E0A  
                                     u2890 0DB3                                       u3922 024F  
                                     u3842 012A                                       u3770 0071  
                                     u3690 0FC5                                       u4490 0C84  
                                     u4650 0BAA                                       u2891 0DB2  
                                     u3595 07AA                                       u3931 027F  
                                     u3923 0256                                       u3915 0218  
                                     u3851 013F                                       u3843 0131  
                                     u3771 0070                                       u3691 0FC4  
                                     u3675 0FA3                                       u4491 0C83  
                                     u4651 0BA9                                       u3932 0286  
                                     u3852 0146                                       u3780 0076  
                                     u4580 0E2F                                       u4660 0BD5  
                                     u2885 0DA5                                       u3941 02B6  
                                     u3933 028D                                       u3861 0175  
                                     u3853 014D                                       u3781 0075  
                                     u4581 0E2E                                       u4661 0BD4  
                                     u3950 02EA                                       u3942 02BD  
                                     u3862 017C                                       u3790 0097  
                                     u3943 02C4                                       u3871 0191  
                                     u3863 0183                                       u3791 0096  
                                     u4575 0E26                                       u3872 0198  
                                     u3961 02F6                                       u3873 019F  
                                     u3970 0312                                       u3962 02FD  
                                     u3963 0304                                       u3955 02E5  
                                     u3891 01D1                                       u4595 0E32  
                                     u3892 01D8                                       u3981 031E  
                                     u3893 01DF                                       u3885 01A1  
                                     u3982 0325                                       u3983 032C  
                                     u3975 030D                                       i1l99 09E3  
                                     u3995 032E                                       _TMR0 0001  
                                     _Mode 00D2                  __size_of_Temperature_Calc 008E  
                        i1___lldiv@divisor 0073                                       _main 0B30  
                 ??_Scheduler_ActivateTask 007E                                       btemp 007E  
                        i1___lldiv@counter 0024                           __end_of_ADC_Init 0A37  
                                     start 0012                         __size_of_GPIO_Init 001F  
                            ??_On_Off_Init 003A                          ___bmul@multiplier 003C  
                         ??_Scheduler_Init 0040                          ??_Timer0_CallBack 007E  
                          _Average_Nvalues 0055                              ___fltol@sign1 00C8  
                                    ?_main 0070                            __end_of___awdiv 0F16  
                    ??_Reset_Setting_Timer 003A                            __end_of___awmod 0DDF  
                          __end_of___flmul 0415                            __end_of___fltol 1000  
                          __end_of___lldiv 07EA                            ___awdiv@divisor 003A  
                          __end_of___llmod 0D84                                      i1l270 0AAD  
                          __end_of___lwmod 0C13                                      i1l355 0A18  
                                    i1l267 0AA1                                      i1l508 0EAC  
                                    i1l294 0F83                                      i1l498 09CC  
                                    i1l694 0D83                            ___awdiv@counter 003E  
                                    _PORTA 0005                                      _PORTB 0006  
                                    _PORTC 0007                                      _PORTD 0008  
                                    _TRISA 0085                                      _TRISB 0086  
                                    _TRISC 0087                                      _TRISD 0088  
                       i1___lldiv@dividend 0077                                      _myISR 0A96  
                                    fpbase 0050                      Display_Blink@Times_Ms 00A0  
               Average_Value@Avrage_Values 00A5                           __end_ofi1___bmul 09CD  
                                    pclath 000A                                      status 0003  
                                    wtemp0 007E                 Average_Value@Avrage_buffer 00AC  
                       __size_ofi1___lldiv 0068                 ??_ADC_Value_Ready_CallBack 0043  
             __size_of_Start_Setting_Timer 003C                            __initialization 0015  
                        ??_Scheduler_Task1 0042                          ??_Scheduler_Task2 0043  
                        ??_Scheduler_Task3 0043                               __end_of_main 0B66  
                        ??_Scheduler_Start 0043                         i1___lldiv@quotient 0020  
                      __end_of_On_Off_Init 0928                                     ??_main 0043  
                        __end_of_GPIO_Init 0A74                       __end_of_Display_Init 096C  
                     _Display_MainFunction 0520                                     ?_myISR 0070  
                         ___llmod@dividend 0029                                     _ADRESH 001E  
                                   _ADRESL 009E                           ___awdiv@dividend 003C  
                                   i1l3200 0AA6                                     i1l3202 0AA8  
                                   i1l2500 09C6                                     i1l3140 0F21  
                                   i1l3132 0F16                                     i1l2502 09CB  
                                   i1l3142 0F73                                     i1l3134 0F20  
                                   i1l3144 0F79                                     i1l2450 0D48  
                                   i1l2442 0D2E                                     i1l3146 0F7D  
                                   i1l2620 09CD                                     i1l2452 0D4C  
                                   i1l2444 0D38                                     i1l2460 0D7B  
                                   i1l2622 09D5                                     i1l2454 0D5E  
                                   i1l2446 0D3B                                     i1l2470 0E63  
                                   i1l3174 09FB                                     i1l2624 09DA  
                                   i1l2456 0D6C                                     i1l2448 0D44  
                                   i1l2480 0E94                                     i1l2472 0E67  
                                   i1l2464 0E45                                     i1l3176 0A0B  
                                   i1l3192 0A96                                     i1l2626 09DC  
                                   i1l2458 0D75                                     i1l2490 09B9  
                                   i1l2482 0E95                                     i1l2474 0E6B  
                                   i1l2466 0E57                                     i1l3194 0A9A  
                                   i1l2628 09E1                                     i1l2492 09BA  
                                   i1l2484 0E9E                                     i1l2476 0E74  
                                   i1l2468 0E5A                                     i1l3196 0A9B  
                                   i1l2494 09BE                                     i1l2478 0E86  
                                   i1l2486 0EA4                                     i1l3198 0AA5  
                                   i1l2496 09C2                                     i1l2498 09C4  
                                   _INTEDG 040E                                     u330_20 0D5E  
                                   u330_21 0D5D                                     u330_25 0D5A  
                                   u331_25 0D6D                                     u332_20 0D7B  
                                   u340_20 09BE                                     u332_21 0D7A  
                                   u340_21 09BD                                     u341_20 09CB  
                                   u333_20 0E57                                     u341_21 09CA  
                                   u333_21 0E56                                     u350_20 09D5  
                                   u350_21 09D4                                     u334_25 0E5C  
                                   u351_20 09DA                                     u327_20 0D38  
                                   u335_20 0E6B                                     u351_21 09D9  
                                   u327_21 0D37                                     u335_21 0E6A  
                                   u352_20 09E1                                     u352_21 09E0  
                                   u328_25 0D3D                                     u336_25 0E6D  
                                   u329_20 0D4C                                     u337_20 0E86  
                                   u329_21 0D4B                                     u337_21 0E85  
                                   u337_25 0E82                                     u338_25 0E96  
                                   u339_20 0EA4                                     u339_21 0EA3  
                                   u463_20 0F73                                     u463_21 0F72  
                                   u464_20 0F83                                     u464_21 0F82  
                                   u467_20 0A9A                                     u467_21 0A99  
                                   u468_20 0AA5                                     u468_21 0AA4  
                         __end_of__fptable 005A                           __end_of___xxtofl 0520  
          __size_of_Scheduler_ActivateTask 006E                         __size_of_Mode_Init 000C  
                           _Enable_Display 004C                              ??_Timer0_Init 003A  
             __end_of_EXTI_On_Off_CallBack 09E4       Scheduler_ActivateTask@SystemTick_Loc 0031  
                                   ___bmul 09E4                  __size_of_LED_MainFunction 0042  
                                   ___wmul 0AE0                                  ??___awdiv 003E  
                                ??___awmod 003E                                  ??___flmul 00AE  
                                ??___fltol 00C4                                  ??___lldiv 0042  
                                ??___llmod 007C                                  ??___lwmod 003E  
                                   _memset 0A74                       __end_of_LED_BLINKING 0B9E  
                         ___awdiv@quotient 0040                            ___awmod@divisor 003A  
                          ___awmod@counter 003E          Scheduler_ActivateTask@IntityIndex 0035  
           __size_of_ADC_Conv_MainFunction 001E                                     fptable 004B  
            __end_of_ADC_Conv_MainFunction 0A55                          __end_ofi1___lldiv 0EAD  
                                   fptotal 0006                         __size_of__Umul8_16 0029  
                                ?_ADC_Init 0070                                     saved_w 007E  
             __end_of_Read_UP_DOWN_BUTTONS 0AE0                      ?_Display_MainFunction 0070  
         Scheduler_ActivateTask@SystemTick 002D                      __end_of_Elements_Init 0989  
                             ___xxtofl@arg 00A2                          ?_Elements_Control 0070  
                             ___xxtofl@exp 00A1                               ___xxtofl@val 003A  
                         _Temperature_Calc 06D2                    __end_of__initialization 0047  
                       ??_Elements_Control 003A                                 ___fltol@f1 00C0  
                      ___bmul@multiplicand 003A                                _On_Off_Init 0921  
                           __pcstackCOMMON 0070                               __pidataBANK0 0917  
                            __end_of_myISR 0ABA                        __end_of_Timer0_Init 09B8  
                                ?i1___bmul 0070                     _Scheduler_ActivateTask 0F16  
           Start_Setting_Timer@Peroid_Task 00A2                             _OPTION_REGbits 0081  
                        __end_of_Mode_Init 0952                                 ??_ADC_Init 003A  
                    __end_of_Average_Value 06D2                           i1___bmul@product 0071  
                                  ??_myISR 0036                                 __pbssBANK0 0043  
                               __pbssBANK1 00D2                                 __pbssBANK3 0190  
                          _Timer0_CallBack 09FB                          __end_of__Umul8_16 0B30  
                               __pmaintext 0B30                      __end_of_Display_Blink 0CDA  
                                  ?___bmul 003A                                    ?___wmul 003A  
                               __pintentry 0004               Elements_Control@Average_Temp 003E  
                                  ?_memset 003A                                 ??i1___bmul 0071  
                    __size_of_Display_Init 000D                    LED_BLINKING@Task_Peroid 00A2  
              Display_MainFunction@Digit_1 004B                Display_MainFunction@Digit_2 004A  
                                ?___xxtofl 003A                     ??_Display_MainFunction 00A4  
              Display_MainFunction@Display 0048                        _Start_Setting_Timer 0C13  
                     _EXTI_On_Off_CallBack 09CD             Display_MainFunction@Tempreture 0049  
                               __stringtab 07EA                            _Scheduler_Task1 091B  
                          _Scheduler_Task2 093B                            _Scheduler_Task3 096C  
                          _Scheduler_Start 0B9E                                _Timer0_Init 09A8  
                     ?_Start_Setting_Timer 00A0                      __size_of_LED_BLINKING 0038  
                             _Display_Init 095F                       _Read_UP_DOWN_BUTTONS 0ABA  
                         _LED_MainFunction 0C4F                            __size_of___bmul 0017  
              __end_of_Reset_Setting_Timer 093B                                    ___awdiv 0EAD  
                                  ___awmod 0D84                                    ___flmul 005A  
                                  ___fltol 0F84                                    ___lldiv 0760  
                          __size_of___wmul 0027                                    ___llmod 0D2E  
                                  ___lwmod 0BD7                                _Temperature 004D  
                          __size_of_memset 0022                                    __ptext1 09A8  
                                  __ptext2 0B9E                                    __ptext3 09E4  
                                  __ptext4 093B                                    __ptext5 091B  
                                  __ptext6 096C                                    __ptext7 0DDF  
                                  __ptext8 0C13                                    __ptext9 0930  
              Start_Setting_Timer@Timer_Ms 00A0          ADC_Value_Ready_CallBack@ADC_Value 00CF  
                               ??___xxtofl 003E                           ___awmod@dividend 003C  
                      i1___bmul@multiplier 0072                      ?_EXTI_On_Off_CallBack 0070  
                  __end_of_Timer0_CallBack 0A19                                    clrloop0 0929  
                                _GPIO_Init 0A55                       end_of_initialization 0047  
                  __size_of_ADC_Start_Conv 000D                               _LED_BLINKING 0B66  
                                  memset@c 003A                                    memset@n 003C  
                                  memset@p 003E                            ___lldiv@divisor 003A  
                    ??_Start_Setting_Timer 0040                            ___lldiv@counter 00A4  
                    ?_Read_UP_DOWN_BUTTONS 0070                   __end_of_Temperature_Calc 0760  
                  __size_of_Scheduler_Init 0010                              ___xxtofl@sign 00A0  
                  __end_of_Scheduler_Task1 0921                    __end_of_Scheduler_Task2 0946  
                  __end_of_Scheduler_Task3 097A          __size_of_ADC_Value_Ready_CallBack 000F  
                                _TRISAbits 0085                                  _TRISBbits 0086  
                ?_ADC_Value_Ready_CallBack 0070                    __end_of_Scheduler_Start 0BD7  
                                i1___lldiv 0E45                          __size_of_ADC_Init 001E  
                               ?_GPIO_Init 0070                        LED_BLINKING@Counter 0052  
                              ___flmul@grs 00B5                  Temperature_Calc@ADC_VALUE 00CE  
                        _Scheduler_Intitys 07F0                        LED_BLINKING@Time_Ms 00A0  
                             ?_On_Off_Init 0070                    ?_Scheduler_ActivateTask 002D  
                           __end_of___bmul 09FB                       Display_Blink@Counter 0053  
                __size_of_Elements_Control 0054                             __end_of___wmul 0B07  
                           __end_of_memset 0A96                          __size_ofi1___bmul 0015  
                      start_initialization 0015                     ??_EXTI_On_Off_CallBack 0070  
                    _ADC_Conv_MainFunction 0A37                          _Mode_MainFunction 0DDF  
                               ?i1___lldiv 0073                           ?_Timer0_CallBack 0070  
                                _Mode_Init 0946                         ?_Mode_MainFunction 0070  
                __end_of_Scheduler_Intitys 07FF                            ___llmod@divisor 0025  
                          ___llmod@counter 007D                        ??_Mode_MainFunction 0042  
                   ??_Read_UP_DOWN_BUTTONS 003A             __end_of_Scheduler_ActivateTask 0F84  
                                 ??___bmul 003B                                   ??___wmul 003E  
                                __Umul8_16 0B07                                __pdataBANK0 0052  
                                 ??_memset 003E                     __size_of_Elements_Init 000F  
                __end_of_Mode_MainFunction 0E45                                  ___flmul@a 00AA  
                                ___flmul@b 00A6                                  ___latbits 0002  
                            __pcstackBANK0 0020                              __pcstackBANK1 00A0  
                         ?_Scheduler_Task1 0070                           ?_Scheduler_Task2 0070  
                         ?_Scheduler_Task3 0070                           ?_Scheduler_Start 0070  
                        __size_of__fptable 000F                          __size_of___xxtofl 010B  
                 __end_of_LED_MainFunction 0C91                                 ?_Mode_Init 0070  
                              ??_GPIO_Init 003A                             _ADC_Start_Conv 0952  
                             ?_Timer0_Init 0070                                  __pfunctab 004B  
                   __size_of_Average_Value 00A8                                   ?___awdiv 003A  
                                 ?___awmod 003A                                   ?___flmul 00A6  
                                 ?___fltol 00C0                                   ?___lldiv 003A  
                                 ?___llmod 0025                                 ?__Umul8_16 003A  
                                 ?___lwmod 003A                                  __pstrings 07EA  
                           _Scheduler_Init 0998                     ?_ADC_Conv_MainFunction 0070  
                                 _ADC_Info 00D4                                   _ADC_Init 0A19  
                   __end_of_ADC_Start_Conv 095F              __size_of_Display_MainFunction 010A  
                              ??i1___lldiv 007B                     __size_of_Display_Blink 0049  
                           __size_of_myISR 0024  Display_MainFunction@Enable_Digit_Selector 0054  
                        interrupt_function 0004                              _Elements_Init 097A  
                           ___wmul@product 003E                                  clear_ram0 0928  
                    i1___bmul@multiplicand 0070           __end_of_ADC_Value_Ready_CallBack 0998  
                     __size_of_On_Off_Init 0007                           _Elements_Control 0CDA  
                   __end_of_Scheduler_Init 09A8                                   i1___bmul 09B8  
                               _ADCON0bits 001F                                __stringbase 07EF  
                               _ADCON1bits 009F                          ___wmul@multiplier 003A  
                        ?_Temperature_Calc 0070               __size_of_Reset_Setting_Timer 000B  
               __size_of_Mode_MainFunction 0066                         ??_Temperature_Calc 00CA  
                          ?_ADC_Start_Conv 0070                              _Average_Value 062A  
                              ??_Mode_Init 003A                             ?_Elements_Init 0070  
              __end_of_Start_Setting_Timer 0C4F                                   _Tick_Num 0043  
                            _Display_Blink 0C91                                ??__Umul8_16 003C  
                         __size_of___awdiv 0069                           __size_of___awmod 005B  
                         __size_of___flmul 03BB                           __size_of___fltol 007C  
                         __size_of___lldiv 008A                           __size_of___llmod 0056  
                         __size_of___lwmod 003C                            ?_Scheduler_Init 0070  
                       __end_of__stringtab 07F0                                   __fptable 004B  
                                 ___xxtofl 0415                   Display_Blink@Task_Peroid 00A2  
                           ?_Average_Value 00A5                                   __ptext10 0ABA  
                                 __ptext11 0CDA                                   __ptext20 0B07  
                                 __ptext12 0C4F                                   __ptext21 062A  
                                 __ptext13 0B66                                   __ptext30 0A74  
                                 __ptext22 0BD7                                   __ptext14 0A37  
                                 __ptext31 0921                                   __ptext23 0760  
                                 __ptext15 0989                                   __ptext40 0F16  
                                 __ptext32 0946                                   __ptext24 0520  
                                 __ptext16 06D2                                   __ptext41 0E45  
                                 __ptext33 0A55                                   __ptext25 0D84  
                                 __ptext17 0415                                   __ptext42 09B8  
                                 __ptext34 097A                                   __ptext26 0EAD  
                                 __ptext18 0F84                                   __ptext43 0D2E  
                                 __ptext35 095F                                   __ptext27 0C91  
                                 __ptext19 005A                                   __ptext44 09CD  
                                 __ptext36 0952                                   __ptext28 0AE0  
                                 __ptext37 0A19                                   __ptext29 0998  
                                 __ptext38 0A96                                   __ptext39 09FB  
                            __size_of_main 0036                                   _temb_val 0190  
                           ?_Display_Blink 00A0                       __size_of_Timer0_Init 0010  
                 _ADC_Value_Ready_CallBack 0989                                 _LED_Status 0047  
                               _INTCONbits 000B                                   memset@p1 003F  
            __size_of_EXTI_On_Off_CallBack 0017                            ??_Elements_Init 003A  
                        ?_LED_MainFunction 0070                                   intlevel1 004B  
                       ??_LED_MainFunction 0042                           ___lwmod@dividend 003C  
                         ___lldiv@dividend 003E                 Scheduler_Start@IntityIndex 00D1  
                _Scheduler_ActivationFlags 00D5                   __size_of_Timer0_CallBack 001E  
                                stringcode 07EA                              ?_Display_Init 0070  
            __size_of_Read_UP_DOWN_BUTTONS 0026                    ??_ADC_Conv_MainFunction 0043  
                   __Umul8_16@multiplicand 003A                            ??_Average_Value 00A6  
                         ___lldiv@quotient 00A0                            ___lwmod@divisor 003A  
                          ___lwmod@counter 003E                                   stringdir 07EA  
                                 stringtab 07EA                         Average_Value@Value 00AB  
                       Average_Value@index 00B0                   __end_of_Elements_Control 0D2E  
                            ?_LED_BLINKING 00A0                   __size_of_Scheduler_Task1 0006  
                 __size_of_Scheduler_Task2 000B                   __size_of_Scheduler_Task3 000E  
                       fp__Scheduler_Task1 0054                         fp__Scheduler_Task2 0057  
                       fp__Scheduler_Task3 0051                   __size_of_Scheduler_Start 0039  
                     __Umul8_16@multiplier 0042                        _Reset_Setting_Timer 0930  
                          ??_Display_Blink 0040                             ??_Display_Init 003A  
             __end_of_Display_MainFunction 062A                          __Umul8_16@product 003E  
