

Microchip MPLAB XC8 Assembler V2.20 build 20200408173844 
                                                                                               Sun Jul 12 21:09:04 2020

Microchip MPLAB XC8 C Compiler v2.20 (Free license) build 20200408173844 Og1 
     1                           	processor	16F877A
     2                           	pagewidth 120
     3                           	opt	flic
     4                           	psect	idataBANK0,global,class=CODE,delta=2,noexec
     5                           	psect	strings,global,class=STRING,delta=2,noexec
     6                           	psect	cinit,global,class=CODE,merge=1,delta=2
     7                           	psect	bssBANK0,global,class=BANK0,space=1,delta=1,noexec
     8                           	psect	dataBANK0,global,class=BANK0,space=1,delta=1,noexec
     9                           	psect	bssBANK1,global,class=BANK1,space=1,delta=1,noexec
    10                           	psect	clrtext,global,class=CODE,delta=2
    11                           	psect	cstackBANK3,global,class=BANK3,space=1,delta=1,noexec
    12                           	psect	cstackBANK1,global,class=BANK1,space=1,delta=1,noexec
    13                           	psect	cstackCOMMON,global,class=COMMON,space=1,delta=1,noexec
    14                           	psect	cstackBANK0,global,class=BANK0,space=1,delta=1,noexec
    15                           	psect	maintext,global,class=CODE,split=1,delta=2
    16                           	psect	text1,local,class=CODE,merge=1,delta=2
    17                           	psect	text2,local,class=CODE,merge=1,delta=2
    18                           	psect	text3,local,class=CODE,merge=1,delta=2,group=1
    19                           	psect	text4,local,class=CODE,merge=1,delta=2
    20                           	psect	text5,local,class=CODE,merge=1,delta=2
    21                           	psect	text6,local,class=CODE,merge=1,delta=2
    22                           	psect	text7,local,class=CODE,merge=1,delta=2
    23                           	psect	text8,local,class=CODE,merge=1,delta=2
    24                           	psect	text9,local,class=CODE,merge=1,delta=2
    25                           	psect	text10,local,class=CODE,merge=1,delta=2
    26                           	psect	text11,local,class=CODE,merge=1,delta=2
    27                           	psect	text12,local,class=CODE,merge=1,delta=2
    28                           	psect	text13,local,class=CODE,merge=1,delta=2
    29                           	psect	text14,local,class=CODE,merge=1,delta=2
    30                           	psect	text15,local,class=CODE,merge=1,delta=2
    31                           	psect	text16,local,class=CODE,merge=1,delta=2
    32                           	psect	text17,local,class=CODE,merge=1,delta=2,group=1
    33                           	psect	text18,local,class=CODE,merge=1,delta=2,group=1
    34                           	psect	text19,local,class=CODE,merge=1,delta=2,group=1
    35                           	psect	text20,local,class=CODE,merge=1,delta=2,group=1
    36                           	psect	text21,local,class=CODE,merge=1,delta=2
    37                           	psect	text22,local,class=CODE,merge=1,delta=2,group=1
    38                           	psect	text23,local,class=CODE,merge=1,delta=2,group=1
    39                           	psect	text24,local,class=CODE,merge=1,delta=2
    40                           	psect	text25,local,class=CODE,merge=1,delta=2,group=1
    41                           	psect	text26,local,class=CODE,merge=1,delta=2,group=1
    42                           	psect	text27,local,class=CODE,merge=1,delta=2
    43                           	psect	text28,local,class=CODE,merge=1,delta=2,group=1
    44                           	psect	text29,local,class=CODE,merge=1,delta=2
    45                           	psect	text30,local,class=CODE,merge=1,delta=2,group=2
    46                           	psect	text31,local,class=CODE,merge=1,delta=2
    47                           	psect	text32,local,class=CODE,merge=1,delta=2
    48                           	psect	text33,local,class=CODE,merge=1,delta=2
    49                           	psect	text34,local,class=CODE,merge=1,delta=2
    50                           	psect	text35,local,class=CODE,merge=1,delta=2
    51                           	psect	text36,local,class=CODE,merge=1,delta=2
    52                           	psect	text37,local,class=CODE,merge=1,delta=2
    53                           	psect	text38,local,class=CODE,merge=1,delta=2
    54                           	psect	text39,local,class=CODE,merge=1,delta=2
    55                           	psect	text40,local,class=CODE,merge=1,delta=2
    56                           	psect	text41,local,class=CODE,merge=1,delta=2
    57                           	psect	text42,local,class=CODE,merge=1,delta=2
    58                           	psect	text43,local,class=CODE,merge=1,delta=2
    59                           	psect	text44,local,class=CODE,merge=1,delta=2
    60                           	psect	text45,local,class=CODE,merge=1,delta=2
    61                           	psect	intentry,global,class=CODE,delta=2
    62                           	psect	text46,local,class=CODE,merge=1,delta=2
    63                           	psect	text47,local,class=CODE,merge=1,delta=2
    64                           	psect	text48,local,class=CODE,merge=1,delta=2
    65                           	psect	text49,local,class=CODE,merge=1,delta=2
    66                           	psect	text50,local,class=CODE,merge=1,delta=2,group=1
    67                           	psect	text51,local,class=CODE,merge=1,delta=2
    68                           	psect	functab,global,class=ENTRY,delta=2
    69                           	psect	config,global,abs,ovrld,class=CONFIG,space=4,delta=2,noexec
    70                           	dabs	1,0x7E,2
    71  0000                     
    72                           ; Version 2.20
    73                           ; Generated 12/02/2020 GMT
    74                           ; 
    75                           ; Copyright © 2020, Microchip Technology Inc. and its subsidiaries ("Microchip")
    76                           ; All rights reserved.
    77                           ; 
    78                           ; This software is developed by Microchip Technology Inc. and its subsidiaries ("Microch
      +                          ip").
    79                           ; 
    80                           ; Redistribution and use in source and binary forms, with or without modification, are
    81                           ; permitted provided that the following conditions are met:
    82                           ; 
    83                           ;     1. Redistributions of source code must retain the above copyright notice, this lis
      +                          t of
    84                           ;        conditions and the following disclaimer.
    85                           ; 
    86                           ;     2. Redistributions in binary form must reproduce the above copyright notice, this 
      +                          list
    87                           ;        of conditions and the following disclaimer in the documentation and/or other
    88                           ;        materials provided with the distribution.
    89                           ; 
    90                           ;     3. Microchip's name may not be used to endorse or promote products derived from th
      +                          is
    91                           ;        software without specific prior written permission.
    92                           ; 
    93                           ; THIS SOFTWARE IS PROVIDED BY MICROCHIP "AS IS" AND ANY EXPRESS OR IMPLIED WARRANTIES,
    94                           ; INCLUDING, BUT NOT LIMITED TO, THE IMPLIED WARRANTIES OF MERCHANTABILITY AND FITNESS F
      +                          OR
    95                           ; PURPOSE ARE DISCLAIMED.  IN NO EVENT SHALL MICROCHIP BE LIABLE FOR ANY DIRECT, INDIREC
      +                          T,
    96                           ; INCIDENTAL, SPECIAL, EXEMPLARY, OR CONSEQUENTIAL DAMAGES (INCLUDING BUT NOT LIMITED TO
    97                           ; PROCUREMENT OF SUBSTITUTE GOODS OR SERVICES; LOSS OF USE, DATA OR PROFITS; OR BUSINESS
    98                           ; INTERRUPTION) HOWSOEVER CAUSED AND ON ANY THEORY OF LIABILITY, WHETHER IN CONTRACT, ST
      +                          RICT
    99                           ; LIABILITY, OR TORT (INCLUDING NEGLIGENCE OR OTHERWISE) ARISING IN ANY WAY OUT OF THE U
      +                          SE OF
   100                           ; THIS SOFTWARE, EVEN IF ADVISED OF THE POSSIBILITY OF SUCH DAMAGE.
   101                           ; 
   102                           ; 
   103                           ; Code-generator required, PIC16F877A Definitions
   104                           ; 
   105                           ; SFR Addresses
   106  0000                     	;# 
   107  0001                     	;# 
   108  0002                     	;# 
   109  0003                     	;# 
   110  0004                     	;# 
   111  0005                     	;# 
   112  0006                     	;# 
   113  0007                     	;# 
   114  0008                     	;# 
   115  0009                     	;# 
   116  000A                     	;# 
   117  000B                     	;# 
   118  000C                     	;# 
   119  000D                     	;# 
   120  000E                     	;# 
   121  000E                     	;# 
   122  000F                     	;# 
   123  0010                     	;# 
   124  0011                     	;# 
   125  0012                     	;# 
   126  0013                     	;# 
   127  0014                     	;# 
   128  0015                     	;# 
   129  0015                     	;# 
   130  0016                     	;# 
   131  0017                     	;# 
   132  0018                     	;# 
   133  0019                     	;# 
   134  001A                     	;# 
   135  001B                     	;# 
   136  001B                     	;# 
   137  001C                     	;# 
   138  001D                     	;# 
   139  001E                     	;# 
   140  001F                     	;# 
   141  0081                     	;# 
   142  0085                     	;# 
   143  0086                     	;# 
   144  0087                     	;# 
   145  0088                     	;# 
   146  0089                     	;# 
   147  008C                     	;# 
   148  008D                     	;# 
   149  008E                     	;# 
   150  0091                     	;# 
   151  0092                     	;# 
   152  0093                     	;# 
   153  0094                     	;# 
   154  0098                     	;# 
   155  0099                     	;# 
   156  009C                     	;# 
   157  009D                     	;# 
   158  009E                     	;# 
   159  009F                     	;# 
   160  010C                     	;# 
   161  010D                     	;# 
   162  010E                     	;# 
   163  010F                     	;# 
   164  018C                     	;# 
   165  018D                     	;# 
   166  0000                     	;# 
   167  0001                     	;# 
   168  0002                     	;# 
   169  0003                     	;# 
   170  0004                     	;# 
   171  0005                     	;# 
   172  0006                     	;# 
   173  0007                     	;# 
   174  0008                     	;# 
   175  0009                     	;# 
   176  000A                     	;# 
   177  000B                     	;# 
   178  000C                     	;# 
   179  000D                     	;# 
   180  000E                     	;# 
   181  000E                     	;# 
   182  000F                     	;# 
   183  0010                     	;# 
   184  0011                     	;# 
   185  0012                     	;# 
   186  0013                     	;# 
   187  0014                     	;# 
   188  0015                     	;# 
   189  0015                     	;# 
   190  0016                     	;# 
   191  0017                     	;# 
   192  0018                     	;# 
   193  0019                     	;# 
   194  001A                     	;# 
   195  001B                     	;# 
   196  001B                     	;# 
   197  001C                     	;# 
   198  001D                     	;# 
   199  001E                     	;# 
   200  001F                     	;# 
   201  0081                     	;# 
   202  0085                     	;# 
   203  0086                     	;# 
   204  0087                     	;# 
   205  0088                     	;# 
   206  0089                     	;# 
   207  008C                     	;# 
   208  008D                     	;# 
   209  008E                     	;# 
   210  0091                     	;# 
   211  0092                     	;# 
   212  0093                     	;# 
   213  0094                     	;# 
   214  0098                     	;# 
   215  0099                     	;# 
   216  009C                     	;# 
   217  009D                     	;# 
   218  009E                     	;# 
   219  009F                     	;# 
   220  010C                     	;# 
   221  010D                     	;# 
   222  010E                     	;# 
   223  010F                     	;# 
   224  018C                     	;# 
   225  018D                     	;# 
   226  0000                     	;# 
   227  0001                     	;# 
   228  0002                     	;# 
   229  0003                     	;# 
   230  0004                     	;# 
   231  0005                     	;# 
   232  0006                     	;# 
   233  0007                     	;# 
   234  0008                     	;# 
   235  0009                     	;# 
   236  000A                     	;# 
   237  000B                     	;# 
   238  000C                     	;# 
   239  000D                     	;# 
   240  000E                     	;# 
   241  000E                     	;# 
   242  000F                     	;# 
   243  0010                     	;# 
   244  0011                     	;# 
   245  0012                     	;# 
   246  0013                     	;# 
   247  0014                     	;# 
   248  0015                     	;# 
   249  0015                     	;# 
   250  0016                     	;# 
   251  0017                     	;# 
   252  0018                     	;# 
   253  0019                     	;# 
   254  001A                     	;# 
   255  001B                     	;# 
   256  001B                     	;# 
   257  001C                     	;# 
   258  001D                     	;# 
   259  001E                     	;# 
   260  001F                     	;# 
   261  0081                     	;# 
   262  0085                     	;# 
   263  0086                     	;# 
   264  0087                     	;# 
   265  0088                     	;# 
   266  0089                     	;# 
   267  008C                     	;# 
   268  008D                     	;# 
   269  008E                     	;# 
   270  0091                     	;# 
   271  0092                     	;# 
   272  0093                     	;# 
   273  0094                     	;# 
   274  0098                     	;# 
   275  0099                     	;# 
   276  009C                     	;# 
   277  009D                     	;# 
   278  009E                     	;# 
   279  009F                     	;# 
   280  010C                     	;# 
   281  010D                     	;# 
   282  010E                     	;# 
   283  010F                     	;# 
   284  018C                     	;# 
   285  018D                     	;# 
   286  0000                     	;# 
   287  0001                     	;# 
   288  0002                     	;# 
   289  0003                     	;# 
   290  0004                     	;# 
   291  0005                     	;# 
   292  0006                     	;# 
   293  0007                     	;# 
   294  0008                     	;# 
   295  0009                     	;# 
   296  000A                     	;# 
   297  000B                     	;# 
   298  000C                     	;# 
   299  000D                     	;# 
   300  000E                     	;# 
   301  000E                     	;# 
   302  000F                     	;# 
   303  0010                     	;# 
   304  0011                     	;# 
   305  0012                     	;# 
   306  0013                     	;# 
   307  0014                     	;# 
   308  0015                     	;# 
   309  0015                     	;# 
   310  0016                     	;# 
   311  0017                     	;# 
   312  0018                     	;# 
   313  0019                     	;# 
   314  001A                     	;# 
   315  001B                     	;# 
   316  001B                     	;# 
   317  001C                     	;# 
   318  001D                     	;# 
   319  001E                     	;# 
   320  001F                     	;# 
   321  0081                     	;# 
   322  0085                     	;# 
   323  0086                     	;# 
   324  0087                     	;# 
   325  0088                     	;# 
   326  0089                     	;# 
   327  008C                     	;# 
   328  008D                     	;# 
   329  008E                     	;# 
   330  0091                     	;# 
   331  0092                     	;# 
   332  0093                     	;# 
   333  0094                     	;# 
   334  0098                     	;# 
   335  0099                     	;# 
   336  009C                     	;# 
   337  009D                     	;# 
   338  009E                     	;# 
   339  009F                     	;# 
   340  010C                     	;# 
   341  010D                     	;# 
   342  010E                     	;# 
   343  010F                     	;# 
   344  018C                     	;# 
   345  018D                     	;# 
   346  0000                     	;# 
   347  0001                     	;# 
   348  0002                     	;# 
   349  0003                     	;# 
   350  0004                     	;# 
   351  0005                     	;# 
   352  0006                     	;# 
   353  0007                     	;# 
   354  0008                     	;# 
   355  0009                     	;# 
   356  000A                     	;# 
   357  000B                     	;# 
   358  000C                     	;# 
   359  000D                     	;# 
   360  000E                     	;# 
   361  000E                     	;# 
   362  000F                     	;# 
   363  0010                     	;# 
   364  0011                     	;# 
   365  0012                     	;# 
   366  0013                     	;# 
   367  0014                     	;# 
   368  0015                     	;# 
   369  0015                     	;# 
   370  0016                     	;# 
   371  0017                     	;# 
   372  0018                     	;# 
   373  0019                     	;# 
   374  001A                     	;# 
   375  001B                     	;# 
   376  001B                     	;# 
   377  001C                     	;# 
   378  001D                     	;# 
   379  001E                     	;# 
   380  001F                     	;# 
   381  0081                     	;# 
   382  0085                     	;# 
   383  0086                     	;# 
   384  0087                     	;# 
   385  0088                     	;# 
   386  0089                     	;# 
   387  008C                     	;# 
   388  008D                     	;# 
   389  008E                     	;# 
   390  0091                     	;# 
   391  0092                     	;# 
   392  0093                     	;# 
   393  0094                     	;# 
   394  0098                     	;# 
   395  0099                     	;# 
   396  009C                     	;# 
   397  009D                     	;# 
   398  009E                     	;# 
   399  009F                     	;# 
   400  010C                     	;# 
   401  010D                     	;# 
   402  010E                     	;# 
   403  010F                     	;# 
   404  018C                     	;# 
   405  018D                     	;# 
   406  0000                     	;# 
   407  0001                     	;# 
   408  0002                     	;# 
   409  0003                     	;# 
   410  0004                     	;# 
   411  0005                     	;# 
   412  0006                     	;# 
   413  0007                     	;# 
   414  0008                     	;# 
   415  0009                     	;# 
   416  000A                     	;# 
   417  000B                     	;# 
   418  000C                     	;# 
   419  000D                     	;# 
   420  000E                     	;# 
   421  000E                     	;# 
   422  000F                     	;# 
   423  0010                     	;# 
   424  0011                     	;# 
   425  0012                     	;# 
   426  0013                     	;# 
   427  0014                     	;# 
   428  0015                     	;# 
   429  0015                     	;# 
   430  0016                     	;# 
   431  0017                     	;# 
   432  0018                     	;# 
   433  0019                     	;# 
   434  001A                     	;# 
   435  001B                     	;# 
   436  001B                     	;# 
   437  001C                     	;# 
   438  001D                     	;# 
   439  001E                     	;# 
   440  001F                     	;# 
   441  0081                     	;# 
   442  0085                     	;# 
   443  0086                     	;# 
   444  0087                     	;# 
   445  0088                     	;# 
   446  0089                     	;# 
   447  008C                     	;# 
   448  008D                     	;# 
   449  008E                     	;# 
   450  0091                     	;# 
   451  0092                     	;# 
   452  0093                     	;# 
   453  0094                     	;# 
   454  0098                     	;# 
   455  0099                     	;# 
   456  009C                     	;# 
   457  009D                     	;# 
   458  009E                     	;# 
   459  009F                     	;# 
   460  010C                     	;# 
   461  010D                     	;# 
   462  010E                     	;# 
   463  010F                     	;# 
   464  018C                     	;# 
   465  018D                     	;# 
   466  0000                     	;# 
   467  0001                     	;# 
   468  0002                     	;# 
   469  0003                     	;# 
   470  0004                     	;# 
   471  0005                     	;# 
   472  0006                     	;# 
   473  0007                     	;# 
   474  0008                     	;# 
   475  0009                     	;# 
   476  000A                     	;# 
   477  000B                     	;# 
   478  000C                     	;# 
   479  000D                     	;# 
   480  000E                     	;# 
   481  000E                     	;# 
   482  000F                     	;# 
   483  0010                     	;# 
   484  0011                     	;# 
   485  0012                     	;# 
   486  0013                     	;# 
   487  0014                     	;# 
   488  0015                     	;# 
   489  0015                     	;# 
   490  0016                     	;# 
   491  0017                     	;# 
   492  0018                     	;# 
   493  0019                     	;# 
   494  001A                     	;# 
   495  001B                     	;# 
   496  001B                     	;# 
   497  001C                     	;# 
   498  001D                     	;# 
   499  001E                     	;# 
   500  001F                     	;# 
   501  0081                     	;# 
   502  0085                     	;# 
   503  0086                     	;# 
   504  0087                     	;# 
   505  0088                     	;# 
   506  0089                     	;# 
   507  008C                     	;# 
   508  008D                     	;# 
   509  008E                     	;# 
   510  0091                     	;# 
   511  0092                     	;# 
   512  0093                     	;# 
   513  0094                     	;# 
   514  0098                     	;# 
   515  0099                     	;# 
   516  009C                     	;# 
   517  009D                     	;# 
   518  009E                     	;# 
   519  009F                     	;# 
   520  010C                     	;# 
   521  010D                     	;# 
   522  010E                     	;# 
   523  010F                     	;# 
   524  018C                     	;# 
   525  018D                     	;# 
   526  0000                     	;# 
   527  0001                     	;# 
   528  0002                     	;# 
   529  0003                     	;# 
   530  0004                     	;# 
   531  0005                     	;# 
   532  0006                     	;# 
   533  0007                     	;# 
   534  0008                     	;# 
   535  0009                     	;# 
   536  000A                     	;# 
   537  000B                     	;# 
   538  000C                     	;# 
   539  000D                     	;# 
   540  000E                     	;# 
   541  000E                     	;# 
   542  000F                     	;# 
   543  0010                     	;# 
   544  0011                     	;# 
   545  0012                     	;# 
   546  0013                     	;# 
   547  0014                     	;# 
   548  0015                     	;# 
   549  0015                     	;# 
   550  0016                     	;# 
   551  0017                     	;# 
   552  0018                     	;# 
   553  0019                     	;# 
   554  001A                     	;# 
   555  001B                     	;# 
   556  001B                     	;# 
   557  001C                     	;# 
   558  001D                     	;# 
   559  001E                     	;# 
   560  001F                     	;# 
   561  0081                     	;# 
   562  0085                     	;# 
   563  0086                     	;# 
   564  0087                     	;# 
   565  0088                     	;# 
   566  0089                     	;# 
   567  008C                     	;# 
   568  008D                     	;# 
   569  008E                     	;# 
   570  0091                     	;# 
   571  0092                     	;# 
   572  0093                     	;# 
   573  0094                     	;# 
   574  0098                     	;# 
   575  0099                     	;# 
   576  009C                     	;# 
   577  009D                     	;# 
   578  009E                     	;# 
   579  009F                     	;# 
   580  010C                     	;# 
   581  010D                     	;# 
   582  010E                     	;# 
   583  010F                     	;# 
   584  018C                     	;# 
   585  018D                     	;# 
   586  0000                     	;# 
   587  0001                     	;# 
   588  0002                     	;# 
   589  0003                     	;# 
   590  0004                     	;# 
   591  0005                     	;# 
   592  0006                     	;# 
   593  0007                     	;# 
   594  0008                     	;# 
   595  0009                     	;# 
   596  000A                     	;# 
   597  000B                     	;# 
   598  000C                     	;# 
   599  000D                     	;# 
   600  000E                     	;# 
   601  000E                     	;# 
   602  000F                     	;# 
   603  0010                     	;# 
   604  0011                     	;# 
   605  0012                     	;# 
   606  0013                     	;# 
   607  0014                     	;# 
   608  0015                     	;# 
   609  0015                     	;# 
   610  0016                     	;# 
   611  0017                     	;# 
   612  0018                     	;# 
   613  0019                     	;# 
   614  001A                     	;# 
   615  001B                     	;# 
   616  001B                     	;# 
   617  001C                     	;# 
   618  001D                     	;# 
   619  001E                     	;# 
   620  001F                     	;# 
   621  0081                     	;# 
   622  0085                     	;# 
   623  0086                     	;# 
   624  0087                     	;# 
   625  0088                     	;# 
   626  0089                     	;# 
   627  008C                     	;# 
   628  008D                     	;# 
   629  008E                     	;# 
   630  0091                     	;# 
   631  0092                     	;# 
   632  0093                     	;# 
   633  0094                     	;# 
   634  0098                     	;# 
   635  0099                     	;# 
   636  009C                     	;# 
   637  009D                     	;# 
   638  009E                     	;# 
   639  009F                     	;# 
   640  010C                     	;# 
   641  010D                     	;# 
   642  010E                     	;# 
   643  010F                     	;# 
   644  018C                     	;# 
   645  018D                     	;# 
   646  0000                     	;# 
   647  0001                     	;# 
   648  0002                     	;# 
   649  0003                     	;# 
   650  0004                     	;# 
   651  0005                     	;# 
   652  0006                     	;# 
   653  0007                     	;# 
   654  0008                     	;# 
   655  0009                     	;# 
   656  000A                     	;# 
   657  000B                     	;# 
   658  000C                     	;# 
   659  000D                     	;# 
   660  000E                     	;# 
   661  000E                     	;# 
   662  000F                     	;# 
   663  0010                     	;# 
   664  0011                     	;# 
   665  0012                     	;# 
   666  0013                     	;# 
   667  0014                     	;# 
   668  0015                     	;# 
   669  0015                     	;# 
   670  0016                     	;# 
   671  0017                     	;# 
   672  0018                     	;# 
   673  0019                     	;# 
   674  001A                     	;# 
   675  001B                     	;# 
   676  001B                     	;# 
   677  001C                     	;# 
   678  001D                     	;# 
   679  001E                     	;# 
   680  001F                     	;# 
   681  0081                     	;# 
   682  0085                     	;# 
   683  0086                     	;# 
   684  0087                     	;# 
   685  0088                     	;# 
   686  0089                     	;# 
   687  008C                     	;# 
   688  008D                     	;# 
   689  008E                     	;# 
   690  0091                     	;# 
   691  0092                     	;# 
   692  0093                     	;# 
   693  0094                     	;# 
   694  0098                     	;# 
   695  0099                     	;# 
   696  009C                     	;# 
   697  009D                     	;# 
   698  009E                     	;# 
   699  009F                     	;# 
   700  010C                     	;# 
   701  010D                     	;# 
   702  010E                     	;# 
   703  010F                     	;# 
   704  018C                     	;# 
   705  018D                     	;# 
   706  0000                     	;# 
   707  0001                     	;# 
   708  0002                     	;# 
   709  0003                     	;# 
   710  0004                     	;# 
   711  0005                     	;# 
   712  0006                     	;# 
   713  0007                     	;# 
   714  0008                     	;# 
   715  0009                     	;# 
   716  000A                     	;# 
   717  000B                     	;# 
   718  000C                     	;# 
   719  000D                     	;# 
   720  000E                     	;# 
   721  000E                     	;# 
   722  000F                     	;# 
   723  0010                     	;# 
   724  0011                     	;# 
   725  0012                     	;# 
   726  0013                     	;# 
   727  0014                     	;# 
   728  0015                     	;# 
   729  0015                     	;# 
   730  0016                     	;# 
   731  0017                     	;# 
   732  0018                     	;# 
   733  0019                     	;# 
   734  001A                     	;# 
   735  001B                     	;# 
   736  001B                     	;# 
   737  001C                     	;# 
   738  001D                     	;# 
   739  001E                     	;# 
   740  001F                     	;# 
   741  0081                     	;# 
   742  0085                     	;# 
   743  0086                     	;# 
   744  0087                     	;# 
   745  0088                     	;# 
   746  0089                     	;# 
   747  008C                     	;# 
   748  008D                     	;# 
   749  008E                     	;# 
   750  0091                     	;# 
   751  0092                     	;# 
   752  0093                     	;# 
   753  0094                     	;# 
   754  0098                     	;# 
   755  0099                     	;# 
   756  009C                     	;# 
   757  009D                     	;# 
   758  009E                     	;# 
   759  009F                     	;# 
   760  010C                     	;# 
   761  010D                     	;# 
   762  010E                     	;# 
   763  010F                     	;# 
   764  018C                     	;# 
   765  018D                     	;# 
   766  0000                     	;# 
   767  0001                     	;# 
   768  0002                     	;# 
   769  0003                     	;# 
   770  0004                     	;# 
   771  0005                     	;# 
   772  0006                     	;# 
   773  0007                     	;# 
   774  0008                     	;# 
   775  0009                     	;# 
   776  000A                     	;# 
   777  000B                     	;# 
   778  000C                     	;# 
   779  000D                     	;# 
   780  000E                     	;# 
   781  000E                     	;# 
   782  000F                     	;# 
   783  0010                     	;# 
   784  0011                     	;# 
   785  0012                     	;# 
   786  0013                     	;# 
   787  0014                     	;# 
   788  0015                     	;# 
   789  0015                     	;# 
   790  0016                     	;# 
   791  0017                     	;# 
   792  0018                     	;# 
   793  0019                     	;# 
   794  001A                     	;# 
   795  001B                     	;# 
   796  001B                     	;# 
   797  001C                     	;# 
   798  001D                     	;# 
   799  001E                     	;# 
   800  001F                     	;# 
   801  0081                     	;# 
   802  0085                     	;# 
   803  0086                     	;# 
   804  0087                     	;# 
   805  0088                     	;# 
   806  0089                     	;# 
   807  008C                     	;# 
   808  008D                     	;# 
   809  008E                     	;# 
   810  0091                     	;# 
   811  0092                     	;# 
   812  0093                     	;# 
   813  0094                     	;# 
   814  0098                     	;# 
   815  0099                     	;# 
   816  009C                     	;# 
   817  009D                     	;# 
   818  009E                     	;# 
   819  009F                     	;# 
   820  010C                     	;# 
   821  010D                     	;# 
   822  010E                     	;# 
   823  010F                     	;# 
   824  018C                     	;# 
   825  018D                     	;# 
   826  0000                     	;# 
   827  0001                     	;# 
   828  0002                     	;# 
   829  0003                     	;# 
   830  0004                     	;# 
   831  0005                     	;# 
   832  0006                     	;# 
   833  0007                     	;# 
   834  0008                     	;# 
   835  0009                     	;# 
   836  000A                     	;# 
   837  000B                     	;# 
   838  000C                     	;# 
   839  000D                     	;# 
   840  000E                     	;# 
   841  000E                     	;# 
   842  000F                     	;# 
   843  0010                     	;# 
   844  0011                     	;# 
   845  0012                     	;# 
   846  0013                     	;# 
   847  0014                     	;# 
   848  0015                     	;# 
   849  0015                     	;# 
   850  0016                     	;# 
   851  0017                     	;# 
   852  0018                     	;# 
   853  0019                     	;# 
   854  001A                     	;# 
   855  001B                     	;# 
   856  001B                     	;# 
   857  001C                     	;# 
   858  001D                     	;# 
   859  001E                     	;# 
   860  001F                     	;# 
   861  0081                     	;# 
   862  0085                     	;# 
   863  0086                     	;# 
   864  0087                     	;# 
   865  0088                     	;# 
   866  0089                     	;# 
   867  008C                     	;# 
   868  008D                     	;# 
   869  008E                     	;# 
   870  0091                     	;# 
   871  0092                     	;# 
   872  0093                     	;# 
   873  0094                     	;# 
   874  0098                     	;# 
   875  0099                     	;# 
   876  009C                     	;# 
   877  009D                     	;# 
   878  009E                     	;# 
   879  009F                     	;# 
   880  010C                     	;# 
   881  010D                     	;# 
   882  010E                     	;# 
   883  010F                     	;# 
   884  018C                     	;# 
   885  018D                     	;# 
   886  0000                     	;# 
   887  0001                     	;# 
   888  0002                     	;# 
   889  0003                     	;# 
   890  0004                     	;# 
   891  0005                     	;# 
   892  0006                     	;# 
   893  0007                     	;# 
   894  0008                     	;# 
   895  0009                     	;# 
   896  000A                     	;# 
   897  000B                     	;# 
   898  000C                     	;# 
   899  000D                     	;# 
   900  000E                     	;# 
   901  000E                     	;# 
   902  000F                     	;# 
   903  0010                     	;# 
   904  0011                     	;# 
   905  0012                     	;# 
   906  0013                     	;# 
   907  0014                     	;# 
   908  0015                     	;# 
   909  0015                     	;# 
   910  0016                     	;# 
   911  0017                     	;# 
   912  0018                     	;# 
   913  0019                     	;# 
   914  001A                     	;# 
   915  001B                     	;# 
   916  001B                     	;# 
   917  001C                     	;# 
   918  001D                     	;# 
   919  001E                     	;# 
   920  001F                     	;# 
   921  0081                     	;# 
   922  0085                     	;# 
   923  0086                     	;# 
   924  0087                     	;# 
   925  0088                     	;# 
   926  0089                     	;# 
   927  008C                     	;# 
   928  008D                     	;# 
   929  008E                     	;# 
   930  0091                     	;# 
   931  0092                     	;# 
   932  0093                     	;# 
   933  0094                     	;# 
   934  0098                     	;# 
   935  0099                     	;# 
   936  009C                     	;# 
   937  009D                     	;# 
   938  009E                     	;# 
   939  009F                     	;# 
   940  010C                     	;# 
   941  010D                     	;# 
   942  010E                     	;# 
   943  010F                     	;# 
   944  018C                     	;# 
   945  018D                     	;# 
   946  0000                     	;# 
   947  0001                     	;# 
   948  0002                     	;# 
   949  0003                     	;# 
   950  0004                     	;# 
   951  0005                     	;# 
   952  0006                     	;# 
   953  0007                     	;# 
   954  0008                     	;# 
   955  0009                     	;# 
   956  000A                     	;# 
   957  000B                     	;# 
   958  000C                     	;# 
   959  000D                     	;# 
   960  000E                     	;# 
   961  000E                     	;# 
   962  000F                     	;# 
   963  0010                     	;# 
   964  0011                     	;# 
   965  0012                     	;# 
   966  0013                     	;# 
   967  0014                     	;# 
   968  0015                     	;# 
   969  0015                     	;# 
   970  0016                     	;# 
   971  0017                     	;# 
   972  0018                     	;# 
   973  0019                     	;# 
   974  001A                     	;# 
   975  001B                     	;# 
   976  001B                     	;# 
   977  001C                     	;# 
   978  001D                     	;# 
   979  001E                     	;# 
   980  001F                     	;# 
   981  0081                     	;# 
   982  0085                     	;# 
   983  0086                     	;# 
   984  0087                     	;# 
   985  0088                     	;# 
   986  0089                     	;# 
   987  008C                     	;# 
   988  008D                     	;# 
   989  008E                     	;# 
   990  0091                     	;# 
   991  0092                     	;# 
   992  0093                     	;# 
   993  0094                     	;# 
   994  0098                     	;# 
   995  0099                     	;# 
   996  009C                     	;# 
   997  009D                     	;# 
   998  009E                     	;# 
   999  009F                     	;# 
  1000  010C                     	;# 
  1001  010D                     	;# 
  1002  010E                     	;# 
  1003  010F                     	;# 
  1004  018C                     	;# 
  1005  018D                     	;# 
  1006  0000                     	;# 
  1007  0001                     	;# 
  1008  0002                     	;# 
  1009  0003                     	;# 
  1010  0004                     	;# 
  1011  0005                     	;# 
  1012  0006                     	;# 
  1013  0007                     	;# 
  1014  0008                     	;# 
  1015  0009                     	;# 
  1016  000A                     	;# 
  1017  000B                     	;# 
  1018  000C                     	;# 
  1019  000D                     	;# 
  1020  000E                     	;# 
  1021  000E                     	;# 
  1022  000F                     	;# 
  1023  0010                     	;# 
  1024  0011                     	;# 
  1025  0012                     	;# 
  1026  0013                     	;# 
  1027  0014                     	;# 
  1028  0015                     	;# 
  1029  0015                     	;# 
  1030  0016                     	;# 
  1031  0017                     	;# 
  1032  0018                     	;# 
  1033  0019                     	;# 
  1034  001A                     	;# 
  1035  001B                     	;# 
  1036  001B                     	;# 
  1037  001C                     	;# 
  1038  001D                     	;# 
  1039  001E                     	;# 
  1040  001F                     	;# 
  1041  0081                     	;# 
  1042  0085                     	;# 
  1043  0086                     	;# 
  1044  0087                     	;# 
  1045  0088                     	;# 
  1046  0089                     	;# 
  1047  008C                     	;# 
  1048  008D                     	;# 
  1049  008E                     	;# 
  1050  0091                     	;# 
  1051  0092                     	;# 
  1052  0093                     	;# 
  1053  0094                     	;# 
  1054  0098                     	;# 
  1055  0099                     	;# 
  1056  009C                     	;# 
  1057  009D                     	;# 
  1058  009E                     	;# 
  1059  009F                     	;# 
  1060  010C                     	;# 
  1061  010D                     	;# 
  1062  010E                     	;# 
  1063  010F                     	;# 
  1064  018C                     	;# 
  1065  018D                     	;# 
  1066                           
  1067                           	psect	idataBANK0
  1068  0835                     __pidataBANK0:
  1069                           
  1070                           ;initializer for LED_BLINKING@Counter
  1071  0835  3401               	retlw	1
  1072                           
  1073                           ;initializer for Display_Blink@Counter
  1074  0836  3401               	retlw	1
  1075                           
  1076                           ;initializer for Display_MainFunction@Enable_Digit_Selector
  1077  0837  3401               	retlw	1
  1078                           
  1079                           ;initializer for _Average_Nvalues
  1080  0838  340A               	retlw	10
  1081                           
  1082                           	psect	strings
  1083  0800                     __pstrings:
  1084  0800                     stringtab:
  1085  0800                     __stringtab:
  1086  0800                     stringcode:	
  1087                           ;	String table - string pointers are 1 byte each
  1088                           
  1089  0800                     stringdir:
  1090  0800  3008               	movlw	high stringdir
  1091  0801  008A               	movwf	10
  1092  0802  0804               	movf	4,w
  1093  0803  0A84               	incf	4,f
  1094  0804  0782               	addwf	2,f
  1095  0805                     __stringbase:
  1096  0805  3400               	retlw	0
  1097  0806                     __end_of__stringtab:
  1098  0806                     _Scheduler_Intitys:
  1099  0806  3404               	retlw	low (fp__Scheduler_Task1-fpbase)
  1100  0807  3414               	retlw	20
  1101  0808  3400               	retlw	0
  1102  0809  3400               	retlw	0
  1103  080A  3400               	retlw	0
  1104  080B  3407               	retlw	low (fp__Scheduler_Task2-fpbase)
  1105  080C  3464               	retlw	100
  1106  080D  3400               	retlw	0
  1107  080E  3400               	retlw	0
  1108  080F  3400               	retlw	0
  1109  0810  3401               	retlw	low (fp__Scheduler_Task3-fpbase)
  1110  0811  34C8               	retlw	200
  1111  0812  3400               	retlw	0
  1112  0813  3400               	retlw	0
  1113  0814  3400               	retlw	0
  1114  0815                     __end_of_Scheduler_Intitys:
  1115  0007                     _PORTCbits	set	7
  1116  0001                     _TMR0	set	1
  1117  0007                     _PORTC	set	7
  1118  0008                     _PORTD	set	8
  1119  0005                     _PORTA	set	5
  1120  0006                     _PORTB	set	6
  1121  000B                     _INTCONbits	set	11
  1122  001F                     _ADCON0bits	set	31
  1123  0081                     _OPTION_REGbits	set	129
  1124  0088                     _TRISD	set	136
  1125  0085                     _TRISA	set	133
  1126  0086                     _TRISB	set	134
  1127  0087                     _TRISC	set	135
  1128  009E                     _ADRESL	set	158
  1129  009F                     _ADCON1bits	set	159
  1130  040E                     _INTEDG	set	1038
  1131                           
  1132                           	psect	cinit
  1133  0015                     start_initialization:	
  1134                           ; #config settings
  1135                           
  1136  0015                     __initialization:
  1137                           
  1138                           ; Initialize objects allocated to BANK0
  1139  0015  120A  158A  2035  120A  118A  	fcall	__pidataBANK0	;fetch initializer
  1140  001A  00D6               	movwf	__pdataBANK0& (0+127)
  1141  001B  120A  158A  2036  120A  118A  	fcall	__pidataBANK0+1	;fetch initializer
  1142  0020  00D7               	movwf	(__pdataBANK0+1)& (0+127)
  1143  0021  120A  158A  2037  120A  118A  	fcall	__pidataBANK0+2	;fetch initializer
  1144  0026  00D8               	movwf	(__pdataBANK0+2)& (0+127)
  1145  0027  120A  158A  2038  120A  118A  	fcall	__pidataBANK0+3	;fetch initializer
  1146  002C  00D9               	movwf	(__pdataBANK0+3)& (0+127)
  1147                           
  1148                           ; Clear objects allocated to BANK1
  1149  002D  1383               	bcf	3,7	;select IRP bank0
  1150  002E  30A0               	movlw	low __pbssBANK1
  1151  002F  0084               	movwf	4
  1152  0030  30D3               	movlw	low (__pbssBANK1+51)
  1153  0031  120A  158A  2045  120A  118A  	fcall	clear_ram0
  1154                           
  1155                           ; Clear objects allocated to BANK0
  1156  0036  3044               	movlw	low __pbssBANK0
  1157  0037  0084               	movwf	4
  1158  0038  3056               	movlw	low (__pbssBANK0+18)
  1159  0039  120A  158A  2045  120A  118A  	fcall	clear_ram0
  1160  003E                     end_of_initialization:	
  1161                           ;End of C runtime variable initialization code
  1162                           
  1163  003E                     __end_of__initialization:
  1164  003E  0183               	clrf	3
  1165  003F  120A  158A  2B12   	ljmp	_main	;jump to C main() function
  1166                           
  1167                           	psect	bssBANK0
  1168  0044                     __pbssBANK0:
  1169  0044                     _Mode:
  1170  0044                     	ds	2
  1171  0046                     Set_EEPROM_Data@nt:
  1172  0046                     	ds	1
  1173  0047                     Set_EEPROM_Data@al:
  1174  0047                     	ds	1
  1175  0048                     Set_EEPROM_Data@ah:
  1176  0048                     	ds	1
  1177  0049                     _EEPROM_Data:
  1178  0049                     	ds	1
  1179  004A                     Display_MainFunction@Display:
  1180  004A                     	ds	1
  1181  004B                     Display_MainFunction@Tempreture:
  1182  004B                     	ds	1
  1183  004C                     Display_MainFunction@Digit_2:
  1184  004C                     	ds	1
  1185  004D                     Display_MainFunction@Digit_1:
  1186  004D                     	ds	1
  1187  004E                     _LED_Status:
  1188  004E                     	ds	1
  1189  004F                     _Enable_Display:
  1190  004F                     	ds	1
  1191  0050                     _ADC_Info:
  1192  0050                     	ds	1
  1193  0051                     _Temperature:
  1194  0051                     	ds	5
  1195                           
  1196                           	psect	dataBANK0
  1197  0056                     __pdataBANK0:
  1198  0056                     LED_BLINKING@Counter:
  1199  0056                     	ds	1
  1200  0057                     Display_Blink@Counter:
  1201  0057                     	ds	1
  1202  0058                     Display_MainFunction@Enable_Digit_Selector:
  1203  0058                     	ds	1
  1204  0059                     _Average_Nvalues:
  1205  0059                     	ds	1
  1206                           
  1207                           	psect	bssBANK1
  1208  00A0                     __pbssBANK1:
  1209  00A0                     _temb_val:
  1210  00A0                     	ds	40
  1211  00C8                     _Tick_Num:
  1212  00C8                     	ds	4
  1213  00CC                     _Avrage_buffer:
  1214  00CC                     	ds	4
  1215  00D0                     _Scheduler_ActivationFlags:
  1216  00D0                     	ds	3
  1217                           
  1218                           	psect	clrtext
  1219  0845                     clear_ram0:	
  1220                           ;	Called with FSR containing the base address, and
  1221                           ;	W with the last address+1
  1222                           
  1223  0845  0064               	clrwdt	;clear the watchdog before getting into this loop
  1224  0846                     clrloop0:
  1225  0846  0180               	clrf	0	;clear RAM location pointed to by FSR
  1226  0847  0A84               	incf	4,f	;increment pointer
  1227  0848  0604               	xorwf	4,w	;XOR with final address
  1228  0849  1903               	btfsc	3,2	;have we reached the end yet?
  1229  084A  3400               	retlw	0	;all done for this memory range, return
  1230  084B  0604               	xorwf	4,w	;XOR again to restore value
  1231  084C  2846               	goto	clrloop0	;do the next byte
  1232                           
  1233                           	psect	cstackBANK3
  1234  0190                     __pcstackBANK3:
  1235  0190                     ?___fltol:
  1236  0190                     ___fltol@f1:	
  1237                           ; 4 bytes @ 0x0
  1238                           
  1239                           
  1240                           ; 4 bytes @ 0x0
  1241  0190                     	ds	4
  1242  0194                     ??___fltol:
  1243                           
  1244                           ; 1 bytes @ 0x4
  1245  0194                     	ds	4
  1246  0198                     ??_Temperature_Calc:
  1247                           
  1248                           ; 1 bytes @ 0x8
  1249  0198                     	ds	4
  1250  019C                     Scheduler_Start@IntityIndex:
  1251                           
  1252                           ; 1 bytes @ 0xC
  1253  019C                     	ds	1
  1254                           
  1255                           	psect	cstackBANK1
  1256  00D3                     __pcstackBANK1:
  1257  00D3                     ?_Average_Value:
  1258  00D3                     ?___flmul:	
  1259                           ; 1 bytes @ 0x0
  1260                           
  1261  00D3                     Average_Value@Avrage_Values:	
  1262                           ; 4 bytes @ 0x0
  1263                           
  1264  00D3                     ___flmul@b:	
  1265                           ; 1 bytes @ 0x0
  1266                           
  1267                           
  1268                           ; 4 bytes @ 0x0
  1269  00D3                     	ds	1
  1270  00D4                     ??_Average_Value:
  1271                           
  1272                           ; 1 bytes @ 0x1
  1273  00D4                     	ds	3
  1274  00D7                     ___flmul@a:
  1275                           
  1276                           ; 4 bytes @ 0x4
  1277  00D7                     	ds	2
  1278  00D9                     Average_Value@Value:
  1279                           
  1280                           ; 1 bytes @ 0x6
  1281  00D9                     	ds	1
  1282  00DA                     Average_Value@index:
  1283                           
  1284                           ; 1 bytes @ 0x7
  1285  00DA                     	ds	1
  1286  00DB                     ??___flmul:
  1287                           
  1288                           ; 1 bytes @ 0x8
  1289  00DB                     	ds	5
  1290  00E0                     ___flmul@sign:
  1291                           
  1292                           ; 1 bytes @ 0xD
  1293  00E0                     	ds	1
  1294  00E1                     ___flmul@aexp:
  1295                           
  1296                           ; 1 bytes @ 0xE
  1297  00E1                     	ds	1
  1298  00E2                     ___flmul@grs:
  1299                           
  1300                           ; 4 bytes @ 0xF
  1301  00E2                     	ds	4
  1302  00E6                     ___flmul@bexp:
  1303                           
  1304                           ; 1 bytes @ 0x13
  1305  00E6                     	ds	1
  1306  00E7                     ___flmul@prod:
  1307                           
  1308                           ; 4 bytes @ 0x14
  1309  00E7                     	ds	4
  1310  00EB                     ___flmul@temp:
  1311                           
  1312                           ; 2 bytes @ 0x18
  1313  00EB                     	ds	2
  1314  00ED                     ___fltol@sign1:
  1315                           
  1316                           ; 1 bytes @ 0x1A
  1317  00ED                     	ds	1
  1318  00EE                     ___fltol@exp1:
  1319                           
  1320                           ; 1 bytes @ 0x1B
  1321  00EE                     	ds	1
  1322  00EF                     Temperature_Calc@ADC_VALUE:
  1323                           
  1324                           ; 1 bytes @ 0x1C
  1325  00EF                     	ds	1
  1326                           
  1327                           	psect	cstackCOMMON
  1328  0070                     __pcstackCOMMON:
  1329  0070                     ?_ADC_Value_Ready_CallBack:
  1330  0070                     ?_Temperature_Calc:	
  1331                           ; 1 bytes @ 0x0
  1332                           
  1333  0070                     ?_GPIO_Init:	
  1334                           ; 1 bytes @ 0x0
  1335                           
  1336  0070                     ?_On_Off_Init:	
  1337                           ; 1 bytes @ 0x0
  1338                           
  1339  0070                     ?_Display_Init:	
  1340                           ; 1 bytes @ 0x0
  1341                           
  1342  0070                     ?_Elements_Init:	
  1343                           ; 1 bytes @ 0x0
  1344                           
  1345  0070                     ?_Mode_Init:	
  1346                           ; 1 bytes @ 0x0
  1347                           
  1348  0070                     ?_Get_EEPROM_Data:	
  1349                           ; 1 bytes @ 0x0
  1350                           
  1351  0070                     ?_Scheduler_Init:	
  1352                           ; 1 bytes @ 0x0
  1353                           
  1354  0070                     ?_Timer0_Init:	
  1355                           ; 1 bytes @ 0x0
  1356                           
  1357  0070                     ?_Scheduler_Start:	
  1358                           ; 1 bytes @ 0x0
  1359                           
  1360  0070                     ?_Timer0_CallBack:	
  1361                           ; 1 bytes @ 0x0
  1362                           
  1363  0070                     ?_Scheduler_Task1:	
  1364                           ; 1 bytes @ 0x0
  1365                           
  1366  0070                     ?_Scheduler_Task2:	
  1367                           ; 1 bytes @ 0x0
  1368                           
  1369  0070                     ?_Scheduler_Task3:	
  1370                           ; 1 bytes @ 0x0
  1371                           
  1372  0070                     ?_Mode_MainFunction:	
  1373                           ; 1 bytes @ 0x0
  1374                           
  1375  0070                     ?_Set_EEPROM_Data:	
  1376                           ; 1 bytes @ 0x0
  1377                           
  1378  0070                     ?_ADC_Init:	
  1379                           ; 1 bytes @ 0x0
  1380                           
  1381  0070                     ?_ADC_Start_Conv:	
  1382                           ; 1 bytes @ 0x0
  1383                           
  1384  0070                     ?_ADC_Conv_MainFunction:	
  1385                           ; 1 bytes @ 0x0
  1386                           
  1387  0070                     ?_main:	
  1388                           ; 1 bytes @ 0x0
  1389                           
  1390  0070                     ?_EXTI_On_Off_CallBack:	
  1391                           ; 1 bytes @ 0x0
  1392                           
  1393  0070                     ??_EXTI_On_Off_CallBack:	
  1394                           ; 1 bytes @ 0x0
  1395                           
  1396  0070                     ?_Read_UP_DOWN_BUTTONS:	
  1397                           ; 1 bytes @ 0x0
  1398                           
  1399  0070                     ?_Display_MainFunction:	
  1400                           ; 1 bytes @ 0x0
  1401                           
  1402  0070                     ?_LED_MainFunction:	
  1403                           ; 1 bytes @ 0x0
  1404                           
  1405  0070                     ?_Elements_MainFunction:	
  1406                           ; 1 bytes @ 0x0
  1407                           
  1408  0070                     ?_myISR:	
  1409                           ; 1 bytes @ 0x0
  1410                           
  1411  0070                     ?_delay:	
  1412                           ; 1 bytes @ 0x0
  1413                           
  1414  0070                     ?_i2c_start:	
  1415                           ; 1 bytes @ 0x0
  1416                           
  1417  0070                     ?_i2c_stop:	
  1418                           ; 1 bytes @ 0x0
  1419                           
  1420  0070                     ?_i2c_wb:	
  1421                           ; 1 bytes @ 0x0
  1422                           
  1423  0070                     ?_i2c_rb:	
  1424                           ; 1 bytes @ 0x0
  1425                           
  1426  0070                     ?i1___bmul:	
  1427                           ; 1 bytes @ 0x0
  1428                           
  1429  0070                     i1___bmul@multiplicand:	
  1430                           ; 1 bytes @ 0x0
  1431                           
  1432                           
  1433                           ; 1 bytes @ 0x0
  1434  0070                     	ds	1
  1435  0071                     ??i1___bmul:
  1436  0071                     i1___bmul@product:	
  1437                           ; 1 bytes @ 0x1
  1438                           
  1439                           
  1440                           ; 1 bytes @ 0x1
  1441  0071                     	ds	1
  1442  0072                     i1___bmul@multiplier:
  1443                           
  1444                           ; 1 bytes @ 0x2
  1445  0072                     	ds	1
  1446  0073                     ?i1___lldiv:
  1447  0073                     i1___lldiv@divisor:	
  1448                           ; 4 bytes @ 0x3
  1449                           
  1450                           
  1451                           ; 4 bytes @ 0x3
  1452  0073                     	ds	4
  1453  0077                     i1___lldiv@dividend:
  1454                           
  1455                           ; 4 bytes @ 0x7
  1456  0077                     	ds	4
  1457  007B                     ??i1___lldiv:
  1458                           
  1459                           ; 1 bytes @ 0xB
  1460  007B                     	ds	1
  1461  007C                     ??___llmod:
  1462                           
  1463                           ; 1 bytes @ 0xC
  1464  007C                     	ds	1
  1465  007D                     ___llmod@counter:
  1466                           
  1467                           ; 1 bytes @ 0xD
  1468  007D                     	ds	1
  1469  007E                     ??_Timer0_CallBack:
  1470  007E                     ??_Scheduler_ActivateTask:	
  1471                           ; 1 bytes @ 0xE
  1472                           
  1473                           
  1474                           	psect	cstackBANK0
  1475  0020                     __pcstackBANK0:	
  1476                           ; 1 bytes @ 0xE
  1477                           
  1478  0020                     i1___lldiv@quotient:
  1479                           
  1480                           ; 4 bytes @ 0x0
  1481  0020                     	ds	4
  1482  0024                     i1___lldiv@counter:
  1483                           
  1484                           ; 1 bytes @ 0x4
  1485  0024                     	ds	1
  1486  0025                     ?___llmod:
  1487  0025                     ___llmod@divisor:	
  1488                           ; 4 bytes @ 0x5
  1489                           
  1490                           
  1491                           ; 4 bytes @ 0x5
  1492  0025                     	ds	4
  1493  0029                     ___llmod@dividend:
  1494                           
  1495                           ; 4 bytes @ 0x9
  1496  0029                     	ds	4
  1497  002D                     ?_Scheduler_ActivateTask:
  1498  002D                     Scheduler_ActivateTask@SystemTick:	
  1499                           ; 1 bytes @ 0xD
  1500                           
  1501                           
  1502                           ; 4 bytes @ 0xD
  1503  002D                     	ds	4
  1504  0031                     Scheduler_ActivateTask@IntityIndex:
  1505                           
  1506                           ; 1 bytes @ 0x11
  1507  0031                     	ds	1
  1508  0032                     ??_myISR:
  1509                           
  1510                           ; 1 bytes @ 0x12
  1511  0032                     	ds	4
  1512  0036                     ??_GPIO_Init:
  1513  0036                     ??_On_Off_Init:	
  1514                           ; 1 bytes @ 0x16
  1515                           
  1516  0036                     ??_Display_Init:	
  1517                           ; 1 bytes @ 0x16
  1518                           
  1519  0036                     ??_Elements_Init:	
  1520                           ; 1 bytes @ 0x16
  1521                           
  1522  0036                     ??_Mode_Init:	
  1523                           ; 1 bytes @ 0x16
  1524                           
  1525  0036                     ??_Timer0_Init:	
  1526                           ; 1 bytes @ 0x16
  1527                           
  1528  0036                     ?_memset:	
  1529                           ; 1 bytes @ 0x16
  1530                           
  1531  0036                     ??_ADC_Init:	
  1532                           ; 1 bytes @ 0x16
  1533                           
  1534  0036                     ??_ADC_Start_Conv:	
  1535                           ; 1 bytes @ 0x16
  1536                           
  1537  0036                     ??_Read_UP_DOWN_BUTTONS:	
  1538                           ; 1 bytes @ 0x16
  1539                           
  1540  0036                     ??_Elements_MainFunction:	
  1541                           ; 1 bytes @ 0x16
  1542                           
  1543  0036                     ??_delay:	
  1544                           ; 1 bytes @ 0x16
  1545                           
  1546  0036                     ??_i2c_start:	
  1547                           ; 1 bytes @ 0x16
  1548                           
  1549  0036                     ??_i2c_stop:	
  1550                           ; 1 bytes @ 0x16
  1551                           
  1552  0036                     ??_i2c_wb:	
  1553                           ; 1 bytes @ 0x16
  1554                           
  1555  0036                     ??_i2c_rb:	
  1556                           ; 1 bytes @ 0x16
  1557                           
  1558  0036                     ?___bmul:	
  1559                           ; 1 bytes @ 0x16
  1560                           
  1561  0036                     ?__Umul8_16:	
  1562                           ; 1 bytes @ 0x16
  1563                           
  1564  0036                     ?___wmul:	
  1565                           ; 2 bytes @ 0x16
  1566                           
  1567  0036                     ?___awdiv:	
  1568                           ; 2 bytes @ 0x16
  1569                           
  1570  0036                     ?___awmod:	
  1571                           ; 2 bytes @ 0x16
  1572                           
  1573  0036                     ?___lwmod:	
  1574                           ; 2 bytes @ 0x16
  1575                           
  1576  0036                     ?___lldiv:	
  1577                           ; 2 bytes @ 0x16
  1578                           
  1579  0036                     ?___xxtofl:	
  1580                           ; 4 bytes @ 0x16
  1581                           
  1582  0036                     ___bmul@multiplicand:	
  1583                           ; 4 bytes @ 0x16
  1584                           
  1585  0036                     __Umul8_16@multiplicand:	
  1586                           ; 1 bytes @ 0x16
  1587                           
  1588  0036                     ___wmul@multiplier:	
  1589                           ; 1 bytes @ 0x16
  1590                           
  1591  0036                     ___awdiv@divisor:	
  1592                           ; 2 bytes @ 0x16
  1593                           
  1594  0036                     ___awmod@divisor:	
  1595                           ; 2 bytes @ 0x16
  1596                           
  1597  0036                     ___lwmod@divisor:	
  1598                           ; 2 bytes @ 0x16
  1599                           
  1600  0036                     memset@c:	
  1601                           ; 2 bytes @ 0x16
  1602                           
  1603  0036                     ___lldiv@divisor:	
  1604                           ; 2 bytes @ 0x16
  1605                           
  1606  0036                     ___xxtofl@val:	
  1607                           ; 4 bytes @ 0x16
  1608                           
  1609                           
  1610                           ; 4 bytes @ 0x16
  1611  0036                     	ds	1
  1612  0037                     ??___bmul:
  1613  0037                     i2c_rb@ack:	
  1614                           ; 1 bytes @ 0x17
  1615                           
  1616  0037                     ___bmul@product:	
  1617                           ; 1 bytes @ 0x17
  1618                           
  1619                           
  1620                           ; 1 bytes @ 0x17
  1621  0037                     	ds	1
  1622  0038                     ??__Umul8_16:
  1623  0038                     i2c_wb@val:	
  1624                           ; 1 bytes @ 0x18
  1625                           
  1626  0038                     i2c_rb@ret:	
  1627                           ; 1 bytes @ 0x18
  1628                           
  1629  0038                     ___bmul@multiplier:	
  1630                           ; 1 bytes @ 0x18
  1631                           
  1632  0038                     ___wmul@multiplicand:	
  1633                           ; 1 bytes @ 0x18
  1634                           
  1635  0038                     ___awdiv@dividend:	
  1636                           ; 2 bytes @ 0x18
  1637                           
  1638  0038                     ___awmod@dividend:	
  1639                           ; 2 bytes @ 0x18
  1640                           
  1641  0038                     ___lwmod@dividend:	
  1642                           ; 2 bytes @ 0x18
  1643                           
  1644  0038                     memset@n:	
  1645                           ; 2 bytes @ 0x18
  1646                           
  1647                           
  1648                           ; 2 bytes @ 0x18
  1649  0038                     	ds	1
  1650  0039                     i2c_wb@i:
  1651  0039                     i2c_rb@i:	
  1652                           ; 1 bytes @ 0x19
  1653                           
  1654                           
  1655                           ; 1 bytes @ 0x19
  1656  0039                     	ds	1
  1657  003A                     ??_memset:
  1658  003A                     ?_e2pext_r:	
  1659                           ; 1 bytes @ 0x1A
  1660                           
  1661  003A                     ??___wmul:	
  1662                           ; 1 bytes @ 0x1A
  1663                           
  1664  003A                     ??___awdiv:	
  1665                           ; 1 bytes @ 0x1A
  1666                           
  1667  003A                     ??___awmod:	
  1668                           ; 1 bytes @ 0x1A
  1669                           
  1670  003A                     ??___lwmod:	
  1671                           ; 1 bytes @ 0x1A
  1672                           
  1673  003A                     ??___xxtofl:	
  1674                           ; 1 bytes @ 0x1A
  1675                           
  1676  003A                     ___awdiv@counter:	
  1677                           ; 1 bytes @ 0x1A
  1678                           
  1679  003A                     ___awmod@counter:	
  1680                           ; 1 bytes @ 0x1A
  1681                           
  1682  003A                     ___lwmod@counter:	
  1683                           ; 1 bytes @ 0x1A
  1684                           
  1685  003A                     memset@p:	
  1686                           ; 1 bytes @ 0x1A
  1687                           
  1688  003A                     e2pext_r@addr:	
  1689                           ; 1 bytes @ 0x1A
  1690                           
  1691  003A                     ___wmul@product:	
  1692                           ; 2 bytes @ 0x1A
  1693                           
  1694  003A                     __Umul8_16@product:	
  1695                           ; 2 bytes @ 0x1A
  1696                           
  1697  003A                     ___lldiv@dividend:	
  1698                           ; 2 bytes @ 0x1A
  1699                           
  1700                           
  1701                           ; 4 bytes @ 0x1A
  1702  003A                     	ds	1
  1703  003B                     ___awdiv@sign:
  1704  003B                     ___awmod@sign:	
  1705                           ; 1 bytes @ 0x1B
  1706                           
  1707  003B                     memset@p1:	
  1708                           ; 1 bytes @ 0x1B
  1709                           
  1710                           
  1711                           ; 1 bytes @ 0x1B
  1712  003B                     	ds	1
  1713  003C                     ??_Scheduler_Init:
  1714  003C                     ?_Display_Blink:	
  1715                           ; 1 bytes @ 0x1C
  1716                           
  1717  003C                     ?_Start_Setting_Timer:	
  1718                           ; 1 bytes @ 0x1C
  1719                           
  1720  003C                     ??_e2pext_r:	
  1721                           ; 1 bytes @ 0x1C
  1722                           
  1723  003C                     ?_LED_BLINKING:	
  1724                           ; 1 bytes @ 0x1C
  1725                           
  1726  003C                     e2pext_r@ret:	
  1727                           ; 1 bytes @ 0x1C
  1728                           
  1729  003C                     Display_Blink@Times_Ms:	
  1730                           ; 1 bytes @ 0x1C
  1731                           
  1732  003C                     LED_BLINKING@Time_Ms:	
  1733                           ; 2 bytes @ 0x1C
  1734                           
  1735  003C                     Start_Setting_Timer@Timer_Ms:	
  1736                           ; 2 bytes @ 0x1C
  1737                           
  1738  003C                     ___awdiv@quotient:	
  1739                           ; 2 bytes @ 0x1C
  1740                           
  1741  003C                     __Umul8_16@word_mpld:	
  1742                           ; 2 bytes @ 0x1C
  1743                           
  1744                           
  1745                           ; 2 bytes @ 0x1C
  1746  003C                     	ds	1
  1747  003D                     e2pext_r@al:
  1748                           
  1749                           ; 1 bytes @ 0x1D
  1750  003D                     	ds	1
  1751  003E                     ??___lldiv:
  1752  003E                     e2pext_r@ah:	
  1753                           ; 1 bytes @ 0x1E
  1754                           
  1755  003E                     __Umul8_16@multiplier:	
  1756                           ; 1 bytes @ 0x1E
  1757                           
  1758  003E                     ___xxtofl@sign:	
  1759                           ; 1 bytes @ 0x1E
  1760                           
  1761  003E                     Display_Blink@Task_Peroid:	
  1762                           ; 1 bytes @ 0x1E
  1763                           
  1764  003E                     LED_BLINKING@Task_Peroid:	
  1765                           ; 2 bytes @ 0x1E
  1766                           
  1767  003E                     Start_Setting_Timer@Peroid_Task:	
  1768                           ; 2 bytes @ 0x1E
  1769                           
  1770                           
  1771                           ; 2 bytes @ 0x1E
  1772  003E                     	ds	1
  1773  003F                     ??_Get_EEPROM_Data:
  1774  003F                     ??_Set_EEPROM_Data:	
  1775                           ; 1 bytes @ 0x1F
  1776                           
  1777  003F                     ___xxtofl@exp:	
  1778                           ; 1 bytes @ 0x1F
  1779                           
  1780  003F                     ___lldiv@quotient:	
  1781                           ; 1 bytes @ 0x1F
  1782                           
  1783                           
  1784                           ; 4 bytes @ 0x1F
  1785  003F                     	ds	1
  1786  0040                     ??_Display_Blink:
  1787  0040                     ??_Start_Setting_Timer:	
  1788                           ; 1 bytes @ 0x20
  1789                           
  1790  0040                     ??_LED_BLINKING:	
  1791                           ; 1 bytes @ 0x20
  1792                           
  1793  0040                     Get_EEPROM_Data@Flag:	
  1794                           ; 1 bytes @ 0x20
  1795                           
  1796  0040                     ___xxtofl@arg:	
  1797                           ; 1 bytes @ 0x20
  1798                           
  1799                           
  1800                           ; 4 bytes @ 0x20
  1801  0040                     	ds	1
  1802  0041                     Get_EEPROM_Data@Temp:
  1803                           
  1804                           ; 1 bytes @ 0x21
  1805  0041                     	ds	1
  1806  0042                     ??_Mode_MainFunction:
  1807  0042                     ??_Display_MainFunction:	
  1808                           ; 1 bytes @ 0x22
  1809                           
  1810  0042                     ??_LED_MainFunction:	
  1811                           ; 1 bytes @ 0x22
  1812                           
  1813                           
  1814                           ; 1 bytes @ 0x22
  1815  0042                     	ds	1
  1816  0043                     ??_Scheduler_Task3:
  1817  0043                     ___lldiv@counter:	
  1818                           ; 1 bytes @ 0x23
  1819                           
  1820                           
  1821                           ; 1 bytes @ 0x23
  1822  0043                     	ds	1
  1823  0044                     ??_ADC_Value_Ready_CallBack:
  1824  0044                     ??_Scheduler_Start:	
  1825                           ; 1 bytes @ 0x24
  1826                           
  1827  0044                     ??_Scheduler_Task1:	
  1828                           ; 1 bytes @ 0x24
  1829                           
  1830  0044                     ??_Scheduler_Task2:	
  1831                           ; 1 bytes @ 0x24
  1832                           
  1833  0044                     ??_ADC_Conv_MainFunction:	
  1834                           ; 1 bytes @ 0x24
  1835                           
  1836  0044                     ??_main:	
  1837                           ; 1 bytes @ 0x24
  1838                           
  1839                           
  1840                           	psect	maintext
  1841  0B12                     __pmaintext:	
  1842                           ; 1 bytes @ 0x24
  1843 ;;
  1844 ;;Main: autosize = 0, tempsize = 0, incstack = 0, save=0
  1845 ;;
  1846 ;; *************** function _main *****************
  1847 ;; Defined at:
  1848 ;;		line 40 in file "main.c"
  1849 ;; Parameters:    Size  Location     Type
  1850 ;;		None
  1851 ;; Auto vars:     Size  Location     Type
  1852 ;;		None
  1853 ;; Return value:  Size  Location     Type
  1854 ;;                  1    wreg      void 
  1855 ;; Registers used:
  1856 ;;		wreg, fsr0l, fsr0h, status,2, status,0, btemp+1, pclath, cstack
  1857 ;; Tracked objects:
  1858 ;;		On entry : B00/0
  1859 ;;		On exit  : 0/0
  1860 ;;		Unchanged: 0/0
  1861 ;; Data sizes:     COMMON   BANK0   BANK1   BANK3   BANK2
  1862 ;;      Params:         0       0       0       0       0
  1863 ;;      Locals:         0       0       0       0       0
  1864 ;;      Temps:          0       0       0       0       0
  1865 ;;      Totals:         0       0       0       0       0
  1866 ;;Total ram usage:        0 bytes
  1867 ;; Hardware stack levels required when called:   11
  1868 ;; This function calls:
  1869 ;;		_ADC_Init
  1870 ;;		_ADC_Start_Conv
  1871 ;;		_Display_Init
  1872 ;;		_Elements_Init
  1873 ;;		_GPIO_Init
  1874 ;;		_Get_EEPROM_Data
  1875 ;;		_Mode_Init
  1876 ;;		_On_Off_Init
  1877 ;;		_Scheduler_Init
  1878 ;;		_Scheduler_Start
  1879 ;;		_Timer0_Init
  1880 ;; This function is called by:
  1881 ;;		Startup code after reset
  1882 ;; This function uses a non-reentrant model
  1883 ;;
  1884                           
  1885                           
  1886                           ;psect for function _main
  1887  0B12                     _main:
  1888  0B12                     l3881:	
  1889                           ;incstack = 0
  1890 ;; hardware stack exceeded
  1891                           ; Regs used in _main: [wreg-fsr0h+status,2+status,0+btemp+1+pclath+cstack]
  1892                           
  1893                           
  1894                           ;main.c: 42:   GPIO_Init();
  1895  0B12  120A  158A  2148  120A  158A  	fcall	_GPIO_Init
  1896  0B17                     l3883:
  1897                           
  1898                           ;main.c: 43:   ADC_Init();
  1899  0B17  120A  158A  212D  120A  158A  	fcall	_ADC_Init
  1900  0B1C                     l3885:
  1901                           
  1902                           ;main.c: 44:   On_Off_Init();
  1903  0B1C  120A  158A  2039  120A  158A  	fcall	_On_Off_Init
  1904                           
  1905                           ;main.c: 45:   Display_Init();
  1906  0B21  120A  158A  2074  120A  158A  	fcall	_Display_Init
  1907                           
  1908                           ;main.c: 46:   Elements_Init();
  1909  0B26  120A  158A  2081  120A  158A  	fcall	_Elements_Init
  1910  0B2B                     l3887:
  1911                           
  1912                           ;main.c: 47:   Mode_Init();
  1913  0B2B  120A  158A  2031  120A  158A  	fcall	_Mode_Init
  1914  0B30                     l3889:
  1915                           
  1916                           ;main.c: 48:   Get_EEPROM_Data();
  1917  0B30  120A  158A  240A  120A  158A  	fcall	_Get_EEPROM_Data
  1918                           
  1919                           ;main.c: 49:   ADC_Start_Conv();
  1920  0B35  120A  158A  204D  120A  158A  	fcall	_ADC_Start_Conv
  1921  0B3A                     l3891:
  1922                           
  1923                           ;main.c: 50:   Scheduler_Init();
  1924  0B3A  120A  158A  2090  120A  158A  	fcall	_Scheduler_Init
  1925  0B3F                     l3893:
  1926                           
  1927                           ;main.c: 51:   Timer0_Init();
  1928  0B3F  120A  158A  20B0  120A  158A  	fcall	_Timer0_Init
  1929  0B44                     l3895:
  1930                           
  1931                           ;main.c: 52:   Scheduler_Start();
  1932  0B44  120A  158A  22D9  120A  158A  	fcall	_Scheduler_Start
  1933  0B49                     l70:
  1934  0B49  120A  118A  2812   	ljmp	start
  1935  0B4C                     __end_of_main:
  1936                           
  1937                           	psect	text1
  1938  08B0                     __ptext1:	
  1939 ;; *************** function _Timer0_Init *****************
  1940 ;; Defined at:
  1941 ;;		line 10 in file "Timer/Timer.c"
  1942 ;; Parameters:    Size  Location     Type
  1943 ;;		None
  1944 ;; Auto vars:     Size  Location     Type
  1945 ;;		None
  1946 ;; Return value:  Size  Location     Type
  1947 ;;                  1    wreg      void 
  1948 ;; Registers used:
  1949 ;;		wreg
  1950 ;; Tracked objects:
  1951 ;;		On entry : 0/0
  1952 ;;		On exit  : 0/0
  1953 ;;		Unchanged: 0/0
  1954 ;; Data sizes:     COMMON   BANK0   BANK1   BANK3   BANK2
  1955 ;;      Params:         0       0       0       0       0
  1956 ;;      Locals:         0       0       0       0       0
  1957 ;;      Temps:          0       0       0       0       0
  1958 ;;      Totals:         0       0       0       0       0
  1959 ;;Total ram usage:        0 bytes
  1960 ;; Hardware stack levels used:    1
  1961 ;; Hardware stack levels required when called:    4
  1962 ;; This function calls:
  1963 ;;		Nothing
  1964 ;; This function is called by:
  1965 ;;		_main
  1966 ;; This function uses a non-reentrant model
  1967 ;;
  1968                           
  1969                           
  1970                           ;psect for function _Timer0_Init
  1971  08B0                     _Timer0_Init:
  1972  08B0                     l2975:	
  1973                           ;incstack = 0
  1974                           ; Regs used in _Timer0_Init: [wreg]
  1975                           
  1976                           
  1977                           ;Timer/Timer.c: 13:      OPTION_REGbits.T0CS=0;
  1978  08B0  1683               	bsf	3,5	;RP0=1, select bank1
  1979  08B1  1303               	bcf	3,6	;RP1=0, select bank1
  1980  08B2  1281               	bcf	1,5	;volatile
  1981                           
  1982                           ;Timer/Timer.c: 14:      OPTION_REGbits.PSA=0;
  1983  08B3  1181               	bcf	1,3	;volatile
  1984                           
  1985                           ;Timer/Timer.c: 17:      OPTION_REGbits.PS0=1;
  1986  08B4  1401               	bsf	1,0	;volatile
  1987                           
  1988                           ;Timer/Timer.c: 18:      OPTION_REGbits.PS1=1;
  1989  08B5  1481               	bsf	1,1	;volatile
  1990                           
  1991                           ;Timer/Timer.c: 19:      OPTION_REGbits.PS2=1;
  1992  08B6  1501               	bsf	1,2	;volatile
  1993                           
  1994                           ;Timer/Timer.c: 22:         INTCONbits.TMR0IE=1;
  1995  08B7  168B               	bsf	11,5	;volatile
  1996                           
  1997                           ;Timer/Timer.c: 23:         INTCONbits.PEIE=1;
  1998  08B8  170B               	bsf	11,6	;volatile
  1999                           
  2000                           ;Timer/Timer.c: 24:         INTCONbits.GIE=1;
  2001  08B9  178B               	bsf	11,7	;volatile
  2002  08BA                     l2977:
  2003                           
  2004                           ;Timer/Timer.c: 26:      TMR0=100;
  2005  08BA  3064               	movlw	100
  2006  08BB  1283               	bcf	3,5	;RP0=0, select bank0
  2007  08BC  1303               	bcf	3,6	;RP1=0, select bank0
  2008  08BD  0081               	movwf	1	;volatile
  2009  08BE                     l2979:
  2010                           
  2011                           ;Timer/Timer.c: 27:         INTCONbits.TMR0IF=0;
  2012  08BE  110B               	bcf	11,2	;volatile
  2013  08BF                     l367:
  2014  08BF  0008               	return
  2015  08C0                     __end_of_Timer0_Init:
  2016                           
  2017                           	psect	text2
  2018  0AD9                     __ptext2:	
  2019 ;; *************** function _Scheduler_Start *****************
  2020 ;; Defined at:
  2021 ;;		line 13 in file "Scheduler/Scheduler.c"
  2022 ;; Parameters:    Size  Location     Type
  2023 ;;		None
  2024 ;; Auto vars:     Size  Location     Type
  2025 ;;  IntityIndex     1   12[BANK3 ] unsigned char 
  2026 ;; Return value:  Size  Location     Type
  2027 ;;                  1    wreg      void 
  2028 ;; Registers used:
  2029 ;;		wreg, fsr0l, fsr0h, status,2, status,0, btemp+1, pclath, cstack
  2030 ;; Tracked objects:
  2031 ;;		On entry : 0/0
  2032 ;;		On exit  : 0/0
  2033 ;;		Unchanged: 0/0
  2034 ;; Data sizes:     COMMON   BANK0   BANK1   BANK3   BANK2
  2035 ;;      Params:         0       0       0       0       0
  2036 ;;      Locals:         0       0       0       1       0
  2037 ;;      Temps:          0       0       0       0       0
  2038 ;;      Totals:         0       0       0       1       0
  2039 ;;Total ram usage:        1 bytes
  2040 ;; Hardware stack levels used:    1
  2041 ;; Hardware stack levels required when called:   10
  2042 ;; This function calls:
  2043 ;;		_Scheduler_Task1
  2044 ;;		_Scheduler_Task2
  2045 ;;		_Scheduler_Task3
  2046 ;;		___bmul
  2047 ;; This function is called by:
  2048 ;;		_main
  2049 ;; This function uses a non-reentrant model
  2050 ;;
  2051                           
  2052                           
  2053                           ;psect for function _Scheduler_Start
  2054  0AD9                     _Scheduler_Start:
  2055  0AD9                     l288:	
  2056                           ;incstack = 0
  2057 ;; hardware stack exceeded
  2058                           ; Regs used in _Scheduler_Start: [wreg-fsr0h+status,2+status,0+btemp+1+pclath+cstack]
  2059                           ;Scheduler/Scheduler.c: 15:   while(1)
  2060                           
  2061  0AD9                     l3861:
  2062                           
  2063                           ;Scheduler/Scheduler.c: 16:   {;Scheduler/Scheduler.c: 17:  for( uint8_t IntityIndex = 0
      +                           ; IntityIndex < ( 3U ) ; IntityIndex++ )
  2064  0AD9  1683               	bsf	3,5	;RP0=1, select bank3
  2065  0ADA  1703               	bsf	3,6	;RP1=1, select bank3
  2066  0ADB  019C               	clrf	Scheduler_Start@IntityIndex^(0+384)
  2067  0ADC                     l3867:
  2068                           
  2069                           ;Scheduler/Scheduler.c: 18:  {;Scheduler/Scheduler.c: 19:   if( Scheduler_ActivationFlag
      +                          s[IntityIndex] == 1 )
  2070  0ADC  081C               	movf	Scheduler_Start@IntityIndex^(0+384),w
  2071  0ADD  3ED0               	addlw	(low (_Scheduler_ActivationFlags| 0))& (0+255)
  2072  0ADE  0084               	movwf	4
  2073  0ADF  1383               	bcf	3,7	;select IRP bank1
  2074  0AE0  0300               	decf	0,w
  2075  0AE1  1D03               	btfss	3,2
  2076  0AE2  2AE4               	goto	u5541
  2077  0AE3  2AE5               	goto	u5540
  2078  0AE4                     u5541:
  2079  0AE4  2B06               	goto	l3873
  2080  0AE5                     u5540:
  2081  0AE5                     l3869:
  2082                           
  2083                           ;Scheduler/Scheduler.c: 20:   {;Scheduler/Scheduler.c: 21:    (*Scheduler_Intitys[Intity
      +                          Index].fuction_ptr)();
  2084  0AE5  3005               	movlw	5
  2085  0AE6  00FF               	movwf	btemp+1
  2086  0AE7  087F               	movf	btemp+1,w
  2087  0AE8  1283               	bcf	3,5	;RP0=0, select bank0
  2088  0AE9  1303               	bcf	3,6	;RP1=0, select bank0
  2089  0AEA  00B6               	movwf	___bmul@multiplicand
  2090  0AEB  1683               	bsf	3,5	;RP0=1, select bank3
  2091  0AEC  1703               	bsf	3,6	;RP1=1, select bank3
  2092  0AED  081C               	movf	Scheduler_Start@IntityIndex^(0+384),w
  2093  0AEE  120A  158A  2116  120A  158A  	fcall	___bmul
  2094  0AF3  3E01               	addlw	low ((_Scheduler_Intitys-__stringbase)| (0+32768))
  2095  0AF4  0084               	movwf	4
  2096  0AF5  120A  158A  2000  120A  158A  	fcall	stringdir
  2097  0AFA  120A  118A  2042  120A  158A  	fcall	fptable
  2098  0AFF                     l3871:
  2099                           
  2100                           ;Scheduler/Scheduler.c: 22:    Scheduler_ActivationFlags[IntityIndex] = 0 ;
  2101  0AFF  1683               	bsf	3,5	;RP0=1, select bank3
  2102  0B00  1703               	bsf	3,6	;RP1=1, select bank3
  2103  0B01  081C               	movf	Scheduler_Start@IntityIndex^(0+384),w
  2104  0B02  3ED0               	addlw	(low (_Scheduler_ActivationFlags| 0))& (0+255)
  2105  0B03  0084               	movwf	4
  2106  0B04  1383               	bcf	3,7	;select IRP bank1
  2107  0B05  0180               	clrf	0
  2108  0B06                     l3873:
  2109                           
  2110                           ;Scheduler/Scheduler.c: 24:  }
  2111  0B06  3001               	movlw	1
  2112  0B07  00FF               	movwf	btemp+1
  2113  0B08  087F               	movf	btemp+1,w
  2114  0B09  079C               	addwf	Scheduler_Start@IntityIndex^(0+384),f
  2115  0B0A                     l3875:
  2116  0B0A  3003               	movlw	3
  2117  0B0B  021C               	subwf	Scheduler_Start@IntityIndex^(0+384),w
  2118  0B0C  1C03               	skipc
  2119  0B0D  2B0F               	goto	u5551
  2120  0B0E  2B10               	goto	u5550
  2121  0B0F                     u5551:
  2122  0B0F  2ADC               	goto	l3867
  2123  0B10                     u5550:
  2124  0B10  2AD9               	goto	l288
  2125  0B11  0008               	return
  2126  0B12                     __end_of_Scheduler_Start:
  2127                           
  2128                           	psect	text3
  2129  0916                     __ptext3:	
  2130 ;; *************** function ___bmul *****************
  2131 ;; Defined at:
  2132 ;;		line 4 in file "C:\Program Files (x86)\Microchip\xc8\v2.20\pic\sources\c90\common\Umul8.c"
  2133 ;; Parameters:    Size  Location     Type
  2134 ;;  multiplier      1    wreg     unsigned char 
  2135 ;;  multiplicand    1   22[BANK0 ] unsigned char 
  2136 ;; Auto vars:     Size  Location     Type
  2137 ;;  multiplier      1   24[BANK0 ] unsigned char 
  2138 ;;  product         1   23[BANK0 ] unsigned char 
  2139 ;; Return value:  Size  Location     Type
  2140 ;;                  1    wreg      unsigned char 
  2141 ;; Registers used:
  2142 ;;		wreg, status,2, status,0, btemp+1
  2143 ;; Tracked objects:
  2144 ;;		On entry : 0/0
  2145 ;;		On exit  : 0/0
  2146 ;;		Unchanged: 0/0
  2147 ;; Data sizes:     COMMON   BANK0   BANK1   BANK3   BANK2
  2148 ;;      Params:         0       1       0       0       0
  2149 ;;      Locals:         0       2       0       0       0
  2150 ;;      Temps:          0       0       0       0       0
  2151 ;;      Totals:         0       3       0       0       0
  2152 ;;Total ram usage:        3 bytes
  2153 ;; Hardware stack levels used:    1
  2154 ;; Hardware stack levels required when called:    4
  2155 ;; This function calls:
  2156 ;;		Nothing
  2157 ;; This function is called by:
  2158 ;;		_Scheduler_Start
  2159 ;;		_Scheduler_ActivateTask
  2160 ;; This function uses a non-reentrant model
  2161 ;;
  2162                           
  2163                           
  2164                           ;psect for function ___bmul
  2165  0916                     ___bmul:
  2166                           
  2167                           ;incstack = 0
  2168                           ; Regs used in ___bmul: [wreg+status,2+status,0+btemp+1]
  2169                           ;___bmul@multiplier stored from wreg
  2170  0916  1283               	bcf	3,5	;RP0=0, select bank0
  2171  0917  1303               	bcf	3,6	;RP1=0, select bank0
  2172  0918  00B8               	movwf	___bmul@multiplier
  2173  0919                     l3823:
  2174  0919  01B7               	clrf	___bmul@product
  2175  091A                     l3825:
  2176  091A  1C38               	btfss	___bmul@multiplier,0
  2177  091B  291D               	goto	u5471
  2178  091C  291E               	goto	u5470
  2179  091D                     u5471:
  2180  091D  2922               	goto	l3829
  2181  091E                     u5470:
  2182  091E                     l3827:
  2183  091E  0836               	movf	___bmul@multiplicand,w
  2184  091F  00FF               	movwf	btemp+1
  2185  0920  087F               	movf	btemp+1,w
  2186  0921  07B7               	addwf	___bmul@product,f
  2187  0922                     l3829:
  2188  0922  1003               	clrc
  2189  0923  0DB6               	rlf	___bmul@multiplicand,f
  2190  0924                     l3831:
  2191  0924  1003               	clrc
  2192  0925  0CB8               	rrf	___bmul@multiplier,f
  2193  0926                     l3833:
  2194  0926  0838               	movf	___bmul@multiplier,w
  2195  0927  1D03               	btfss	3,2
  2196  0928  292A               	goto	u5481
  2197  0929  292B               	goto	u5480
  2198  092A                     u5481:
  2199  092A  291A               	goto	l3825
  2200  092B                     u5480:
  2201  092B                     l3835:
  2202  092B  0837               	movf	___bmul@product,w
  2203  092C                     l589:
  2204  092C  0008               	return
  2205  092D                     __end_of___bmul:
  2206                           
  2207                           	psect	text4
  2208  0869                     __ptext4:	
  2209 ;; *************** function _Scheduler_Task2 *****************
  2210 ;; Defined at:
  2211 ;;		line 23 in file "Scheduler/Tasks.c"
  2212 ;; Parameters:    Size  Location     Type
  2213 ;;		None
  2214 ;; Auto vars:     Size  Location     Type
  2215 ;;		None
  2216 ;; Return value:  Size  Location     Type
  2217 ;;                  1    wreg      void 
  2218 ;; Registers used:
  2219 ;;		wreg, fsr0l, fsr0h, status,2, status,0, btemp+1, pclath, cstack
  2220 ;; Tracked objects:
  2221 ;;		On entry : 0/0
  2222 ;;		On exit  : 0/0
  2223 ;;		Unchanged: 0/0
  2224 ;; Data sizes:     COMMON   BANK0   BANK1   BANK3   BANK2
  2225 ;;      Params:         0       0       0       0       0
  2226 ;;      Locals:         0       0       0       0       0
  2227 ;;      Temps:          0       0       0       0       0
  2228 ;;      Totals:         0       0       0       0       0
  2229 ;;Total ram usage:        0 bytes
  2230 ;; Hardware stack levels used:    1
  2231 ;; Hardware stack levels required when called:    9
  2232 ;; This function calls:
  2233 ;;		_ADC_Conv_MainFunction
  2234 ;;		_LED_MainFunction
  2235 ;; This function is called by:
  2236 ;;		_Scheduler_Start
  2237 ;; This function uses a non-reentrant model
  2238 ;;
  2239                           
  2240                           
  2241                           ;psect for function _Scheduler_Task2
  2242  0869                     _Scheduler_Task2:
  2243  0869                     l3817:	
  2244                           ;incstack = 0
  2245 ;; hardware stack exceeded
  2246                           ; Regs used in _Scheduler_Task2: [wreg-fsr0h+status,2+status,0+btemp+1+pclath+cstack]
  2247                           
  2248                           
  2249                           ;Scheduler/Tasks.c: 25:  ADC_Conv_MainFunction();
  2250  0869  120A  118A  27E2  120A  158A  	fcall	_ADC_Conv_MainFunction
  2251  086E                     l3819:
  2252                           
  2253                           ;Scheduler/Tasks.c: 26:  LED_MainFunction();
  2254  086E  120A  158A  22A2  120A  158A  	fcall	_LED_MainFunction
  2255  0873                     l341:
  2256  0873  0008               	return
  2257  0874                     __end_of_Scheduler_Task2:
  2258                           
  2259                           	psect	text5
  2260  083F                     __ptext5:	
  2261 ;; *************** function _Scheduler_Task1 *****************
  2262 ;; Defined at:
  2263 ;;		line 17 in file "Scheduler/Tasks.c"
  2264 ;; Parameters:    Size  Location     Type
  2265 ;;		None
  2266 ;; Auto vars:     Size  Location     Type
  2267 ;;		None
  2268 ;; Return value:  Size  Location     Type
  2269 ;;                  1    wreg      void 
  2270 ;; Registers used:
  2271 ;;		wreg, fsr0l, fsr0h, status,2, status,0, btemp+1, pclath, cstack
  2272 ;; Tracked objects:
  2273 ;;		On entry : 0/0
  2274 ;;		On exit  : 0/0
  2275 ;;		Unchanged: 0/0
  2276 ;; Data sizes:     COMMON   BANK0   BANK1   BANK3   BANK2
  2277 ;;      Params:         0       0       0       0       0
  2278 ;;      Locals:         0       0       0       0       0
  2279 ;;      Temps:          0       0       0       0       0
  2280 ;;      Totals:         0       0       0       0       0
  2281 ;;Total ram usage:        0 bytes
  2282 ;; Hardware stack levels used:    1
  2283 ;; Hardware stack levels required when called:    7
  2284 ;; This function calls:
  2285 ;;		_Display_MainFunction
  2286 ;; This function is called by:
  2287 ;;		_Scheduler_Start
  2288 ;; This function uses a non-reentrant model
  2289 ;;
  2290                           
  2291                           
  2292                           ;psect for function _Scheduler_Task1
  2293  083F                     _Scheduler_Task1:
  2294  083F                     l3815:	
  2295                           ;incstack = 0
  2296 ;; hardware stack exceeded
  2297                           ; Regs used in _Scheduler_Task1: [wreg-fsr0h+status,2+status,0+btemp+1+pclath+cstack]
  2298                           
  2299                           
  2300                           ;Scheduler/Tasks.c: 19:  Display_MainFunction();
  2301  083F  120A  118A  240C  120A  158A  	fcall	_Display_MainFunction
  2302  0844                     l338:
  2303  0844  0008               	return
  2304  0845                     __end_of_Scheduler_Task1:
  2305                           
  2306                           	psect	text6
  2307  08A0                     __ptext6:	
  2308 ;; *************** function _Scheduler_Task3 *****************
  2309 ;; Defined at:
  2310 ;;		line 30 in file "Scheduler/Tasks.c"
  2311 ;; Parameters:    Size  Location     Type
  2312 ;;		None
  2313 ;; Auto vars:     Size  Location     Type
  2314 ;;		None
  2315 ;; Return value:  Size  Location     Type
  2316 ;;                  1    wreg      void 
  2317 ;; Registers used:
  2318 ;;		wreg, status,2, status,0, btemp+1, pclath, cstack
  2319 ;; Tracked objects:
  2320 ;;		On entry : 0/0
  2321 ;;		On exit  : 0/0
  2322 ;;		Unchanged: 0/0
  2323 ;; Data sizes:     COMMON   BANK0   BANK1   BANK3   BANK2
  2324 ;;      Params:         0       0       0       0       0
  2325 ;;      Locals:         0       0       0       0       0
  2326 ;;      Temps:          0       0       0       0       0
  2327 ;;      Totals:         0       0       0       0       0
  2328 ;;Total ram usage:        0 bytes
  2329 ;; Hardware stack levels used:    1
  2330 ;; Hardware stack levels required when called:    8
  2331 ;; This function calls:
  2332 ;;		_Elements_MainFunction
  2333 ;;		_Mode_MainFunction
  2334 ;;		_Set_EEPROM_Data
  2335 ;; This function is called by:
  2336 ;;		_Scheduler_Start
  2337 ;; This function uses a non-reentrant model
  2338 ;;
  2339                           
  2340                           
  2341                           ;psect for function _Scheduler_Task3
  2342  08A0                     _Scheduler_Task3:
  2343  08A0                     l3821:	
  2344                           ;incstack = 0
  2345 ;; hardware stack exceeded
  2346                           ; Regs used in _Scheduler_Task3: [wreg+status,2+status,0+btemp+1+pclath+cstack]
  2347                           
  2348                           
  2349                           ;Scheduler/Tasks.c: 32:     Mode_MainFunction();
  2350  08A0  120A  158A  2667  120A  158A  	fcall	_Mode_MainFunction
  2351                           
  2352                           ;Scheduler/Tasks.c: 33:  Elements_MainFunction();
  2353  08A5  120A  158A  2456  120A  158A  	fcall	_Elements_MainFunction
  2354                           
  2355                           ;Scheduler/Tasks.c: 34:     Set_EEPROM_Data();
  2356  08AA  120A  158A  25AE  120A  158A  	fcall	_Set_EEPROM_Data
  2357  08AF                     l344:
  2358  08AF  0008               	return
  2359  08B0                     __end_of_Scheduler_Task3:
  2360                           
  2361                           	psect	text7
  2362  0DAE                     __ptext7:	
  2363 ;; *************** function _Set_EEPROM_Data *****************
  2364 ;; Defined at:
  2365 ;;		line 29 in file "EEPROM/EEPROM.c"
  2366 ;; Parameters:    Size  Location     Type
  2367 ;;		None
  2368 ;; Auto vars:     Size  Location     Type
  2369 ;;		None
  2370 ;; Return value:  Size  Location     Type
  2371 ;;                  1    wreg      void 
  2372 ;; Registers used:
  2373 ;;		wreg, status,2, status,0, btemp+1, pclath, cstack
  2374 ;; Tracked objects:
  2375 ;;		On entry : 0/0
  2376 ;;		On exit  : 0/0
  2377 ;;		Unchanged: 0/0
  2378 ;; Data sizes:     COMMON   BANK0   BANK1   BANK3   BANK2
  2379 ;;      Params:         0       0       0       0       0
  2380 ;;      Locals:         0       0       0       0       0
  2381 ;;      Temps:          0       0       0       0       0
  2382 ;;      Totals:         0       0       0       0       0
  2383 ;;Total ram usage:        0 bytes
  2384 ;; Hardware stack levels used:    1
  2385 ;; Hardware stack levels required when called:    7
  2386 ;; This function calls:
  2387 ;;		_e2pext_r
  2388 ;;		_i2c_start
  2389 ;;		_i2c_stop
  2390 ;;		_i2c_wb
  2391 ;; This function is called by:
  2392 ;;		_Scheduler_Task3
  2393 ;; This function uses a non-reentrant model
  2394 ;;
  2395                           
  2396                           
  2397                           ;psect for function _Set_EEPROM_Data
  2398  0DAE                     _Set_EEPROM_Data:
  2399  0DAE                     l3771:	
  2400                           ;incstack = 0
  2401 ;; hardware stack exceeded
  2402                           ; Regs used in _Set_EEPROM_Data: [wreg+status,2+status,0+btemp+1+pclath+cstack]
  2403                           
  2404                           
  2405                           ;EEPROM/EEPROM.c: 31: static unsigned char ah;;EEPROM/EEPROM.c: 32: static unsigned char
      +                           al;;EEPROM/EEPROM.c: 33: static unsigned char nt;;EEPROM/EEPROM.c: 36: if(Temperature.S
      +                          tore_Set_Temp_Flag==1)
  2406  0DAE  1283               	bcf	3,5	;RP0=0, select bank0
  2407  0DAF  1303               	bcf	3,6	;RP1=0, select bank0
  2408  0DB0  1CD4               	btfss	_Temperature+3,1
  2409  0DB1  2DB3               	goto	u5401
  2410  0DB2  2DB4               	goto	u5400
  2411  0DB3                     u5401:
  2412  0DB3  2E09               	goto	l470
  2413  0DB4                     u5400:
  2414  0DB4                     l3773:
  2415                           
  2416                           ;EEPROM/EEPROM.c: 37: {;EEPROM/EEPROM.c: 38:      EEPROM_Data=Temperature.Set_Temp|(1<<7
      +                          );
  2417  0DB4  0853               	movf	_Temperature+2,w
  2418  0DB5  3880               	iorlw	128
  2419  0DB6  00FF               	movwf	btemp+1
  2420  0DB7  087F               	movf	btemp+1,w
  2421  0DB8  00C9               	movwf	_EEPROM_Data
  2422  0DB9                     l3775:
  2423                           
  2424                           ;EEPROM/EEPROM.c: 40:      ah=(0xa&0x0100)>>8;
  2425  0DB9  01C8               	clrf	Set_EEPROM_Data@ah
  2426                           
  2427                           ;EEPROM/EEPROM.c: 41:      al=0xa&0x00FF;
  2428  0DBA  300A               	movlw	10
  2429  0DBB  00FF               	movwf	btemp+1
  2430  0DBC  087F               	movf	btemp+1,w
  2431  0DBD  00C7               	movwf	Set_EEPROM_Data@al
  2432  0DBE                     l3777:
  2433                           
  2434                           ;EEPROM/EEPROM.c: 42:      nt=0;
  2435  0DBE  01C6               	clrf	Set_EEPROM_Data@nt
  2436  0DBF                     l3779:
  2437                           
  2438                           ;EEPROM/EEPROM.c: 45:      {;EEPROM/EEPROM.c: 46:        i2c_start();
  2439  0DBF  120A  158A  20D5  120A  158A  	fcall	_i2c_start
  2440  0DC4                     l3781:
  2441                           
  2442                           ;EEPROM/EEPROM.c: 47:        if(ah)
  2443  0DC4  1283               	bcf	3,5	;RP0=0, select bank0
  2444  0DC5  1303               	bcf	3,6	;RP1=0, select bank0
  2445  0DC6  0848               	movf	Set_EEPROM_Data@ah,w
  2446  0DC7  1903               	btfsc	3,2
  2447  0DC8  2DCA               	goto	u5411
  2448  0DC9  2DCB               	goto	u5410
  2449  0DCA                     u5411:
  2450  0DCA  2DD2               	goto	l3785
  2451  0DCB                     u5410:
  2452  0DCB                     l3783:
  2453                           
  2454                           ;EEPROM/EEPROM.c: 48:        {;EEPROM/EEPROM.c: 49:          i2c_wb(0xA2);
  2455  0DCB  30A2               	movlw	162
  2456  0DCC  120A  158A  23C3  120A  158A  	fcall	_i2c_wb
  2457                           
  2458                           ;EEPROM/EEPROM.c: 50:        }
  2459  0DD1  2DD8               	goto	l466
  2460  0DD2                     l3785:
  2461                           
  2462                           ;EEPROM/EEPROM.c: 52:        {;EEPROM/EEPROM.c: 53:          i2c_wb(0xA0);
  2463  0DD2  30A0               	movlw	160
  2464  0DD3  120A  158A  23C3  120A  158A  	fcall	_i2c_wb
  2465  0DD8                     l466:	
  2466                           ;EEPROM/EEPROM.c: 54:        }
  2467                           
  2468                           
  2469                           ;EEPROM/EEPROM.c: 55:        i2c_wb(al);
  2470  0DD8  1283               	bcf	3,5	;RP0=0, select bank0
  2471  0DD9  1303               	bcf	3,6	;RP1=0, select bank0
  2472  0DDA  0847               	movf	Set_EEPROM_Data@al,w
  2473  0DDB  120A  158A  23C3  120A  158A  	fcall	_i2c_wb
  2474                           
  2475                           ;EEPROM/EEPROM.c: 56:        i2c_wb(EEPROM_Data);
  2476  0DE0  1283               	bcf	3,5	;RP0=0, select bank0
  2477  0DE1  1303               	bcf	3,6	;RP1=0, select bank0
  2478  0DE2  0849               	movf	_EEPROM_Data,w
  2479  0DE3  120A  158A  23C3  120A  158A  	fcall	_i2c_wb
  2480                           
  2481                           ;EEPROM/EEPROM.c: 57:        i2c_stop();
  2482  0DE8  120A  158A  20EA  120A  158A  	fcall	_i2c_stop
  2483  0DED                     l3787:
  2484                           
  2485                           ;EEPROM/EEPROM.c: 59:        nt++;
  2486  0DED  3001               	movlw	1
  2487  0DEE  00FF               	movwf	btemp+1
  2488  0DEF  087F               	movf	btemp+1,w
  2489  0DF0  1283               	bcf	3,5	;RP0=0, select bank0
  2490  0DF1  1303               	bcf	3,6	;RP1=0, select bank0
  2491  0DF2  07C6               	addwf	Set_EEPROM_Data@nt,f
  2492  0DF3                     l3789:
  2493                           
  2494                           ;EEPROM/EEPROM.c: 60:      }
  2495  0DF3  300A               	movlw	10
  2496  0DF4  00BA               	movwf	e2pext_r@addr
  2497  0DF5  3000               	movlw	0
  2498  0DF6  00BB               	movwf	e2pext_r@addr+1
  2499  0DF7  120A  158A  24FA  120A  158A  	fcall	_e2pext_r
  2500  0DFC  1283               	bcf	3,5	;RP0=0, select bank0
  2501  0DFD  1303               	bcf	3,6	;RP1=0, select bank0
  2502  0DFE  0649               	xorwf	_EEPROM_Data,w
  2503  0DFF  1903               	skipnz
  2504  0E00  2E02               	goto	u5421
  2505  0E01  2E03               	goto	u5420
  2506  0E02                     u5421:
  2507  0E02  2E09               	goto	l470
  2508  0E03                     u5420:
  2509  0E03                     l3791:
  2510  0E03  300A               	movlw	10
  2511  0E04  0246               	subwf	Set_EEPROM_Data@nt,w
  2512  0E05  1C03               	skipc
  2513  0E06  2E08               	goto	u5431
  2514  0E07  2E09               	goto	u5430
  2515  0E08                     u5431:
  2516  0E08  2DBF               	goto	l3779
  2517  0E09                     u5430:
  2518  0E09                     l470:
  2519  0E09  0008               	return
  2520  0E0A                     __end_of_Set_EEPROM_Data:
  2521                           
  2522                           	psect	text8
  2523  0E67                     __ptext8:	
  2524 ;; *************** function _Mode_MainFunction *****************
  2525 ;; Defined at:
  2526 ;;		line 27 in file "WaterHeater_Mode/WaterHeater_Mode.c"
  2527 ;; Parameters:    Size  Location     Type
  2528 ;;		None
  2529 ;; Auto vars:     Size  Location     Type
  2530 ;;		None
  2531 ;; Return value:  Size  Location     Type
  2532 ;;                  1    wreg      void 
  2533 ;; Registers used:
  2534 ;;		wreg, status,2, status,0, btemp+1, pclath, cstack
  2535 ;; Tracked objects:
  2536 ;;		On entry : 0/0
  2537 ;;		On exit  : 0/0
  2538 ;;		Unchanged: 0/0
  2539 ;; Data sizes:     COMMON   BANK0   BANK1   BANK3   BANK2
  2540 ;;      Params:         0       0       0       0       0
  2541 ;;      Locals:         0       0       0       0       0
  2542 ;;      Temps:          0       1       0       0       0
  2543 ;;      Totals:         0       1       0       0       0
  2544 ;;Total ram usage:        1 bytes
  2545 ;; Hardware stack levels used:    1
  2546 ;; Hardware stack levels required when called:    6
  2547 ;; This function calls:
  2548 ;;		_Read_UP_DOWN_BUTTONS
  2549 ;;		_Start_Setting_Timer
  2550 ;; This function is called by:
  2551 ;;		_Scheduler_Task3
  2552 ;; This function uses a non-reentrant model
  2553 ;;
  2554                           
  2555                           
  2556                           ;psect for function _Mode_MainFunction
  2557  0E67                     _Mode_MainFunction:
  2558  0E67                     l3745:	
  2559                           ;incstack = 0
  2560 ;; hardware stack exceeded
  2561                           ; Regs used in _Mode_MainFunction: [wreg+status,2+status,0+btemp+1+pclath+cstack]
  2562                           
  2563                           
  2564                           ;WaterHeater_Mode/WaterHeater_Mode.c: 29:  Read_UP_DOWN_BUTTONS();
  2565  0E67  120A  158A  21AF  120A  158A  	fcall	_Read_UP_DOWN_BUTTONS
  2566  0E6C                     l3747:
  2567                           
  2568                           ;WaterHeater_Mode/WaterHeater_Mode.c: 31:    if(Mode.Select_Mode==Setting_Mode)
  2569  0E6C  3002               	movlw	2
  2570  0E6D  1283               	bcf	3,5	;RP0=0, select bank0
  2571  0E6E  1303               	bcf	3,6	;RP1=0, select bank0
  2572  0E6F  0644               	xorwf	_Mode,w
  2573  0E70  1D03               	btfss	3,2
  2574  0E71  2E73               	goto	u5291
  2575  0E72  2E74               	goto	u5290
  2576  0E73                     u5291:
  2577  0E73  2EC9               	goto	l390
  2578  0E74                     u5290:
  2579  0E74                     l3749:
  2580                           
  2581                           ;WaterHeater_Mode/WaterHeater_Mode.c: 32:    {;WaterHeater_Mode/WaterHeater_Mode.c: 34: 
      +                              Start_Setting_Timer(5000,200);
  2582  0E74  3088               	movlw	136
  2583  0E75  00BC               	movwf	Start_Setting_Timer@Timer_Ms
  2584  0E76  3013               	movlw	19
  2585  0E77  00BD               	movwf	Start_Setting_Timer@Timer_Ms+1
  2586  0E78  30C8               	movlw	200
  2587  0E79  00BE               	movwf	Start_Setting_Timer@Peroid_Task
  2588  0E7A  3000               	movlw	0
  2589  0E7B  00BF               	movwf	Start_Setting_Timer@Peroid_Task+1
  2590  0E7C  120A  158A  2223  120A  158A  	fcall	_Start_Setting_Timer
  2591  0E81                     l3751:
  2592                           
  2593                           ;WaterHeater_Mode/WaterHeater_Mode.c: 35:     if((((PORTB>>2)&1)==0) &&(((PORTB>>1)&1)==
      +                          1) && Temperature.Set_Temp !=(75U))
  2594  0E81  1283               	bcf	3,5	;RP0=0, select bank0
  2595  0E82  1303               	bcf	3,6	;RP1=0, select bank0
  2596  0E83  0806               	movf	6,w	;volatile
  2597  0E84  00C2               	movwf	??_Mode_MainFunction
  2598  0E85  3002               	movlw	2
  2599  0E86                     u5305:
  2600  0E86  1003               	clrc
  2601  0E87  0CC2               	rrf	??_Mode_MainFunction,f
  2602  0E88  3EFF               	addlw	-1
  2603  0E89  1D03               	skipz
  2604  0E8A  2E86               	goto	u5305
  2605  0E8B  1842               	btfsc	??_Mode_MainFunction,0
  2606  0E8C  2E8E               	goto	u5311
  2607  0E8D  2E8F               	goto	u5310
  2608  0E8E                     u5311:
  2609  0E8E  2EA8               	goto	l3761
  2610  0E8F                     u5310:
  2611  0E8F                     l3753:
  2612  0E8F  0806               	movf	6,w	;volatile
  2613  0E90  00C2               	movwf	??_Mode_MainFunction
  2614  0E91  3001               	movlw	1
  2615  0E92                     u5325:
  2616  0E92  1003               	clrc
  2617  0E93  0CC2               	rrf	??_Mode_MainFunction,f
  2618  0E94  3EFF               	addlw	-1
  2619  0E95  1D03               	skipz
  2620  0E96  2E92               	goto	u5325
  2621  0E97  1C42               	btfss	??_Mode_MainFunction,0
  2622  0E98  2E9A               	goto	u5331
  2623  0E99  2E9B               	goto	u5330
  2624  0E9A                     u5331:
  2625  0E9A  2EA8               	goto	l3761
  2626  0E9B                     u5330:
  2627  0E9B                     l3755:
  2628  0E9B  304B               	movlw	75
  2629  0E9C  0653               	xorwf	_Temperature+2,w
  2630  0E9D  1903               	btfsc	3,2
  2631  0E9E  2EA0               	goto	u5341
  2632  0E9F  2EA1               	goto	u5340
  2633  0EA0                     u5341:
  2634  0EA0  2EA8               	goto	l3761
  2635  0EA1                     u5340:
  2636  0EA1                     l3757:
  2637                           
  2638                           ;WaterHeater_Mode/WaterHeater_Mode.c: 36:      {;WaterHeater_Mode/WaterHeater_Mode.c: 37
      +                          :       Temperature.Set_Temp += (5U);
  2639  0EA1  3005               	movlw	5
  2640  0EA2  00FF               	movwf	btemp+1
  2641  0EA3  087F               	movf	btemp+1,w
  2642  0EA4  07D3               	addwf	_Temperature+2,f
  2643  0EA5                     l3759:
  2644                           
  2645                           ;WaterHeater_Mode/WaterHeater_Mode.c: 38:       Mode.Setting_Mode_Timer=1;
  2646  0EA5  01C5               	clrf	_Mode+1
  2647  0EA6  0AC5               	incf	_Mode+1,f
  2648                           
  2649                           ;WaterHeater_Mode/WaterHeater_Mode.c: 39:      }
  2650  0EA7  2EC9               	goto	l390
  2651  0EA8                     l3761:
  2652  0EA8  0806               	movf	6,w	;volatile
  2653  0EA9  00C2               	movwf	??_Mode_MainFunction
  2654  0EAA  3002               	movlw	2
  2655  0EAB                     u5355:
  2656  0EAB  1003               	clrc
  2657  0EAC  0CC2               	rrf	??_Mode_MainFunction,f
  2658  0EAD  3EFF               	addlw	-1
  2659  0EAE  1D03               	skipz
  2660  0EAF  2EAB               	goto	u5355
  2661  0EB0  1C42               	btfss	??_Mode_MainFunction,0
  2662  0EB1  2EB3               	goto	u5361
  2663  0EB2  2EB4               	goto	u5360
  2664  0EB3                     u5361:
  2665  0EB3  2EC9               	goto	l390
  2666  0EB4                     u5360:
  2667  0EB4                     l3763:
  2668  0EB4  0806               	movf	6,w	;volatile
  2669  0EB5  00C2               	movwf	??_Mode_MainFunction
  2670  0EB6  3001               	movlw	1
  2671  0EB7                     u5375:
  2672  0EB7  1003               	clrc
  2673  0EB8  0CC2               	rrf	??_Mode_MainFunction,f
  2674  0EB9  3EFF               	addlw	-1
  2675  0EBA  1D03               	skipz
  2676  0EBB  2EB7               	goto	u5375
  2677  0EBC  1842               	btfsc	??_Mode_MainFunction,0
  2678  0EBD  2EBF               	goto	u5381
  2679  0EBE  2EC0               	goto	u5380
  2680  0EBF                     u5381:
  2681  0EBF  2EC9               	goto	l390
  2682  0EC0                     u5380:
  2683  0EC0                     l3765:
  2684  0EC0  3023               	movlw	35
  2685  0EC1  0653               	xorwf	_Temperature+2,w
  2686  0EC2  1903               	btfsc	3,2
  2687  0EC3  2EC5               	goto	u5391
  2688  0EC4  2EC6               	goto	u5390
  2689  0EC5                     u5391:
  2690  0EC5  2EC9               	goto	l390
  2691  0EC6                     u5390:
  2692  0EC6                     l3767:
  2693                           
  2694                           ;WaterHeater_Mode/WaterHeater_Mode.c: 41:      {;WaterHeater_Mode/WaterHeater_Mode.c: 42
      +                          :       Temperature.Set_Temp -= (5U);
  2695  0EC6  3005               	movlw	5
  2696  0EC7  02D3               	subwf	_Temperature+2,f
  2697  0EC8  2EA5               	goto	l3759
  2698  0EC9                     l390:
  2699  0EC9  0008               	return
  2700  0ECA                     __end_of_Mode_MainFunction:
  2701                           
  2702                           	psect	text9
  2703  0A23                     __ptext9:	
  2704 ;; *************** function _Start_Setting_Timer *****************
  2705 ;; Defined at:
  2706 ;;		line 53 in file "WaterHeater_Mode/WaterHeater_Mode.c"
  2707 ;; Parameters:    Size  Location     Type
  2708 ;;  Timer_Ms        2   28[BANK0 ] unsigned int 
  2709 ;;  Peroid_Task     2   30[BANK0 ] unsigned int 
  2710 ;; Auto vars:     Size  Location     Type
  2711 ;;		None
  2712 ;; Return value:  Size  Location     Type
  2713 ;;                  1    wreg      void 
  2714 ;; Registers used:
  2715 ;;		wreg, status,2, status,0, btemp+1, pclath, cstack
  2716 ;; Tracked objects:
  2717 ;;		On entry : 0/0
  2718 ;;		On exit  : 0/0
  2719 ;;		Unchanged: 0/0
  2720 ;; Data sizes:     COMMON   BANK0   BANK1   BANK3   BANK2
  2721 ;;      Params:         0       4       0       0       0
  2722 ;;      Locals:         0       0       0       0       0
  2723 ;;      Temps:          0       2       0       0       0
  2724 ;;      Totals:         0       6       0       0       0
  2725 ;;Total ram usage:        6 bytes
  2726 ;; Hardware stack levels used:    1
  2727 ;; Hardware stack levels required when called:    5
  2728 ;; This function calls:
  2729 ;;		___wmul
  2730 ;; This function is called by:
  2731 ;;		_Mode_MainFunction
  2732 ;; This function uses a non-reentrant model
  2733 ;;
  2734                           
  2735                           
  2736                           ;psect for function _Start_Setting_Timer
  2737  0A23                     _Start_Setting_Timer:
  2738  0A23                     l3511:	
  2739                           ;incstack = 0
  2740 ;; hardware stack exceeded
  2741                           ; Regs used in _Start_Setting_Timer: [wreg+status,2+status,0+btemp+1+pclath+cstack]
  2742                           
  2743                           
  2744                           ;WaterHeater_Mode/WaterHeater_Mode.c: 53: void Start_Setting_Timer(uint16_t Timer_Ms ,ui
      +                          nt16_t Peroid_Task);WaterHeater_Mode/WaterHeater_Mode.c: 54: {;WaterHeater_Mode/WaterHea
      +                          ter_Mode.c: 55:  if(Mode.Setting_Mode_Timer*Peroid_Task==Timer_Ms)
  2745  0A23  1283               	bcf	3,5	;RP0=0, select bank0
  2746  0A24  1303               	bcf	3,6	;RP1=0, select bank0
  2747  0A25  0845               	movf	_Mode+1,w
  2748  0A26  00C0               	movwf	??_Start_Setting_Timer
  2749  0A27  01C1               	clrf	??_Start_Setting_Timer+1
  2750  0A28  0840               	movf	??_Start_Setting_Timer,w
  2751  0A29  00B6               	movwf	___wmul@multiplier
  2752  0A2A  0841               	movf	??_Start_Setting_Timer+1,w
  2753  0A2B  00B7               	movwf	___wmul@multiplier+1
  2754  0A2C  083F               	movf	Start_Setting_Timer@Peroid_Task+1,w
  2755  0A2D  00B9               	movwf	___wmul@multiplicand+1
  2756  0A2E  083E               	movf	Start_Setting_Timer@Peroid_Task,w
  2757  0A2F  00B8               	movwf	___wmul@multiplicand
  2758  0A30  120A  158A  21D3  120A  158A  	fcall	___wmul
  2759  0A35  1283               	bcf	3,5	;RP0=0, select bank0
  2760  0A36  1303               	bcf	3,6	;RP1=0, select bank0
  2761  0A37  083D               	movf	Start_Setting_Timer@Timer_Ms+1,w
  2762  0A38  0637               	xorwf	?___wmul+1,w
  2763  0A39  1D03               	skipz
  2764  0A3A  2A3D               	goto	u4855
  2765  0A3B  083C               	movf	Start_Setting_Timer@Timer_Ms,w
  2766  0A3C  0636               	xorwf	?___wmul,w
  2767  0A3D                     u4855:
  2768  0A3D  1D03               	skipz
  2769  0A3E  2A40               	goto	u4851
  2770  0A3F  2A41               	goto	u4850
  2771  0A40                     u4851:
  2772  0A40  2A47               	goto	l3515
  2773  0A41                     u4850:
  2774  0A41                     l3513:
  2775                           
  2776                           ;WaterHeater_Mode/WaterHeater_Mode.c: 56:  {;WaterHeater_Mode/WaterHeater_Mode.c: 57:   
      +                          Temperature.Store_Set_Temp_Flag=1;
  2777  0A41  14D4               	bsf	_Temperature+3,1
  2778                           
  2779                           ;WaterHeater_Mode/WaterHeater_Mode.c: 58:   Mode.Select_Mode=Normal_Mode;
  2780  0A42  01C4               	clrf	_Mode
  2781  0A43  0AC4               	incf	_Mode,f
  2782                           
  2783                           ;WaterHeater_Mode/WaterHeater_Mode.c: 59:   Mode.Setting_Mode_Timer=1;
  2784  0A44  01C5               	clrf	_Mode+1
  2785  0A45  0AC5               	incf	_Mode+1,f
  2786                           
  2787                           ;WaterHeater_Mode/WaterHeater_Mode.c: 61:  }
  2788  0A46  2A4B               	goto	l395
  2789  0A47                     l3515:
  2790                           
  2791                           ;WaterHeater_Mode/WaterHeater_Mode.c: 63:  {;WaterHeater_Mode/WaterHeater_Mode.c: 64:   
      +                          Mode.Setting_Mode_Timer++;
  2792  0A47  3001               	movlw	1
  2793  0A48  00FF               	movwf	btemp+1
  2794  0A49  087F               	movf	btemp+1,w
  2795  0A4A  07C5               	addwf	_Mode+1,f
  2796  0A4B                     l395:
  2797  0A4B  0008               	return
  2798  0A4C                     __end_of_Start_Setting_Timer:
  2799                           
  2800                           	psect	text10
  2801  09AF                     __ptext10:	
  2802 ;; *************** function _Read_UP_DOWN_BUTTONS *****************
  2803 ;; Defined at:
  2804 ;;		line 38 in file "Buttons/Buttons.c"
  2805 ;; Parameters:    Size  Location     Type
  2806 ;;		None
  2807 ;; Auto vars:     Size  Location     Type
  2808 ;;		None
  2809 ;; Return value:  Size  Location     Type
  2810 ;;                  1    wreg      void 
  2811 ;; Registers used:
  2812 ;;		wreg, status,2, status,0, btemp+1
  2813 ;; Tracked objects:
  2814 ;;		On entry : 0/0
  2815 ;;		On exit  : 0/0
  2816 ;;		Unchanged: 0/0
  2817 ;; Data sizes:     COMMON   BANK0   BANK1   BANK3   BANK2
  2818 ;;      Params:         0       0       0       0       0
  2819 ;;      Locals:         0       0       0       0       0
  2820 ;;      Temps:          0       1       0       0       0
  2821 ;;      Totals:         0       1       0       0       0
  2822 ;;Total ram usage:        1 bytes
  2823 ;; Hardware stack levels used:    1
  2824 ;; Hardware stack levels required when called:    4
  2825 ;; This function calls:
  2826 ;;		Nothing
  2827 ;; This function is called by:
  2828 ;;		_Mode_MainFunction
  2829 ;; This function uses a non-reentrant model
  2830 ;;
  2831                           
  2832                           
  2833                           ;psect for function _Read_UP_DOWN_BUTTONS
  2834  09AF                     _Read_UP_DOWN_BUTTONS:
  2835  09AF                     l3479:	
  2836                           ;incstack = 0
  2837                           ; Regs used in _Read_UP_DOWN_BUTTONS: [wreg+status,2+status,0+btemp+1]
  2838                           
  2839                           
  2840                           ;Buttons/Buttons.c: 40:     if(((((PORTB>>2)&1)==0) ||(((PORTB>>1)&1)==0)) && Mode.Selec
      +                          t_Mode==Normal_Mode)
  2841  09AF  1283               	bcf	3,5	;RP0=0, select bank0
  2842  09B0  1303               	bcf	3,6	;RP1=0, select bank0
  2843  09B1  0806               	movf	6,w	;volatile
  2844  09B2  00B6               	movwf	??_Read_UP_DOWN_BUTTONS
  2845  09B3  3002               	movlw	2
  2846  09B4                     u4765:
  2847  09B4  1003               	clrc
  2848  09B5  0CB6               	rrf	??_Read_UP_DOWN_BUTTONS,f
  2849  09B6  3EFF               	addlw	-1
  2850  09B7  1D03               	skipz
  2851  09B8  29B4               	goto	u4765
  2852  09B9  1C36               	btfss	??_Read_UP_DOWN_BUTTONS,0
  2853  09BA  29BC               	goto	u4771
  2854  09BB  29BD               	goto	u4770
  2855  09BC                     u4771:
  2856  09BC  29C9               	goto	l3483
  2857  09BD                     u4770:
  2858  09BD                     l3481:
  2859  09BD  0806               	movf	6,w	;volatile
  2860  09BE  00B6               	movwf	??_Read_UP_DOWN_BUTTONS
  2861  09BF  3001               	movlw	1
  2862  09C0                     u4785:
  2863  09C0  1003               	clrc
  2864  09C1  0CB6               	rrf	??_Read_UP_DOWN_BUTTONS,f
  2865  09C2  3EFF               	addlw	-1
  2866  09C3  1D03               	skipz
  2867  09C4  29C0               	goto	u4785
  2868  09C5  1836               	btfsc	??_Read_UP_DOWN_BUTTONS,0
  2869  09C6  29C8               	goto	u4791
  2870  09C7  29C9               	goto	u4790
  2871  09C8                     u4791:
  2872  09C8  29D2               	goto	l106
  2873  09C9                     u4790:
  2874  09C9                     l3483:
  2875  09C9  0344               	decf	_Mode,w
  2876  09CA  1D03               	btfss	3,2
  2877  09CB  29CD               	goto	u4801
  2878  09CC  29CE               	goto	u4800
  2879  09CD                     u4801:
  2880  09CD  29D2               	goto	l106
  2881  09CE                     u4800:
  2882  09CE                     l3485:
  2883                           
  2884                           ;Buttons/Buttons.c: 41:     {;Buttons/Buttons.c: 42:       Mode.Select_Mode=Setting_Mode
      +                          ;
  2885  09CE  3002               	movlw	2
  2886  09CF  00FF               	movwf	btemp+1
  2887  09D0  087F               	movf	btemp+1,w
  2888  09D1  00C4               	movwf	_Mode
  2889  09D2                     l106:
  2890  09D2  0008               	return
  2891  09D3                     __end_of_Read_UP_DOWN_BUTTONS:
  2892                           
  2893                           	psect	text11
  2894  0C56                     __ptext11:	
  2895 ;; *************** function _Elements_MainFunction *****************
  2896 ;; Defined at:
  2897 ;;		line 57 in file "Elements/Elements.c"
  2898 ;; Parameters:    Size  Location     Type
  2899 ;;		None
  2900 ;; Auto vars:     Size  Location     Type
  2901 ;;		None
  2902 ;; Return value:  Size  Location     Type
  2903 ;;                  1    wreg      void 
  2904 ;; Registers used:
  2905 ;;		wreg, status,2, status,0, btemp+1
  2906 ;; Tracked objects:
  2907 ;;		On entry : 0/0
  2908 ;;		On exit  : 0/0
  2909 ;;		Unchanged: 0/0
  2910 ;; Data sizes:     COMMON   BANK0   BANK1   BANK3   BANK2
  2911 ;;      Params:         0       0       0       0       0
  2912 ;;      Locals:         0       0       0       0       0
  2913 ;;      Temps:          0       4       0       0       0
  2914 ;;      Totals:         0       4       0       0       0
  2915 ;;Total ram usage:        4 bytes
  2916 ;; Hardware stack levels used:    1
  2917 ;; Hardware stack levels required when called:    4
  2918 ;; This function calls:
  2919 ;;		Nothing
  2920 ;; This function is called by:
  2921 ;;		_Scheduler_Task3
  2922 ;; This function uses a non-reentrant model
  2923 ;;
  2924                           
  2925                           
  2926                           ;psect for function _Elements_MainFunction
  2927  0C56                     _Elements_MainFunction:
  2928  0C56                     l3723:	
  2929                           ;incstack = 0
  2930                           ; Regs used in _Elements_MainFunction: [wreg+status,2+status,0+btemp+1]
  2931                           
  2932                           
  2933                           ;Elements/Elements.c: 59:   if(Temperature.Average_Value_Ready_Flag==1 && Mode.Select_Mo
      +                          de==Normal_Mode)
  2934  0C56  1283               	bcf	3,5	;RP0=0, select bank0
  2935  0C57  1303               	bcf	3,6	;RP1=0, select bank0
  2936  0C58  1C54               	btfss	_Temperature+3,0
  2937  0C59  2C5B               	goto	u5251
  2938  0C5A  2C5C               	goto	u5250
  2939  0C5B                     u5251:
  2940  0C5B  2C9B               	goto	l3743
  2941  0C5C                     u5250:
  2942  0C5C                     l3725:
  2943  0C5C  0344               	decf	_Mode,w
  2944  0C5D  1D03               	btfss	3,2
  2945  0C5E  2C60               	goto	u5261
  2946  0C5F  2C61               	goto	u5260
  2947  0C60                     u5261:
  2948  0C60  2C9B               	goto	l3743
  2949  0C61                     u5260:
  2950  0C61                     l3727:
  2951                           
  2952                           ;Elements/Elements.c: 60:   {;Elements/Elements.c: 62:         if(Temperature.Average_Va
      +                          lue < (Temperature.Set_Temp - (5U)))
  2953  0C61  0853               	movf	_Temperature+2,w
  2954  0C62  3EFB               	addlw	251
  2955  0C63  00B6               	movwf	??_Elements_MainFunction
  2956  0C64  30FF               	movlw	255
  2957  0C65  1803               	skipnc
  2958  0C66  3000               	movlw	0
  2959  0C67  00B7               	movwf	??_Elements_MainFunction+1
  2960  0C68  0852               	movf	_Temperature+1,w
  2961  0C69  00B8               	movwf	??_Elements_MainFunction+2
  2962  0C6A  01B9               	clrf	??_Elements_MainFunction+3
  2963  0C6B  0837               	movf	??_Elements_MainFunction+1,w
  2964  0C6C  0239               	subwf	??_Elements_MainFunction+3,w
  2965  0C6D  1D03               	skipz
  2966  0C6E  2C71               	goto	u5275
  2967  0C6F  0836               	movf	??_Elements_MainFunction,w
  2968  0C70  0238               	subwf	??_Elements_MainFunction+2,w
  2969  0C71                     u5275:
  2970  0C71  1803               	skipnc
  2971  0C72  2C74               	goto	u5271
  2972  0C73  2C75               	goto	u5270
  2973  0C74                     u5271:
  2974  0C74  2C7F               	goto	l3735
  2975  0C75                     u5270:
  2976  0C75                     l3729:
  2977                           
  2978                           ;Elements/Elements.c: 63:          {;Elements/Elements.c: 64:          (PORTC &= ~(1<<2)
      +                          );
  2979  0C75  30FB               	movlw	251
  2980  0C76  00FF               	movwf	btemp+1
  2981  0C77  087F               	movf	btemp+1,w
  2982  0C78  0587               	andwf	7,f	;volatile
  2983  0C79                     l3731:
  2984                           
  2985                           ;Elements/Elements.c: 65:          (PORTC|= (1<<5));
  2986  0C79  1687               	bsf	7,5	;volatile
  2987  0C7A                     l3733:
  2988                           
  2989                           ;Elements/Elements.c: 66:    LED_Status=LED_BLINK ;
  2990  0C7A  3002               	movlw	2
  2991  0C7B  00FF               	movwf	btemp+1
  2992  0C7C  087F               	movf	btemp+1,w
  2993  0C7D  00CE               	movwf	_LED_Status
  2994                           
  2995                           ;Elements/Elements.c: 68:          }else if(Temperature.Average_Value > (Temperature.Set
      +                          _Temp + (5U)))
  2996  0C7E  2CA3               	goto	l204
  2997  0C7F                     l3735:
  2998  0C7F  0852               	movf	_Temperature+1,w
  2999  0C80  00B6               	movwf	??_Elements_MainFunction
  3000  0C81  01B7               	clrf	??_Elements_MainFunction+1
  3001  0C82  0853               	movf	_Temperature+2,w
  3002  0C83  3E05               	addlw	5
  3003  0C84  00B8               	movwf	??_Elements_MainFunction+2
  3004  0C85  3000               	movlw	0
  3005  0C86  1803               	skipnc
  3006  0C87  3001               	movlw	1
  3007  0C88  00B9               	movwf	??_Elements_MainFunction+3
  3008  0C89  0837               	movf	??_Elements_MainFunction+1,w
  3009  0C8A  0239               	subwf	??_Elements_MainFunction+3,w
  3010  0C8B  1D03               	skipz
  3011  0C8C  2C8F               	goto	u5285
  3012  0C8D  0836               	movf	??_Elements_MainFunction,w
  3013  0C8E  0238               	subwf	??_Elements_MainFunction+2,w
  3014  0C8F                     u5285:
  3015  0C8F  1803               	skipnc
  3016  0C90  2C92               	goto	u5281
  3017  0C91  2C93               	goto	u5280
  3018  0C92                     u5281:
  3019  0C92  2CA3               	goto	l204
  3020  0C93                     u5280:
  3021  0C93                     l3737:
  3022                           
  3023                           ;Elements/Elements.c: 69:          {;Elements/Elements.c: 71:           (PORTC &= ~(1<<5
      +                          ));
  3024  0C93  30DF               	movlw	223
  3025  0C94  00FF               	movwf	btemp+1
  3026  0C95  087F               	movf	btemp+1,w
  3027  0C96  0587               	andwf	7,f	;volatile
  3028  0C97                     l3739:
  3029                           
  3030                           ;Elements/Elements.c: 72:           (PORTC|= (1<<2));
  3031  0C97  1507               	bsf	7,2	;volatile
  3032  0C98                     l3741:
  3033                           
  3034                           ;Elements/Elements.c: 73:     LED_Status=LED_ON ;
  3035  0C98  01CE               	clrf	_LED_Status
  3036  0C99  0ACE               	incf	_LED_Status,f
  3037  0C9A  2CA3               	goto	l204
  3038  0C9B                     l3743:
  3039                           
  3040                           ;Elements/Elements.c: 78:   {;Elements/Elements.c: 79:    (PORTC &= ~(1<<2));
  3041  0C9B  30FB               	movlw	251
  3042  0C9C  00FF               	movwf	btemp+1
  3043  0C9D  087F               	movf	btemp+1,w
  3044  0C9E  0587               	andwf	7,f	;volatile
  3045                           
  3046                           ;Elements/Elements.c: 80:    (PORTC &= ~(1<<5));
  3047  0C9F  30DF               	movlw	223
  3048  0CA0  00FF               	movwf	btemp+1
  3049  0CA1  087F               	movf	btemp+1,w
  3050  0CA2  0587               	andwf	7,f	;volatile
  3051  0CA3                     l204:
  3052  0CA3  0008               	return
  3053  0CA4                     __end_of_Elements_MainFunction:
  3054                           
  3055                           	psect	text12
  3056  0AA2                     __ptext12:	
  3057 ;; *************** function _LED_MainFunction *****************
  3058 ;; Defined at:
  3059 ;;		line 37 in file "Elements/Elements.c"
  3060 ;; Parameters:    Size  Location     Type
  3061 ;;		None
  3062 ;; Auto vars:     Size  Location     Type
  3063 ;;		None
  3064 ;; Return value:  Size  Location     Type
  3065 ;;                  1    wreg      void 
  3066 ;; Registers used:
  3067 ;;		wreg, status,2, status,0, btemp+1, pclath, cstack
  3068 ;; Tracked objects:
  3069 ;;		On entry : 0/0
  3070 ;;		On exit  : 0/0
  3071 ;;		Unchanged: 0/0
  3072 ;; Data sizes:     COMMON   BANK0   BANK1   BANK3   BANK2
  3073 ;;      Params:         0       0       0       0       0
  3074 ;;      Locals:         0       0       0       0       0
  3075 ;;      Temps:          0       0       0       0       0
  3076 ;;      Totals:         0       0       0       0       0
  3077 ;;Total ram usage:        0 bytes
  3078 ;; Hardware stack levels used:    1
  3079 ;; Hardware stack levels required when called:    6
  3080 ;; This function calls:
  3081 ;;		_LED_BLINKING
  3082 ;; This function is called by:
  3083 ;;		_Scheduler_Task2
  3084 ;; This function uses a non-reentrant model
  3085 ;;
  3086                           
  3087                           
  3088                           ;psect for function _LED_MainFunction
  3089  0AA2                     _LED_MainFunction:
  3090  0AA2                     l3705:	
  3091                           ;incstack = 0
  3092 ;; hardware stack exceeded
  3093                           ; Regs used in _LED_MainFunction: [wreg+status,2+status,0+btemp+1+pclath+cstack]
  3094                           
  3095                           
  3096                           ;Elements/Elements.c: 39:  if(LED_Status==LED_BLINK && Mode.Select_Mode==Normal_Mode)
  3097  0AA2  3002               	movlw	2
  3098  0AA3  1283               	bcf	3,5	;RP0=0, select bank0
  3099  0AA4  1303               	bcf	3,6	;RP1=0, select bank0
  3100  0AA5  064E               	xorwf	_LED_Status,w
  3101  0AA6  1D03               	btfss	3,2
  3102  0AA7  2AA9               	goto	u5191
  3103  0AA8  2AAA               	goto	u5190
  3104  0AA9                     u5191:
  3105  0AA9  2ABD               	goto	l3711
  3106  0AAA                     u5190:
  3107  0AAA                     l3707:
  3108  0AAA  0344               	decf	_Mode,w
  3109  0AAB  1D03               	btfss	3,2
  3110  0AAC  2AAE               	goto	u5201
  3111  0AAD  2AAF               	goto	u5200
  3112  0AAE                     u5201:
  3113  0AAE  2ABD               	goto	l3711
  3114  0AAF                     u5200:
  3115  0AAF                     l3709:
  3116                           
  3117                           ;Elements/Elements.c: 40:  {;Elements/Elements.c: 42:   LED_BLINKING(1000,100);
  3118  0AAF  30E8               	movlw	232
  3119  0AB0  00BC               	movwf	LED_BLINKING@Time_Ms
  3120  0AB1  3003               	movlw	3
  3121  0AB2  00BD               	movwf	LED_BLINKING@Time_Ms+1
  3122  0AB3  3064               	movlw	100
  3123  0AB4  00BE               	movwf	LED_BLINKING@Task_Peroid
  3124  0AB5  3000               	movlw	0
  3125  0AB6  00BF               	movwf	LED_BLINKING@Task_Peroid+1
  3126  0AB7  120A  158A  224C  120A  158A  	fcall	_LED_BLINKING
  3127                           
  3128                           ;Elements/Elements.c: 43:  }
  3129  0ABC  2AD8               	goto	l196
  3130  0ABD                     l3711:
  3131  0ABD  034E               	decf	_LED_Status,w
  3132  0ABE  1D03               	btfss	3,2
  3133  0ABF  2AC1               	goto	u5211
  3134  0AC0  2AC2               	goto	u5210
  3135  0AC1                     u5211:
  3136  0AC1  2AC9               	goto	l3717
  3137  0AC2                     u5210:
  3138  0AC2                     l3713:
  3139  0AC2  0344               	decf	_Mode,w
  3140  0AC3  1D03               	btfss	3,2
  3141  0AC4  2AC6               	goto	u5221
  3142  0AC5  2AC7               	goto	u5220
  3143  0AC6                     u5221:
  3144  0AC6  2AC9               	goto	l3717
  3145  0AC7                     u5220:
  3146  0AC7                     l3715:
  3147                           
  3148                           ;Elements/Elements.c: 45:  {;Elements/Elements.c: 46:   (PORTB|= (1<<4));
  3149  0AC7  1606               	bsf	6,4	;volatile
  3150                           
  3151                           ;Elements/Elements.c: 47:  }
  3152  0AC8  2AD8               	goto	l196
  3153  0AC9                     l3717:
  3154  0AC9  0844               	movf	_Mode,w
  3155  0ACA  1903               	btfsc	3,2
  3156  0ACB  2ACD               	goto	u5231
  3157  0ACC  2ACE               	goto	u5230
  3158  0ACD                     u5231:
  3159  0ACD  2AD4               	goto	l3721
  3160  0ACE                     u5230:
  3161  0ACE                     l3719:
  3162  0ACE  3002               	movlw	2
  3163  0ACF  0644               	xorwf	_Mode,w
  3164  0AD0  1D03               	btfss	3,2
  3165  0AD1  2AD3               	goto	u5241
  3166  0AD2  2AD4               	goto	u5240
  3167  0AD3                     u5241:
  3168  0AD3  2AD8               	goto	l196
  3169  0AD4                     u5240:
  3170  0AD4                     l3721:
  3171                           
  3172                           ;Elements/Elements.c: 49:  {;Elements/Elements.c: 50:   (PORTB &= ~(1<<4));
  3173  0AD4  30EF               	movlw	239
  3174  0AD5  00FF               	movwf	btemp+1
  3175  0AD6  087F               	movf	btemp+1,w
  3176  0AD7  0586               	andwf	6,f	;volatile
  3177  0AD8                     l196:
  3178  0AD8  0008               	return
  3179  0AD9                     __end_of_LED_MainFunction:
  3180                           
  3181                           	psect	text13
  3182  0A4C                     __ptext13:	
  3183 ;; *************** function _LED_BLINKING *****************
  3184 ;; Defined at:
  3185 ;;		line 20 in file "Elements/Elements.c"
  3186 ;; Parameters:    Size  Location     Type
  3187 ;;  Time_Ms         2   28[BANK0 ] unsigned int 
  3188 ;;  Task_Peroid     2   30[BANK0 ] unsigned int 
  3189 ;; Auto vars:     Size  Location     Type
  3190 ;;		None
  3191 ;; Return value:  Size  Location     Type
  3192 ;;                  1    wreg      void 
  3193 ;; Registers used:
  3194 ;;		wreg, status,2, status,0, btemp+1, pclath, cstack
  3195 ;; Tracked objects:
  3196 ;;		On entry : 0/0
  3197 ;;		On exit  : 0/0
  3198 ;;		Unchanged: 0/0
  3199 ;; Data sizes:     COMMON   BANK0   BANK1   BANK3   BANK2
  3200 ;;      Params:         0       4       0       0       0
  3201 ;;      Locals:         0       0       0       0       0
  3202 ;;      Temps:          0       2       0       0       0
  3203 ;;      Totals:         0       6       0       0       0
  3204 ;;Total ram usage:        6 bytes
  3205 ;; Hardware stack levels used:    1
  3206 ;; Hardware stack levels required when called:    5
  3207 ;; This function calls:
  3208 ;;		___wmul
  3209 ;; This function is called by:
  3210 ;;		_LED_MainFunction
  3211 ;; This function uses a non-reentrant model
  3212 ;;
  3213                           
  3214                           
  3215                           ;psect for function _LED_BLINKING
  3216  0A4C                     _LED_BLINKING:
  3217  0A4C                     l3503:	
  3218                           ;incstack = 0
  3219 ;; hardware stack exceeded
  3220                           ; Regs used in _LED_BLINKING: [wreg+status,2+status,0+btemp+1+pclath+cstack]
  3221                           
  3222                           
  3223                           ;Elements/Elements.c: 20: void LED_BLINKING(uint16_t Time_Ms,uint16_t Task_Peroid);Eleme
      +                          nts/Elements.c: 21: {;Elements/Elements.c: 22:  static uint8_t Counter=1;;Elements/Eleme
      +                          nts.c: 24:    if(Counter*Task_Peroid==Time_Ms)
  3224  0A4C  1283               	bcf	3,5	;RP0=0, select bank0
  3225  0A4D  1303               	bcf	3,6	;RP1=0, select bank0
  3226  0A4E  0856               	movf	LED_BLINKING@Counter,w
  3227  0A4F  00C0               	movwf	??_LED_BLINKING
  3228  0A50  01C1               	clrf	??_LED_BLINKING+1
  3229  0A51  0840               	movf	??_LED_BLINKING,w
  3230  0A52  00B6               	movwf	___wmul@multiplier
  3231  0A53  0841               	movf	??_LED_BLINKING+1,w
  3232  0A54  00B7               	movwf	___wmul@multiplier+1
  3233  0A55  083F               	movf	LED_BLINKING@Task_Peroid+1,w
  3234  0A56  00B9               	movwf	___wmul@multiplicand+1
  3235  0A57  083E               	movf	LED_BLINKING@Task_Peroid,w
  3236  0A58  00B8               	movwf	___wmul@multiplicand
  3237  0A59  120A  158A  21D3  120A  158A  	fcall	___wmul
  3238  0A5E  1283               	bcf	3,5	;RP0=0, select bank0
  3239  0A5F  1303               	bcf	3,6	;RP1=0, select bank0
  3240  0A60  083D               	movf	LED_BLINKING@Time_Ms+1,w
  3241  0A61  0637               	xorwf	?___wmul+1,w
  3242  0A62  1D03               	skipz
  3243  0A63  2A66               	goto	u4845
  3244  0A64  083C               	movf	LED_BLINKING@Time_Ms,w
  3245  0A65  0636               	xorwf	?___wmul,w
  3246  0A66                     u4845:
  3247  0A66  1D03               	skipz
  3248  0A67  2A69               	goto	u4841
  3249  0A68  2A6A               	goto	u4840
  3250  0A69                     u4841:
  3251  0A69  2A71               	goto	l3509
  3252  0A6A                     u4840:
  3253  0A6A                     l3505:
  3254                           
  3255                           ;Elements/Elements.c: 25:    {;Elements/Elements.c: 26:     (PORTB^= (1<<4));
  3256  0A6A  3010               	movlw	16
  3257  0A6B  00FF               	movwf	btemp+1
  3258  0A6C  087F               	movf	btemp+1,w
  3259  0A6D  0686               	xorwf	6,f	;volatile
  3260  0A6E                     l3507:
  3261                           
  3262                           ;Elements/Elements.c: 27:        Counter=1;
  3263  0A6E  01D6               	clrf	LED_BLINKING@Counter
  3264  0A6F  0AD6               	incf	LED_BLINKING@Counter,f
  3265                           
  3266                           ;Elements/Elements.c: 29:    }
  3267  0A70  2A75               	goto	l186
  3268  0A71                     l3509:
  3269                           
  3270                           ;Elements/Elements.c: 31:    {;Elements/Elements.c: 32:     Counter++;
  3271  0A71  3001               	movlw	1
  3272  0A72  00FF               	movwf	btemp+1
  3273  0A73  087F               	movf	btemp+1,w
  3274  0A74  07D6               	addwf	LED_BLINKING@Counter,f
  3275  0A75                     l186:
  3276  0A75  0008               	return
  3277  0A76                     __end_of_LED_BLINKING:
  3278                           
  3279                           	psect	text14
  3280  07E2                     __ptext14:	
  3281 ;; *************** function _ADC_Conv_MainFunction *****************
  3282 ;; Defined at:
  3283 ;;		line 47 in file "ADC/ADC.c"
  3284 ;; Parameters:    Size  Location     Type
  3285 ;;		None
  3286 ;; Auto vars:     Size  Location     Type
  3287 ;;		None
  3288 ;; Return value:  Size  Location     Type
  3289 ;;                  1    wreg      void 
  3290 ;; Registers used:
  3291 ;;		wreg, fsr0l, fsr0h, status,2, status,0, btemp+1, pclath, cstack
  3292 ;; Tracked objects:
  3293 ;;		On entry : 0/0
  3294 ;;		On exit  : 0/0
  3295 ;;		Unchanged: 0/0
  3296 ;; Data sizes:     COMMON   BANK0   BANK1   BANK3   BANK2
  3297 ;;      Params:         0       0       0       0       0
  3298 ;;      Locals:         0       0       0       0       0
  3299 ;;      Temps:          0       0       0       0       0
  3300 ;;      Totals:         0       0       0       0       0
  3301 ;;Total ram usage:        0 bytes
  3302 ;; Hardware stack levels used:    1
  3303 ;; Hardware stack levels required when called:    8
  3304 ;; This function calls:
  3305 ;;		_ADC_Value_Ready_CallBack
  3306 ;; This function is called by:
  3307 ;;		_Scheduler_Task2
  3308 ;; This function uses a non-reentrant model
  3309 ;;
  3310                           
  3311                           
  3312                           ;psect for function _ADC_Conv_MainFunction
  3313  07E2                     _ADC_Conv_MainFunction:
  3314  07E2                     l3621:	
  3315                           ;incstack = 0
  3316 ;; hardware stack exceeded
  3317                           ; Regs used in _ADC_Conv_MainFunction: [wreg-fsr0h+status,2+status,0+btemp+1+pclath+csta
      +                          ck]
  3318                           
  3319                           
  3320                           ;ADC/ADC.c: 49:  if(ADC_Info.ADC_INIT_FLAG==1 && ADC_Info.ADC_START_FLAG==1 && Mode.Sele
      +                          ct_Mode==Normal_Mode)
  3321  07E2  1283               	bcf	3,5	;RP0=0, select bank0
  3322  07E3  1303               	bcf	3,6	;RP1=0, select bank0
  3323  07E4  1C50               	btfss	_ADC_Info,0
  3324  07E5  2FE7               	goto	u5071
  3325  07E6  2FE8               	goto	u5070
  3326  07E7                     u5071:
  3327  07E7  2FFD               	goto	l30
  3328  07E8                     u5070:
  3329  07E8                     l3623:
  3330  07E8  1CD0               	btfss	_ADC_Info,1
  3331  07E9  2FEB               	goto	u5081
  3332  07EA  2FEC               	goto	u5080
  3333  07EB                     u5081:
  3334  07EB  2FFD               	goto	l30
  3335  07EC                     u5080:
  3336  07EC                     l3625:
  3337  07EC  0344               	decf	_Mode,w
  3338  07ED  1D03               	btfss	3,2
  3339  07EE  2FF0               	goto	u5091
  3340  07EF  2FF1               	goto	u5090
  3341  07F0                     u5091:
  3342  07F0  2FFD               	goto	l30
  3343  07F1                     u5090:
  3344  07F1                     l3627:
  3345                           
  3346                           ;ADC/ADC.c: 50:  {;ADC/ADC.c: 51:      if(ADCON0bits.GO_DONE==0)
  3347  07F1  191F               	btfsc	31,2	;volatile
  3348  07F2  2FF4               	goto	u5101
  3349  07F3  2FF5               	goto	u5100
  3350  07F4                     u5101:
  3351  07F4  2FFD               	goto	l30
  3352  07F5                     u5100:
  3353  07F5                     l3629:
  3354                           
  3355                           ;ADC/ADC.c: 52:      {;ADC/ADC.c: 53:       ADC_Value_Ready_CallBack();
  3356  07F5  120A  158A  2056  120A  118A  	fcall	_ADC_Value_Ready_CallBack
  3357  07FA                     l3631:
  3358                           
  3359                           ;ADC/ADC.c: 54:       ADCON0bits.GO_DONE=1;
  3360  07FA  1283               	bcf	3,5	;RP0=0, select bank0
  3361  07FB  1303               	bcf	3,6	;RP1=0, select bank0
  3362  07FC  151F               	bsf	31,2	;volatile
  3363  07FD                     l30:
  3364  07FD  0008               	return
  3365  07FE                     __end_of_ADC_Conv_MainFunction:
  3366                           
  3367                           	psect	text15
  3368  0856                     __ptext15:	
  3369 ;; *************** function _ADC_Value_Ready_CallBack *****************
  3370 ;; Defined at:
  3371 ;;		line 59 in file "ADC/ADC.c"
  3372 ;; Parameters:    Size  Location     Type
  3373 ;;		None
  3374 ;; Auto vars:     Size  Location     Type
  3375 ;;		None
  3376 ;; Return value:  Size  Location     Type
  3377 ;;                  1    wreg      void 
  3378 ;; Registers used:
  3379 ;;		wreg, fsr0l, fsr0h, status,2, status,0, btemp+1, pclath, cstack
  3380 ;; Tracked objects:
  3381 ;;		On entry : 0/0
  3382 ;;		On exit  : 0/0
  3383 ;;		Unchanged: 0/0
  3384 ;; Data sizes:     COMMON   BANK0   BANK1   BANK3   BANK2
  3385 ;;      Params:         0       0       0       0       0
  3386 ;;      Locals:         0       0       0       0       0
  3387 ;;      Temps:          0       0       0       0       0
  3388 ;;      Totals:         0       0       0       0       0
  3389 ;;Total ram usage:        0 bytes
  3390 ;; Hardware stack levels used:    1
  3391 ;; Hardware stack levels required when called:    7
  3392 ;; This function calls:
  3393 ;;		_Temperature_Calc
  3394 ;; This function is called by:
  3395 ;;		_ADC_Conv_MainFunction
  3396 ;; This function uses a non-reentrant model
  3397 ;;
  3398                           
  3399                           
  3400                           ;psect for function _ADC_Value_Ready_CallBack
  3401  0856                     _ADC_Value_Ready_CallBack:
  3402  0856                     l3477:	
  3403                           ;incstack = 0
  3404 ;; hardware stack exceeded
  3405                           ; Regs used in _ADC_Value_Ready_CallBack: [wreg-fsr0h+status,2+status,0+btemp+1+pclath+c
      +                          stack]
  3406                           
  3407                           
  3408                           ;ADC/ADC.c: 61:   Temperature_Calc((ADRESH<<8)|(ADRESL));
  3409  0856  1683               	bsf	3,5	;RP0=1, select bank1
  3410  0857  1303               	bcf	3,6	;RP1=0, select bank1
  3411  0858  081E               	movf	30,w	;volatile
  3412  0859  120A  118A  2649  120A  158A  	fcall	_Temperature_Calc
  3413  085E                     l33:
  3414  085E  0008               	return
  3415  085F                     __end_of_ADC_Value_Ready_CallBack:
  3416                           
  3417                           	psect	text16
  3418  0649                     __ptext16:	
  3419 ;; *************** function _Temperature_Calc *****************
  3420 ;; Defined at:
  3421 ;;		line 14 in file "Temperature/Temperature.c"
  3422 ;; Parameters:    Size  Location     Type
  3423 ;;  ADC_VALUE       1    wreg     unsigned char 
  3424 ;; Auto vars:     Size  Location     Type
  3425 ;;  ADC_VALUE       1   28[BANK1 ] unsigned char 
  3426 ;; Return value:  Size  Location     Type
  3427 ;;                  1    wreg      void 
  3428 ;; Registers used:
  3429 ;;		wreg, fsr0l, fsr0h, status,2, status,0, btemp+1, pclath, cstack
  3430 ;; Tracked objects:
  3431 ;;		On entry : 0/0
  3432 ;;		On exit  : 0/0
  3433 ;;		Unchanged: 0/0
  3434 ;; Data sizes:     COMMON   BANK0   BANK1   BANK3   BANK2
  3435 ;;      Params:         0       0       0       0       0
  3436 ;;      Locals:         0       0       1       0       0
  3437 ;;      Temps:          0       0       0       4       0
  3438 ;;      Totals:         0       0       1       4       0
  3439 ;;Total ram usage:        5 bytes
  3440 ;; Hardware stack levels used:    1
  3441 ;; Hardware stack levels required when called:    6
  3442 ;; This function calls:
  3443 ;;		_Average_Value
  3444 ;;		___flmul
  3445 ;;		___fltol
  3446 ;;		___lwmod
  3447 ;;		___xxtofl
  3448 ;; This function is called by:
  3449 ;;		_ADC_Value_Ready_CallBack
  3450 ;; This function uses a non-reentrant model
  3451 ;;
  3452                           
  3453                           
  3454                           ;psect for function _Temperature_Calc
  3455  0649                     _Temperature_Calc:
  3456                           
  3457                           ;incstack = 0
  3458 ;; hardware stack exceeded
  3459                           ; Regs used in _Temperature_Calc: [wreg-fsr0h+status,2+status,0+btemp+1+pclath+cstack]
  3460                           ;Temperature_Calc@ADC_VALUE stored from wreg
  3461  0649  1683               	bsf	3,5	;RP0=1, select bank1
  3462  064A  1303               	bcf	3,6	;RP1=0, select bank1
  3463  064B  00EF               	movwf	Temperature_Calc@ADC_VALUE^(0+128)
  3464  064C                     l3371:
  3465                           
  3466                           ;Temperature/Temperature.c: 14: void Temperature_Calc(uint8_t ADC_VALUE);Temperature/Tem
      +                          perature.c: 15: {;Temperature/Temperature.c: 16:  Temperature.Temp_Value=ADC_VALUE * 0.4
      +                          882;
  3467  064C  086F               	movf	Temperature_Calc@ADC_VALUE^(0+128),w
  3468  064D  1683               	bsf	3,5	;RP0=1, select bank3
  3469  064E  1703               	bsf	3,6	;RP1=1, select bank3
  3470  064F  0098               	movwf	??_Temperature_Calc^(0+384)
  3471  0650  0199               	clrf	(??_Temperature_Calc^(0+384)+1)
  3472  0651  019A               	clrf	(??_Temperature_Calc^(0+384)+2)
  3473  0652  019B               	clrf	(??_Temperature_Calc^(0+384)+3)
  3474  0653  081B               	movf	(??_Temperature_Calc+3)^(0+384),w
  3475  0654  1283               	bcf	3,5	;RP0=0, select bank0
  3476  0655  1303               	bcf	3,6	;RP1=0, select bank0
  3477  0656  00B9               	movwf	___xxtofl@val+3
  3478  0657  1683               	bsf	3,5	;RP0=1, select bank3
  3479  0658  1703               	bsf	3,6	;RP1=1, select bank3
  3480  0659  081A               	movf	(??_Temperature_Calc+2)^(0+384),w
  3481  065A  1283               	bcf	3,5	;RP0=0, select bank0
  3482  065B  1303               	bcf	3,6	;RP1=0, select bank0
  3483  065C  00B8               	movwf	___xxtofl@val+2
  3484  065D  1683               	bsf	3,5	;RP0=1, select bank3
  3485  065E  1703               	bsf	3,6	;RP1=1, select bank3
  3486  065F  0819               	movf	(??_Temperature_Calc+1)^(0+384),w
  3487  0660  1283               	bcf	3,5	;RP0=0, select bank0
  3488  0661  1303               	bcf	3,6	;RP1=0, select bank0
  3489  0662  00B7               	movwf	___xxtofl@val+1
  3490  0663  1683               	bsf	3,5	;RP0=1, select bank3
  3491  0664  1703               	bsf	3,6	;RP1=1, select bank3
  3492  0665  0818               	movf	??_Temperature_Calc^(0+384),w
  3493  0666  1283               	bcf	3,5	;RP0=0, select bank0
  3494  0667  1303               	bcf	3,6	;RP1=0, select bank0
  3495  0668  00B6               	movwf	___xxtofl@val
  3496  0669  3001               	movlw	1
  3497  066A  120A  118A  24E5  120A  118A  	fcall	___xxtofl
  3498  066F  1283               	bcf	3,5	;RP0=0, select bank0
  3499  0670  1303               	bcf	3,6	;RP1=0, select bank0
  3500  0671  0839               	movf	?___xxtofl+3,w
  3501  0672  1683               	bsf	3,5	;RP0=1, select bank1
  3502  0673  1303               	bcf	3,6	;RP1=0, select bank1
  3503  0674  00DA               	movwf	(___flmul@a+3)^(0+128)
  3504  0675  1283               	bcf	3,5	;RP0=0, select bank0
  3505  0676  1303               	bcf	3,6	;RP1=0, select bank0
  3506  0677  0838               	movf	?___xxtofl+2,w
  3507  0678  1683               	bsf	3,5	;RP0=1, select bank1
  3508  0679  1303               	bcf	3,6	;RP1=0, select bank1
  3509  067A  00D9               	movwf	(___flmul@a+2)^(0+128)
  3510  067B  1283               	bcf	3,5	;RP0=0, select bank0
  3511  067C  1303               	bcf	3,6	;RP1=0, select bank0
  3512  067D  0837               	movf	?___xxtofl+1,w
  3513  067E  1683               	bsf	3,5	;RP0=1, select bank1
  3514  067F  1303               	bcf	3,6	;RP1=0, select bank1
  3515  0680  00D8               	movwf	(___flmul@a+1)^(0+128)
  3516  0681  1283               	bcf	3,5	;RP0=0, select bank0
  3517  0682  1303               	bcf	3,6	;RP1=0, select bank0
  3518  0683  0836               	movf	?___xxtofl,w
  3519  0684  1683               	bsf	3,5	;RP0=1, select bank1
  3520  0685  1303               	bcf	3,6	;RP1=0, select bank1
  3521  0686  00D7               	movwf	___flmul@a^(0+128)
  3522  0687  303E               	movlw	62
  3523  0688  00D6               	movwf	(___flmul@b+3)^(0+128)
  3524  0689  30F9               	movlw	249
  3525  068A  00D5               	movwf	(___flmul@b+2)^(0+128)
  3526  068B  30F5               	movlw	245
  3527  068C  00D4               	movwf	(___flmul@b+1)^(0+128)
  3528  068D  305A               	movlw	90
  3529  068E  00D3               	movwf	___flmul@b^(0+128)
  3530  068F  120A  118A  2051  120A  118A  	fcall	___flmul
  3531  0694  1683               	bsf	3,5	;RP0=1, select bank1
  3532  0695  1303               	bcf	3,6	;RP1=0, select bank1
  3533  0696  0856               	movf	(?___flmul+3)^(0+128),w
  3534  0697  1683               	bsf	3,5	;RP0=1, select bank3
  3535  0698  1703               	bsf	3,6	;RP1=1, select bank3
  3536  0699  0093               	movwf	(___fltol@f1+3)^(0+384)
  3537  069A  1683               	bsf	3,5	;RP0=1, select bank1
  3538  069B  1303               	bcf	3,6	;RP1=0, select bank1
  3539  069C  0855               	movf	(?___flmul+2)^(0+128),w
  3540  069D  1683               	bsf	3,5	;RP0=1, select bank3
  3541  069E  1703               	bsf	3,6	;RP1=1, select bank3
  3542  069F  0092               	movwf	(___fltol@f1+2)^(0+384)
  3543  06A0  1683               	bsf	3,5	;RP0=1, select bank1
  3544  06A1  1303               	bcf	3,6	;RP1=0, select bank1
  3545  06A2  0854               	movf	(?___flmul+1)^(0+128),w
  3546  06A3  1683               	bsf	3,5	;RP0=1, select bank3
  3547  06A4  1703               	bsf	3,6	;RP1=1, select bank3
  3548  06A5  0091               	movwf	(___fltol@f1+1)^(0+384)
  3549  06A6  1683               	bsf	3,5	;RP0=1, select bank1
  3550  06A7  1303               	bcf	3,6	;RP1=0, select bank1
  3551  06A8  0853               	movf	?___flmul^(0+128),w
  3552  06A9  1683               	bsf	3,5	;RP0=1, select bank3
  3553  06AA  1703               	bsf	3,6	;RP1=1, select bank3
  3554  06AB  0090               	movwf	___fltol@f1^(0+384)
  3555  06AC  120A  118A  26E7  120A  118A  	fcall	___fltol
  3556  06B1  1683               	bsf	3,5	;RP0=1, select bank3
  3557  06B2  1703               	bsf	3,6	;RP1=1, select bank3
  3558  06B3  0810               	movf	?___fltol^(0+384),w
  3559  06B4  00FF               	movwf	btemp+1
  3560  06B5  087F               	movf	btemp+1,w
  3561  06B6  1283               	bcf	3,5	;RP0=0, select bank0
  3562  06B7  1303               	bcf	3,6	;RP1=0, select bank0
  3563  06B8  00D1               	movwf	_Temperature
  3564  06B9                     l3373:
  3565                           
  3566                           ;Temperature/Temperature.c: 17:  Average_Value(Temperature.Temp_Value, &Temperature.Aver
      +                          age_Value);
  3567  06B9  3052               	movlw	(low ((_Temperature| 0+1)))& (0+255)
  3568  06BA  00FF               	movwf	btemp+1
  3569  06BB  087F               	movf	btemp+1,w
  3570  06BC  1683               	bsf	3,5	;RP0=1, select bank1
  3571  06BD  1303               	bcf	3,6	;RP1=0, select bank1
  3572  06BE  00D3               	movwf	Average_Value@Avrage_Values^(0+128)
  3573  06BF  1283               	bcf	3,5	;RP0=0, select bank0
  3574  06C0  1303               	bcf	3,6	;RP1=0, select bank0
  3575  06C1  0851               	movf	_Temperature,w
  3576  06C2  120A  118A  25A1  120A  118A  	fcall	_Average_Value
  3577  06C7                     l3375:
  3578                           
  3579                           ;Temperature/Temperature.c: 18:  Temperature.Average_NValues=(Temperature.Average_NValue
      +                          s+1)%10U;
  3580  06C7  300A               	movlw	10
  3581  06C8  1283               	bcf	3,5	;RP0=0, select bank0
  3582  06C9  1303               	bcf	3,6	;RP1=0, select bank0
  3583  06CA  00B6               	movwf	___lwmod@divisor
  3584  06CB  3000               	movlw	0
  3585  06CC  00B7               	movwf	___lwmod@divisor+1
  3586  06CD  0855               	movf	_Temperature+4,w
  3587  06CE  3E01               	addlw	1
  3588  06CF  00B8               	movwf	___lwmod@dividend
  3589  06D0  3000               	movlw	0
  3590  06D1  1803               	skipnc
  3591  06D2  3001               	movlw	1
  3592  06D3  00B9               	movwf	___lwmod@dividend+1
  3593  06D4  120A  158A  2387  120A  118A  	fcall	___lwmod
  3594  06D9  1283               	bcf	3,5	;RP0=0, select bank0
  3595  06DA  1303               	bcf	3,6	;RP1=0, select bank0
  3596  06DB  0836               	movf	?___lwmod,w
  3597  06DC  00FF               	movwf	btemp+1
  3598  06DD  087F               	movf	btemp+1,w
  3599  06DE  00D5               	movwf	_Temperature+4
  3600  06DF                     l3377:
  3601                           
  3602                           ;Temperature/Temperature.c: 20:  if(Temperature.Average_NValues==9)
  3603  06DF  3009               	movlw	9
  3604  06E0  0655               	xorwf	_Temperature+4,w
  3605  06E1  1D03               	btfss	3,2
  3606  06E2  2EE4               	goto	u4661
  3607  06E3  2EE5               	goto	u4660
  3608  06E4                     u4661:
  3609  06E4  2EE6               	goto	l354
  3610  06E5                     u4660:
  3611  06E5                     l3379:
  3612                           
  3613                           ;Temperature/Temperature.c: 21:  {;Temperature/Temperature.c: 22:        Temperature.Ave
      +                          rage_Value_Ready_Flag=1;
  3614  06E5  1454               	bsf	_Temperature+3,0
  3615  06E6                     l354:
  3616  06E6  0008               	return
  3617  06E7                     __end_of_Temperature_Calc:
  3618                           
  3619                           	psect	text17
  3620  04E5                     __ptext17:	
  3621 ;; *************** function ___xxtofl *****************
  3622 ;; Defined at:
  3623 ;;		line 10 in file "C:\Program Files (x86)\Microchip\xc8\v2.20\pic\sources\c90\common\xxtofl.c"
  3624 ;; Parameters:    Size  Location     Type
  3625 ;;  sign            1    wreg     unsigned char 
  3626 ;;  val             4   22[BANK0 ] long 
  3627 ;; Auto vars:     Size  Location     Type
  3628 ;;  sign            1   30[BANK0 ] unsigned char 
  3629 ;;  arg             4   32[BANK0 ] unsigned long 
  3630 ;;  exp             1   31[BANK0 ] unsigned char 
  3631 ;; Return value:  Size  Location     Type
  3632 ;;                  4   22[BANK0 ] unsigned char 
  3633 ;; Registers used:
  3634 ;;		wreg, status,2, status,0, btemp+1
  3635 ;; Tracked objects:
  3636 ;;		On entry : 0/0
  3637 ;;		On exit  : 0/0
  3638 ;;		Unchanged: 0/0
  3639 ;; Data sizes:     COMMON   BANK0   BANK1   BANK3   BANK2
  3640 ;;      Params:         0       4       0       0       0
  3641 ;;      Locals:         0       6       0       0       0
  3642 ;;      Temps:          0       4       0       0       0
  3643 ;;      Totals:         0      14       0       0       0
  3644 ;;Total ram usage:       14 bytes
  3645 ;; Hardware stack levels used:    1
  3646 ;; Hardware stack levels required when called:    4
  3647 ;; This function calls:
  3648 ;;		Nothing
  3649 ;; This function is called by:
  3650 ;;		_Temperature_Calc
  3651 ;; This function uses a non-reentrant model
  3652 ;;
  3653                           
  3654                           
  3655                           ;psect for function ___xxtofl
  3656  04E5                     ___xxtofl:
  3657                           
  3658                           ;incstack = 0
  3659 ;; hardware stack exceeded
  3660                           ; Regs used in ___xxtofl: [wreg+status,2+status,0+btemp+1]
  3661                           ;___xxtofl@sign stored from wreg
  3662  04E5  1283               	bcf	3,5	;RP0=0, select bank0
  3663  04E6  1303               	bcf	3,6	;RP1=0, select bank0
  3664  04E7  00BE               	movwf	___xxtofl@sign
  3665  04E8                     l3323:
  3666  04E8  083E               	movf	___xxtofl@sign,w
  3667  04E9  1903               	btfsc	3,2
  3668  04EA  2CEC               	goto	u4521
  3669  04EB  2CED               	goto	u4520
  3670  04EC                     u4521:
  3671  04EC  2D01               	goto	l3329
  3672  04ED                     u4520:
  3673  04ED                     l3325:
  3674  04ED  1FB9               	btfss	___xxtofl@val+3,7
  3675  04EE  2CF0               	goto	u4531
  3676  04EF  2CF1               	goto	u4530
  3677  04F0                     u4531:
  3678  04F0  2D01               	goto	l3329
  3679  04F1                     u4530:
  3680  04F1                     l3327:
  3681  04F1  0936               	comf	___xxtofl@val,w
  3682  04F2  00C0               	movwf	___xxtofl@arg
  3683  04F3  0937               	comf	___xxtofl@val+1,w
  3684  04F4  00C1               	movwf	___xxtofl@arg+1
  3685  04F5  0938               	comf	___xxtofl@val+2,w
  3686  04F6  00C2               	movwf	___xxtofl@arg+2
  3687  04F7  0939               	comf	___xxtofl@val+3,w
  3688  04F8  00C3               	movwf	___xxtofl@arg+3
  3689  04F9  0AC0               	incf	___xxtofl@arg,f
  3690  04FA  1903               	skipnz
  3691  04FB  0AC1               	incf	___xxtofl@arg+1,f
  3692  04FC  1903               	skipnz
  3693  04FD  0AC2               	incf	___xxtofl@arg+2,f
  3694  04FE  1903               	skipnz
  3695  04FF  0AC3               	incf	___xxtofl@arg+3,f
  3696  0500  2D09               	goto	l996
  3697  0501                     l3329:
  3698  0501  0839               	movf	___xxtofl@val+3,w
  3699  0502  00C3               	movwf	___xxtofl@arg+3
  3700  0503  0838               	movf	___xxtofl@val+2,w
  3701  0504  00C2               	movwf	___xxtofl@arg+2
  3702  0505  0837               	movf	___xxtofl@val+1,w
  3703  0506  00C1               	movwf	___xxtofl@arg+1
  3704  0507  0836               	movf	___xxtofl@val,w
  3705  0508  00C0               	movwf	___xxtofl@arg
  3706  0509                     l996:
  3707  0509  0839               	movf	___xxtofl@val+3,w
  3708  050A  0438               	iorwf	___xxtofl@val+2,w
  3709  050B  0437               	iorwf	___xxtofl@val+1,w
  3710  050C  0436               	iorwf	___xxtofl@val,w
  3711  050D  1D03               	skipz
  3712  050E  2D10               	goto	u4541
  3713  050F  2D11               	goto	u4540
  3714  0510                     u4541:
  3715  0510  2D1A               	goto	l3335
  3716  0511                     u4540:
  3717  0511                     l3331:
  3718  0511  3000               	movlw	0
  3719  0512  00B9               	movwf	?___xxtofl+3
  3720  0513  3000               	movlw	0
  3721  0514  00B8               	movwf	?___xxtofl+2
  3722  0515  3000               	movlw	0
  3723  0516  00B7               	movwf	?___xxtofl+1
  3724  0517  3000               	movlw	0
  3725  0518  00B6               	movwf	?___xxtofl
  3726  0519  2DA0               	goto	l998
  3727  051A                     l3335:
  3728  051A  3096               	movlw	150
  3729  051B  00FF               	movwf	btemp+1
  3730  051C  087F               	movf	btemp+1,w
  3731  051D  00BF               	movwf	___xxtofl@exp
  3732  051E  2D2C               	goto	l3341
  3733  051F                     l3337:
  3734  051F  3001               	movlw	1
  3735  0520  00FF               	movwf	btemp+1
  3736  0521  087F               	movf	btemp+1,w
  3737  0522  07BF               	addwf	___xxtofl@exp,f
  3738  0523                     l3339:
  3739  0523  3001               	movlw	1
  3740  0524                     u4555:
  3741  0524  1003               	clrc
  3742  0525  0CC3               	rrf	___xxtofl@arg+3,f
  3743  0526  0CC2               	rrf	___xxtofl@arg+2,f
  3744  0527  0CC1               	rrf	___xxtofl@arg+1,f
  3745  0528  0CC0               	rrf	___xxtofl@arg,f
  3746  0529  3EFF               	addlw	-1
  3747  052A  1D03               	skipz
  3748  052B  2D24               	goto	u4555
  3749  052C                     l3341:
  3750  052C  30FE               	movlw	254
  3751  052D  0543               	andwf	___xxtofl@arg+3,w
  3752  052E  1D03               	btfss	3,2
  3753  052F  2D31               	goto	u4561
  3754  0530  2D32               	goto	u4560
  3755  0531                     u4561:
  3756  0531  2D1F               	goto	l3337
  3757  0532                     u4560:
  3758  0532  2D4E               	goto	l3349
  3759  0533                     l3343:
  3760  0533  3001               	movlw	1
  3761  0534  00FF               	movwf	btemp+1
  3762  0535  087F               	movf	btemp+1,w
  3763  0536  07BF               	addwf	___xxtofl@exp,f
  3764  0537                     l3345:
  3765  0537  3001               	movlw	1
  3766  0538  07C0               	addwf	___xxtofl@arg,f
  3767  0539  3000               	movlw	0
  3768  053A  1803               	skipnc
  3769  053B  3001               	movlw	1
  3770  053C  07C1               	addwf	___xxtofl@arg+1,f
  3771  053D  3000               	movlw	0
  3772  053E  1803               	skipnc
  3773  053F  3001               	movlw	1
  3774  0540  07C2               	addwf	___xxtofl@arg+2,f
  3775  0541  3000               	movlw	0
  3776  0542  1803               	skipnc
  3777  0543  3001               	movlw	1
  3778  0544  07C3               	addwf	___xxtofl@arg+3,f
  3779  0545                     l3347:
  3780  0545  3001               	movlw	1
  3781  0546                     u4575:
  3782  0546  1003               	clrc
  3783  0547  0CC3               	rrf	___xxtofl@arg+3,f
  3784  0548  0CC2               	rrf	___xxtofl@arg+2,f
  3785  0549  0CC1               	rrf	___xxtofl@arg+1,f
  3786  054A  0CC0               	rrf	___xxtofl@arg,f
  3787  054B  3EFF               	addlw	-1
  3788  054C  1D03               	skipz
  3789  054D  2D46               	goto	u4575
  3790  054E                     l3349:
  3791  054E  30FF               	movlw	255
  3792  054F  0543               	andwf	___xxtofl@arg+3,w
  3793  0550  1D03               	btfss	3,2
  3794  0551  2D53               	goto	u4581
  3795  0552  2D54               	goto	u4580
  3796  0553                     u4581:
  3797  0553  2D33               	goto	l3343
  3798  0554                     u4580:
  3799  0554  2D60               	goto	l3353
  3800  0555                     l3351:
  3801  0555  3001               	movlw	1
  3802  0556  02BF               	subwf	___xxtofl@exp,f
  3803  0557  3001               	movlw	1
  3804  0558  00BA               	movwf	??___xxtofl
  3805  0559                     u4595:
  3806  0559  1003               	clrc
  3807  055A  0DC0               	rlf	___xxtofl@arg,f
  3808  055B  0DC1               	rlf	___xxtofl@arg+1,f
  3809  055C  0DC2               	rlf	___xxtofl@arg+2,f
  3810  055D  0DC3               	rlf	___xxtofl@arg+3,f
  3811  055E  0BBA               	decfsz	??___xxtofl,f
  3812  055F  2D59               	goto	u4595
  3813  0560                     l3353:
  3814  0560  1BC2               	btfsc	___xxtofl@arg+2,7
  3815  0561  2D63               	goto	u4601
  3816  0562  2D64               	goto	u4600
  3817  0563                     u4601:
  3818  0563  2D6A               	goto	l1009
  3819  0564                     u4600:
  3820  0564                     l3355:
  3821  0564  3002               	movlw	2
  3822  0565  023F               	subwf	___xxtofl@exp,w
  3823  0566  1803               	skipnc
  3824  0567  2D69               	goto	u4611
  3825  0568  2D6A               	goto	u4610
  3826  0569                     u4611:
  3827  0569  2D55               	goto	l3351
  3828  056A                     u4610:
  3829  056A                     l1009:
  3830  056A  183F               	btfsc	___xxtofl@exp,0
  3831  056B  2D6D               	goto	u4621
  3832  056C  2D6E               	goto	u4620
  3833  056D                     u4621:
  3834  056D  2D76               	goto	l1010
  3835  056E                     u4620:
  3836  056E                     l3357:
  3837  056E  30FF               	movlw	255
  3838  056F  05C0               	andwf	___xxtofl@arg,f
  3839  0570  30FF               	movlw	255
  3840  0571  05C1               	andwf	___xxtofl@arg+1,f
  3841  0572  307F               	movlw	127
  3842  0573  05C2               	andwf	___xxtofl@arg+2,f
  3843  0574  30FF               	movlw	255
  3844  0575  05C3               	andwf	___xxtofl@arg+3,f
  3845  0576                     l1010:
  3846  0576  1003               	clrc
  3847  0577  0CBF               	rrf	___xxtofl@exp,f
  3848  0578                     l3359:
  3849  0578  083F               	movf	___xxtofl@exp,w
  3850  0579  00BA               	movwf	??___xxtofl
  3851  057A  01BB               	clrf	??___xxtofl+1
  3852  057B  01BC               	clrf	??___xxtofl+2
  3853  057C  01BD               	clrf	??___xxtofl+3
  3854  057D  3018               	movlw	24
  3855  057E                     u4635:
  3856  057E  1003               	clrc
  3857  057F  0DBA               	rlf	??___xxtofl,f
  3858  0580  0DBB               	rlf	??___xxtofl+1,f
  3859  0581  0DBC               	rlf	??___xxtofl+2,f
  3860  0582  0DBD               	rlf	??___xxtofl+3,f
  3861  0583                     u4630:
  3862  0583  3EFF               	addlw	-1
  3863  0584  1D03               	skipz
  3864  0585  2D7E               	goto	u4635
  3865  0586  083A               	movf	??___xxtofl,w
  3866  0587  04C0               	iorwf	___xxtofl@arg,f
  3867  0588  083B               	movf	??___xxtofl+1,w
  3868  0589  04C1               	iorwf	___xxtofl@arg+1,f
  3869  058A  083C               	movf	??___xxtofl+2,w
  3870  058B  04C2               	iorwf	___xxtofl@arg+2,f
  3871  058C  083D               	movf	??___xxtofl+3,w
  3872  058D  04C3               	iorwf	___xxtofl@arg+3,f
  3873  058E                     l3361:
  3874  058E  083E               	movf	___xxtofl@sign,w
  3875  058F  1903               	btfsc	3,2
  3876  0590  2D92               	goto	u4641
  3877  0591  2D93               	goto	u4640
  3878  0592                     u4641:
  3879  0592  2D98               	goto	l3367
  3880  0593                     u4640:
  3881  0593                     l3363:
  3882  0593  1FB9               	btfss	___xxtofl@val+3,7
  3883  0594  2D96               	goto	u4651
  3884  0595  2D97               	goto	u4650
  3885  0596                     u4651:
  3886  0596  2D98               	goto	l3367
  3887  0597                     u4650:
  3888  0597                     l3365:
  3889  0597  17C3               	bsf	___xxtofl@arg+3,7
  3890  0598                     l3367:
  3891  0598  0843               	movf	___xxtofl@arg+3,w
  3892  0599  00B9               	movwf	?___xxtofl+3
  3893  059A  0842               	movf	___xxtofl@arg+2,w
  3894  059B  00B8               	movwf	?___xxtofl+2
  3895  059C  0841               	movf	___xxtofl@arg+1,w
  3896  059D  00B7               	movwf	?___xxtofl+1
  3897  059E  0840               	movf	___xxtofl@arg,w
  3898  059F  00B6               	movwf	?___xxtofl
  3899  05A0                     l998:
  3900  05A0  0008               	return
  3901  05A1                     __end_of___xxtofl:
  3902                           
  3903                           	psect	text18
  3904  06E7                     __ptext18:	
  3905 ;; *************** function ___fltol *****************
  3906 ;; Defined at:
  3907 ;;		line 43 in file "C:\Program Files (x86)\Microchip\xc8\v2.20\pic\sources\c90\common\fltol.c"
  3908 ;; Parameters:    Size  Location     Type
  3909 ;;  f1              4    0[BANK3 ] unsigned char 
  3910 ;; Auto vars:     Size  Location     Type
  3911 ;;  exp1            1   27[BANK1 ] unsigned char 
  3912 ;;  sign1           1   26[BANK1 ] unsigned char 
  3913 ;; Return value:  Size  Location     Type
  3914 ;;                  4    0[BANK3 ] long 
  3915 ;; Registers used:
  3916 ;;		wreg, status,2, status,0, btemp+1
  3917 ;; Tracked objects:
  3918 ;;		On entry : 0/0
  3919 ;;		On exit  : 0/0
  3920 ;;		Unchanged: 0/0
  3921 ;; Data sizes:     COMMON   BANK0   BANK1   BANK3   BANK2
  3922 ;;      Params:         0       0       0       4       0
  3923 ;;      Locals:         0       0       2       0       0
  3924 ;;      Temps:          0       0       0       4       0
  3925 ;;      Totals:         0       0       2       8       0
  3926 ;;Total ram usage:       10 bytes
  3927 ;; Hardware stack levels used:    1
  3928 ;; Hardware stack levels required when called:    4
  3929 ;; This function calls:
  3930 ;;		Nothing
  3931 ;; This function is called by:
  3932 ;;		_Temperature_Calc
  3933 ;; This function uses a non-reentrant model
  3934 ;;
  3935                           
  3936                           
  3937                           ;psect for function ___fltol
  3938  06E7                     ___fltol:
  3939  06E7                     l3143:	
  3940                           ;incstack = 0
  3941 ;; hardware stack exceeded
  3942                           ; Regs used in ___fltol: [wreg+status,2+status,0+btemp+1]
  3943                           
  3944  06E7  1003               	clrc
  3945  06E8  1683               	bsf	3,5	;RP0=1, select bank3
  3946  06E9  1703               	bsf	3,6	;RP1=1, select bank3
  3947  06EA  0D12               	rlf	(___fltol@f1+2)^(0+384),w
  3948  06EB  0D13               	rlf	(___fltol@f1+3)^(0+384),w
  3949  06EC  00FF               	movwf	btemp+1
  3950  06ED  087F               	movf	btemp+1,w
  3951  06EE  1683               	bsf	3,5	;RP0=1, select bank1
  3952  06EF  1303               	bcf	3,6	;RP1=0, select bank1
  3953  06F0  00EE               	movwf	___fltol@exp1^(0+128)
  3954  06F1  086E               	movf	___fltol@exp1^(0+128),w
  3955  06F2  1D03               	btfss	3,2
  3956  06F3  2EF5               	goto	u4051
  3957  06F4  2EF6               	goto	u4050
  3958  06F5                     u4051:
  3959  06F5  2F01               	goto	l3149
  3960  06F6                     u4050:
  3961  06F6                     l3145:
  3962  06F6  3000               	movlw	0
  3963  06F7  1683               	bsf	3,5	;RP0=1, select bank3
  3964  06F8  1703               	bsf	3,6	;RP1=1, select bank3
  3965  06F9  0093               	movwf	(?___fltol+3)^(0+384)
  3966  06FA  3000               	movlw	0
  3967  06FB  0092               	movwf	(?___fltol+2)^(0+384)
  3968  06FC  3000               	movlw	0
  3969  06FD  0091               	movwf	(?___fltol+1)^(0+384)
  3970  06FE  3000               	movlw	0
  3971  06FF  0090               	movwf	?___fltol^(0+384)
  3972  0700  2F78               	goto	l749
  3973  0701                     l3149:
  3974  0701  1683               	bsf	3,5	;RP0=1, select bank3
  3975  0702  1703               	bsf	3,6	;RP1=1, select bank3
  3976  0703  0810               	movf	___fltol@f1^(0+384),w
  3977  0704  0094               	movwf	??___fltol^(0+384)
  3978  0705  0811               	movf	(___fltol@f1+1)^(0+384),w
  3979  0706  0095               	movwf	(??___fltol^(0+384)+1)
  3980  0707  0812               	movf	(___fltol@f1+2)^(0+384),w
  3981  0708  0096               	movwf	(??___fltol^(0+384)+2)
  3982  0709  0813               	movf	(___fltol@f1+3)^(0+384),w
  3983  070A  0097               	movwf	(??___fltol^(0+384)+3)
  3984  070B  301F               	movlw	31
  3985  070C                     u4065:
  3986  070C  1003               	clrc
  3987  070D  0C97               	rrf	(??___fltol^(0+384)+3),f
  3988  070E  0C96               	rrf	(??___fltol^(0+384)+2),f
  3989  070F  0C95               	rrf	(??___fltol^(0+384)+1),f
  3990  0710  0C94               	rrf	??___fltol^(0+384),f
  3991  0711                     u4060:
  3992  0711  3EFF               	addlw	-1
  3993  0712  1D03               	skipz
  3994  0713  2F0C               	goto	u4065
  3995  0714  0814               	movf	??___fltol^(0+384),w
  3996  0715  00FF               	movwf	btemp+1
  3997  0716  087F               	movf	btemp+1,w
  3998  0717  1683               	bsf	3,5	;RP0=1, select bank1
  3999  0718  1303               	bcf	3,6	;RP1=0, select bank1
  4000  0719  00ED               	movwf	___fltol@sign1^(0+128)
  4001  071A                     l3151:
  4002  071A  1683               	bsf	3,5	;RP0=1, select bank3
  4003  071B  1703               	bsf	3,6	;RP1=1, select bank3
  4004  071C  1792               	bsf	(___fltol@f1^(0+384)+2),7
  4005  071D                     l3153:
  4006  071D  30FF               	movlw	255
  4007  071E  0590               	andwf	___fltol@f1^(0+384),f
  4008  071F  30FF               	movlw	255
  4009  0720  0591               	andwf	(___fltol@f1+1)^(0+384),f
  4010  0721  30FF               	movlw	255
  4011  0722  0592               	andwf	(___fltol@f1+2)^(0+384),f
  4012  0723  3000               	movlw	0
  4013  0724  0593               	andwf	(___fltol@f1+3)^(0+384),f
  4014  0725                     l3155:
  4015  0725  3096               	movlw	150
  4016  0726  1683               	bsf	3,5	;RP0=1, select bank1
  4017  0727  1303               	bcf	3,6	;RP1=0, select bank1
  4018  0728  02EE               	subwf	___fltol@exp1^(0+128),f
  4019  0729                     l3157:
  4020  0729  1FEE               	btfss	___fltol@exp1^(0+128),7
  4021  072A  2F2C               	goto	u4071
  4022  072B  2F2D               	goto	u4070
  4023  072C                     u4071:
  4024  072C  2F4B               	goto	l3169
  4025  072D                     u4070:
  4026  072D                     l3159:
  4027  072D  086E               	movf	___fltol@exp1^(0+128),w
  4028  072E  3A80               	xorlw	128
  4029  072F  3E97               	addlw	151
  4030  0730  1803               	skipnc
  4031  0731  2F33               	goto	u4081
  4032  0732  2F34               	goto	u4080
  4033  0733                     u4081:
  4034  0733  2F35               	goto	l3165
  4035  0734                     u4080:
  4036  0734  2EF6               	goto	l3145
  4037  0735                     l3165:
  4038  0735  3001               	movlw	1
  4039  0736                     u4095:
  4040  0736  1003               	clrc
  4041  0737  1683               	bsf	3,5	;RP0=1, select bank3
  4042  0738  1703               	bsf	3,6	;RP1=1, select bank3
  4043  0739  0C93               	rrf	(___fltol@f1+3)^(0+384),f
  4044  073A  0C92               	rrf	(___fltol@f1+2)^(0+384),f
  4045  073B  0C91               	rrf	(___fltol@f1+1)^(0+384),f
  4046  073C  0C90               	rrf	___fltol@f1^(0+384),f
  4047  073D  3EFF               	addlw	-1
  4048  073E  1D03               	skipz
  4049  073F  2F36               	goto	u4095
  4050  0740                     l3167:
  4051  0740  3001               	movlw	1
  4052  0741  00FF               	movwf	btemp+1
  4053  0742  087F               	movf	btemp+1,w
  4054  0743  1683               	bsf	3,5	;RP0=1, select bank1
  4055  0744  1303               	bcf	3,6	;RP1=0, select bank1
  4056  0745  07EE               	addwf	___fltol@exp1^(0+128),f
  4057  0746  1D03               	btfss	3,2
  4058  0747  2F49               	goto	u4101
  4059  0748  2F4A               	goto	u4100
  4060  0749                     u4101:
  4061  0749  2F35               	goto	l3165
  4062  074A                     u4100:
  4063  074A  2F66               	goto	l3177
  4064  074B                     l3169:
  4065  074B  3020               	movlw	32
  4066  074C  026E               	subwf	___fltol@exp1^(0+128),w
  4067  074D  1C03               	skipc
  4068  074E  2F50               	goto	u4111
  4069  074F  2F51               	goto	u4110
  4070  0750                     u4111:
  4071  0750  2F61               	goto	l756
  4072  0751                     u4110:
  4073  0751  2EF6               	goto	l3145
  4074  0752                     l3175:
  4075  0752  3001               	movlw	1
  4076  0753  1683               	bsf	3,5	;RP0=1, select bank3
  4077  0754  1703               	bsf	3,6	;RP1=1, select bank3
  4078  0755  0094               	movwf	??___fltol^(0+384)
  4079  0756                     u4125:
  4080  0756  1003               	clrc
  4081  0757  0D90               	rlf	___fltol@f1^(0+384),f
  4082  0758  0D91               	rlf	(___fltol@f1+1)^(0+384),f
  4083  0759  0D92               	rlf	(___fltol@f1+2)^(0+384),f
  4084  075A  0D93               	rlf	(___fltol@f1+3)^(0+384),f
  4085  075B  0B94               	decfsz	??___fltol^(0+384),f
  4086  075C  2F56               	goto	u4125
  4087  075D  3001               	movlw	1
  4088  075E  1683               	bsf	3,5	;RP0=1, select bank1
  4089  075F  1303               	bcf	3,6	;RP1=0, select bank1
  4090  0760  02EE               	subwf	___fltol@exp1^(0+128),f
  4091  0761                     l756:
  4092  0761  086E               	movf	___fltol@exp1^(0+128),w
  4093  0762  1D03               	btfss	3,2
  4094  0763  2F65               	goto	u4131
  4095  0764  2F66               	goto	u4130
  4096  0765                     u4131:
  4097  0765  2F52               	goto	l3175
  4098  0766                     u4130:
  4099  0766                     l3177:
  4100  0766  086D               	movf	___fltol@sign1^(0+128),w
  4101  0767  1903               	btfsc	3,2
  4102  0768  2F6A               	goto	u4141
  4103  0769  2F6B               	goto	u4140
  4104  076A                     u4141:
  4105  076A  2F78               	goto	l759
  4106  076B                     u4140:
  4107  076B                     l3179:
  4108  076B  1683               	bsf	3,5	;RP0=1, select bank3
  4109  076C  1703               	bsf	3,6	;RP1=1, select bank3
  4110  076D  0990               	comf	___fltol@f1^(0+384),f
  4111  076E  0991               	comf	(___fltol@f1+1)^(0+384),f
  4112  076F  0992               	comf	(___fltol@f1+2)^(0+384),f
  4113  0770  0993               	comf	(___fltol@f1+3)^(0+384),f
  4114  0771  0A90               	incf	___fltol@f1^(0+384),f
  4115  0772  1903               	skipnz
  4116  0773  0A91               	incf	(___fltol@f1+1)^(0+384),f
  4117  0774  1903               	skipnz
  4118  0775  0A92               	incf	(___fltol@f1+2)^(0+384),f
  4119  0776  1903               	skipnz
  4120  0777  0A93               	incf	(___fltol@f1+3)^(0+384),f
  4121  0778                     l759:
  4122  0778                     l749:
  4123  0778  0008               	return
  4124  0779                     __end_of___fltol:
  4125                           
  4126                           	psect	text19
  4127  0051                     __ptext19:	
  4128 ;; *************** function ___flmul *****************
  4129 ;; Defined at:
  4130 ;;		line 8 in file "C:\Program Files (x86)\Microchip\xc8\v2.20\pic\sources\c90\common\sprcmul.c"
  4131 ;; Parameters:    Size  Location     Type
  4132 ;;  b               4    0[BANK1 ] long 
  4133 ;;  a               4    4[BANK1 ] long 
  4134 ;; Auto vars:     Size  Location     Type
  4135 ;;  prod            4   20[BANK1 ] struct .
  4136 ;;  grs             4   15[BANK1 ] unsigned long 
  4137 ;;  temp            2   24[BANK1 ] struct .
  4138 ;;  bexp            1   19[BANK1 ] unsigned char 
  4139 ;;  aexp            1   14[BANK1 ] unsigned char 
  4140 ;;  sign            1   13[BANK1 ] unsigned char 
  4141 ;; Return value:  Size  Location     Type
  4142 ;;                  4    0[BANK1 ] unsigned char 
  4143 ;; Registers used:
  4144 ;;		wreg, status,2, status,0, btemp+1, pclath, cstack
  4145 ;; Tracked objects:
  4146 ;;		On entry : 0/0
  4147 ;;		On exit  : 0/0
  4148 ;;		Unchanged: 0/0
  4149 ;; Data sizes:     COMMON   BANK0   BANK1   BANK3   BANK2
  4150 ;;      Params:         0       0       8       0       0
  4151 ;;      Locals:         0       0      13       0       0
  4152 ;;      Temps:          0       0       5       0       0
  4153 ;;      Totals:         0       0      26       0       0
  4154 ;;Total ram usage:       26 bytes
  4155 ;; Hardware stack levels used:    1
  4156 ;; Hardware stack levels required when called:    5
  4157 ;; This function calls:
  4158 ;;		__Umul8_16
  4159 ;; This function is called by:
  4160 ;;		_Temperature_Calc
  4161 ;; This function uses a non-reentrant model
  4162 ;;
  4163                           
  4164                           
  4165                           ;psect for function ___flmul
  4166  0051                     ___flmul:
  4167  0051                     l3181:	
  4168                           ;incstack = 0
  4169 ;; hardware stack exceeded
  4170                           ; Regs used in ___flmul: [wreg+status,2+status,0+btemp+1+pclath+cstack]
  4171                           
  4172  0051  1683               	bsf	3,5	;RP0=1, select bank1
  4173  0052  1303               	bcf	3,6	;RP1=0, select bank1
  4174  0053  0856               	movf	(___flmul@b^(0+128)+3),w
  4175  0054  3980               	andlw	128
  4176  0055  00FF               	movwf	btemp+1
  4177  0056  087F               	movf	btemp+1,w
  4178  0057  00E0               	movwf	___flmul@sign^(0+128)
  4179  0058                     l3183:
  4180  0058  0856               	movf	(___flmul@b^(0+128)+3),w
  4181  0059  00DB               	movwf	??___flmul^(0+128)
  4182  005A  075B               	addwf	??___flmul^(0+128),w
  4183  005B  00FF               	movwf	btemp+1
  4184  005C  087F               	movf	btemp+1,w
  4185  005D  00E6               	movwf	___flmul@bexp^(0+128)
  4186  005E                     l3185:
  4187  005E  1FD5               	btfss	(___flmul@b^(0+128)+2),7
  4188  005F  2861               	goto	u4151
  4189  0060  2862               	goto	u4150
  4190  0061                     u4151:
  4191  0061  2863               	goto	l3189
  4192  0062                     u4150:
  4193  0062                     l3187:
  4194  0062  1466               	bsf	___flmul@bexp^(0+128),0
  4195  0063                     l3189:
  4196  0063  0866               	movf	___flmul@bexp^(0+128),w
  4197  0064  1903               	btfsc	3,2
  4198  0065  2867               	goto	u4161
  4199  0066  2868               	goto	u4160
  4200  0067                     u4161:
  4201  0067  2877               	goto	l3197
  4202  0068                     u4160:
  4203  0068                     l3191:
  4204  0068  0A66               	incf	___flmul@bexp^(0+128),w
  4205  0069  1D03               	btfss	3,2
  4206  006A  286C               	goto	u4171
  4207  006B  286D               	goto	u4170
  4208  006C                     u4171:
  4209  006C  2875               	goto	l3195
  4210  006D                     u4170:
  4211  006D                     l3193:
  4212  006D  3000               	movlw	0
  4213  006E  00D6               	movwf	(___flmul@b+3)^(0+128)
  4214  006F  3000               	movlw	0
  4215  0070  00D5               	movwf	(___flmul@b+2)^(0+128)
  4216  0071  3000               	movlw	0
  4217  0072  00D4               	movwf	(___flmul@b+1)^(0+128)
  4218  0073  3000               	movlw	0
  4219  0074  00D3               	movwf	___flmul@b^(0+128)
  4220  0075                     l3195:
  4221  0075  17D5               	bsf	(___flmul@b^(0+128)+2),7
  4222  0076  287F               	goto	l3199
  4223  0077                     l3197:
  4224  0077  3000               	movlw	0
  4225  0078  00D6               	movwf	(___flmul@b+3)^(0+128)
  4226  0079  3000               	movlw	0
  4227  007A  00D5               	movwf	(___flmul@b+2)^(0+128)
  4228  007B  3000               	movlw	0
  4229  007C  00D4               	movwf	(___flmul@b+1)^(0+128)
  4230  007D  3000               	movlw	0
  4231  007E  00D3               	movwf	___flmul@b^(0+128)
  4232  007F                     l3199:
  4233  007F  085A               	movf	(___flmul@a^(0+128)+3),w
  4234  0080  3980               	andlw	128
  4235  0081  00FF               	movwf	btemp+1
  4236  0082  087F               	movf	btemp+1,w
  4237  0083  06E0               	xorwf	___flmul@sign^(0+128),f
  4238  0084                     l3201:
  4239  0084  085A               	movf	(___flmul@a^(0+128)+3),w
  4240  0085  00DB               	movwf	??___flmul^(0+128)
  4241  0086  075B               	addwf	??___flmul^(0+128),w
  4242  0087  00FF               	movwf	btemp+1
  4243  0088  087F               	movf	btemp+1,w
  4244  0089  00E1               	movwf	___flmul@aexp^(0+128)
  4245  008A                     l3203:
  4246  008A  1FD9               	btfss	(___flmul@a^(0+128)+2),7
  4247  008B  288D               	goto	u4181
  4248  008C  288E               	goto	u4180
  4249  008D                     u4181:
  4250  008D  288F               	goto	l3207
  4251  008E                     u4180:
  4252  008E                     l3205:
  4253  008E  1461               	bsf	___flmul@aexp^(0+128),0
  4254  008F                     l3207:
  4255  008F  0861               	movf	___flmul@aexp^(0+128),w
  4256  0090  1903               	btfsc	3,2
  4257  0091  2893               	goto	u4191
  4258  0092  2894               	goto	u4190
  4259  0093                     u4191:
  4260  0093  28A3               	goto	l3215
  4261  0094                     u4190:
  4262  0094                     l3209:
  4263  0094  0A61               	incf	___flmul@aexp^(0+128),w
  4264  0095  1D03               	btfss	3,2
  4265  0096  2898               	goto	u4201
  4266  0097  2899               	goto	u4200
  4267  0098                     u4201:
  4268  0098  28A1               	goto	l3213
  4269  0099                     u4200:
  4270  0099                     l3211:
  4271  0099  3000               	movlw	0
  4272  009A  00DA               	movwf	(___flmul@a+3)^(0+128)
  4273  009B  3000               	movlw	0
  4274  009C  00D9               	movwf	(___flmul@a+2)^(0+128)
  4275  009D  3000               	movlw	0
  4276  009E  00D8               	movwf	(___flmul@a+1)^(0+128)
  4277  009F  3000               	movlw	0
  4278  00A0  00D7               	movwf	___flmul@a^(0+128)
  4279  00A1                     l3213:
  4280  00A1  17D9               	bsf	(___flmul@a^(0+128)+2),7
  4281  00A2  28AB               	goto	l3217
  4282  00A3                     l3215:
  4283  00A3  3000               	movlw	0
  4284  00A4  00DA               	movwf	(___flmul@a+3)^(0+128)
  4285  00A5  3000               	movlw	0
  4286  00A6  00D9               	movwf	(___flmul@a+2)^(0+128)
  4287  00A7  3000               	movlw	0
  4288  00A8  00D8               	movwf	(___flmul@a+1)^(0+128)
  4289  00A9  3000               	movlw	0
  4290  00AA  00D7               	movwf	___flmul@a^(0+128)
  4291  00AB                     l3217:
  4292  00AB  0861               	movf	___flmul@aexp^(0+128),w
  4293  00AC  1903               	btfsc	3,2
  4294  00AD  28AF               	goto	u4211
  4295  00AE  28B0               	goto	u4210
  4296  00AF                     u4211:
  4297  00AF  28B5               	goto	l3221
  4298  00B0                     u4210:
  4299  00B0                     l3219:
  4300  00B0  0866               	movf	___flmul@bexp^(0+128),w
  4301  00B1  1D03               	btfss	3,2
  4302  00B2  28B4               	goto	u4221
  4303  00B3  28B5               	goto	u4220
  4304  00B4                     u4221:
  4305  00B4  28BE               	goto	l3225
  4306  00B5                     u4220:
  4307  00B5                     l3221:
  4308  00B5  3000               	movlw	0
  4309  00B6  00D6               	movwf	(?___flmul+3)^(0+128)
  4310  00B7  3000               	movlw	0
  4311  00B8  00D5               	movwf	(?___flmul+2)^(0+128)
  4312  00B9  3000               	movlw	0
  4313  00BA  00D4               	movwf	(?___flmul+1)^(0+128)
  4314  00BB  3000               	movlw	0
  4315  00BC  00D3               	movwf	?___flmul^(0+128)
  4316  00BD  2C0B               	goto	l952
  4317  00BE                     l3225:
  4318  00BE  0853               	movf	___flmul@b^(0+128),w
  4319  00BF  00FF               	movwf	btemp+1
  4320  00C0  087F               	movf	btemp+1,w
  4321  00C1  1283               	bcf	3,5	;RP0=0, select bank0
  4322  00C2  1303               	bcf	3,6	;RP1=0, select bank0
  4323  00C3  00B6               	movwf	__Umul8_16@multiplicand
  4324  00C4  1683               	bsf	3,5	;RP0=1, select bank1
  4325  00C5  1303               	bcf	3,6	;RP1=0, select bank1
  4326  00C6  0859               	movf	(___flmul@a^(0+128)+2),w
  4327  00C7  120A  158A  21FA  120A  118A  	fcall	__Umul8_16
  4328  00CC  1283               	bcf	3,5	;RP0=0, select bank0
  4329  00CD  1303               	bcf	3,6	;RP1=0, select bank0
  4330  00CE  0837               	movf	?__Umul8_16+1,w
  4331  00CF  1683               	bsf	3,5	;RP0=1, select bank1
  4332  00D0  1303               	bcf	3,6	;RP1=0, select bank1
  4333  00D1  00EC               	movwf	(___flmul@temp+1)^(0+128)
  4334  00D2  1283               	bcf	3,5	;RP0=0, select bank0
  4335  00D3  1303               	bcf	3,6	;RP1=0, select bank0
  4336  00D4  0836               	movf	?__Umul8_16,w
  4337  00D5  1683               	bsf	3,5	;RP0=1, select bank1
  4338  00D6  1303               	bcf	3,6	;RP1=0, select bank1
  4339  00D7  00EB               	movwf	___flmul@temp^(0+128)
  4340  00D8                     l3227:
  4341  00D8  086B               	movf	___flmul@temp^(0+128),w
  4342  00D9  00DB               	movwf	??___flmul^(0+128)
  4343  00DA  01DC               	clrf	(??___flmul^(0+128)+1)
  4344  00DB  01DD               	clrf	(??___flmul^(0+128)+2)
  4345  00DC  01DE               	clrf	(??___flmul^(0+128)+3)
  4346  00DD  085E               	movf	(??___flmul+3)^(0+128),w
  4347  00DE  00E5               	movwf	(___flmul@grs+3)^(0+128)
  4348  00DF  085D               	movf	(??___flmul+2)^(0+128),w
  4349  00E0  00E4               	movwf	(___flmul@grs+2)^(0+128)
  4350  00E1  085C               	movf	(??___flmul+1)^(0+128),w
  4351  00E2  00E3               	movwf	(___flmul@grs+1)^(0+128)
  4352  00E3  085B               	movf	??___flmul^(0+128),w
  4353  00E4  00E2               	movwf	___flmul@grs^(0+128)
  4354  00E5                     l3229:
  4355  00E5  086C               	movf	(___flmul@temp^(0+128)+1),w
  4356  00E6  00DB               	movwf	??___flmul^(0+128)
  4357  00E7  01DC               	clrf	(??___flmul^(0+128)+1)
  4358  00E8  01DD               	clrf	(??___flmul^(0+128)+2)
  4359  00E9  01DE               	clrf	(??___flmul^(0+128)+3)
  4360  00EA  085E               	movf	(??___flmul+3)^(0+128),w
  4361  00EB  00EA               	movwf	(___flmul@prod+3)^(0+128)
  4362  00EC  085D               	movf	(??___flmul+2)^(0+128),w
  4363  00ED  00E9               	movwf	(___flmul@prod+2)^(0+128)
  4364  00EE  085C               	movf	(??___flmul+1)^(0+128),w
  4365  00EF  00E8               	movwf	(___flmul@prod+1)^(0+128)
  4366  00F0  085B               	movf	??___flmul^(0+128),w
  4367  00F1  00E7               	movwf	___flmul@prod^(0+128)
  4368  00F2  0854               	movf	(___flmul@b^(0+128)+1),w
  4369  00F3  00FF               	movwf	btemp+1
  4370  00F4  087F               	movf	btemp+1,w
  4371  00F5  1283               	bcf	3,5	;RP0=0, select bank0
  4372  00F6  1303               	bcf	3,6	;RP1=0, select bank0
  4373  00F7  00B6               	movwf	__Umul8_16@multiplicand
  4374  00F8  1683               	bsf	3,5	;RP0=1, select bank1
  4375  00F9  1303               	bcf	3,6	;RP1=0, select bank1
  4376  00FA  0858               	movf	(___flmul@a^(0+128)+1),w
  4377  00FB  120A  158A  21FA  120A  118A  	fcall	__Umul8_16
  4378  0100  1283               	bcf	3,5	;RP0=0, select bank0
  4379  0101  1303               	bcf	3,6	;RP1=0, select bank0
  4380  0102  0837               	movf	?__Umul8_16+1,w
  4381  0103  1683               	bsf	3,5	;RP0=1, select bank1
  4382  0104  1303               	bcf	3,6	;RP1=0, select bank1
  4383  0105  00EC               	movwf	(___flmul@temp+1)^(0+128)
  4384  0106  1283               	bcf	3,5	;RP0=0, select bank0
  4385  0107  1303               	bcf	3,6	;RP1=0, select bank0
  4386  0108  0836               	movf	?__Umul8_16,w
  4387  0109  1683               	bsf	3,5	;RP0=1, select bank1
  4388  010A  1303               	bcf	3,6	;RP1=0, select bank1
  4389  010B  00EB               	movwf	___flmul@temp^(0+128)
  4390  010C                     l3231:
  4391  010C  086B               	movf	___flmul@temp^(0+128),w
  4392  010D  00DB               	movwf	??___flmul^(0+128)
  4393  010E  01DC               	clrf	(??___flmul^(0+128)+1)
  4394  010F  01DD               	clrf	(??___flmul^(0+128)+2)
  4395  0110  01DE               	clrf	(??___flmul^(0+128)+3)
  4396  0111  085B               	movf	??___flmul^(0+128),w
  4397  0112  07E2               	addwf	___flmul@grs^(0+128),f
  4398  0113  085C               	movf	(??___flmul+1)^(0+128),w
  4399  0114  1103               	clrz
  4400  0115  1803               	skipnc
  4401  0116  3E01               	addlw	1
  4402  0117  1903               	skipnz
  4403  0118  291A               	goto	u4231
  4404  0119  07E3               	addwf	(___flmul@grs+1)^(0+128),f
  4405  011A                     u4231:
  4406  011A  085D               	movf	(??___flmul+2)^(0+128),w
  4407  011B  1103               	clrz
  4408  011C  1803               	skipnc
  4409  011D  3E01               	addlw	1
  4410  011E  1903               	skipnz
  4411  011F  2921               	goto	u4232
  4412  0120  07E4               	addwf	(___flmul@grs+2)^(0+128),f
  4413  0121                     u4232:
  4414  0121  085E               	movf	(??___flmul+3)^(0+128),w
  4415  0122  1103               	clrz
  4416  0123  1803               	skipnc
  4417  0124  3E01               	addlw	1
  4418  0125  1903               	skipnz
  4419  0126  2928               	goto	u4233
  4420  0127  07E5               	addwf	(___flmul@grs+3)^(0+128),f
  4421  0128                     u4233:
  4422  0128                     l3233:
  4423  0128  086C               	movf	(___flmul@temp^(0+128)+1),w
  4424  0129  00DB               	movwf	??___flmul^(0+128)
  4425  012A  01DC               	clrf	(??___flmul^(0+128)+1)
  4426  012B  01DD               	clrf	(??___flmul^(0+128)+2)
  4427  012C  01DE               	clrf	(??___flmul^(0+128)+3)
  4428  012D  085B               	movf	??___flmul^(0+128),w
  4429  012E  07E7               	addwf	___flmul@prod^(0+128),f
  4430  012F  085C               	movf	(??___flmul+1)^(0+128),w
  4431  0130  1103               	clrz
  4432  0131  1803               	skipnc
  4433  0132  3E01               	addlw	1
  4434  0133  1903               	skipnz
  4435  0134  2936               	goto	u4241
  4436  0135  07E8               	addwf	(___flmul@prod+1)^(0+128),f
  4437  0136                     u4241:
  4438  0136  085D               	movf	(??___flmul+2)^(0+128),w
  4439  0137  1103               	clrz
  4440  0138  1803               	skipnc
  4441  0139  3E01               	addlw	1
  4442  013A  1903               	skipnz
  4443  013B  293D               	goto	u4242
  4444  013C  07E9               	addwf	(___flmul@prod+2)^(0+128),f
  4445  013D                     u4242:
  4446  013D  085E               	movf	(??___flmul+3)^(0+128),w
  4447  013E  1103               	clrz
  4448  013F  1803               	skipnc
  4449  0140  3E01               	addlw	1
  4450  0141  1903               	skipnz
  4451  0142  2944               	goto	u4243
  4452  0143  07EA               	addwf	(___flmul@prod+3)^(0+128),f
  4453  0144                     u4243:
  4454  0144  0855               	movf	(___flmul@b^(0+128)+2),w
  4455  0145  00FF               	movwf	btemp+1
  4456  0146  087F               	movf	btemp+1,w
  4457  0147  1283               	bcf	3,5	;RP0=0, select bank0
  4458  0148  1303               	bcf	3,6	;RP1=0, select bank0
  4459  0149  00B6               	movwf	__Umul8_16@multiplicand
  4460  014A  1683               	bsf	3,5	;RP0=1, select bank1
  4461  014B  1303               	bcf	3,6	;RP1=0, select bank1
  4462  014C  0857               	movf	___flmul@a^(0+128),w
  4463  014D  120A  158A  21FA  120A  118A  	fcall	__Umul8_16
  4464  0152  1283               	bcf	3,5	;RP0=0, select bank0
  4465  0153  1303               	bcf	3,6	;RP1=0, select bank0
  4466  0154  0837               	movf	?__Umul8_16+1,w
  4467  0155  1683               	bsf	3,5	;RP0=1, select bank1
  4468  0156  1303               	bcf	3,6	;RP1=0, select bank1
  4469  0157  00EC               	movwf	(___flmul@temp+1)^(0+128)
  4470  0158  1283               	bcf	3,5	;RP0=0, select bank0
  4471  0159  1303               	bcf	3,6	;RP1=0, select bank0
  4472  015A  0836               	movf	?__Umul8_16,w
  4473  015B  1683               	bsf	3,5	;RP0=1, select bank1
  4474  015C  1303               	bcf	3,6	;RP1=0, select bank1
  4475  015D  00EB               	movwf	___flmul@temp^(0+128)
  4476  015E                     l3235:
  4477  015E  086B               	movf	___flmul@temp^(0+128),w
  4478  015F  00DB               	movwf	??___flmul^(0+128)
  4479  0160  01DC               	clrf	(??___flmul^(0+128)+1)
  4480  0161  01DD               	clrf	(??___flmul^(0+128)+2)
  4481  0162  01DE               	clrf	(??___flmul^(0+128)+3)
  4482  0163  085B               	movf	??___flmul^(0+128),w
  4483  0164  07E2               	addwf	___flmul@grs^(0+128),f
  4484  0165  085C               	movf	(??___flmul+1)^(0+128),w
  4485  0166  1103               	clrz
  4486  0167  1803               	skipnc
  4487  0168  3E01               	addlw	1
  4488  0169  1903               	skipnz
  4489  016A  296C               	goto	u4251
  4490  016B  07E3               	addwf	(___flmul@grs+1)^(0+128),f
  4491  016C                     u4251:
  4492  016C  085D               	movf	(??___flmul+2)^(0+128),w
  4493  016D  1103               	clrz
  4494  016E  1803               	skipnc
  4495  016F  3E01               	addlw	1
  4496  0170  1903               	skipnz
  4497  0171  2973               	goto	u4252
  4498  0172  07E4               	addwf	(___flmul@grs+2)^(0+128),f
  4499  0173                     u4252:
  4500  0173  085E               	movf	(??___flmul+3)^(0+128),w
  4501  0174  1103               	clrz
  4502  0175  1803               	skipnc
  4503  0176  3E01               	addlw	1
  4504  0177  1903               	skipnz
  4505  0178  297A               	goto	u4253
  4506  0179  07E5               	addwf	(___flmul@grs+3)^(0+128),f
  4507  017A                     u4253:
  4508  017A                     l3237:
  4509  017A  086C               	movf	(___flmul@temp^(0+128)+1),w
  4510  017B  00DB               	movwf	??___flmul^(0+128)
  4511  017C  01DC               	clrf	(??___flmul^(0+128)+1)
  4512  017D  01DD               	clrf	(??___flmul^(0+128)+2)
  4513  017E  01DE               	clrf	(??___flmul^(0+128)+3)
  4514  017F  085B               	movf	??___flmul^(0+128),w
  4515  0180  07E7               	addwf	___flmul@prod^(0+128),f
  4516  0181  085C               	movf	(??___flmul+1)^(0+128),w
  4517  0182  1103               	clrz
  4518  0183  1803               	skipnc
  4519  0184  3E01               	addlw	1
  4520  0185  1903               	skipnz
  4521  0186  2988               	goto	u4261
  4522  0187  07E8               	addwf	(___flmul@prod+1)^(0+128),f
  4523  0188                     u4261:
  4524  0188  085D               	movf	(??___flmul+2)^(0+128),w
  4525  0189  1103               	clrz
  4526  018A  1803               	skipnc
  4527  018B  3E01               	addlw	1
  4528  018C  1903               	skipnz
  4529  018D  298F               	goto	u4262
  4530  018E  07E9               	addwf	(___flmul@prod+2)^(0+128),f
  4531  018F                     u4262:
  4532  018F  085E               	movf	(??___flmul+3)^(0+128),w
  4533  0190  1103               	clrz
  4534  0191  1803               	skipnc
  4535  0192  3E01               	addlw	1
  4536  0193  1903               	skipnz
  4537  0194  2996               	goto	u4263
  4538  0195  07EA               	addwf	(___flmul@prod+3)^(0+128),f
  4539  0196                     u4263:
  4540  0196                     l3239:
  4541  0196  3008               	movlw	8
  4542  0197  00DB               	movwf	??___flmul^(0+128)
  4543  0198                     u4275:
  4544  0198  1003               	clrc
  4545  0199  0DE2               	rlf	___flmul@grs^(0+128),f
  4546  019A  0DE3               	rlf	(___flmul@grs+1)^(0+128),f
  4547  019B  0DE4               	rlf	(___flmul@grs+2)^(0+128),f
  4548  019C  0DE5               	rlf	(___flmul@grs+3)^(0+128),f
  4549  019D  0BDB               	decfsz	??___flmul^(0+128),f
  4550  019E  2998               	goto	u4275
  4551  019F                     l3241:
  4552  019F  0854               	movf	(___flmul@b^(0+128)+1),w
  4553  01A0  00FF               	movwf	btemp+1
  4554  01A1  087F               	movf	btemp+1,w
  4555  01A2  1283               	bcf	3,5	;RP0=0, select bank0
  4556  01A3  1303               	bcf	3,6	;RP1=0, select bank0
  4557  01A4  00B6               	movwf	__Umul8_16@multiplicand
  4558  01A5  1683               	bsf	3,5	;RP0=1, select bank1
  4559  01A6  1303               	bcf	3,6	;RP1=0, select bank1
  4560  01A7  0857               	movf	___flmul@a^(0+128),w
  4561  01A8  120A  158A  21FA  120A  118A  	fcall	__Umul8_16
  4562  01AD  1283               	bcf	3,5	;RP0=0, select bank0
  4563  01AE  1303               	bcf	3,6	;RP1=0, select bank0
  4564  01AF  0837               	movf	?__Umul8_16+1,w
  4565  01B0  1683               	bsf	3,5	;RP0=1, select bank1
  4566  01B1  1303               	bcf	3,6	;RP1=0, select bank1
  4567  01B2  00EC               	movwf	(___flmul@temp+1)^(0+128)
  4568  01B3  1283               	bcf	3,5	;RP0=0, select bank0
  4569  01B4  1303               	bcf	3,6	;RP1=0, select bank0
  4570  01B5  0836               	movf	?__Umul8_16,w
  4571  01B6  1683               	bsf	3,5	;RP0=1, select bank1
  4572  01B7  1303               	bcf	3,6	;RP1=0, select bank1
  4573  01B8  00EB               	movwf	___flmul@temp^(0+128)
  4574  01B9                     l3243:
  4575  01B9  086B               	movf	___flmul@temp^(0+128),w
  4576  01BA  00DB               	movwf	??___flmul^(0+128)
  4577  01BB  086C               	movf	(___flmul@temp+1)^(0+128),w
  4578  01BC  00DC               	movwf	(??___flmul^(0+128)+1)
  4579  01BD  01DD               	clrf	(??___flmul^(0+128)+2)
  4580  01BE  01DE               	clrf	(??___flmul^(0+128)+3)
  4581  01BF  085B               	movf	??___flmul^(0+128),w
  4582  01C0  07E2               	addwf	___flmul@grs^(0+128),f
  4583  01C1  085C               	movf	(??___flmul+1)^(0+128),w
  4584  01C2  1103               	clrz
  4585  01C3  1803               	skipnc
  4586  01C4  3E01               	addlw	1
  4587  01C5  1903               	skipnz
  4588  01C6  29C8               	goto	u4281
  4589  01C7  07E3               	addwf	(___flmul@grs+1)^(0+128),f
  4590  01C8                     u4281:
  4591  01C8  085D               	movf	(??___flmul+2)^(0+128),w
  4592  01C9  1103               	clrz
  4593  01CA  1803               	skipnc
  4594  01CB  3E01               	addlw	1
  4595  01CC  1903               	skipnz
  4596  01CD  29CF               	goto	u4282
  4597  01CE  07E4               	addwf	(___flmul@grs+2)^(0+128),f
  4598  01CF                     u4282:
  4599  01CF  085E               	movf	(??___flmul+3)^(0+128),w
  4600  01D0  1103               	clrz
  4601  01D1  1803               	skipnc
  4602  01D2  3E01               	addlw	1
  4603  01D3  1903               	skipnz
  4604  01D4  29D6               	goto	u4283
  4605  01D5  07E5               	addwf	(___flmul@grs+3)^(0+128),f
  4606  01D6                     u4283:
  4607  01D6                     l3245:
  4608  01D6  0853               	movf	___flmul@b^(0+128),w
  4609  01D7  00FF               	movwf	btemp+1
  4610  01D8  087F               	movf	btemp+1,w
  4611  01D9  1283               	bcf	3,5	;RP0=0, select bank0
  4612  01DA  1303               	bcf	3,6	;RP1=0, select bank0
  4613  01DB  00B6               	movwf	__Umul8_16@multiplicand
  4614  01DC  1683               	bsf	3,5	;RP0=1, select bank1
  4615  01DD  1303               	bcf	3,6	;RP1=0, select bank1
  4616  01DE  0858               	movf	(___flmul@a^(0+128)+1),w
  4617  01DF  120A  158A  21FA  120A  118A  	fcall	__Umul8_16
  4618  01E4  1283               	bcf	3,5	;RP0=0, select bank0
  4619  01E5  1303               	bcf	3,6	;RP1=0, select bank0
  4620  01E6  0837               	movf	?__Umul8_16+1,w
  4621  01E7  1683               	bsf	3,5	;RP0=1, select bank1
  4622  01E8  1303               	bcf	3,6	;RP1=0, select bank1
  4623  01E9  00EC               	movwf	(___flmul@temp+1)^(0+128)
  4624  01EA  1283               	bcf	3,5	;RP0=0, select bank0
  4625  01EB  1303               	bcf	3,6	;RP1=0, select bank0
  4626  01EC  0836               	movf	?__Umul8_16,w
  4627  01ED  1683               	bsf	3,5	;RP0=1, select bank1
  4628  01EE  1303               	bcf	3,6	;RP1=0, select bank1
  4629  01EF  00EB               	movwf	___flmul@temp^(0+128)
  4630  01F0                     l3247:
  4631  01F0  086B               	movf	___flmul@temp^(0+128),w
  4632  01F1  00DB               	movwf	??___flmul^(0+128)
  4633  01F2  086C               	movf	(___flmul@temp+1)^(0+128),w
  4634  01F3  00DC               	movwf	(??___flmul^(0+128)+1)
  4635  01F4  01DD               	clrf	(??___flmul^(0+128)+2)
  4636  01F5  01DE               	clrf	(??___flmul^(0+128)+3)
  4637  01F6  085B               	movf	??___flmul^(0+128),w
  4638  01F7  07E2               	addwf	___flmul@grs^(0+128),f
  4639  01F8  085C               	movf	(??___flmul+1)^(0+128),w
  4640  01F9  1103               	clrz
  4641  01FA  1803               	skipnc
  4642  01FB  3E01               	addlw	1
  4643  01FC  1903               	skipnz
  4644  01FD  29FF               	goto	u4291
  4645  01FE  07E3               	addwf	(___flmul@grs+1)^(0+128),f
  4646  01FF                     u4291:
  4647  01FF  085D               	movf	(??___flmul+2)^(0+128),w
  4648  0200  1103               	clrz
  4649  0201  1803               	skipnc
  4650  0202  3E01               	addlw	1
  4651  0203  1903               	skipnz
  4652  0204  2A06               	goto	u4292
  4653  0205  07E4               	addwf	(___flmul@grs+2)^(0+128),f
  4654  0206                     u4292:
  4655  0206  085E               	movf	(??___flmul+3)^(0+128),w
  4656  0207  1103               	clrz
  4657  0208  1803               	skipnc
  4658  0209  3E01               	addlw	1
  4659  020A  1903               	skipnz
  4660  020B  2A0D               	goto	u4293
  4661  020C  07E5               	addwf	(___flmul@grs+3)^(0+128),f
  4662  020D                     u4293:
  4663  020D                     l3249:
  4664  020D  3008               	movlw	8
  4665  020E  00DB               	movwf	??___flmul^(0+128)
  4666  020F                     u4305:
  4667  020F  1003               	clrc
  4668  0210  0DE2               	rlf	___flmul@grs^(0+128),f
  4669  0211  0DE3               	rlf	(___flmul@grs+1)^(0+128),f
  4670  0212  0DE4               	rlf	(___flmul@grs+2)^(0+128),f
  4671  0213  0DE5               	rlf	(___flmul@grs+3)^(0+128),f
  4672  0214  0BDB               	decfsz	??___flmul^(0+128),f
  4673  0215  2A0F               	goto	u4305
  4674  0216  0853               	movf	___flmul@b^(0+128),w
  4675  0217  00FF               	movwf	btemp+1
  4676  0218  087F               	movf	btemp+1,w
  4677  0219  1283               	bcf	3,5	;RP0=0, select bank0
  4678  021A  1303               	bcf	3,6	;RP1=0, select bank0
  4679  021B  00B6               	movwf	__Umul8_16@multiplicand
  4680  021C  1683               	bsf	3,5	;RP0=1, select bank1
  4681  021D  1303               	bcf	3,6	;RP1=0, select bank1
  4682  021E  0857               	movf	___flmul@a^(0+128),w
  4683  021F  120A  158A  21FA  120A  118A  	fcall	__Umul8_16
  4684  0224  1283               	bcf	3,5	;RP0=0, select bank0
  4685  0225  1303               	bcf	3,6	;RP1=0, select bank0
  4686  0226  0837               	movf	?__Umul8_16+1,w
  4687  0227  1683               	bsf	3,5	;RP0=1, select bank1
  4688  0228  1303               	bcf	3,6	;RP1=0, select bank1
  4689  0229  00EC               	movwf	(___flmul@temp+1)^(0+128)
  4690  022A  1283               	bcf	3,5	;RP0=0, select bank0
  4691  022B  1303               	bcf	3,6	;RP1=0, select bank0
  4692  022C  0836               	movf	?__Umul8_16,w
  4693  022D  1683               	bsf	3,5	;RP0=1, select bank1
  4694  022E  1303               	bcf	3,6	;RP1=0, select bank1
  4695  022F  00EB               	movwf	___flmul@temp^(0+128)
  4696  0230                     l3251:
  4697  0230  086B               	movf	___flmul@temp^(0+128),w
  4698  0231  00DB               	movwf	??___flmul^(0+128)
  4699  0232  086C               	movf	(___flmul@temp+1)^(0+128),w
  4700  0233  00DC               	movwf	(??___flmul^(0+128)+1)
  4701  0234  01DD               	clrf	(??___flmul^(0+128)+2)
  4702  0235  01DE               	clrf	(??___flmul^(0+128)+3)
  4703  0236  085B               	movf	??___flmul^(0+128),w
  4704  0237  07E2               	addwf	___flmul@grs^(0+128),f
  4705  0238  085C               	movf	(??___flmul+1)^(0+128),w
  4706  0239  1103               	clrz
  4707  023A  1803               	skipnc
  4708  023B  3E01               	addlw	1
  4709  023C  1903               	skipnz
  4710  023D  2A3F               	goto	u4311
  4711  023E  07E3               	addwf	(___flmul@grs+1)^(0+128),f
  4712  023F                     u4311:
  4713  023F  085D               	movf	(??___flmul+2)^(0+128),w
  4714  0240  1103               	clrz
  4715  0241  1803               	skipnc
  4716  0242  3E01               	addlw	1
  4717  0243  1903               	skipnz
  4718  0244  2A46               	goto	u4312
  4719  0245  07E4               	addwf	(___flmul@grs+2)^(0+128),f
  4720  0246                     u4312:
  4721  0246  085E               	movf	(??___flmul+3)^(0+128),w
  4722  0247  1103               	clrz
  4723  0248  1803               	skipnc
  4724  0249  3E01               	addlw	1
  4725  024A  1903               	skipnz
  4726  024B  2A4D               	goto	u4313
  4727  024C  07E5               	addwf	(___flmul@grs+3)^(0+128),f
  4728  024D                     u4313:
  4729  024D                     l3253:
  4730  024D  0854               	movf	(___flmul@b^(0+128)+1),w
  4731  024E  00FF               	movwf	btemp+1
  4732  024F  087F               	movf	btemp+1,w
  4733  0250  1283               	bcf	3,5	;RP0=0, select bank0
  4734  0251  1303               	bcf	3,6	;RP1=0, select bank0
  4735  0252  00B6               	movwf	__Umul8_16@multiplicand
  4736  0253  1683               	bsf	3,5	;RP0=1, select bank1
  4737  0254  1303               	bcf	3,6	;RP1=0, select bank1
  4738  0255  0859               	movf	(___flmul@a^(0+128)+2),w
  4739  0256  120A  158A  21FA  120A  118A  	fcall	__Umul8_16
  4740  025B  1283               	bcf	3,5	;RP0=0, select bank0
  4741  025C  1303               	bcf	3,6	;RP1=0, select bank0
  4742  025D  0837               	movf	?__Umul8_16+1,w
  4743  025E  1683               	bsf	3,5	;RP0=1, select bank1
  4744  025F  1303               	bcf	3,6	;RP1=0, select bank1
  4745  0260  00EC               	movwf	(___flmul@temp+1)^(0+128)
  4746  0261  1283               	bcf	3,5	;RP0=0, select bank0
  4747  0262  1303               	bcf	3,6	;RP1=0, select bank0
  4748  0263  0836               	movf	?__Umul8_16,w
  4749  0264  1683               	bsf	3,5	;RP0=1, select bank1
  4750  0265  1303               	bcf	3,6	;RP1=0, select bank1
  4751  0266  00EB               	movwf	___flmul@temp^(0+128)
  4752  0267  086B               	movf	___flmul@temp^(0+128),w
  4753  0268  00DB               	movwf	??___flmul^(0+128)
  4754  0269  086C               	movf	(___flmul@temp+1)^(0+128),w
  4755  026A  00DC               	movwf	(??___flmul^(0+128)+1)
  4756  026B  01DD               	clrf	(??___flmul^(0+128)+2)
  4757  026C  01DE               	clrf	(??___flmul^(0+128)+3)
  4758  026D  085B               	movf	??___flmul^(0+128),w
  4759  026E  07E7               	addwf	___flmul@prod^(0+128),f
  4760  026F  085C               	movf	(??___flmul+1)^(0+128),w
  4761  0270  1103               	clrz
  4762  0271  1803               	skipnc
  4763  0272  3E01               	addlw	1
  4764  0273  1903               	skipnz
  4765  0274  2A76               	goto	u4321
  4766  0275  07E8               	addwf	(___flmul@prod+1)^(0+128),f
  4767  0276                     u4321:
  4768  0276  085D               	movf	(??___flmul+2)^(0+128),w
  4769  0277  1103               	clrz
  4770  0278  1803               	skipnc
  4771  0279  3E01               	addlw	1
  4772  027A  1903               	skipnz
  4773  027B  2A7D               	goto	u4322
  4774  027C  07E9               	addwf	(___flmul@prod+2)^(0+128),f
  4775  027D                     u4322:
  4776  027D  085E               	movf	(??___flmul+3)^(0+128),w
  4777  027E  1103               	clrz
  4778  027F  1803               	skipnc
  4779  0280  3E01               	addlw	1
  4780  0281  1903               	skipnz
  4781  0282  2A84               	goto	u4323
  4782  0283  07EA               	addwf	(___flmul@prod+3)^(0+128),f
  4783  0284                     u4323:
  4784  0284                     l3255:
  4785  0284  0855               	movf	(___flmul@b^(0+128)+2),w
  4786  0285  00FF               	movwf	btemp+1
  4787  0286  087F               	movf	btemp+1,w
  4788  0287  1283               	bcf	3,5	;RP0=0, select bank0
  4789  0288  1303               	bcf	3,6	;RP1=0, select bank0
  4790  0289  00B6               	movwf	__Umul8_16@multiplicand
  4791  028A  1683               	bsf	3,5	;RP0=1, select bank1
  4792  028B  1303               	bcf	3,6	;RP1=0, select bank1
  4793  028C  0858               	movf	(___flmul@a^(0+128)+1),w
  4794  028D  120A  158A  21FA  120A  118A  	fcall	__Umul8_16
  4795  0292  1283               	bcf	3,5	;RP0=0, select bank0
  4796  0293  1303               	bcf	3,6	;RP1=0, select bank0
  4797  0294  0837               	movf	?__Umul8_16+1,w
  4798  0295  1683               	bsf	3,5	;RP0=1, select bank1
  4799  0296  1303               	bcf	3,6	;RP1=0, select bank1
  4800  0297  00EC               	movwf	(___flmul@temp+1)^(0+128)
  4801  0298  1283               	bcf	3,5	;RP0=0, select bank0
  4802  0299  1303               	bcf	3,6	;RP1=0, select bank0
  4803  029A  0836               	movf	?__Umul8_16,w
  4804  029B  1683               	bsf	3,5	;RP0=1, select bank1
  4805  029C  1303               	bcf	3,6	;RP1=0, select bank1
  4806  029D  00EB               	movwf	___flmul@temp^(0+128)
  4807  029E                     l3257:
  4808  029E  086B               	movf	___flmul@temp^(0+128),w
  4809  029F  00DB               	movwf	??___flmul^(0+128)
  4810  02A0  086C               	movf	(___flmul@temp+1)^(0+128),w
  4811  02A1  00DC               	movwf	(??___flmul^(0+128)+1)
  4812  02A2  01DD               	clrf	(??___flmul^(0+128)+2)
  4813  02A3  01DE               	clrf	(??___flmul^(0+128)+3)
  4814  02A4  085B               	movf	??___flmul^(0+128),w
  4815  02A5  07E7               	addwf	___flmul@prod^(0+128),f
  4816  02A6  085C               	movf	(??___flmul+1)^(0+128),w
  4817  02A7  1103               	clrz
  4818  02A8  1803               	skipnc
  4819  02A9  3E01               	addlw	1
  4820  02AA  1903               	skipnz
  4821  02AB  2AAD               	goto	u4331
  4822  02AC  07E8               	addwf	(___flmul@prod+1)^(0+128),f
  4823  02AD                     u4331:
  4824  02AD  085D               	movf	(??___flmul+2)^(0+128),w
  4825  02AE  1103               	clrz
  4826  02AF  1803               	skipnc
  4827  02B0  3E01               	addlw	1
  4828  02B1  1903               	skipnz
  4829  02B2  2AB4               	goto	u4332
  4830  02B3  07E9               	addwf	(___flmul@prod+2)^(0+128),f
  4831  02B4                     u4332:
  4832  02B4  085E               	movf	(??___flmul+3)^(0+128),w
  4833  02B5  1103               	clrz
  4834  02B6  1803               	skipnc
  4835  02B7  3E01               	addlw	1
  4836  02B8  1903               	skipnz
  4837  02B9  2ABB               	goto	u4333
  4838  02BA  07EA               	addwf	(___flmul@prod+3)^(0+128),f
  4839  02BB                     u4333:
  4840  02BB  0855               	movf	(___flmul@b^(0+128)+2),w
  4841  02BC  00FF               	movwf	btemp+1
  4842  02BD  087F               	movf	btemp+1,w
  4843  02BE  1283               	bcf	3,5	;RP0=0, select bank0
  4844  02BF  1303               	bcf	3,6	;RP1=0, select bank0
  4845  02C0  00B6               	movwf	__Umul8_16@multiplicand
  4846  02C1  1683               	bsf	3,5	;RP0=1, select bank1
  4847  02C2  1303               	bcf	3,6	;RP1=0, select bank1
  4848  02C3  0859               	movf	(___flmul@a^(0+128)+2),w
  4849  02C4  120A  158A  21FA  120A  118A  	fcall	__Umul8_16
  4850  02C9  1283               	bcf	3,5	;RP0=0, select bank0
  4851  02CA  1303               	bcf	3,6	;RP1=0, select bank0
  4852  02CB  0837               	movf	?__Umul8_16+1,w
  4853  02CC  1683               	bsf	3,5	;RP0=1, select bank1
  4854  02CD  1303               	bcf	3,6	;RP1=0, select bank1
  4855  02CE  00EC               	movwf	(___flmul@temp+1)^(0+128)
  4856  02CF  1283               	bcf	3,5	;RP0=0, select bank0
  4857  02D0  1303               	bcf	3,6	;RP1=0, select bank0
  4858  02D1  0836               	movf	?__Umul8_16,w
  4859  02D2  1683               	bsf	3,5	;RP0=1, select bank1
  4860  02D3  1303               	bcf	3,6	;RP1=0, select bank1
  4861  02D4  00EB               	movwf	___flmul@temp^(0+128)
  4862  02D5                     l3259:
  4863  02D5  086B               	movf	___flmul@temp^(0+128),w
  4864  02D6  00DB               	movwf	??___flmul^(0+128)
  4865  02D7  086C               	movf	(___flmul@temp+1)^(0+128),w
  4866  02D8  00DC               	movwf	(??___flmul^(0+128)+1)
  4867  02D9  01DD               	clrf	(??___flmul^(0+128)+2)
  4868  02DA  01DE               	clrf	(??___flmul^(0+128)+3)
  4869  02DB  3008               	movlw	8
  4870  02DC                     u4345:
  4871  02DC  1003               	clrc
  4872  02DD  0DDB               	rlf	??___flmul^(0+128),f
  4873  02DE  0DDC               	rlf	(??___flmul^(0+128)+1),f
  4874  02DF  0DDD               	rlf	(??___flmul^(0+128)+2),f
  4875  02E0  0DDE               	rlf	(??___flmul^(0+128)+3),f
  4876  02E1                     u4340:
  4877  02E1  3EFF               	addlw	-1
  4878  02E2  1D03               	skipz
  4879  02E3  2ADC               	goto	u4345
  4880  02E4  085B               	movf	??___flmul^(0+128),w
  4881  02E5  07E7               	addwf	___flmul@prod^(0+128),f
  4882  02E6  085C               	movf	(??___flmul+1)^(0+128),w
  4883  02E7  1103               	clrz
  4884  02E8  1803               	skipnc
  4885  02E9  3E01               	addlw	1
  4886  02EA  1903               	skipnz
  4887  02EB  2AED               	goto	u4351
  4888  02EC  07E8               	addwf	(___flmul@prod+1)^(0+128),f
  4889  02ED                     u4351:
  4890  02ED  085D               	movf	(??___flmul+2)^(0+128),w
  4891  02EE  1103               	clrz
  4892  02EF  1803               	skipnc
  4893  02F0  3E01               	addlw	1
  4894  02F1  1903               	skipnz
  4895  02F2  2AF4               	goto	u4352
  4896  02F3  07E9               	addwf	(___flmul@prod+2)^(0+128),f
  4897  02F4                     u4352:
  4898  02F4  085E               	movf	(??___flmul+3)^(0+128),w
  4899  02F5  1103               	clrz
  4900  02F6  1803               	skipnc
  4901  02F7  3E01               	addlw	1
  4902  02F8  1903               	skipnz
  4903  02F9  2AFB               	goto	u4353
  4904  02FA  07EA               	addwf	(___flmul@prod+3)^(0+128),f
  4905  02FB                     u4353:
  4906  02FB                     l3261:
  4907  02FB  0862               	movf	___flmul@grs^(0+128),w
  4908  02FC  00DB               	movwf	??___flmul^(0+128)
  4909  02FD  0863               	movf	(___flmul@grs+1)^(0+128),w
  4910  02FE  00DC               	movwf	(??___flmul^(0+128)+1)
  4911  02FF  0864               	movf	(___flmul@grs+2)^(0+128),w
  4912  0300  00DD               	movwf	(??___flmul^(0+128)+2)
  4913  0301  0865               	movf	(___flmul@grs+3)^(0+128),w
  4914  0302  00DE               	movwf	(??___flmul^(0+128)+3)
  4915  0303  3018               	movlw	24
  4916  0304                     u4365:
  4917  0304  1003               	clrc
  4918  0305  0CDE               	rrf	(??___flmul^(0+128)+3),f
  4919  0306  0CDD               	rrf	(??___flmul^(0+128)+2),f
  4920  0307  0CDC               	rrf	(??___flmul^(0+128)+1),f
  4921  0308  0CDB               	rrf	??___flmul^(0+128),f
  4922  0309                     u4360:
  4923  0309  3EFF               	addlw	-1
  4924  030A  1D03               	skipz
  4925  030B  2B04               	goto	u4365
  4926  030C  085B               	movf	??___flmul^(0+128),w
  4927  030D  07E7               	addwf	___flmul@prod^(0+128),f
  4928  030E  085C               	movf	(??___flmul+1)^(0+128),w
  4929  030F  1103               	clrz
  4930  0310  1803               	skipnc
  4931  0311  3E01               	addlw	1
  4932  0312  1903               	skipnz
  4933  0313  2B15               	goto	u4371
  4934  0314  07E8               	addwf	(___flmul@prod+1)^(0+128),f
  4935  0315                     u4371:
  4936  0315  085D               	movf	(??___flmul+2)^(0+128),w
  4937  0316  1103               	clrz
  4938  0317  1803               	skipnc
  4939  0318  3E01               	addlw	1
  4940  0319  1903               	skipnz
  4941  031A  2B1C               	goto	u4372
  4942  031B  07E9               	addwf	(___flmul@prod+2)^(0+128),f
  4943  031C                     u4372:
  4944  031C  085E               	movf	(??___flmul+3)^(0+128),w
  4945  031D  1103               	clrz
  4946  031E  1803               	skipnc
  4947  031F  3E01               	addlw	1
  4948  0320  1903               	skipnz
  4949  0321  2B23               	goto	u4373
  4950  0322  07EA               	addwf	(___flmul@prod+3)^(0+128),f
  4951  0323                     u4373:
  4952  0323                     l3263:
  4953  0323  3008               	movlw	8
  4954  0324  00DB               	movwf	??___flmul^(0+128)
  4955  0325                     u4385:
  4956  0325  1003               	clrc
  4957  0326  0DE2               	rlf	___flmul@grs^(0+128),f
  4958  0327  0DE3               	rlf	(___flmul@grs+1)^(0+128),f
  4959  0328  0DE4               	rlf	(___flmul@grs+2)^(0+128),f
  4960  0329  0DE5               	rlf	(___flmul@grs+3)^(0+128),f
  4961  032A  0BDB               	decfsz	??___flmul^(0+128),f
  4962  032B  2B25               	goto	u4385
  4963  032C                     l3265:
  4964  032C  0866               	movf	___flmul@bexp^(0+128),w
  4965  032D  0761               	addwf	___flmul@aexp^(0+128),w
  4966  032E  00DB               	movwf	??___flmul^(0+128)
  4967  032F  01DC               	clrf	(??___flmul^(0+128)+1)
  4968  0330  0DDC               	rlf	(??___flmul+1)^(0+128),f
  4969  0331  085B               	movf	??___flmul^(0+128),w
  4970  0332  3E82               	addlw	130
  4971  0333  00EB               	movwf	___flmul@temp^(0+128)
  4972  0334  085C               	movf	(??___flmul+1)^(0+128),w
  4973  0335  1803               	skipnc
  4974  0336  3E01               	addlw	1
  4975  0337  3EFF               	addlw	255
  4976  0338  00EC               	movwf	(___flmul@temp+1)^(0+128)
  4977  0339  2B57               	goto	l3277
  4978  033A                     l3267:
  4979  033A  3001               	movlw	1
  4980  033B  00DB               	movwf	??___flmul^(0+128)
  4981  033C                     u4395:
  4982  033C  1003               	clrc
  4983  033D  0DE7               	rlf	___flmul@prod^(0+128),f
  4984  033E  0DE8               	rlf	(___flmul@prod+1)^(0+128),f
  4985  033F  0DE9               	rlf	(___flmul@prod+2)^(0+128),f
  4986  0340  0DEA               	rlf	(___flmul@prod+3)^(0+128),f
  4987  0341  0BDB               	decfsz	??___flmul^(0+128),f
  4988  0342  2B3C               	goto	u4395
  4989  0343                     l3269:
  4990  0343  1FE5               	btfss	(___flmul@grs+3)^(0+128),7
  4991  0344  2B46               	goto	u4401
  4992  0345  2B47               	goto	u4400
  4993  0346                     u4401:
  4994  0346  2B48               	goto	l3273
  4995  0347                     u4400:
  4996  0347                     l3271:
  4997  0347  1467               	bsf	___flmul@prod^(0+128),0
  4998  0348                     l3273:
  4999  0348  3001               	movlw	1
  5000  0349  00DB               	movwf	??___flmul^(0+128)
  5001  034A                     u4415:
  5002  034A  1003               	clrc
  5003  034B  0DE2               	rlf	___flmul@grs^(0+128),f
  5004  034C  0DE3               	rlf	(___flmul@grs+1)^(0+128),f
  5005  034D  0DE4               	rlf	(___flmul@grs+2)^(0+128),f
  5006  034E  0DE5               	rlf	(___flmul@grs+3)^(0+128),f
  5007  034F  0BDB               	decfsz	??___flmul^(0+128),f
  5008  0350  2B4A               	goto	u4415
  5009  0351                     l3275:
  5010  0351  30FF               	movlw	255
  5011  0352  07EB               	addwf	___flmul@temp^(0+128),f
  5012  0353  1803               	skipnc
  5013  0354  0AEC               	incf	(___flmul@temp+1)^(0+128),f
  5014  0355  30FF               	movlw	255
  5015  0356  07EC               	addwf	(___flmul@temp+1)^(0+128),f
  5016  0357                     l3277:
  5017  0357  1FE9               	btfss	(___flmul@prod+2)^(0+128),7
  5018  0358  2B5A               	goto	u4421
  5019  0359  2B5B               	goto	u4420
  5020  035A                     u4421:
  5021  035A  2B3A               	goto	l3267
  5022  035B                     u4420:
  5023  035B                     l3279:
  5024  035B  01E1               	clrf	___flmul@aexp^(0+128)
  5025  035C                     l3281:
  5026  035C  1FE5               	btfss	(___flmul@grs+3)^(0+128),7
  5027  035D  2B5F               	goto	u4431
  5028  035E  2B60               	goto	u4430
  5029  035F                     u4431:
  5030  035F  2B7C               	goto	l3289
  5031  0360                     u4430:
  5032  0360                     l3283:
  5033  0360  30FF               	movlw	255
  5034  0361  0562               	andwf	___flmul@grs^(0+128),w
  5035  0362  00DB               	movwf	??___flmul^(0+128)
  5036  0363  30FF               	movlw	255
  5037  0364  0563               	andwf	(___flmul@grs+1)^(0+128),w
  5038  0365  00DC               	movwf	(??___flmul^(0+128)+1)
  5039  0366  30FF               	movlw	255
  5040  0367  0564               	andwf	(___flmul@grs+2)^(0+128),w
  5041  0368  00DD               	movwf	(??___flmul^(0+128)+2)
  5042  0369  307F               	movlw	127
  5043  036A  0565               	andwf	(___flmul@grs+3)^(0+128),w
  5044  036B  00DE               	movwf	(??___flmul^(0+128)+3)
  5045  036C  085E               	movf	(??___flmul+3)^(0+128),w
  5046  036D  045D               	iorwf	(??___flmul+2)^(0+128),w
  5047  036E  045C               	iorwf	(??___flmul+1)^(0+128),w
  5048  036F  045B               	iorwf	??___flmul^(0+128),w
  5049  0370  1903               	skipnz
  5050  0371  2B73               	goto	u4441
  5051  0372  2B74               	goto	u4440
  5052  0373                     u4441:
  5053  0373  2B77               	goto	l958
  5054  0374                     u4440:
  5055  0374                     l3285:
  5056  0374  01E1               	clrf	___flmul@aexp^(0+128)
  5057  0375  0AE1               	incf	___flmul@aexp^(0+128),f
  5058  0376  2B7C               	goto	l3289
  5059  0377                     l958:
  5060  0377  1C67               	btfss	___flmul@prod^(0+128),0
  5061  0378  2B7A               	goto	u4451
  5062  0379  2B7B               	goto	u4450
  5063  037A                     u4451:
  5064  037A  2B7C               	goto	l3289
  5065  037B                     u4450:
  5066  037B  2B74               	goto	l3285
  5067  037C                     l3289:
  5068  037C  0861               	movf	___flmul@aexp^(0+128),w
  5069  037D  1903               	btfsc	3,2
  5070  037E  2B80               	goto	u4461
  5071  037F  2B81               	goto	u4460
  5072  0380                     u4461:
  5073  0380  2BB2               	goto	l3299
  5074  0381                     u4460:
  5075  0381                     l3291:
  5076  0381  3001               	movlw	1
  5077  0382  07E7               	addwf	___flmul@prod^(0+128),f
  5078  0383  3000               	movlw	0
  5079  0384  1803               	skipnc
  5080  0385  3001               	movlw	1
  5081  0386  07E8               	addwf	(___flmul@prod+1)^(0+128),f
  5082  0387  3000               	movlw	0
  5083  0388  1803               	skipnc
  5084  0389  3001               	movlw	1
  5085  038A  07E9               	addwf	(___flmul@prod+2)^(0+128),f
  5086  038B  3000               	movlw	0
  5087  038C  1803               	skipnc
  5088  038D  3001               	movlw	1
  5089  038E  07EA               	addwf	(___flmul@prod+3)^(0+128),f
  5090  038F                     l3293:
  5091  038F  1C6A               	btfss	(___flmul@prod+3)^(0+128),0
  5092  0390  2B92               	goto	u4471
  5093  0391  2B93               	goto	u4470
  5094  0392                     u4471:
  5095  0392  2BB2               	goto	l3299
  5096  0393                     u4470:
  5097  0393                     l3295:
  5098  0393  0867               	movf	___flmul@prod^(0+128),w
  5099  0394  00DB               	movwf	??___flmul^(0+128)
  5100  0395  0868               	movf	(___flmul@prod+1)^(0+128),w
  5101  0396  00DC               	movwf	(??___flmul^(0+128)+1)
  5102  0397  0869               	movf	(___flmul@prod+2)^(0+128),w
  5103  0398  00DD               	movwf	(??___flmul^(0+128)+2)
  5104  0399  086A               	movf	(___flmul@prod+3)^(0+128),w
  5105  039A  00DE               	movwf	(??___flmul^(0+128)+3)
  5106  039B  3001               	movlw	1
  5107  039C  00DF               	movwf	(??___flmul+4)^(0+128)
  5108  039D                     u4485:
  5109  039D  0D5E               	rlf	(??___flmul^(0+128)+3),w
  5110  039E  0CDE               	rrf	(??___flmul^(0+128)+3),f
  5111  039F  0CDD               	rrf	(??___flmul^(0+128)+2),f
  5112  03A0  0CDC               	rrf	(??___flmul^(0+128)+1),f
  5113  03A1  0CDB               	rrf	??___flmul^(0+128),f
  5114  03A2                     u4480:
  5115  03A2  0BDF               	decfsz	(??___flmul+4)^(0+128),f
  5116  03A3  2B9D               	goto	u4485
  5117  03A4  085E               	movf	(??___flmul+3)^(0+128),w
  5118  03A5  00EA               	movwf	(___flmul@prod+3)^(0+128)
  5119  03A6  085D               	movf	(??___flmul+2)^(0+128),w
  5120  03A7  00E9               	movwf	(___flmul@prod+2)^(0+128)
  5121  03A8  085C               	movf	(??___flmul+1)^(0+128),w
  5122  03A9  00E8               	movwf	(___flmul@prod+1)^(0+128)
  5123  03AA  085B               	movf	??___flmul^(0+128),w
  5124  03AB  00E7               	movwf	___flmul@prod^(0+128)
  5125  03AC                     l3297:
  5126  03AC  3001               	movlw	1
  5127  03AD  07EB               	addwf	___flmul@temp^(0+128),f
  5128  03AE  1803               	skipnc
  5129  03AF  0AEC               	incf	(___flmul@temp+1)^(0+128),f
  5130  03B0  3000               	movlw	0
  5131  03B1  07EC               	addwf	(___flmul@temp+1)^(0+128),f
  5132  03B2                     l3299:
  5133  03B2  086C               	movf	(___flmul@temp+1)^(0+128),w
  5134  03B3  3A80               	xorlw	128
  5135  03B4  00FF               	movwf	btemp+1
  5136  03B5  3080               	movlw	128
  5137  03B6  027F               	subwf	btemp+1,w
  5138  03B7  1D03               	skipz
  5139  03B8  2BBB               	goto	u4495
  5140  03B9  30FF               	movlw	255
  5141  03BA  026B               	subwf	___flmul@temp^(0+128),w
  5142  03BB                     u4495:
  5143  03BB  1C03               	skipc
  5144  03BC  2BBE               	goto	u4491
  5145  03BD  2BBF               	goto	u4490
  5146  03BE                     u4491:
  5147  03BE  2BCA               	goto	l3303
  5148  03BF                     u4490:
  5149  03BF                     l3301:
  5150  03BF  307F               	movlw	127
  5151  03C0  1683               	bsf	3,5	;RP0=1, select bank1
  5152  03C1  1303               	bcf	3,6	;RP1=0, select bank1
  5153  03C2  00EA               	movwf	(___flmul@prod+3)^(0+128)
  5154  03C3  3080               	movlw	128
  5155  03C4  00E9               	movwf	(___flmul@prod+2)^(0+128)
  5156  03C5  3000               	movlw	0
  5157  03C6  00E8               	movwf	(___flmul@prod+1)^(0+128)
  5158  03C7  3000               	movlw	0
  5159  03C8  00E7               	movwf	___flmul@prod^(0+128)
  5160  03C9  2BFF               	goto	l964
  5161  03CA                     l3303:
  5162  03CA  1683               	bsf	3,5	;RP0=1, select bank1
  5163  03CB  1303               	bcf	3,6	;RP1=0, select bank1
  5164  03CC  086C               	movf	(___flmul@temp+1)^(0+128),w
  5165  03CD  3A80               	xorlw	128
  5166  03CE  00FF               	movwf	btemp+1
  5167  03CF  3080               	movlw	128
  5168  03D0  027F               	subwf	btemp+1,w
  5169  03D1  1D03               	skipz
  5170  03D2  2BD5               	goto	u4505
  5171  03D3  3001               	movlw	1
  5172  03D4  026B               	subwf	___flmul@temp^(0+128),w
  5173  03D5                     u4505:
  5174  03D5  1803               	skipnc
  5175  03D6  2BD8               	goto	u4501
  5176  03D7  2BD9               	goto	u4500
  5177  03D8                     u4501:
  5178  03D8  2BE5               	goto	l3309
  5179  03D9                     u4500:
  5180  03D9                     l3305:
  5181  03D9  3000               	movlw	0
  5182  03DA  1683               	bsf	3,5	;RP0=1, select bank1
  5183  03DB  1303               	bcf	3,6	;RP1=0, select bank1
  5184  03DC  00EA               	movwf	(___flmul@prod+3)^(0+128)
  5185  03DD  3000               	movlw	0
  5186  03DE  00E9               	movwf	(___flmul@prod+2)^(0+128)
  5187  03DF  3000               	movlw	0
  5188  03E0  00E8               	movwf	(___flmul@prod+1)^(0+128)
  5189  03E1  3000               	movlw	0
  5190  03E2  00E7               	movwf	___flmul@prod^(0+128)
  5191  03E3                     l3307:
  5192  03E3  01E0               	clrf	___flmul@sign^(0+128)
  5193  03E4  2BFF               	goto	l964
  5194  03E5                     l3309:
  5195  03E5  1683               	bsf	3,5	;RP0=1, select bank1
  5196  03E6  1303               	bcf	3,6	;RP1=0, select bank1
  5197  03E7  086B               	movf	___flmul@temp^(0+128),w
  5198  03E8  00FF               	movwf	btemp+1
  5199  03E9  087F               	movf	btemp+1,w
  5200  03EA  00E6               	movwf	___flmul@bexp^(0+128)
  5201  03EB                     l3311:
  5202  03EB  30FF               	movlw	255
  5203  03EC  05E7               	andwf	___flmul@prod^(0+128),f
  5204  03ED  30FF               	movlw	255
  5205  03EE  05E8               	andwf	(___flmul@prod+1)^(0+128),f
  5206  03EF  307F               	movlw	127
  5207  03F0  05E9               	andwf	(___flmul@prod+2)^(0+128),f
  5208  03F1  3000               	movlw	0
  5209  03F2  05EA               	andwf	(___flmul@prod+3)^(0+128),f
  5210  03F3                     l3313:
  5211  03F3  1C66               	btfss	___flmul@bexp^(0+128),0
  5212  03F4  2BF6               	goto	u4511
  5213  03F5  2BF7               	goto	u4510
  5214  03F6                     u4511:
  5215  03F6  2BF8               	goto	l3317
  5216  03F7                     u4510:
  5217  03F7                     l3315:
  5218  03F7  17E9               	bsf	(___flmul@prod^(0+128)+2),7
  5219  03F8                     l3317:
  5220  03F8  0866               	movf	___flmul@bexp^(0+128),w
  5221  03F9  00DB               	movwf	??___flmul^(0+128)
  5222  03FA  1003               	clrc
  5223  03FB  0C5B               	rrf	??___flmul^(0+128),w
  5224  03FC  00FF               	movwf	btemp+1
  5225  03FD  087F               	movf	btemp+1,w
  5226  03FE  00EA               	movwf	(___flmul@prod^(0+128)+3)
  5227  03FF                     l964:
  5228  03FF  0860               	movf	___flmul@sign^(0+128),w
  5229  0400  00FF               	movwf	btemp+1
  5230  0401  087F               	movf	btemp+1,w
  5231  0402  04EA               	iorwf	(___flmul@prod^(0+128)+3),f
  5232  0403                     l3319:
  5233  0403  086A               	movf	(___flmul@prod+3)^(0+128),w
  5234  0404  00D6               	movwf	(?___flmul+3)^(0+128)
  5235  0405  0869               	movf	(___flmul@prod+2)^(0+128),w
  5236  0406  00D5               	movwf	(?___flmul+2)^(0+128)
  5237  0407  0868               	movf	(___flmul@prod+1)^(0+128),w
  5238  0408  00D4               	movwf	(?___flmul+1)^(0+128)
  5239  0409  0867               	movf	___flmul@prod^(0+128),w
  5240  040A  00D3               	movwf	?___flmul^(0+128)
  5241  040B                     l952:
  5242  040B  0008               	return
  5243  040C                     __end_of___flmul:
  5244                           
  5245                           	psect	text20
  5246  09FA                     __ptext20:	
  5247 ;; *************** function __Umul8_16 *****************
  5248 ;; Defined at:
  5249 ;;		line 4 in file "C:\Program Files (x86)\Microchip\xc8\v2.20\pic\sources\c90\common\Umul8_16.c"
  5250 ;; Parameters:    Size  Location     Type
  5251 ;;  multiplier      1    wreg     unsigned char 
  5252 ;;  multiplicand    1   22[BANK0 ] unsigned char 
  5253 ;; Auto vars:     Size  Location     Type
  5254 ;;  multiplier      1   30[BANK0 ] unsigned char 
  5255 ;;  word_mpld       2   28[BANK0 ] unsigned int 
  5256 ;;  product         2   26[BANK0 ] unsigned int 
  5257 ;; Return value:  Size  Location     Type
  5258 ;;                  2   22[BANK0 ] unsigned int 
  5259 ;; Registers used:
  5260 ;;		wreg, status,2, status,0
  5261 ;; Tracked objects:
  5262 ;;		On entry : 0/0
  5263 ;;		On exit  : 0/0
  5264 ;;		Unchanged: 0/0
  5265 ;; Data sizes:     COMMON   BANK0   BANK1   BANK3   BANK2
  5266 ;;      Params:         0       2       0       0       0
  5267 ;;      Locals:         0       5       0       0       0
  5268 ;;      Temps:          0       2       0       0       0
  5269 ;;      Totals:         0       9       0       0       0
  5270 ;;Total ram usage:        9 bytes
  5271 ;; Hardware stack levels used:    1
  5272 ;; Hardware stack levels required when called:    4
  5273 ;; This function calls:
  5274 ;;		Nothing
  5275 ;; This function is called by:
  5276 ;;		___flmul
  5277 ;; This function uses a non-reentrant model
  5278 ;;
  5279                           
  5280                           
  5281                           ;psect for function __Umul8_16
  5282  09FA                     __Umul8_16:
  5283                           
  5284                           ;incstack = 0
  5285 ;; hardware stack exceeded
  5286                           ; Regs used in __Umul8_16: [wreg+status,2+status,0]
  5287                           ;__Umul8_16@multiplier stored from wreg
  5288  09FA  1283               	bcf	3,5	;RP0=0, select bank0
  5289  09FB  1303               	bcf	3,6	;RP1=0, select bank0
  5290  09FC  00BE               	movwf	__Umul8_16@multiplier
  5291  09FD                     l3107:
  5292  09FD  01BA               	clrf	__Umul8_16@product
  5293  09FE  01BB               	clrf	__Umul8_16@product+1
  5294  09FF                     l3109:
  5295  09FF  0836               	movf	__Umul8_16@multiplicand,w
  5296  0A00  00B8               	movwf	??__Umul8_16
  5297  0A01  01B9               	clrf	??__Umul8_16+1
  5298  0A02  0838               	movf	??__Umul8_16,w
  5299  0A03  00BC               	movwf	__Umul8_16@word_mpld
  5300  0A04  0839               	movf	??__Umul8_16+1,w
  5301  0A05  00BD               	movwf	__Umul8_16@word_mpld+1
  5302  0A06                     l3111:
  5303  0A06  1C3E               	btfss	__Umul8_16@multiplier,0
  5304  0A07  2A09               	goto	u3981
  5305  0A08  2A0A               	goto	u3980
  5306  0A09                     u3981:
  5307  0A09  2A10               	goto	l971
  5308  0A0A                     u3980:
  5309  0A0A                     l3113:
  5310  0A0A  083C               	movf	__Umul8_16@word_mpld,w
  5311  0A0B  07BA               	addwf	__Umul8_16@product,f
  5312  0A0C  1803               	skipnc
  5313  0A0D  0ABB               	incf	__Umul8_16@product+1,f
  5314  0A0E  083D               	movf	__Umul8_16@word_mpld+1,w
  5315  0A0F  07BB               	addwf	__Umul8_16@product+1,f
  5316  0A10                     l971:
  5317  0A10  3001               	movlw	1
  5318  0A11                     u3995:
  5319  0A11  1003               	clrc
  5320  0A12  0DBC               	rlf	__Umul8_16@word_mpld,f
  5321  0A13  0DBD               	rlf	__Umul8_16@word_mpld+1,f
  5322  0A14  3EFF               	addlw	-1
  5323  0A15  1D03               	skipz
  5324  0A16  2A11               	goto	u3995
  5325  0A17  1003               	clrc
  5326  0A18  0CBE               	rrf	__Umul8_16@multiplier,f
  5327  0A19                     l3115:
  5328  0A19  083E               	movf	__Umul8_16@multiplier,w
  5329  0A1A  1D03               	btfss	3,2
  5330  0A1B  2A1D               	goto	u4001
  5331  0A1C  2A1E               	goto	u4000
  5332  0A1D                     u4001:
  5333  0A1D  2A06               	goto	l3111
  5334  0A1E                     u4000:
  5335  0A1E                     l3117:
  5336  0A1E  083B               	movf	__Umul8_16@product+1,w
  5337  0A1F  00B7               	movwf	?__Umul8_16+1
  5338  0A20  083A               	movf	__Umul8_16@product,w
  5339  0A21  00B6               	movwf	?__Umul8_16
  5340  0A22                     l973:
  5341  0A22  0008               	return
  5342  0A23                     __end_of__Umul8_16:
  5343                           
  5344                           	psect	text21
  5345  05A1                     __ptext21:	
  5346 ;; *************** function _Average_Value *****************
  5347 ;; Defined at:
  5348 ;;		line 12 in file "Average/Average.c"
  5349 ;; Parameters:    Size  Location     Type
  5350 ;;  Value           1    wreg     unsigned char 
  5351 ;;  Avrage_Value    1    0[BANK1 ] PTR unsigned char 
  5352 ;;		 -> Temperature(5), 
  5353 ;; Auto vars:     Size  Location     Type
  5354 ;;  Value           1    6[BANK1 ] unsigned char 
  5355 ;;  index           1    7[BANK1 ] unsigned char 
  5356 ;; Return value:  Size  Location     Type
  5357 ;;                  1    wreg      void 
  5358 ;; Registers used:
  5359 ;;		wreg, fsr0l, fsr0h, status,2, status,0, btemp+1, pclath, cstack
  5360 ;; Tracked objects:
  5361 ;;		On entry : 0/0
  5362 ;;		On exit  : 0/0
  5363 ;;		Unchanged: 0/0
  5364 ;; Data sizes:     COMMON   BANK0   BANK1   BANK3   BANK2
  5365 ;;      Params:         0       0       1       0       0
  5366 ;;      Locals:         0       0       2       0       0
  5367 ;;      Temps:          0       0       5       0       0
  5368 ;;      Totals:         0       0       8       0       0
  5369 ;;Total ram usage:        8 bytes
  5370 ;; Hardware stack levels used:    1
  5371 ;; Hardware stack levels required when called:    5
  5372 ;; This function calls:
  5373 ;;		___lldiv
  5374 ;;		___lwmod
  5375 ;; This function is called by:
  5376 ;;		_Temperature_Calc
  5377 ;; This function uses a non-reentrant model
  5378 ;;
  5379                           
  5380                           
  5381                           ;psect for function _Average_Value
  5382  05A1                     _Average_Value:
  5383                           
  5384                           ;incstack = 0
  5385 ;; hardware stack exceeded
  5386                           ; Regs used in _Average_Value: [wreg-fsr0h+status,2+status,0+btemp+1+pclath+cstack]
  5387                           ;Average_Value@Value stored from wreg
  5388  05A1  1683               	bsf	3,5	;RP0=1, select bank1
  5389  05A2  1303               	bcf	3,6	;RP1=0, select bank1
  5390  05A3  00D9               	movwf	Average_Value@Value^(0+128)
  5391  05A4                     l3121:
  5392                           
  5393                           ;Average/Average.c: 12: void Average_Value(uint8_t Value,uint8_t *Avrage_Values);Average
      +                          /Average.c: 13: {;Average/Average.c: 15:     Avrage_buffer=0;
  5394  05A4  3000               	movlw	0
  5395  05A5  00CF               	movwf	(_Avrage_buffer+3)^(0+128)
  5396  05A6  3000               	movlw	0
  5397  05A7  00CE               	movwf	(_Avrage_buffer+2)^(0+128)
  5398  05A8  3000               	movlw	0
  5399  05A9  00CD               	movwf	(_Avrage_buffer+1)^(0+128)
  5400  05AA  3000               	movlw	0
  5401  05AB  00CC               	movwf	_Avrage_buffer^(0+128)
  5402  05AC                     l3123:
  5403                           
  5404                           ;Average/Average.c: 16:  temb_val[Average_Nvalues]=Value;
  5405  05AC  0859               	movf	Average_Value@Value^(0+128),w
  5406  05AD  00D4               	movwf	??_Average_Value^(0+128)
  5407  05AE  01D5               	clrf	(??_Average_Value^(0+128)+1)
  5408  05AF  01D6               	clrf	(??_Average_Value^(0+128)+2)
  5409  05B0  01D7               	clrf	(??_Average_Value^(0+128)+3)
  5410  05B1  1283               	bcf	3,5	;RP0=0, select bank0
  5411  05B2  1303               	bcf	3,6	;RP1=0, select bank0
  5412  05B3  0859               	movf	_Average_Nvalues,w
  5413  05B4  1683               	bsf	3,5	;RP0=1, select bank1
  5414  05B5  1303               	bcf	3,6	;RP1=0, select bank1
  5415  05B6  00D8               	movwf	(??_Average_Value+4)^(0+128)
  5416  05B7  3001               	movlw	1
  5417  05B8                     u4015:
  5418  05B8  1003               	clrc
  5419  05B9  0DD8               	rlf	(??_Average_Value+4)^(0+128),f
  5420  05BA  3EFF               	addlw	-1
  5421  05BB  1D03               	skipz
  5422  05BC  2DB8               	goto	u4015
  5423  05BD  1003               	clrc
  5424  05BE  0D58               	rlf	(??_Average_Value+4)^(0+128),w
  5425  05BF  3EA0               	addlw	(low (_temb_val| 0))& (0+255)
  5426  05C0  0084               	movwf	4
  5427  05C1  0854               	movf	??_Average_Value^(0+128),w
  5428  05C2  1383               	bcf	3,7	;select IRP bank1
  5429  05C3  0080               	movwf	0
  5430  05C4  0A84               	incf	4,f
  5431  05C5  0855               	movf	(??_Average_Value+1)^(0+128),w
  5432  05C6  0080               	movwf	0
  5433  05C7  0A84               	incf	4,f
  5434  05C8  0856               	movf	(??_Average_Value+2)^(0+128),w
  5435  05C9  0080               	movwf	0
  5436  05CA  0A84               	incf	4,f
  5437  05CB  0857               	movf	(??_Average_Value+3)^(0+128),w
  5438  05CC  0080               	movwf	0
  5439  05CD                     l3125:
  5440                           
  5441                           ;Average/Average.c: 18:  Average_Nvalues= (Average_Nvalues+1)%10U;
  5442  05CD  300A               	movlw	10
  5443  05CE  1283               	bcf	3,5	;RP0=0, select bank0
  5444  05CF  1303               	bcf	3,6	;RP1=0, select bank0
  5445  05D0  00B6               	movwf	___lwmod@divisor
  5446  05D1  3000               	movlw	0
  5447  05D2  00B7               	movwf	___lwmod@divisor+1
  5448  05D3  0859               	movf	_Average_Nvalues,w
  5449  05D4  3E01               	addlw	1
  5450  05D5  00B8               	movwf	___lwmod@dividend
  5451  05D6  3000               	movlw	0
  5452  05D7  1803               	skipnc
  5453  05D8  3001               	movlw	1
  5454  05D9  00B9               	movwf	___lwmod@dividend+1
  5455  05DA  120A  158A  2387  120A  118A  	fcall	___lwmod
  5456  05DF  1283               	bcf	3,5	;RP0=0, select bank0
  5457  05E0  1303               	bcf	3,6	;RP1=0, select bank0
  5458  05E1  0836               	movf	?___lwmod,w
  5459  05E2  00FF               	movwf	btemp+1
  5460  05E3  087F               	movf	btemp+1,w
  5461  05E4  00D9               	movwf	_Average_Nvalues
  5462  05E5                     l3127:
  5463                           
  5464                           ;Average/Average.c: 20:  for(uint8_t index=0;index<10U;index++)
  5465  05E5  1683               	bsf	3,5	;RP0=1, select bank1
  5466  05E6  1303               	bcf	3,6	;RP1=0, select bank1
  5467  05E7  01DA               	clrf	Average_Value@index^(0+128)
  5468  05E8                     l3133:
  5469                           
  5470                           ;Average/Average.c: 21:  {;Average/Average.c: 22:   Avrage_buffer+=temb_val[index];
  5471  05E8  085A               	movf	Average_Value@index^(0+128),w
  5472  05E9  00D4               	movwf	??_Average_Value^(0+128)
  5473  05EA  3001               	movlw	1
  5474  05EB                     u4025:
  5475  05EB  1003               	clrc
  5476  05EC  0DD4               	rlf	??_Average_Value^(0+128),f
  5477  05ED  3EFF               	addlw	-1
  5478  05EE  1D03               	skipz
  5479  05EF  2DEB               	goto	u4025
  5480  05F0  1003               	clrc
  5481  05F1  0D54               	rlf	??_Average_Value^(0+128),w
  5482  05F2  3EA0               	addlw	(low (_temb_val| 0))& (0+255)
  5483  05F3  0084               	movwf	4
  5484  05F4  1383               	bcf	3,7	;select IRP bank1
  5485  05F5  0800               	movf	0,w
  5486  05F6  07CC               	addwf	_Avrage_buffer^(0+128),f
  5487  05F7  0A84               	incf	4,f
  5488  05F8  0800               	movf	0,w
  5489  05F9  1803               	skipnc
  5490  05FA  0F00               	incfsz	0,w
  5491  05FB  2DFD               	goto	u4031
  5492  05FC  2DFE               	goto	u4032
  5493  05FD                     u4031:
  5494  05FD  07CD               	addwf	(_Avrage_buffer+1)^(0+128),f
  5495  05FE                     u4032:
  5496  05FE  0A84               	incf	4,f
  5497  05FF  0800               	movf	0,w
  5498  0600  1803               	skipnc
  5499  0601  0F00               	incfsz	0,w
  5500  0602  2E04               	goto	u4033
  5501  0603  2E05               	goto	u4034
  5502  0604                     u4033:
  5503  0604  07CE               	addwf	(_Avrage_buffer+2)^(0+128),f
  5504  0605                     u4034:
  5505  0605  0A84               	incf	4,f
  5506  0606  0800               	movf	0,w
  5507  0607  1803               	skipnc
  5508  0608  0F00               	incfsz	0,w
  5509  0609  2E0B               	goto	u4035
  5510  060A  2E0C               	goto	u4036
  5511  060B                     u4035:
  5512  060B  07CF               	addwf	(_Avrage_buffer+3)^(0+128),f
  5513  060C                     u4036:
  5514  060C                     l3135:
  5515                           
  5516                           ;Average/Average.c: 23:  }
  5517  060C  3001               	movlw	1
  5518  060D  00FF               	movwf	btemp+1
  5519  060E  087F               	movf	btemp+1,w
  5520  060F  07DA               	addwf	Average_Value@index^(0+128),f
  5521  0610                     l3137:
  5522  0610  300A               	movlw	10
  5523  0611  025A               	subwf	Average_Value@index^(0+128),w
  5524  0612  1C03               	skipc
  5525  0613  2E15               	goto	u4041
  5526  0614  2E16               	goto	u4040
  5527  0615                     u4041:
  5528  0615  2DE8               	goto	l3133
  5529  0616                     u4040:
  5530  0616                     l3139:
  5531                           
  5532                           ;Average/Average.c: 26:    *Avrage_Values=Avrage_buffer/10U;
  5533  0616  3000               	movlw	0
  5534  0617  1283               	bcf	3,5	;RP0=0, select bank0
  5535  0618  1303               	bcf	3,6	;RP1=0, select bank0
  5536  0619  00B9               	movwf	___lldiv@divisor+3
  5537  061A  3000               	movlw	0
  5538  061B  00B8               	movwf	___lldiv@divisor+2
  5539  061C  3000               	movlw	0
  5540  061D  00B7               	movwf	___lldiv@divisor+1
  5541  061E  300A               	movlw	10
  5542  061F  00B6               	movwf	___lldiv@divisor
  5543  0620  1683               	bsf	3,5	;RP0=1, select bank1
  5544  0621  1303               	bcf	3,6	;RP1=0, select bank1
  5545  0622  084F               	movf	(_Avrage_buffer+3)^(0+128),w
  5546  0623  1283               	bcf	3,5	;RP0=0, select bank0
  5547  0624  1303               	bcf	3,6	;RP1=0, select bank0
  5548  0625  00BD               	movwf	___lldiv@dividend+3
  5549  0626  1683               	bsf	3,5	;RP0=1, select bank1
  5550  0627  1303               	bcf	3,6	;RP1=0, select bank1
  5551  0628  084E               	movf	(_Avrage_buffer+2)^(0+128),w
  5552  0629  1283               	bcf	3,5	;RP0=0, select bank0
  5553  062A  1303               	bcf	3,6	;RP1=0, select bank0
  5554  062B  00BC               	movwf	___lldiv@dividend+2
  5555  062C  1683               	bsf	3,5	;RP0=1, select bank1
  5556  062D  1303               	bcf	3,6	;RP1=0, select bank1
  5557  062E  084D               	movf	(_Avrage_buffer+1)^(0+128),w
  5558  062F  1283               	bcf	3,5	;RP0=0, select bank0
  5559  0630  1303               	bcf	3,6	;RP1=0, select bank0
  5560  0631  00BB               	movwf	___lldiv@dividend+1
  5561  0632  1683               	bsf	3,5	;RP0=1, select bank1
  5562  0633  1303               	bcf	3,6	;RP1=0, select bank1
  5563  0634  084C               	movf	_Avrage_buffer^(0+128),w
  5564  0635  1283               	bcf	3,5	;RP0=0, select bank0
  5565  0636  1303               	bcf	3,6	;RP1=0, select bank0
  5566  0637  00BA               	movwf	___lldiv@dividend
  5567  0638  120A  158A  2798  120A  118A  	fcall	___lldiv
  5568  063D  1283               	bcf	3,5	;RP0=0, select bank0
  5569  063E  1303               	bcf	3,6	;RP1=0, select bank0
  5570  063F  0836               	movf	?___lldiv,w
  5571  0640  00FF               	movwf	btemp+1
  5572  0641  1683               	bsf	3,5	;RP0=1, select bank1
  5573  0642  1303               	bcf	3,6	;RP1=0, select bank1
  5574  0643  0853               	movf	Average_Value@Avrage_Values^(0+128),w
  5575  0644  0084               	movwf	4
  5576  0645  087F               	movf	btemp+1,w
  5577  0646  1383               	bcf	3,7	;select IRP bank0
  5578  0647  0080               	movwf	0
  5579  0648                     l81:
  5580  0648  0008               	return
  5581  0649                     __end_of_Average_Value:
  5582                           
  5583                           	psect	text22
  5584  0B87                     __ptext22:	
  5585 ;; *************** function ___lwmod *****************
  5586 ;; Defined at:
  5587 ;;		line 5 in file "C:\Program Files (x86)\Microchip\xc8\v2.20\pic\sources\c90\common\lwmod.c"
  5588 ;; Parameters:    Size  Location     Type
  5589 ;;  divisor         2   22[BANK0 ] unsigned int 
  5590 ;;  dividend        2   24[BANK0 ] unsigned int 
  5591 ;; Auto vars:     Size  Location     Type
  5592 ;;  counter         1   26[BANK0 ] unsigned char 
  5593 ;; Return value:  Size  Location     Type
  5594 ;;                  2   22[BANK0 ] unsigned int 
  5595 ;; Registers used:
  5596 ;;		wreg, status,2, status,0, btemp+1
  5597 ;; Tracked objects:
  5598 ;;		On entry : 0/0
  5599 ;;		On exit  : 0/0
  5600 ;;		Unchanged: 0/0
  5601 ;; Data sizes:     COMMON   BANK0   BANK1   BANK3   BANK2
  5602 ;;      Params:         0       4       0       0       0
  5603 ;;      Locals:         0       1       0       0       0
  5604 ;;      Temps:          0       0       0       0       0
  5605 ;;      Totals:         0       5       0       0       0
  5606 ;;Total ram usage:        5 bytes
  5607 ;; Hardware stack levels used:    1
  5608 ;; Hardware stack levels required when called:    4
  5609 ;; This function calls:
  5610 ;;		Nothing
  5611 ;; This function is called by:
  5612 ;;		_Average_Value
  5613 ;;		_Temperature_Calc
  5614 ;; This function uses a non-reentrant model
  5615 ;;
  5616                           
  5617                           
  5618                           ;psect for function ___lwmod
  5619  0B87                     ___lwmod:
  5620  0B87                     l3085:	
  5621                           ;incstack = 0
  5622 ;; hardware stack exceeded
  5623                           ; Regs used in ___lwmod: [wreg+status,2+status,0+btemp+1]
  5624                           
  5625  0B87  1283               	bcf	3,5	;RP0=0, select bank0
  5626  0B88  1303               	bcf	3,6	;RP1=0, select bank0
  5627  0B89  0836               	movf	___lwmod@divisor,w
  5628  0B8A  0437               	iorwf	___lwmod@divisor+1,w
  5629  0B8B  1903               	btfsc	3,2
  5630  0B8C  2B8E               	goto	u3921
  5631  0B8D  2B8F               	goto	u3920
  5632  0B8E                     u3921:
  5633  0B8E  2BBE               	goto	l3103
  5634  0B8F                     u3920:
  5635  0B8F                     l3087:
  5636  0B8F  01BA               	clrf	___lwmod@counter
  5637  0B90  0ABA               	incf	___lwmod@counter,f
  5638  0B91  2B9D               	goto	l3093
  5639  0B92                     l3089:
  5640  0B92  3001               	movlw	1
  5641  0B93                     u3935:
  5642  0B93  1003               	clrc
  5643  0B94  0DB6               	rlf	___lwmod@divisor,f
  5644  0B95  0DB7               	rlf	___lwmod@divisor+1,f
  5645  0B96  3EFF               	addlw	-1
  5646  0B97  1D03               	skipz
  5647  0B98  2B93               	goto	u3935
  5648  0B99                     l3091:
  5649  0B99  3001               	movlw	1
  5650  0B9A  00FF               	movwf	btemp+1
  5651  0B9B  087F               	movf	btemp+1,w
  5652  0B9C  07BA               	addwf	___lwmod@counter,f
  5653  0B9D                     l3093:
  5654  0B9D  1FB7               	btfss	___lwmod@divisor+1,7
  5655  0B9E  2BA0               	goto	u3941
  5656  0B9F  2BA1               	goto	u3940
  5657  0BA0                     u3941:
  5658  0BA0  2B92               	goto	l3089
  5659  0BA1                     u3940:
  5660  0BA1                     l3095:
  5661  0BA1  0837               	movf	___lwmod@divisor+1,w
  5662  0BA2  0239               	subwf	___lwmod@dividend+1,w
  5663  0BA3  1D03               	skipz
  5664  0BA4  2BA7               	goto	u3955
  5665  0BA5  0836               	movf	___lwmod@divisor,w
  5666  0BA6  0238               	subwf	___lwmod@dividend,w
  5667  0BA7                     u3955:
  5668  0BA7  1C03               	skipc
  5669  0BA8  2BAA               	goto	u3951
  5670  0BA9  2BAB               	goto	u3950
  5671  0BAA                     u3951:
  5672  0BAA  2BB1               	goto	l3099
  5673  0BAB                     u3950:
  5674  0BAB                     l3097:
  5675  0BAB  0836               	movf	___lwmod@divisor,w
  5676  0BAC  02B8               	subwf	___lwmod@dividend,f
  5677  0BAD  0837               	movf	___lwmod@divisor+1,w
  5678  0BAE  1C03               	skipc
  5679  0BAF  03B9               	decf	___lwmod@dividend+1,f
  5680  0BB0  02B9               	subwf	___lwmod@dividend+1,f
  5681  0BB1                     l3099:
  5682  0BB1  3001               	movlw	1
  5683  0BB2                     u3965:
  5684  0BB2  1003               	clrc
  5685  0BB3  0CB7               	rrf	___lwmod@divisor+1,f
  5686  0BB4  0CB6               	rrf	___lwmod@divisor,f
  5687  0BB5  3EFF               	addlw	-1
  5688  0BB6  1D03               	skipz
  5689  0BB7  2BB2               	goto	u3965
  5690  0BB8                     l3101:
  5691  0BB8  3001               	movlw	1
  5692  0BB9  02BA               	subwf	___lwmod@counter,f
  5693  0BBA  1D03               	btfss	3,2
  5694  0BBB  2BBD               	goto	u3971
  5695  0BBC  2BBE               	goto	u3970
  5696  0BBD                     u3971:
  5697  0BBD  2BA1               	goto	l3095
  5698  0BBE                     u3970:
  5699  0BBE                     l3103:
  5700  0BBE  0839               	movf	___lwmod@dividend+1,w
  5701  0BBF  00B7               	movwf	?___lwmod+1
  5702  0BC0  0838               	movf	___lwmod@dividend,w
  5703  0BC1  00B6               	movwf	?___lwmod
  5704  0BC2                     l845:
  5705  0BC2  0008               	return
  5706  0BC3                     __end_of___lwmod:
  5707                           
  5708                           	psect	text23
  5709  0F98                     __ptext23:	
  5710 ;; *************** function ___lldiv *****************
  5711 ;; Defined at:
  5712 ;;		line 5 in file "C:\Program Files (x86)\Microchip\xc8\v2.20\pic\sources\c90\common\__lldiv.c"
  5713 ;; Parameters:    Size  Location     Type
  5714 ;;  divisor         4   22[BANK0 ] unsigned long 
  5715 ;;  dividend        4   26[BANK0 ] unsigned long 
  5716 ;; Auto vars:     Size  Location     Type
  5717 ;;  quotient        4   31[BANK0 ] unsigned long 
  5718 ;;  counter         1   35[BANK0 ] unsigned char 
  5719 ;; Return value:  Size  Location     Type
  5720 ;;                  4   22[BANK0 ] unsigned long 
  5721 ;; Registers used:
  5722 ;;		wreg, status,2, status,0, btemp+1
  5723 ;; Tracked objects:
  5724 ;;		On entry : 0/0
  5725 ;;		On exit  : 0/0
  5726 ;;		Unchanged: 0/0
  5727 ;; Data sizes:     COMMON   BANK0   BANK1   BANK3   BANK2
  5728 ;;      Params:         0       8       0       0       0
  5729 ;;      Locals:         0       5       0       0       0
  5730 ;;      Temps:          0       1       0       0       0
  5731 ;;      Totals:         0      14       0       0       0
  5732 ;;Total ram usage:       14 bytes
  5733 ;; Hardware stack levels used:    1
  5734 ;; Hardware stack levels required when called:    4
  5735 ;; This function calls:
  5736 ;;		Nothing
  5737 ;; This function is called by:
  5738 ;;		_Average_Value
  5739 ;; This function uses a non-reentrant model
  5740 ;;
  5741                           
  5742                           
  5743                           ;psect for function ___lldiv
  5744  0F98                     ___lldiv:
  5745  0F98                     l3059:	
  5746                           ;incstack = 0
  5747 ;; hardware stack exceeded
  5748                           ; Regs used in ___lldiv: [wreg+status,2+status,0+btemp+1]
  5749                           
  5750  0F98  3000               	movlw	0
  5751  0F99  1283               	bcf	3,5	;RP0=0, select bank0
  5752  0F9A  1303               	bcf	3,6	;RP1=0, select bank0
  5753  0F9B  00C2               	movwf	___lldiv@quotient+3
  5754  0F9C  3000               	movlw	0
  5755  0F9D  00C1               	movwf	___lldiv@quotient+2
  5756  0F9E  3000               	movlw	0
  5757  0F9F  00C0               	movwf	___lldiv@quotient+1
  5758  0FA0  3000               	movlw	0
  5759  0FA1  00BF               	movwf	___lldiv@quotient
  5760  0FA2  0839               	movf	___lldiv@divisor+3,w
  5761  0FA3  0438               	iorwf	___lldiv@divisor+2,w
  5762  0FA4  0437               	iorwf	___lldiv@divisor+1,w
  5763  0FA5  0436               	iorwf	___lldiv@divisor,w
  5764  0FA6  1903               	skipnz
  5765  0FA7  2FA9               	goto	u3851
  5766  0FA8  2FAA               	goto	u3850
  5767  0FA9                     u3851:
  5768  0FA9  2FF7               	goto	l3081
  5769  0FAA                     u3850:
  5770  0FAA                     l3061:
  5771  0FAA  01C3               	clrf	___lldiv@counter
  5772  0FAB  0AC3               	incf	___lldiv@counter,f
  5773  0FAC  2FBA               	goto	l3067
  5774  0FAD                     l3063:
  5775  0FAD  3001               	movlw	1
  5776  0FAE  00BE               	movwf	??___lldiv
  5777  0FAF                     u3865:
  5778  0FAF  1003               	clrc
  5779  0FB0  0DB6               	rlf	___lldiv@divisor,f
  5780  0FB1  0DB7               	rlf	___lldiv@divisor+1,f
  5781  0FB2  0DB8               	rlf	___lldiv@divisor+2,f
  5782  0FB3  0DB9               	rlf	___lldiv@divisor+3,f
  5783  0FB4  0BBE               	decfsz	??___lldiv,f
  5784  0FB5  2FAF               	goto	u3865
  5785  0FB6                     l3065:
  5786  0FB6  3001               	movlw	1
  5787  0FB7  00FF               	movwf	btemp+1
  5788  0FB8  087F               	movf	btemp+1,w
  5789  0FB9  07C3               	addwf	___lldiv@counter,f
  5790  0FBA                     l3067:
  5791  0FBA  1FB9               	btfss	___lldiv@divisor+3,7
  5792  0FBB  2FBD               	goto	u3871
  5793  0FBC  2FBE               	goto	u3870
  5794  0FBD                     u3871:
  5795  0FBD  2FAD               	goto	l3063
  5796  0FBE                     u3870:
  5797  0FBE                     l3069:
  5798  0FBE  3001               	movlw	1
  5799  0FBF  00BE               	movwf	??___lldiv
  5800  0FC0                     u3885:
  5801  0FC0  1003               	clrc
  5802  0FC1  0DBF               	rlf	___lldiv@quotient,f
  5803  0FC2  0DC0               	rlf	___lldiv@quotient+1,f
  5804  0FC3  0DC1               	rlf	___lldiv@quotient+2,f
  5805  0FC4  0DC2               	rlf	___lldiv@quotient+3,f
  5806  0FC5  0BBE               	decfsz	??___lldiv,f
  5807  0FC6  2FC0               	goto	u3885
  5808  0FC7                     l3071:
  5809  0FC7  0839               	movf	___lldiv@divisor+3,w
  5810  0FC8  023D               	subwf	___lldiv@dividend+3,w
  5811  0FC9  1D03               	skipz
  5812  0FCA  2FD5               	goto	u3895
  5813  0FCB  0838               	movf	___lldiv@divisor+2,w
  5814  0FCC  023C               	subwf	___lldiv@dividend+2,w
  5815  0FCD  1D03               	skipz
  5816  0FCE  2FD5               	goto	u3895
  5817  0FCF  0837               	movf	___lldiv@divisor+1,w
  5818  0FD0  023B               	subwf	___lldiv@dividend+1,w
  5819  0FD1  1D03               	skipz
  5820  0FD2  2FD5               	goto	u3895
  5821  0FD3  0836               	movf	___lldiv@divisor,w
  5822  0FD4  023A               	subwf	___lldiv@dividend,w
  5823  0FD5                     u3895:
  5824  0FD5  1C03               	skipc
  5825  0FD6  2FD8               	goto	u3891
  5826  0FD7  2FD9               	goto	u3890
  5827  0FD8                     u3891:
  5828  0FD8  2FE8               	goto	l3077
  5829  0FD9                     u3890:
  5830  0FD9                     l3073:
  5831  0FD9  0836               	movf	___lldiv@divisor,w
  5832  0FDA  02BA               	subwf	___lldiv@dividend,f
  5833  0FDB  0837               	movf	___lldiv@divisor+1,w
  5834  0FDC  1C03               	skipc
  5835  0FDD  0F37               	incfsz	___lldiv@divisor+1,w
  5836  0FDE  02BB               	subwf	___lldiv@dividend+1,f
  5837  0FDF  0838               	movf	___lldiv@divisor+2,w
  5838  0FE0  1C03               	skipc
  5839  0FE1  0F38               	incfsz	___lldiv@divisor+2,w
  5840  0FE2  02BC               	subwf	___lldiv@dividend+2,f
  5841  0FE3  0839               	movf	___lldiv@divisor+3,w
  5842  0FE4  1C03               	skipc
  5843  0FE5  0F39               	incfsz	___lldiv@divisor+3,w
  5844  0FE6  02BD               	subwf	___lldiv@dividend+3,f
  5845  0FE7                     l3075:
  5846  0FE7  143F               	bsf	___lldiv@quotient,0
  5847  0FE8                     l3077:
  5848  0FE8  3001               	movlw	1
  5849  0FE9                     u3905:
  5850  0FE9  1003               	clrc
  5851  0FEA  0CB9               	rrf	___lldiv@divisor+3,f
  5852  0FEB  0CB8               	rrf	___lldiv@divisor+2,f
  5853  0FEC  0CB7               	rrf	___lldiv@divisor+1,f
  5854  0FED  0CB6               	rrf	___lldiv@divisor,f
  5855  0FEE  3EFF               	addlw	-1
  5856  0FEF  1D03               	skipz
  5857  0FF0  2FE9               	goto	u3905
  5858  0FF1                     l3079:
  5859  0FF1  3001               	movlw	1
  5860  0FF2  02C3               	subwf	___lldiv@counter,f
  5861  0FF3  1D03               	btfss	3,2
  5862  0FF4  2FF6               	goto	u3911
  5863  0FF5  2FF7               	goto	u3910
  5864  0FF6                     u3911:
  5865  0FF6  2FBE               	goto	l3069
  5866  0FF7                     u3910:
  5867  0FF7                     l3081:
  5868  0FF7  0842               	movf	___lldiv@quotient+3,w
  5869  0FF8  00B9               	movwf	?___lldiv+3
  5870  0FF9  0841               	movf	___lldiv@quotient+2,w
  5871  0FFA  00B8               	movwf	?___lldiv+2
  5872  0FFB  0840               	movf	___lldiv@quotient+1,w
  5873  0FFC  00B7               	movwf	?___lldiv+1
  5874  0FFD  083F               	movf	___lldiv@quotient,w
  5875  0FFE  00B6               	movwf	?___lldiv
  5876  0FFF                     l599:
  5877  0FFF  0008               	return
  5878  1000                     __end_of___lldiv:
  5879                           
  5880                           	psect	text24
  5881  040C                     __ptext24:	
  5882 ;; *************** function _Display_MainFunction *****************
  5883 ;; Defined at:
  5884 ;;		line 24 in file "Display/Display.c"
  5885 ;; Parameters:    Size  Location     Type
  5886 ;;		None
  5887 ;; Auto vars:     Size  Location     Type
  5888 ;;		None
  5889 ;; Return value:  Size  Location     Type
  5890 ;;                  1    wreg      void 
  5891 ;; Registers used:
  5892 ;;		wreg, fsr0l, fsr0h, status,2, status,0, btemp+1, pclath, cstack
  5893 ;; Tracked objects:
  5894 ;;		On entry : 0/0
  5895 ;;		On exit  : 0/0
  5896 ;;		Unchanged: 0/0
  5897 ;; Data sizes:     COMMON   BANK0   BANK1   BANK3   BANK2
  5898 ;;      Params:         0       0       0       0       0
  5899 ;;      Locals:         0       0       0       0       0
  5900 ;;      Temps:          0       2       0       0       0
  5901 ;;      Totals:         0       2       0       0       0
  5902 ;;Total ram usage:        2 bytes
  5903 ;; Hardware stack levels used:    1
  5904 ;; Hardware stack levels required when called:    6
  5905 ;; This function calls:
  5906 ;;		_Display_Blink
  5907 ;;		___awdiv
  5908 ;;		___awmod
  5909 ;; This function is called by:
  5910 ;;		_Scheduler_Task1
  5911 ;; This function uses a non-reentrant model
  5912 ;;
  5913                           
  5914                           
  5915                           ;psect for function _Display_MainFunction
  5916  040C                     _Display_MainFunction:
  5917  040C                     l3633:	
  5918                           ;incstack = 0
  5919 ;; hardware stack exceeded
  5920                           ; Regs used in _Display_MainFunction: [wreg-fsr0h+status,2+status,0+btemp+1+pclath+cstac
      +                          k]
  5921                           
  5922                           
  5923                           ;Display/Display.c: 26:  static uint8_t Digit_1=0;;Display/Display.c: 27:  static uint8_
      +                          t Digit_2=0;;Display/Display.c: 28:  static uint8_t Tempreture=0;;Display/Display.c: 29:
      +                            static uint8_t Display=0;;Display/Display.c: 30:  static uint8_t Enable_Digit_Selector
      +                          =1;;Display/Display.c: 33:   if(Mode.Select_Mode==Normal_Mode)
  5924  040C  1283               	bcf	3,5	;RP0=0, select bank0
  5925  040D  1303               	bcf	3,6	;RP1=0, select bank0
  5926  040E  0344               	decf	_Mode,w
  5927  040F  1D03               	btfss	3,2
  5928  0410  2C12               	goto	u5111
  5929  0411  2C13               	goto	u5110
  5930  0412                     u5111:
  5931  0412  2C1A               	goto	l3639
  5932  0413                     u5110:
  5933  0413                     l3635:
  5934                           
  5935                           ;Display/Display.c: 34:   {;Display/Display.c: 35:    Tempreture=Temperature.Average_Val
      +                          ue;
  5936  0413  0852               	movf	_Temperature+1,w
  5937  0414  00FF               	movwf	btemp+1
  5938  0415  087F               	movf	btemp+1,w
  5939  0416  00CB               	movwf	Display_MainFunction@Tempreture
  5940  0417                     l3637:
  5941                           
  5942                           ;Display/Display.c: 36:    Enable_Display=Enable_Display_On;
  5943  0417  01CF               	clrf	_Enable_Display
  5944  0418  0ACF               	incf	_Enable_Display,f
  5945                           
  5946                           ;Display/Display.c: 37:   }
  5947  0419  2C33               	goto	l3649
  5948  041A                     l3639:
  5949  041A  3002               	movlw	2
  5950  041B  0644               	xorwf	_Mode,w
  5951  041C  1D03               	btfss	3,2
  5952  041D  2C1F               	goto	u5121
  5953  041E  2C20               	goto	u5120
  5954  041F                     u5121:
  5955  041F  2C25               	goto	l3643
  5956  0420                     u5120:
  5957  0420                     l3641:
  5958                           
  5959                           ;Display/Display.c: 39:   {;Display/Display.c: 40:    Tempreture=Temperature.Set_Temp;
  5960  0420  0853               	movf	_Temperature+2,w
  5961  0421  00FF               	movwf	btemp+1
  5962  0422  087F               	movf	btemp+1,w
  5963  0423  00CB               	movwf	Display_MainFunction@Tempreture
  5964                           
  5965                           ;Display/Display.c: 41:   }
  5966  0424  2C33               	goto	l3649
  5967  0425                     l3643:
  5968  0425  0844               	movf	_Mode,w
  5969  0426  1D03               	btfss	3,2
  5970  0427  2C29               	goto	u5131
  5971  0428  2C2A               	goto	u5130
  5972  0429                     u5131:
  5973  0429  2C33               	goto	l3649
  5974  042A                     u5130:
  5975  042A                     l3645:
  5976                           
  5977                           ;Display/Display.c: 43:   {;Display/Display.c: 44:   (PORTA &= ~(1<<5)) ;
  5978  042A  30DF               	movlw	223
  5979  042B  00FF               	movwf	btemp+1
  5980  042C  087F               	movf	btemp+1,w
  5981  042D  0585               	andwf	5,f	;volatile
  5982                           
  5983                           ;Display/Display.c: 45:   (PORTA &= ~(1<<4)) ;
  5984  042E  30EF               	movlw	239
  5985  042F  00FF               	movwf	btemp+1
  5986  0430  087F               	movf	btemp+1,w
  5987  0431  0585               	andwf	5,f	;volatile
  5988  0432                     l3647:
  5989                           
  5990                           ;Display/Display.c: 46:      PORTD=0;
  5991  0432  0188               	clrf	8	;volatile
  5992  0433                     l3649:
  5993                           
  5994                           ;Display/Display.c: 50:  if(Mode.Select_Mode!=Off_Mode)
  5995  0433  0844               	movf	_Mode,w
  5996  0434  1903               	btfsc	3,2
  5997  0435  2C37               	goto	u5141
  5998  0436  2C38               	goto	u5140
  5999  0437                     u5141:
  6000  0437  2CE4               	goto	l157
  6001  0438                     u5140:
  6002  0438                     l3651:
  6003                           
  6004                           ;Display/Display.c: 51:  {;Display/Display.c: 52:   if(Enable_Display==Enable_Display_On
      +                          )
  6005  0438  034F               	decf	_Enable_Display,w
  6006  0439  1D03               	btfss	3,2
  6007  043A  2C3C               	goto	u5151
  6008  043B  2C3D               	goto	u5150
  6009  043C                     u5151:
  6010  043C  2CD1               	goto	l3697
  6011  043D                     u5150:
  6012  043D                     l3653:
  6013                           
  6014                           ;Display/Display.c: 53:   {;Display/Display.c: 54:          Digit_1=Tempreture%10;
  6015  043D  300A               	movlw	10
  6016  043E  00B6               	movwf	___awmod@divisor
  6017  043F  3000               	movlw	0
  6018  0440  00B7               	movwf	___awmod@divisor+1
  6019  0441  084B               	movf	Display_MainFunction@Tempreture,w
  6020  0442  00C2               	movwf	??_Display_MainFunction
  6021  0443  01C3               	clrf	??_Display_MainFunction+1
  6022  0444  0842               	movf	??_Display_MainFunction,w
  6023  0445  00B8               	movwf	___awmod@dividend
  6024  0446  0843               	movf	??_Display_MainFunction+1,w
  6025  0447  00B9               	movwf	___awmod@dividend+1
  6026  0448  120A  158A  2553  120A  118A  	fcall	___awmod
  6027  044D  1283               	bcf	3,5	;RP0=0, select bank0
  6028  044E  1303               	bcf	3,6	;RP1=0, select bank0
  6029  044F  0836               	movf	?___awmod,w
  6030  0450  00FF               	movwf	btemp+1
  6031  0451  087F               	movf	btemp+1,w
  6032  0452  00CD               	movwf	Display_MainFunction@Digit_1
  6033                           
  6034                           ;Display/Display.c: 55:          Digit_2=Tempreture/10;
  6035  0453  300A               	movlw	10
  6036  0454  00B6               	movwf	___awdiv@divisor
  6037  0455  3000               	movlw	0
  6038  0456  00B7               	movwf	___awdiv@divisor+1
  6039  0457  084B               	movf	Display_MainFunction@Tempreture,w
  6040  0458  00C2               	movwf	??_Display_MainFunction
  6041  0459  01C3               	clrf	??_Display_MainFunction+1
  6042  045A  0842               	movf	??_Display_MainFunction,w
  6043  045B  00B8               	movwf	___awdiv@dividend
  6044  045C  0843               	movf	??_Display_MainFunction+1,w
  6045  045D  00B9               	movwf	___awdiv@dividend+1
  6046  045E  120A  118A  2779  120A  118A  	fcall	___awdiv
  6047  0463  1283               	bcf	3,5	;RP0=0, select bank0
  6048  0464  1303               	bcf	3,6	;RP1=0, select bank0
  6049  0465  0836               	movf	?___awdiv,w
  6050  0466  00FF               	movwf	btemp+1
  6051  0467  087F               	movf	btemp+1,w
  6052  0468  00CC               	movwf	Display_MainFunction@Digit_2
  6053  0469                     l3655:
  6054                           
  6055                           ;Display/Display.c: 57:          Enable_Digit_Selector^=1;
  6056  0469  3001               	movlw	1
  6057  046A  00FF               	movwf	btemp+1
  6058  046B  087F               	movf	btemp+1,w
  6059  046C  06D8               	xorwf	Display_MainFunction@Enable_Digit_Selector,f
  6060  046D                     l3657:
  6061                           
  6062                           ;Display/Display.c: 59:          if(Enable_Digit_Selector==0)
  6063  046D  0858               	movf	Display_MainFunction@Enable_Digit_Selector,w
  6064  046E  1D03               	btfss	3,2
  6065  046F  2C71               	goto	u5161
  6066  0470  2C72               	goto	u5160
  6067  0471                     u5161:
  6068  0471  2C7C               	goto	l3665
  6069  0472                     u5160:
  6070  0472                     l3659:
  6071                           
  6072                           ;Display/Display.c: 60:          {;Display/Display.c: 61:           Display=Digit_1;
  6073  0472  084D               	movf	Display_MainFunction@Digit_1,w
  6074  0473  00FF               	movwf	btemp+1
  6075  0474  087F               	movf	btemp+1,w
  6076  0475  00CA               	movwf	Display_MainFunction@Display
  6077  0476                     l3661:
  6078                           
  6079                           ;Display/Display.c: 62:            (PORTA &= ~(1<<4));
  6080  0476  30EF               	movlw	239
  6081  0477  00FF               	movwf	btemp+1
  6082  0478  087F               	movf	btemp+1,w
  6083  0479  0585               	andwf	5,f	;volatile
  6084  047A                     l3663:
  6085                           
  6086                           ;Display/Display.c: 63:            (PORTA|= (1<<5)) ;
  6087  047A  1685               	bsf	5,5	;volatile
  6088                           
  6089                           ;Display/Display.c: 65:          }
  6090  047B  2CA9               	goto	l3695
  6091  047C                     l3665:
  6092  047C  0358               	decf	Display_MainFunction@Enable_Digit_Selector,w
  6093  047D  1D03               	btfss	3,2
  6094  047E  2C80               	goto	u5171
  6095  047F  2C81               	goto	u5170
  6096  0480                     u5171:
  6097  0480  2CA9               	goto	l3695
  6098  0481                     u5170:
  6099  0481                     l3667:
  6100                           
  6101                           ;Display/Display.c: 67:          {;Display/Display.c: 68:           Display=Digit_2;
  6102  0481  084C               	movf	Display_MainFunction@Digit_2,w
  6103  0482  00FF               	movwf	btemp+1
  6104  0483  087F               	movf	btemp+1,w
  6105  0484  00CA               	movwf	Display_MainFunction@Display
  6106  0485                     l3669:
  6107                           
  6108                           ;Display/Display.c: 69:           (PORTA &= ~(1<<5));
  6109  0485  30DF               	movlw	223
  6110  0486  00FF               	movwf	btemp+1
  6111  0487  087F               	movf	btemp+1,w
  6112  0488  0585               	andwf	5,f	;volatile
  6113  0489                     l3671:
  6114                           
  6115                           ;Display/Display.c: 70:           (PORTA|= (1<<4));
  6116  0489  1605               	bsf	5,4	;volatile
  6117  048A  2CA9               	goto	l3695
  6118  048B                     l3673:
  6119                           
  6120                           ;Display/Display.c: 79:              PORTD=0b00111111;
  6121  048B  303F               	movlw	63
  6122  048C  0088               	movwf	8	;volatile
  6123                           
  6124                           ;Display/Display.c: 80:              break;
  6125  048D  2CD1               	goto	l3697
  6126  048E                     l3675:
  6127                           
  6128                           ;Display/Display.c: 83:              PORTD=0b00000110;
  6129  048E  3006               	movlw	6
  6130  048F  0088               	movwf	8	;volatile
  6131                           
  6132                           ;Display/Display.c: 84:              break;
  6133  0490  2CD1               	goto	l3697
  6134  0491                     l3677:
  6135                           
  6136                           ;Display/Display.c: 87:              PORTD=0b01011011;
  6137  0491  305B               	movlw	91
  6138  0492  0088               	movwf	8	;volatile
  6139                           
  6140                           ;Display/Display.c: 88:              break;
  6141  0493  2CD1               	goto	l3697
  6142  0494                     l3679:
  6143                           
  6144                           ;Display/Display.c: 91:              PORTD=0b01001111;
  6145  0494  304F               	movlw	79
  6146  0495  0088               	movwf	8	;volatile
  6147                           
  6148                           ;Display/Display.c: 92:              break;
  6149  0496  2CD1               	goto	l3697
  6150  0497                     l3681:
  6151                           
  6152                           ;Display/Display.c: 95:              PORTD=0b01100110;
  6153  0497  3066               	movlw	102
  6154  0498  0088               	movwf	8	;volatile
  6155                           
  6156                           ;Display/Display.c: 96:              break;
  6157  0499  2CD1               	goto	l3697
  6158  049A                     l3683:
  6159                           
  6160                           ;Display/Display.c: 99:              PORTD=0b01101101;
  6161  049A  306D               	movlw	109
  6162  049B  0088               	movwf	8	;volatile
  6163                           
  6164                           ;Display/Display.c: 100:              break;
  6165  049C  2CD1               	goto	l3697
  6166  049D                     l3685:
  6167                           
  6168                           ;Display/Display.c: 103:              PORTD=0b01111101;
  6169  049D  307D               	movlw	125
  6170  049E  0088               	movwf	8	;volatile
  6171                           
  6172                           ;Display/Display.c: 104:              break;
  6173  049F  2CD1               	goto	l3697
  6174  04A0                     l3687:
  6175                           
  6176                           ;Display/Display.c: 107:              PORTD=0b00000111;
  6177  04A0  3007               	movlw	7
  6178  04A1  0088               	movwf	8	;volatile
  6179                           
  6180                           ;Display/Display.c: 108:              break;
  6181  04A2  2CD1               	goto	l3697
  6182  04A3                     l3689:
  6183                           
  6184                           ;Display/Display.c: 111:              PORTD=0b01111111;
  6185  04A3  307F               	movlw	127
  6186  04A4  0088               	movwf	8	;volatile
  6187                           
  6188                           ;Display/Display.c: 112:              break;
  6189  04A5  2CD1               	goto	l3697
  6190  04A6                     l3691:
  6191                           
  6192                           ;Display/Display.c: 115:              PORTD=0b01101111;
  6193  04A6  306F               	movlw	111
  6194  04A7  0088               	movwf	8	;volatile
  6195                           
  6196                           ;Display/Display.c: 116:              break;
  6197  04A8  2CD1               	goto	l3697
  6198  04A9                     l3695:
  6199  04A9  084A               	movf	Display_MainFunction@Display,w
  6200  04AA  00C2               	movwf	??_Display_MainFunction
  6201  04AB  01C3               	clrf	??_Display_MainFunction+1
  6202                           
  6203                           ; Switch on 2 bytes has been partitioned into a top level switch of size 1, and 1 sub-sw
      +                          itches
  6204                           ; Switch size 1, requested type "simple"
  6205                           ; Number of cases is 1, Range of values is 0 to 0
  6206                           ; switch strategies available:
  6207                           ; Name         Instructions Cycles
  6208                           ; simple_byte            4     3 (average)
  6209                           ; direct_byte           11     8 (fixed)
  6210                           ; jumptable            260     6 (fixed)
  6211                           ;	Chosen strategy is simple_byte
  6212  04AC  0843               	movf	??_Display_MainFunction+1,w
  6213  04AD  3A00               	xorlw	0	; case 0
  6214  04AE  1903               	skipnz
  6215  04AF  2CB1               	goto	l3929
  6216  04B0  2CD1               	goto	l3697
  6217  04B1                     l3929:
  6218                           
  6219                           ; Switch size 1, requested type "simple"
  6220                           ; Number of cases is 10, Range of values is 0 to 9
  6221                           ; switch strategies available:
  6222                           ; Name         Instructions Cycles
  6223                           ; simple_byte           31    16 (average)
  6224                           ; direct_byte           38     8 (fixed)
  6225                           ; jumptable            260     6 (fixed)
  6226                           ;	Chosen strategy is simple_byte
  6227  04B1  0842               	movf	??_Display_MainFunction,w
  6228  04B2  3A00               	xorlw	0	; case 0
  6229  04B3  1903               	skipnz
  6230  04B4  2C8B               	goto	l3673
  6231  04B5  3A01               	xorlw	1	; case 1
  6232  04B6  1903               	skipnz
  6233  04B7  2C8E               	goto	l3675
  6234  04B8  3A03               	xorlw	3	; case 2
  6235  04B9  1903               	skipnz
  6236  04BA  2C91               	goto	l3677
  6237  04BB  3A01               	xorlw	1	; case 3
  6238  04BC  1903               	skipnz
  6239  04BD  2C94               	goto	l3679
  6240  04BE  3A07               	xorlw	7	; case 4
  6241  04BF  1903               	skipnz
  6242  04C0  2C97               	goto	l3681
  6243  04C1  3A01               	xorlw	1	; case 5
  6244  04C2  1903               	skipnz
  6245  04C3  2C9A               	goto	l3683
  6246  04C4  3A03               	xorlw	3	; case 6
  6247  04C5  1903               	skipnz
  6248  04C6  2C9D               	goto	l3685
  6249  04C7  3A01               	xorlw	1	; case 7
  6250  04C8  1903               	skipnz
  6251  04C9  2CA0               	goto	l3687
  6252  04CA  3A0F               	xorlw	15	; case 8
  6253  04CB  1903               	skipnz
  6254  04CC  2CA3               	goto	l3689
  6255  04CD  3A01               	xorlw	1	; case 9
  6256  04CE  1903               	skipnz
  6257  04CF  2CA6               	goto	l3691
  6258  04D0  2CD1               	goto	l3697
  6259  04D1                     l3697:
  6260                           
  6261                           ;Display/Display.c: 121:   if(Mode.Select_Mode==Setting_Mode)
  6262  04D1  3002               	movlw	2
  6263  04D2  0644               	xorwf	_Mode,w
  6264  04D3  1D03               	btfss	3,2
  6265  04D4  2CD6               	goto	u5181
  6266  04D5  2CD7               	goto	u5180
  6267  04D6                     u5181:
  6268  04D6  2CE4               	goto	l157
  6269  04D7                     u5180:
  6270  04D7                     l3699:
  6271                           
  6272                           ;Display/Display.c: 122:   {;Display/Display.c: 123:    Display_Blink(1000,20);
  6273  04D7  30E8               	movlw	232
  6274  04D8  00BC               	movwf	Display_Blink@Times_Ms
  6275  04D9  3003               	movlw	3
  6276  04DA  00BD               	movwf	Display_Blink@Times_Ms+1
  6277  04DB  3014               	movlw	20
  6278  04DC  00BE               	movwf	Display_Blink@Task_Peroid
  6279  04DD  3000               	movlw	0
  6280  04DE  00BF               	movwf	Display_Blink@Task_Peroid+1
  6281  04DF  120A  158A  234C  120A  118A  	fcall	_Display_Blink
  6282  04E4                     l157:
  6283  04E4  0008               	return
  6284  04E5                     __end_of_Display_MainFunction:
  6285                           
  6286                           	psect	text25
  6287  0D53                     __ptext25:	
  6288 ;; *************** function ___awmod *****************
  6289 ;; Defined at:
  6290 ;;		line 5 in file "C:\Program Files (x86)\Microchip\xc8\v2.20\pic\sources\c90\common\awmod.c"
  6291 ;; Parameters:    Size  Location     Type
  6292 ;;  divisor         2   22[BANK0 ] int 
  6293 ;;  dividend        2   24[BANK0 ] int 
  6294 ;; Auto vars:     Size  Location     Type
  6295 ;;  sign            1   27[BANK0 ] unsigned char 
  6296 ;;  counter         1   26[BANK0 ] unsigned char 
  6297 ;; Return value:  Size  Location     Type
  6298 ;;                  2   22[BANK0 ] int 
  6299 ;; Registers used:
  6300 ;;		wreg, status,2, status,0, btemp+1
  6301 ;; Tracked objects:
  6302 ;;		On entry : 0/0
  6303 ;;		On exit  : 0/0
  6304 ;;		Unchanged: 0/0
  6305 ;; Data sizes:     COMMON   BANK0   BANK1   BANK3   BANK2
  6306 ;;      Params:         0       4       0       0       0
  6307 ;;      Locals:         0       2       0       0       0
  6308 ;;      Temps:          0       0       0       0       0
  6309 ;;      Totals:         0       6       0       0       0
  6310 ;;Total ram usage:        6 bytes
  6311 ;; Hardware stack levels used:    1
  6312 ;; Hardware stack levels required when called:    4
  6313 ;; This function calls:
  6314 ;;		Nothing
  6315 ;; This function is called by:
  6316 ;;		_Display_MainFunction
  6317 ;; This function uses a non-reentrant model
  6318 ;;
  6319                           
  6320                           
  6321                           ;psect for function ___awmod
  6322  0D53                     ___awmod:
  6323  0D53                     l3583:	
  6324                           ;incstack = 0
  6325                           ; Regs used in ___awmod: [wreg+status,2+status,0+btemp+1]
  6326                           
  6327  0D53  1283               	bcf	3,5	;RP0=0, select bank0
  6328  0D54  1303               	bcf	3,6	;RP1=0, select bank0
  6329  0D55  01BB               	clrf	___awmod@sign
  6330  0D56                     l3585:
  6331  0D56  1FB9               	btfss	___awmod@dividend+1,7
  6332  0D57  2D59               	goto	u4981
  6333  0D58  2D5A               	goto	u4980
  6334  0D59                     u4981:
  6335  0D59  2D61               	goto	l3591
  6336  0D5A                     u4980:
  6337  0D5A                     l3587:
  6338  0D5A  09B8               	comf	___awmod@dividend,f
  6339  0D5B  09B9               	comf	___awmod@dividend+1,f
  6340  0D5C  0AB8               	incf	___awmod@dividend,f
  6341  0D5D  1903               	skipnz
  6342  0D5E  0AB9               	incf	___awmod@dividend+1,f
  6343  0D5F                     l3589:
  6344  0D5F  01BB               	clrf	___awmod@sign
  6345  0D60  0ABB               	incf	___awmod@sign,f
  6346  0D61                     l3591:
  6347  0D61  1FB7               	btfss	___awmod@divisor+1,7
  6348  0D62  2D64               	goto	u4991
  6349  0D63  2D65               	goto	u4990
  6350  0D64                     u4991:
  6351  0D64  2D6A               	goto	l3595
  6352  0D65                     u4990:
  6353  0D65                     l3593:
  6354  0D65  09B6               	comf	___awmod@divisor,f
  6355  0D66  09B7               	comf	___awmod@divisor+1,f
  6356  0D67  0AB6               	incf	___awmod@divisor,f
  6357  0D68  1903               	skipnz
  6358  0D69  0AB7               	incf	___awmod@divisor+1,f
  6359  0D6A                     l3595:
  6360  0D6A  0836               	movf	___awmod@divisor,w
  6361  0D6B  0437               	iorwf	___awmod@divisor+1,w
  6362  0D6C  1903               	btfsc	3,2
  6363  0D6D  2D6F               	goto	u5001
  6364  0D6E  2D70               	goto	u5000
  6365  0D6F                     u5001:
  6366  0D6F  2D9F               	goto	l3613
  6367  0D70                     u5000:
  6368  0D70                     l3597:
  6369  0D70  01BA               	clrf	___awmod@counter
  6370  0D71  0ABA               	incf	___awmod@counter,f
  6371  0D72  2D7E               	goto	l3603
  6372  0D73                     l3599:
  6373  0D73  3001               	movlw	1
  6374  0D74                     u5015:
  6375  0D74  1003               	clrc
  6376  0D75  0DB6               	rlf	___awmod@divisor,f
  6377  0D76  0DB7               	rlf	___awmod@divisor+1,f
  6378  0D77  3EFF               	addlw	-1
  6379  0D78  1D03               	skipz
  6380  0D79  2D74               	goto	u5015
  6381  0D7A                     l3601:
  6382  0D7A  3001               	movlw	1
  6383  0D7B  00FF               	movwf	btemp+1
  6384  0D7C  087F               	movf	btemp+1,w
  6385  0D7D  07BA               	addwf	___awmod@counter,f
  6386  0D7E                     l3603:
  6387  0D7E  1FB7               	btfss	___awmod@divisor+1,7
  6388  0D7F  2D81               	goto	u5021
  6389  0D80  2D82               	goto	u5020
  6390  0D81                     u5021:
  6391  0D81  2D73               	goto	l3599
  6392  0D82                     u5020:
  6393  0D82                     l3605:
  6394  0D82  0837               	movf	___awmod@divisor+1,w
  6395  0D83  0239               	subwf	___awmod@dividend+1,w
  6396  0D84  1D03               	skipz
  6397  0D85  2D88               	goto	u5035
  6398  0D86  0836               	movf	___awmod@divisor,w
  6399  0D87  0238               	subwf	___awmod@dividend,w
  6400  0D88                     u5035:
  6401  0D88  1C03               	skipc
  6402  0D89  2D8B               	goto	u5031
  6403  0D8A  2D8C               	goto	u5030
  6404  0D8B                     u5031:
  6405  0D8B  2D92               	goto	l3609
  6406  0D8C                     u5030:
  6407  0D8C                     l3607:
  6408  0D8C  0836               	movf	___awmod@divisor,w
  6409  0D8D  02B8               	subwf	___awmod@dividend,f
  6410  0D8E  0837               	movf	___awmod@divisor+1,w
  6411  0D8F  1C03               	skipc
  6412  0D90  03B9               	decf	___awmod@dividend+1,f
  6413  0D91  02B9               	subwf	___awmod@dividend+1,f
  6414  0D92                     l3609:
  6415  0D92  3001               	movlw	1
  6416  0D93                     u5045:
  6417  0D93  1003               	clrc
  6418  0D94  0CB7               	rrf	___awmod@divisor+1,f
  6419  0D95  0CB6               	rrf	___awmod@divisor,f
  6420  0D96  3EFF               	addlw	-1
  6421  0D97  1D03               	skipz
  6422  0D98  2D93               	goto	u5045
  6423  0D99                     l3611:
  6424  0D99  3001               	movlw	1
  6425  0D9A  02BA               	subwf	___awmod@counter,f
  6426  0D9B  1D03               	btfss	3,2
  6427  0D9C  2D9E               	goto	u5051
  6428  0D9D  2D9F               	goto	u5050
  6429  0D9E                     u5051:
  6430  0D9E  2D82               	goto	l3605
  6431  0D9F                     u5050:
  6432  0D9F                     l3613:
  6433  0D9F  083B               	movf	___awmod@sign,w
  6434  0DA0  1903               	btfsc	3,2
  6435  0DA1  2DA3               	goto	u5061
  6436  0DA2  2DA4               	goto	u5060
  6437  0DA3                     u5061:
  6438  0DA3  2DA9               	goto	l3617
  6439  0DA4                     u5060:
  6440  0DA4                     l3615:
  6441  0DA4  09B8               	comf	___awmod@dividend,f
  6442  0DA5  09B9               	comf	___awmod@dividend+1,f
  6443  0DA6  0AB8               	incf	___awmod@dividend,f
  6444  0DA7  1903               	skipnz
  6445  0DA8  0AB9               	incf	___awmod@dividend+1,f
  6446  0DA9                     l3617:
  6447  0DA9  0839               	movf	___awmod@dividend+1,w
  6448  0DAA  00B7               	movwf	?___awmod+1
  6449  0DAB  0838               	movf	___awmod@dividend,w
  6450  0DAC  00B6               	movwf	?___awmod
  6451  0DAD                     l729:
  6452  0DAD  0008               	return
  6453  0DAE                     __end_of___awmod:
  6454                           
  6455                           	psect	text26
  6456  0779                     __ptext26:	
  6457 ;; *************** function ___awdiv *****************
  6458 ;; Defined at:
  6459 ;;		line 5 in file "C:\Program Files (x86)\Microchip\xc8\v2.20\pic\sources\c90\common\awdiv.c"
  6460 ;; Parameters:    Size  Location     Type
  6461 ;;  divisor         2   22[BANK0 ] int 
  6462 ;;  dividend        2   24[BANK0 ] int 
  6463 ;; Auto vars:     Size  Location     Type
  6464 ;;  quotient        2   28[BANK0 ] int 
  6465 ;;  sign            1   27[BANK0 ] unsigned char 
  6466 ;;  counter         1   26[BANK0 ] unsigned char 
  6467 ;; Return value:  Size  Location     Type
  6468 ;;                  2   22[BANK0 ] int 
  6469 ;; Registers used:
  6470 ;;		wreg, status,2, status,0, btemp+1
  6471 ;; Tracked objects:
  6472 ;;		On entry : 0/0
  6473 ;;		On exit  : 0/0
  6474 ;;		Unchanged: 0/0
  6475 ;; Data sizes:     COMMON   BANK0   BANK1   BANK3   BANK2
  6476 ;;      Params:         0       4       0       0       0
  6477 ;;      Locals:         0       4       0       0       0
  6478 ;;      Temps:          0       0       0       0       0
  6479 ;;      Totals:         0       8       0       0       0
  6480 ;;Total ram usage:        8 bytes
  6481 ;; Hardware stack levels used:    1
  6482 ;; Hardware stack levels required when called:    4
  6483 ;; This function calls:
  6484 ;;		Nothing
  6485 ;; This function is called by:
  6486 ;;		_Display_MainFunction
  6487 ;; This function uses a non-reentrant model
  6488 ;;
  6489                           
  6490                           
  6491                           ;psect for function ___awdiv
  6492  0779                     ___awdiv:
  6493  0779                     l3539:	
  6494                           ;incstack = 0
  6495                           ; Regs used in ___awdiv: [wreg+status,2+status,0+btemp+1]
  6496                           
  6497  0779  1283               	bcf	3,5	;RP0=0, select bank0
  6498  077A  1303               	bcf	3,6	;RP1=0, select bank0
  6499  077B  01BB               	clrf	___awdiv@sign
  6500  077C                     l3541:
  6501  077C  1FB7               	btfss	___awdiv@divisor+1,7
  6502  077D  2F7F               	goto	u4881
  6503  077E  2F80               	goto	u4880
  6504  077F                     u4881:
  6505  077F  2F87               	goto	l3547
  6506  0780                     u4880:
  6507  0780                     l3543:
  6508  0780  09B6               	comf	___awdiv@divisor,f
  6509  0781  09B7               	comf	___awdiv@divisor+1,f
  6510  0782  0AB6               	incf	___awdiv@divisor,f
  6511  0783  1903               	skipnz
  6512  0784  0AB7               	incf	___awdiv@divisor+1,f
  6513  0785                     l3545:
  6514  0785  01BB               	clrf	___awdiv@sign
  6515  0786  0ABB               	incf	___awdiv@sign,f
  6516  0787                     l3547:
  6517  0787  1FB9               	btfss	___awdiv@dividend+1,7
  6518  0788  2F8A               	goto	u4891
  6519  0789  2F8B               	goto	u4890
  6520  078A                     u4891:
  6521  078A  2F94               	goto	l3553
  6522  078B                     u4890:
  6523  078B                     l3549:
  6524  078B  09B8               	comf	___awdiv@dividend,f
  6525  078C  09B9               	comf	___awdiv@dividend+1,f
  6526  078D  0AB8               	incf	___awdiv@dividend,f
  6527  078E  1903               	skipnz
  6528  078F  0AB9               	incf	___awdiv@dividend+1,f
  6529  0790                     l3551:
  6530  0790  3001               	movlw	1
  6531  0791  00FF               	movwf	btemp+1
  6532  0792  087F               	movf	btemp+1,w
  6533  0793  06BB               	xorwf	___awdiv@sign,f
  6534  0794                     l3553:
  6535  0794  01BC               	clrf	___awdiv@quotient
  6536  0795  01BD               	clrf	___awdiv@quotient+1
  6537  0796                     l3555:
  6538  0796  0836               	movf	___awdiv@divisor,w
  6539  0797  0437               	iorwf	___awdiv@divisor+1,w
  6540  0798  1903               	btfsc	3,2
  6541  0799  2F9B               	goto	u4901
  6542  079A  2F9C               	goto	u4900
  6543  079B                     u4901:
  6544  079B  2FD3               	goto	l3575
  6545  079C                     u4900:
  6546  079C                     l3557:
  6547  079C  01BA               	clrf	___awdiv@counter
  6548  079D  0ABA               	incf	___awdiv@counter,f
  6549  079E  2FAA               	goto	l3563
  6550  079F                     l3559:
  6551  079F  3001               	movlw	1
  6552  07A0                     u4915:
  6553  07A0  1003               	clrc
  6554  07A1  0DB6               	rlf	___awdiv@divisor,f
  6555  07A2  0DB7               	rlf	___awdiv@divisor+1,f
  6556  07A3  3EFF               	addlw	-1
  6557  07A4  1D03               	skipz
  6558  07A5  2FA0               	goto	u4915
  6559  07A6                     l3561:
  6560  07A6  3001               	movlw	1
  6561  07A7  00FF               	movwf	btemp+1
  6562  07A8  087F               	movf	btemp+1,w
  6563  07A9  07BA               	addwf	___awdiv@counter,f
  6564  07AA                     l3563:
  6565  07AA  1FB7               	btfss	___awdiv@divisor+1,7
  6566  07AB  2FAD               	goto	u4921
  6567  07AC  2FAE               	goto	u4920
  6568  07AD                     u4921:
  6569  07AD  2F9F               	goto	l3559
  6570  07AE                     u4920:
  6571  07AE                     l3565:
  6572  07AE  3001               	movlw	1
  6573  07AF                     u4935:
  6574  07AF  1003               	clrc
  6575  07B0  0DBC               	rlf	___awdiv@quotient,f
  6576  07B1  0DBD               	rlf	___awdiv@quotient+1,f
  6577  07B2  3EFF               	addlw	-1
  6578  07B3  1D03               	skipz
  6579  07B4  2FAF               	goto	u4935
  6580  07B5  0837               	movf	___awdiv@divisor+1,w
  6581  07B6  0239               	subwf	___awdiv@dividend+1,w
  6582  07B7  1D03               	skipz
  6583  07B8  2FBB               	goto	u4945
  6584  07B9  0836               	movf	___awdiv@divisor,w
  6585  07BA  0238               	subwf	___awdiv@dividend,w
  6586  07BB                     u4945:
  6587  07BB  1C03               	skipc
  6588  07BC  2FBE               	goto	u4941
  6589  07BD  2FBF               	goto	u4940
  6590  07BE                     u4941:
  6591  07BE  2FC6               	goto	l3571
  6592  07BF                     u4940:
  6593  07BF                     l3567:
  6594  07BF  0836               	movf	___awdiv@divisor,w
  6595  07C0  02B8               	subwf	___awdiv@dividend,f
  6596  07C1  0837               	movf	___awdiv@divisor+1,w
  6597  07C2  1C03               	skipc
  6598  07C3  03B9               	decf	___awdiv@dividend+1,f
  6599  07C4  02B9               	subwf	___awdiv@dividend+1,f
  6600  07C5                     l3569:
  6601  07C5  143C               	bsf	___awdiv@quotient,0
  6602  07C6                     l3571:
  6603  07C6  3001               	movlw	1
  6604  07C7                     u4955:
  6605  07C7  1003               	clrc
  6606  07C8  0CB7               	rrf	___awdiv@divisor+1,f
  6607  07C9  0CB6               	rrf	___awdiv@divisor,f
  6608  07CA  3EFF               	addlw	-1
  6609  07CB  1D03               	skipz
  6610  07CC  2FC7               	goto	u4955
  6611  07CD                     l3573:
  6612  07CD  3001               	movlw	1
  6613  07CE  02BA               	subwf	___awdiv@counter,f
  6614  07CF  1D03               	btfss	3,2
  6615  07D0  2FD2               	goto	u4961
  6616  07D1  2FD3               	goto	u4960
  6617  07D2                     u4961:
  6618  07D2  2FAE               	goto	l3565
  6619  07D3                     u4960:
  6620  07D3                     l3575:
  6621  07D3  083B               	movf	___awdiv@sign,w
  6622  07D4  1903               	btfsc	3,2
  6623  07D5  2FD7               	goto	u4971
  6624  07D6  2FD8               	goto	u4970
  6625  07D7                     u4971:
  6626  07D7  2FDD               	goto	l3579
  6627  07D8                     u4970:
  6628  07D8                     l3577:
  6629  07D8  09BC               	comf	___awdiv@quotient,f
  6630  07D9  09BD               	comf	___awdiv@quotient+1,f
  6631  07DA  0ABC               	incf	___awdiv@quotient,f
  6632  07DB  1903               	skipnz
  6633  07DC  0ABD               	incf	___awdiv@quotient+1,f
  6634  07DD                     l3579:
  6635  07DD  083D               	movf	___awdiv@quotient+1,w
  6636  07DE  00B7               	movwf	?___awdiv+1
  6637  07DF  083C               	movf	___awdiv@quotient,w
  6638  07E0  00B6               	movwf	?___awdiv
  6639  07E1                     l716:
  6640  07E1  0008               	return
  6641  07E2                     __end_of___awdiv:
  6642                           
  6643                           	psect	text27
  6644  0B4C                     __ptext27:	
  6645 ;; *************** function _Display_Blink *****************
  6646 ;; Defined at:
  6647 ;;		line 131 in file "Display/Display.c"
  6648 ;; Parameters:    Size  Location     Type
  6649 ;;  Times_Ms        2   28[BANK0 ] unsigned int 
  6650 ;;  Task_Peroid     2   30[BANK0 ] unsigned int 
  6651 ;; Auto vars:     Size  Location     Type
  6652 ;;		None
  6653 ;; Return value:  Size  Location     Type
  6654 ;;                  1    wreg      void 
  6655 ;; Registers used:
  6656 ;;		wreg, status,2, status,0, btemp+1, pclath, cstack
  6657 ;; Tracked objects:
  6658 ;;		On entry : 0/0
  6659 ;;		On exit  : 0/0
  6660 ;;		Unchanged: 0/0
  6661 ;; Data sizes:     COMMON   BANK0   BANK1   BANK3   BANK2
  6662 ;;      Params:         0       4       0       0       0
  6663 ;;      Locals:         0       0       0       0       0
  6664 ;;      Temps:          0       2       0       0       0
  6665 ;;      Totals:         0       6       0       0       0
  6666 ;;Total ram usage:        6 bytes
  6667 ;; Hardware stack levels used:    1
  6668 ;; Hardware stack levels required when called:    5
  6669 ;; This function calls:
  6670 ;;		___wmul
  6671 ;; This function is called by:
  6672 ;;		_Display_MainFunction
  6673 ;; This function uses a non-reentrant model
  6674 ;;
  6675                           
  6676                           
  6677                           ;psect for function _Display_Blink
  6678  0B4C                     _Display_Blink:
  6679  0B4C                     l3487:	
  6680                           ;incstack = 0
  6681 ;; hardware stack exceeded
  6682                           ; Regs used in _Display_Blink: [wreg+status,2+status,0+btemp+1+pclath+cstack]
  6683                           
  6684                           
  6685                           ;Display/Display.c: 131: void Display_Blink(uint16_t Times_Ms,uint16_t Task_Peroid);Disp
      +                          lay/Display.c: 132: {;Display/Display.c: 133:   uint8_t static Counter=1;;Display/Displa
      +                          y.c: 135:   if(Counter*Task_Peroid==Times_Ms)
  6686  0B4C  1283               	bcf	3,5	;RP0=0, select bank0
  6687  0B4D  1303               	bcf	3,6	;RP1=0, select bank0
  6688  0B4E  0857               	movf	Display_Blink@Counter,w
  6689  0B4F  00C0               	movwf	??_Display_Blink
  6690  0B50  01C1               	clrf	??_Display_Blink+1
  6691  0B51  0840               	movf	??_Display_Blink,w
  6692  0B52  00B6               	movwf	___wmul@multiplier
  6693  0B53  0841               	movf	??_Display_Blink+1,w
  6694  0B54  00B7               	movwf	___wmul@multiplier+1
  6695  0B55  083F               	movf	Display_Blink@Task_Peroid+1,w
  6696  0B56  00B9               	movwf	___wmul@multiplicand+1
  6697  0B57  083E               	movf	Display_Blink@Task_Peroid,w
  6698  0B58  00B8               	movwf	___wmul@multiplicand
  6699  0B59  120A  158A  21D3  120A  158A  	fcall	___wmul
  6700  0B5E  1283               	bcf	3,5	;RP0=0, select bank0
  6701  0B5F  1303               	bcf	3,6	;RP1=0, select bank0
  6702  0B60  083D               	movf	Display_Blink@Times_Ms+1,w
  6703  0B61  0637               	xorwf	?___wmul+1,w
  6704  0B62  1D03               	skipz
  6705  0B63  2B66               	goto	u4815
  6706  0B64  083C               	movf	Display_Blink@Times_Ms,w
  6707  0B65  0636               	xorwf	?___wmul,w
  6708  0B66                     u4815:
  6709  0B66  1D03               	skipz
  6710  0B67  2B69               	goto	u4811
  6711  0B68  2B6A               	goto	u4810
  6712  0B69                     u4811:
  6713  0B69  2B82               	goto	l3501
  6714  0B6A                     u4810:
  6715  0B6A                     l3489:
  6716                           
  6717                           ;Display/Display.c: 136:   {;Display/Display.c: 137:       if(Enable_Display==Enable_Dis
      +                          play_On)
  6718  0B6A  034F               	decf	_Enable_Display,w
  6719  0B6B  1D03               	btfss	3,2
  6720  0B6C  2B6E               	goto	u4821
  6721  0B6D  2B6F               	goto	u4820
  6722  0B6E                     u4821:
  6723  0B6E  2B79               	goto	l3497
  6724  0B6F                     u4820:
  6725  0B6F                     l3491:
  6726                           
  6727                           ;Display/Display.c: 138:       {;Display/Display.c: 139:        Enable_Display=Enable_Di
      +                          splay_Off;
  6728  0B6F  01CF               	clrf	_Enable_Display
  6729  0B70                     l3493:
  6730                           
  6731                           ;Display/Display.c: 140:         (PORTA &= ~(1<<5)) ;
  6732  0B70  30DF               	movlw	223
  6733  0B71  00FF               	movwf	btemp+1
  6734  0B72  087F               	movf	btemp+1,w
  6735  0B73  0585               	andwf	5,f	;volatile
  6736  0B74                     l3495:
  6737                           
  6738                           ;Display/Display.c: 141:         (PORTA &= ~(1<<4)) ;
  6739  0B74  30EF               	movlw	239
  6740  0B75  00FF               	movwf	btemp+1
  6741  0B76  087F               	movf	btemp+1,w
  6742  0B77  0585               	andwf	5,f	;volatile
  6743                           
  6744                           ;Display/Display.c: 142:       }
  6745  0B78  2B80               	goto	l164
  6746  0B79                     l3497:
  6747  0B79  084F               	movf	_Enable_Display,w
  6748  0B7A  1D03               	btfss	3,2
  6749  0B7B  2B7D               	goto	u4831
  6750  0B7C  2B7E               	goto	u4830
  6751  0B7D                     u4831:
  6752  0B7D  2B80               	goto	l164
  6753  0B7E                     u4830:
  6754  0B7E                     l3499:
  6755                           
  6756                           ;Display/Display.c: 144:       {;Display/Display.c: 145:        Enable_Display=Enable_Di
      +                          splay_On;
  6757  0B7E  01CF               	clrf	_Enable_Display
  6758  0B7F  0ACF               	incf	_Enable_Display,f
  6759  0B80                     l164:
  6760                           
  6761                           ;Display/Display.c: 147:         Counter =1;
  6762  0B80  01D7               	clrf	Display_Blink@Counter
  6763  0B81  0AD7               	incf	Display_Blink@Counter,f
  6764  0B82                     l3501:
  6765                           
  6766                           ;Display/Display.c: 149:   Counter++;
  6767  0B82  3001               	movlw	1
  6768  0B83  00FF               	movwf	btemp+1
  6769  0B84  087F               	movf	btemp+1,w
  6770  0B85  07D7               	addwf	Display_Blink@Counter,f
  6771  0B86                     l166:
  6772  0B86  0008               	return
  6773  0B87                     __end_of_Display_Blink:
  6774                           
  6775                           	psect	text28
  6776  09D3                     __ptext28:	
  6777 ;; *************** function ___wmul *****************
  6778 ;; Defined at:
  6779 ;;		line 15 in file "C:\Program Files (x86)\Microchip\xc8\v2.20\pic\sources\c90\common\Umul16.c"
  6780 ;; Parameters:    Size  Location     Type
  6781 ;;  multiplier      2   22[BANK0 ] unsigned int 
  6782 ;;  multiplicand    2   24[BANK0 ] unsigned int 
  6783 ;; Auto vars:     Size  Location     Type
  6784 ;;  product         2   26[BANK0 ] unsigned int 
  6785 ;; Return value:  Size  Location     Type
  6786 ;;                  2   22[BANK0 ] unsigned int 
  6787 ;; Registers used:
  6788 ;;		wreg, status,2, status,0
  6789 ;; Tracked objects:
  6790 ;;		On entry : 0/0
  6791 ;;		On exit  : 0/0
  6792 ;;		Unchanged: 0/0
  6793 ;; Data sizes:     COMMON   BANK0   BANK1   BANK3   BANK2
  6794 ;;      Params:         0       4       0       0       0
  6795 ;;      Locals:         0       2       0       0       0
  6796 ;;      Temps:          0       0       0       0       0
  6797 ;;      Totals:         0       6       0       0       0
  6798 ;;Total ram usage:        6 bytes
  6799 ;; Hardware stack levels used:    1
  6800 ;; Hardware stack levels required when called:    4
  6801 ;; This function calls:
  6802 ;;		Nothing
  6803 ;; This function is called by:
  6804 ;;		_Display_Blink
  6805 ;;		_LED_BLINKING
  6806 ;;		_Start_Setting_Timer
  6807 ;; This function uses a non-reentrant model
  6808 ;;
  6809                           
  6810                           
  6811                           ;psect for function ___wmul
  6812  09D3                     ___wmul:
  6813  09D3                     l3463:	
  6814                           ;incstack = 0
  6815 ;; hardware stack exceeded
  6816                           ; Regs used in ___wmul: [wreg+status,2+status,0]
  6817                           
  6818  09D3  1283               	bcf	3,5	;RP0=0, select bank0
  6819  09D4  1303               	bcf	3,6	;RP1=0, select bank0
  6820  09D5  01BA               	clrf	___wmul@product
  6821  09D6  01BB               	clrf	___wmul@product+1
  6822  09D7                     l3465:
  6823  09D7  1C36               	btfss	___wmul@multiplier,0
  6824  09D8  29DA               	goto	u4721
  6825  09D9  29DB               	goto	u4720
  6826  09DA                     u4721:
  6827  09DA  29E1               	goto	l563
  6828  09DB                     u4720:
  6829  09DB                     l3467:
  6830  09DB  0838               	movf	___wmul@multiplicand,w
  6831  09DC  07BA               	addwf	___wmul@product,f
  6832  09DD  1803               	skipnc
  6833  09DE  0ABB               	incf	___wmul@product+1,f
  6834  09DF  0839               	movf	___wmul@multiplicand+1,w
  6835  09E0  07BB               	addwf	___wmul@product+1,f
  6836  09E1                     l563:
  6837  09E1  3001               	movlw	1
  6838  09E2                     u4735:
  6839  09E2  1003               	clrc
  6840  09E3  0DB8               	rlf	___wmul@multiplicand,f
  6841  09E4  0DB9               	rlf	___wmul@multiplicand+1,f
  6842  09E5  3EFF               	addlw	-1
  6843  09E6  1D03               	skipz
  6844  09E7  29E2               	goto	u4735
  6845  09E8                     l3469:
  6846  09E8  3001               	movlw	1
  6847  09E9                     u4745:
  6848  09E9  1003               	clrc
  6849  09EA  0CB7               	rrf	___wmul@multiplier+1,f
  6850  09EB  0CB6               	rrf	___wmul@multiplier,f
  6851  09EC  3EFF               	addlw	-1
  6852  09ED  1D03               	skipz
  6853  09EE  29E9               	goto	u4745
  6854  09EF                     l3471:
  6855  09EF  0836               	movf	___wmul@multiplier,w
  6856  09F0  0437               	iorwf	___wmul@multiplier+1,w
  6857  09F1  1D03               	btfss	3,2
  6858  09F2  29F4               	goto	u4751
  6859  09F3  29F5               	goto	u4750
  6860  09F4                     u4751:
  6861  09F4  29D7               	goto	l3465
  6862  09F5                     u4750:
  6863  09F5                     l3473:
  6864  09F5  083B               	movf	___wmul@product+1,w
  6865  09F6  00B7               	movwf	?___wmul+1
  6866  09F7  083A               	movf	___wmul@product,w
  6867  09F8  00B6               	movwf	?___wmul
  6868  09F9                     l565:
  6869  09F9  0008               	return
  6870  09FA                     __end_of___wmul:
  6871                           
  6872                           	psect	text29
  6873  0890                     __ptext29:	
  6874 ;; *************** function _Scheduler_Init *****************
  6875 ;; Defined at:
  6876 ;;		line 29 in file "Scheduler/Scheduler.c"
  6877 ;; Parameters:    Size  Location     Type
  6878 ;;		None
  6879 ;; Auto vars:     Size  Location     Type
  6880 ;;		None
  6881 ;; Return value:  Size  Location     Type
  6882 ;;                  1    wreg      void 
  6883 ;; Registers used:
  6884 ;;		wreg, fsr0l, fsr0h, status,2, status,0, btemp+1, pclath, cstack
  6885 ;; Tracked objects:
  6886 ;;		On entry : 0/0
  6887 ;;		On exit  : 0/0
  6888 ;;		Unchanged: 0/0
  6889 ;; Data sizes:     COMMON   BANK0   BANK1   BANK3   BANK2
  6890 ;;      Params:         0       0       0       0       0
  6891 ;;      Locals:         0       0       0       0       0
  6892 ;;      Temps:          0       0       0       0       0
  6893 ;;      Totals:         0       0       0       0       0
  6894 ;;Total ram usage:        0 bytes
  6895 ;; Hardware stack levels used:    1
  6896 ;; Hardware stack levels required when called:    5
  6897 ;; This function calls:
  6898 ;;		_memset
  6899 ;; This function is called by:
  6900 ;;		_main
  6901 ;; This function uses a non-reentrant model
  6902 ;;
  6903                           
  6904                           
  6905                           ;psect for function _Scheduler_Init
  6906  0890                     _Scheduler_Init:
  6907  0890                     l3859:	
  6908                           ;incstack = 0
  6909                           ; Regs used in _Scheduler_Init: [wreg-fsr0h+status,2+status,0+btemp+1+pclath+cstack]
  6910                           
  6911                           
  6912                           ;Scheduler/Scheduler.c: 31:   memset( Scheduler_ActivationFlags , 0 , sizeof( Scheduler_
      +                          ActivationFlags ) );
  6913  0890  3000               	movlw	0
  6914  0891  1283               	bcf	3,5	;RP0=0, select bank0
  6915  0892  1303               	bcf	3,6	;RP1=0, select bank0
  6916  0893  00B6               	movwf	memset@c
  6917  0894  00B7               	movwf	memset@c+1
  6918  0895  3003               	movlw	3
  6919  0896  00B8               	movwf	memset@n
  6920  0897  3000               	movlw	0
  6921  0898  00B9               	movwf	memset@n+1
  6922  0899  30D0               	movlw	(low (_Scheduler_ActivationFlags| 0))& (0+255)
  6923  089A  120A  158A  2169  120A  158A  	fcall	_memset
  6924  089F                     l297:
  6925  089F  0008               	return
  6926  08A0                     __end_of_Scheduler_Init:
  6927                           
  6928                           	psect	text30
  6929  0969                     __ptext30:	
  6930 ;; *************** function _memset *****************
  6931 ;; Defined at:
  6932 ;;		line 8 in file "C:\Program Files (x86)\Microchip\xc8\v2.20\pic\sources\c90\common\memset.c"
  6933 ;; Parameters:    Size  Location     Type
  6934 ;;  p1              1    wreg     PTR void 
  6935 ;;		 -> Scheduler_ActivationFlags(3), 
  6936 ;;  c               2   22[BANK0 ] int 
  6937 ;;  n               2   24[BANK0 ] unsigned int 
  6938 ;; Auto vars:     Size  Location     Type
  6939 ;;  p1              1   27[BANK0 ] PTR void 
  6940 ;;		 -> Scheduler_ActivationFlags(3), 
  6941 ;;  p               1   26[BANK0 ] PTR unsigned char 
  6942 ;;		 -> Scheduler_ActivationFlags(3), 
  6943 ;; Return value:  Size  Location     Type
  6944 ;;                  1    wreg      PTR void 
  6945 ;; Registers used:
  6946 ;;		wreg, fsr0l, fsr0h, status,2, status,0, btemp+1
  6947 ;; Tracked objects:
  6948 ;;		On entry : 0/0
  6949 ;;		On exit  : 0/0
  6950 ;;		Unchanged: 0/0
  6951 ;; Data sizes:     COMMON   BANK0   BANK1   BANK3   BANK2
  6952 ;;      Params:         0       4       0       0       0
  6953 ;;      Locals:         0       2       0       0       0
  6954 ;;      Temps:          0       0       0       0       0
  6955 ;;      Totals:         0       6       0       0       0
  6956 ;;Total ram usage:        6 bytes
  6957 ;; Hardware stack levels used:    1
  6958 ;; Hardware stack levels required when called:    4
  6959 ;; This function calls:
  6960 ;;		Nothing
  6961 ;; This function is called by:
  6962 ;;		_Scheduler_Init
  6963 ;; This function uses a non-reentrant model
  6964 ;;
  6965                           
  6966                           
  6967                           ;psect for function _memset
  6968  0969                     _memset:
  6969                           
  6970                           ;incstack = 0
  6971                           ; Regs used in _memset: [wreg-fsr0h+status,2+status,0+btemp+1]
  6972                           ;memset@p1 stored from wreg
  6973  0969  1283               	bcf	3,5	;RP0=0, select bank0
  6974  096A  1303               	bcf	3,6	;RP1=0, select bank0
  6975  096B  00BB               	movwf	memset@p1
  6976  096C                     l3793:
  6977  096C  083B               	movf	memset@p1,w
  6978  096D  00FF               	movwf	btemp+1
  6979  096E  087F               	movf	btemp+1,w
  6980  096F  00BA               	movwf	memset@p
  6981  0970  297C               	goto	l3799
  6982  0971                     l3795:
  6983  0971  0836               	movf	memset@c,w
  6984  0972  00FF               	movwf	btemp+1
  6985  0973  083A               	movf	memset@p,w
  6986  0974  0084               	movwf	4
  6987  0975  087F               	movf	btemp+1,w
  6988  0976  1383               	bcf	3,7	;select IRP bank0
  6989  0977  0080               	movwf	0
  6990  0978                     l3797:
  6991  0978  3001               	movlw	1
  6992  0979  00FF               	movwf	btemp+1
  6993  097A  087F               	movf	btemp+1,w
  6994  097B  07BA               	addwf	memset@p,f
  6995  097C                     l3799:
  6996  097C  3001               	movlw	1
  6997  097D  02B8               	subwf	memset@n,f
  6998  097E  3000               	movlw	0
  6999  097F  1C03               	skipc
  7000  0980  03B9               	decf	memset@n+1,f
  7001  0981  02B9               	subwf	memset@n+1,f
  7002  0982  0A38               	incf	memset@n,w
  7003  0983  1D03               	skipz
  7004  0984  2989               	goto	u5441
  7005  0985  0A39               	incf	memset@n+1,w
  7006  0986  1D03               	btfss	3,2
  7007  0987  2989               	goto	u5441
  7008  0988  298A               	goto	u5440
  7009  0989                     u5441:
  7010  0989  2971               	goto	l3795
  7011  098A                     u5440:
  7012  098A                     l1017:
  7013  098A  0008               	return
  7014  098B                     __end_of_memset:
  7015                           
  7016                           	psect	text31
  7017  0839                     __ptext31:	
  7018 ;; *************** function _On_Off_Init *****************
  7019 ;; Defined at:
  7020 ;;		line 12 in file "Buttons/Buttons.c"
  7021 ;; Parameters:    Size  Location     Type
  7022 ;;		None
  7023 ;; Auto vars:     Size  Location     Type
  7024 ;;		None
  7025 ;; Return value:  Size  Location     Type
  7026 ;;                  1    wreg      void 
  7027 ;; Registers used:
  7028 ;;		None
  7029 ;; Tracked objects:
  7030 ;;		On entry : 0/0
  7031 ;;		On exit  : 0/0
  7032 ;;		Unchanged: 0/0
  7033 ;; Data sizes:     COMMON   BANK0   BANK1   BANK3   BANK2
  7034 ;;      Params:         0       0       0       0       0
  7035 ;;      Locals:         0       0       0       0       0
  7036 ;;      Temps:          0       0       0       0       0
  7037 ;;      Totals:         0       0       0       0       0
  7038 ;;Total ram usage:        0 bytes
  7039 ;; Hardware stack levels used:    1
  7040 ;; Hardware stack levels required when called:    4
  7041 ;; This function calls:
  7042 ;;		Nothing
  7043 ;; This function is called by:
  7044 ;;		_main
  7045 ;; This function uses a non-reentrant model
  7046 ;;
  7047                           
  7048                           
  7049                           ;psect for function _On_Off_Init
  7050  0839                     _On_Off_Init:
  7051  0839                     l2943:	
  7052                           ;incstack = 0
  7053                           ; Regs used in _On_Off_Init: []
  7054                           
  7055                           
  7056                           ;Buttons/Buttons.c: 15:     INTCONbits.INTE=1;
  7057  0839  160B               	bsf	11,4	;volatile
  7058                           
  7059                           ;Buttons/Buttons.c: 16:     INTEDG=1;
  7060  083A  1683               	bsf	3,5	;RP0=1, select bank1
  7061  083B  1303               	bcf	3,6	;RP1=0, select bank1
  7062  083C  1701               	bsf	1,6	;volatile
  7063                           
  7064                           ;Buttons/Buttons.c: 17:     INTCONbits.INTF=0;
  7065  083D  108B               	bcf	11,1	;volatile
  7066  083E                     l92:
  7067  083E  0008               	return
  7068  083F                     __end_of_On_Off_Init:
  7069                           
  7070                           	psect	text32
  7071  0831                     __ptext32:	
  7072 ;; *************** function _Mode_Init *****************
  7073 ;; Defined at:
  7074 ;;		line 17 in file "WaterHeater_Mode/WaterHeater_Mode.c"
  7075 ;; Parameters:    Size  Location     Type
  7076 ;;		None
  7077 ;; Auto vars:     Size  Location     Type
  7078 ;;		None
  7079 ;; Return value:  Size  Location     Type
  7080 ;;                  1    wreg      void 
  7081 ;; Registers used:
  7082 ;;		status,2
  7083 ;; Tracked objects:
  7084 ;;		On entry : 0/0
  7085 ;;		On exit  : 0/0
  7086 ;;		Unchanged: 0/0
  7087 ;; Data sizes:     COMMON   BANK0   BANK1   BANK3   BANK2
  7088 ;;      Params:         0       0       0       0       0
  7089 ;;      Locals:         0       0       0       0       0
  7090 ;;      Temps:          0       0       0       0       0
  7091 ;;      Totals:         0       0       0       0       0
  7092 ;;Total ram usage:        0 bytes
  7093 ;; Hardware stack levels used:    1
  7094 ;; Hardware stack levels required when called:    4
  7095 ;; This function calls:
  7096 ;;		Nothing
  7097 ;; This function is called by:
  7098 ;;		_main
  7099 ;; This function uses a non-reentrant model
  7100 ;;
  7101                           
  7102                           
  7103                           ;psect for function _Mode_Init
  7104  0831                     _Mode_Init:
  7105  0831                     l2951:	
  7106                           ;incstack = 0
  7107                           ; Regs used in _Mode_Init: [status,2]
  7108                           
  7109                           
  7110                           ;WaterHeater_Mode/WaterHeater_Mode.c: 19:  Mode.Select_Mode=Off_Mode;
  7111  0831  1283               	bcf	3,5	;RP0=0, select bank0
  7112  0832  1303               	bcf	3,6	;RP1=0, select bank0
  7113  0833  01C4               	clrf	_Mode
  7114  0834                     l383:
  7115  0834  0008               	return
  7116  0835                     __end_of_Mode_Init:
  7117                           
  7118                           	psect	text33
  7119  0C0A                     __ptext33:	
  7120 ;; *************** function _Get_EEPROM_Data *****************
  7121 ;; Defined at:
  7122 ;;		line 9 in file "EEPROM/EEPROM.c"
  7123 ;; Parameters:    Size  Location     Type
  7124 ;;		None
  7125 ;; Auto vars:     Size  Location     Type
  7126 ;;  Temp            1   33[BANK0 ] unsigned char 
  7127 ;;  Flag            1   32[BANK0 ] unsigned char 
  7128 ;; Return value:  Size  Location     Type
  7129 ;;                  1    wreg      void 
  7130 ;; Registers used:
  7131 ;;		wreg, status,2, status,0, btemp+1, pclath, cstack
  7132 ;; Tracked objects:
  7133 ;;		On entry : 0/0
  7134 ;;		On exit  : 0/0
  7135 ;;		Unchanged: 0/0
  7136 ;; Data sizes:     COMMON   BANK0   BANK1   BANK3   BANK2
  7137 ;;      Params:         0       0       0       0       0
  7138 ;;      Locals:         0       2       0       0       0
  7139 ;;      Temps:          0       1       0       0       0
  7140 ;;      Totals:         0       3       0       0       0
  7141 ;;Total ram usage:        3 bytes
  7142 ;; Hardware stack levels used:    1
  7143 ;; Hardware stack levels required when called:    7
  7144 ;; This function calls:
  7145 ;;		_e2pext_r
  7146 ;; This function is called by:
  7147 ;;		_main
  7148 ;; This function uses a non-reentrant model
  7149 ;;
  7150                           
  7151                           
  7152                           ;psect for function _Get_EEPROM_Data
  7153  0C0A                     _Get_EEPROM_Data:
  7154  0C0A                     l3839:	
  7155                           ;incstack = 0
  7156                           ; Regs used in _Get_EEPROM_Data: [wreg+status,2+status,0+btemp+1+pclath+cstack]
  7157                           
  7158  0C0A                     l3841:	
  7159                           ;EEPROM/EEPROM.c: 12:  while( e2pext_r(0));
  7160                           
  7161  0C0A  3000               	movlw	0
  7162  0C0B  1283               	bcf	3,5	;RP0=0, select bank0
  7163  0C0C  1303               	bcf	3,6	;RP1=0, select bank0
  7164  0C0D  00BA               	movwf	e2pext_r@addr
  7165  0C0E  00BB               	movwf	e2pext_r@addr+1
  7166  0C0F  120A  158A  24FA  120A  158A  	fcall	_e2pext_r
  7167  0C14  3A00               	xorlw	0
  7168  0C15  1D03               	skipz
  7169  0C16  2C18               	goto	u5491
  7170  0C17  2C19               	goto	u5490
  7171  0C18                     u5491:
  7172  0C18  2C0A               	goto	l3841
  7173  0C19                     u5490:
  7174  0C19                     l3843:
  7175                           
  7176                           ;EEPROM/EEPROM.c: 13:  EEPROM_Data=e2pext_r(0xa);
  7177  0C19  300A               	movlw	10
  7178  0C1A  1283               	bcf	3,5	;RP0=0, select bank0
  7179  0C1B  1303               	bcf	3,6	;RP1=0, select bank0
  7180  0C1C  00BA               	movwf	e2pext_r@addr
  7181  0C1D  3000               	movlw	0
  7182  0C1E  00BB               	movwf	e2pext_r@addr+1
  7183  0C1F  120A  158A  24FA  120A  158A  	fcall	_e2pext_r
  7184  0C24  00FF               	movwf	btemp+1
  7185  0C25  087F               	movf	btemp+1,w
  7186  0C26  1283               	bcf	3,5	;RP0=0, select bank0
  7187  0C27  1303               	bcf	3,6	;RP1=0, select bank0
  7188  0C28  00C9               	movwf	_EEPROM_Data
  7189  0C29                     l3845:
  7190                           
  7191                           ;EEPROM/EEPROM.c: 14:  uint8_t Flag=(EEPROM_Data>>7)&1;
  7192  0C29  0849               	movf	_EEPROM_Data,w
  7193  0C2A  00BF               	movwf	??_Get_EEPROM_Data
  7194  0C2B  3007               	movlw	7
  7195  0C2C                     u5505:
  7196  0C2C  1003               	clrc
  7197  0C2D  0CBF               	rrf	??_Get_EEPROM_Data,f
  7198  0C2E  3EFF               	addlw	-1
  7199  0C2F  1D03               	skipz
  7200  0C30  2C2C               	goto	u5505
  7201  0C31  083F               	movf	??_Get_EEPROM_Data,w
  7202  0C32  3901               	andlw	1
  7203  0C33  00FF               	movwf	btemp+1
  7204  0C34  087F               	movf	btemp+1,w
  7205  0C35  00C0               	movwf	Get_EEPROM_Data@Flag
  7206  0C36                     l3847:
  7207                           
  7208                           ;EEPROM/EEPROM.c: 15:  uint8_t Temp=(EEPROM_Data)&~(1<<7);
  7209  0C36  0849               	movf	_EEPROM_Data,w
  7210  0C37  397F               	andlw	127
  7211  0C38  00FF               	movwf	btemp+1
  7212  0C39  087F               	movf	btemp+1,w
  7213  0C3A  00C1               	movwf	Get_EEPROM_Data@Temp
  7214  0C3B                     l3849:
  7215                           
  7216                           ;EEPROM/EEPROM.c: 17:  if(Flag==1 && ((Temp<=(75U))||(Temp>=(35U))))
  7217  0C3B  0340               	decf	Get_EEPROM_Data@Flag,w
  7218  0C3C  1D03               	btfss	3,2
  7219  0C3D  2C3F               	goto	u5511
  7220  0C3E  2C40               	goto	u5510
  7221  0C3F                     u5511:
  7222  0C3F  2C51               	goto	l3857
  7223  0C40                     u5510:
  7224  0C40                     l3851:
  7225  0C40  304C               	movlw	76
  7226  0C41  0241               	subwf	Get_EEPROM_Data@Temp,w
  7227  0C42  1C03               	skipc
  7228  0C43  2C45               	goto	u5521
  7229  0C44  2C46               	goto	u5520
  7230  0C45                     u5521:
  7231  0C45  2C4C               	goto	l3855
  7232  0C46                     u5520:
  7233  0C46                     l3853:
  7234  0C46  3023               	movlw	35
  7235  0C47  0241               	subwf	Get_EEPROM_Data@Temp,w
  7236  0C48  1C03               	skipc
  7237  0C49  2C4B               	goto	u5531
  7238  0C4A  2C4C               	goto	u5530
  7239  0C4B                     u5531:
  7240  0C4B  2C51               	goto	l3857
  7241  0C4C                     u5530:
  7242  0C4C                     l3855:
  7243                           
  7244                           ;EEPROM/EEPROM.c: 18:  {;EEPROM/EEPROM.c: 19:    Temperature.Set_Temp=Temp;
  7245  0C4C  0841               	movf	Get_EEPROM_Data@Temp,w
  7246  0C4D  00FF               	movwf	btemp+1
  7247  0C4E  087F               	movf	btemp+1,w
  7248  0C4F  00D3               	movwf	_Temperature+2
  7249                           
  7250                           ;EEPROM/EEPROM.c: 20:  }
  7251  0C50  2C55               	goto	l454
  7252  0C51                     l3857:
  7253                           
  7254                           ;EEPROM/EEPROM.c: 22:  {;EEPROM/EEPROM.c: 23:     Temperature.Set_Temp=(60U);
  7255  0C51  303C               	movlw	60
  7256  0C52  00FF               	movwf	btemp+1
  7257  0C53  087F               	movf	btemp+1,w
  7258  0C54  00D3               	movwf	_Temperature+2
  7259  0C55                     l454:
  7260  0C55  0008               	return
  7261  0C56                     __end_of_Get_EEPROM_Data:
  7262                           
  7263                           	psect	text34
  7264  0CFA                     __ptext34:	
  7265 ;; *************** function _e2pext_r *****************
  7266 ;; Defined at:
  7267 ;;		line 66 in file "EEPROM/EEPROM.c"
  7268 ;; Parameters:    Size  Location     Type
  7269 ;;  addr            2   26[BANK0 ] unsigned int 
  7270 ;; Auto vars:     Size  Location     Type
  7271 ;;  ah              1   30[BANK0 ] unsigned char 
  7272 ;;  al              1   29[BANK0 ] unsigned char 
  7273 ;;  ret             1   28[BANK0 ] unsigned char 
  7274 ;; Return value:  Size  Location     Type
  7275 ;;                  1    wreg      unsigned char 
  7276 ;; Registers used:
  7277 ;;		wreg, status,2, status,0, btemp+1, pclath, cstack
  7278 ;; Tracked objects:
  7279 ;;		On entry : 0/0
  7280 ;;		On exit  : 0/0
  7281 ;;		Unchanged: 0/0
  7282 ;; Data sizes:     COMMON   BANK0   BANK1   BANK3   BANK2
  7283 ;;      Params:         0       2       0       0       0
  7284 ;;      Locals:         0       3       0       0       0
  7285 ;;      Temps:          0       0       0       0       0
  7286 ;;      Totals:         0       5       0       0       0
  7287 ;;Total ram usage:        5 bytes
  7288 ;; Hardware stack levels used:    1
  7289 ;; Hardware stack levels required when called:    6
  7290 ;; This function calls:
  7291 ;;		_i2c_rb
  7292 ;;		_i2c_start
  7293 ;;		_i2c_stop
  7294 ;;		_i2c_wb
  7295 ;; This function is called by:
  7296 ;;		_Get_EEPROM_Data
  7297 ;;		_Set_EEPROM_Data
  7298 ;; This function uses a non-reentrant model
  7299 ;;
  7300                           
  7301                           
  7302                           ;psect for function _e2pext_r
  7303  0CFA                     _e2pext_r:
  7304  0CFA                     l3517:	
  7305                           ;incstack = 0
  7306 ;; hardware stack exceeded
  7307                           ; Regs used in _e2pext_r: [wreg+status,2+status,0+btemp+1+pclath+cstack]
  7308                           
  7309                           
  7310                           ;EEPROM/EEPROM.c: 66: unsigned char e2pext_r(unsigned int addr);EEPROM/EEPROM.c: 67: {;E
      +                          EPROM/EEPROM.c: 68:   unsigned char ret;;EEPROM/EEPROM.c: 69:   unsigned char ah;;EEPROM
      +                          /EEPROM.c: 70:   unsigned char al;;EEPROM/EEPROM.c: 72:   ah=(addr&0x0100)>>8;
  7311  0CFA  1283               	bcf	3,5	;RP0=0, select bank0
  7312  0CFB  1303               	bcf	3,6	;RP1=0, select bank0
  7313  0CFC  083B               	movf	e2pext_r@addr+1,w
  7314  0CFD  3901               	andlw	1
  7315  0CFE  00FF               	movwf	btemp+1
  7316  0CFF  087F               	movf	btemp+1,w
  7317  0D00  00BE               	movwf	e2pext_r@ah
  7318  0D01                     l3519:
  7319                           
  7320                           ;EEPROM/EEPROM.c: 73:   al=addr&0x00FF;
  7321  0D01  083A               	movf	e2pext_r@addr,w
  7322  0D02  00FF               	movwf	btemp+1
  7323  0D03  087F               	movf	btemp+1,w
  7324  0D04  00BD               	movwf	e2pext_r@al
  7325  0D05                     l3521:
  7326                           
  7327                           ;EEPROM/EEPROM.c: 75:   i2c_start();
  7328  0D05  120A  158A  20D5  120A  158A  	fcall	_i2c_start
  7329  0D0A                     l3523:
  7330                           
  7331                           ;EEPROM/EEPROM.c: 76:   if(ah)
  7332  0D0A  1283               	bcf	3,5	;RP0=0, select bank0
  7333  0D0B  1303               	bcf	3,6	;RP1=0, select bank0
  7334  0D0C  083E               	movf	e2pext_r@ah,w
  7335  0D0D  1903               	btfsc	3,2
  7336  0D0E  2D10               	goto	u4861
  7337  0D0F  2D11               	goto	u4860
  7338  0D10                     u4861:
  7339  0D10  2D18               	goto	l3527
  7340  0D11                     u4860:
  7341  0D11                     l3525:
  7342                           
  7343                           ;EEPROM/EEPROM.c: 77:   {;EEPROM/EEPROM.c: 78:     i2c_wb(0xA2);
  7344  0D11  30A2               	movlw	162
  7345  0D12  120A  158A  23C3  120A  158A  	fcall	_i2c_wb
  7346                           
  7347                           ;EEPROM/EEPROM.c: 79:   }
  7348  0D17  2D1E               	goto	l474
  7349  0D18                     l3527:
  7350                           
  7351                           ;EEPROM/EEPROM.c: 81:   {;EEPROM/EEPROM.c: 82:     i2c_wb(0xA0);
  7352  0D18  30A0               	movlw	160
  7353  0D19  120A  158A  23C3  120A  158A  	fcall	_i2c_wb
  7354  0D1E                     l474:	
  7355                           ;EEPROM/EEPROM.c: 83:   }
  7356                           
  7357                           
  7358                           ;EEPROM/EEPROM.c: 84:   i2c_wb(al);
  7359  0D1E  1283               	bcf	3,5	;RP0=0, select bank0
  7360  0D1F  1303               	bcf	3,6	;RP1=0, select bank0
  7361  0D20  083D               	movf	e2pext_r@al,w
  7362  0D21  120A  158A  23C3  120A  158A  	fcall	_i2c_wb
  7363                           
  7364                           ;EEPROM/EEPROM.c: 86:   i2c_start();
  7365  0D26  120A  158A  20D5  120A  158A  	fcall	_i2c_start
  7366  0D2B                     l3529:
  7367                           
  7368                           ;EEPROM/EEPROM.c: 87:   if(ah)
  7369  0D2B  1283               	bcf	3,5	;RP0=0, select bank0
  7370  0D2C  1303               	bcf	3,6	;RP1=0, select bank0
  7371  0D2D  083E               	movf	e2pext_r@ah,w
  7372  0D2E  1903               	btfsc	3,2
  7373  0D2F  2D31               	goto	u4871
  7374  0D30  2D32               	goto	u4870
  7375  0D31                     u4871:
  7376  0D31  2D39               	goto	l3533
  7377  0D32                     u4870:
  7378  0D32                     l3531:
  7379                           
  7380                           ;EEPROM/EEPROM.c: 88:   {;EEPROM/EEPROM.c: 89:     i2c_wb(0xA3);
  7381  0D32  30A3               	movlw	163
  7382  0D33  120A  158A  23C3  120A  158A  	fcall	_i2c_wb
  7383                           
  7384                           ;EEPROM/EEPROM.c: 90:   }
  7385  0D38  2D3F               	goto	l476
  7386  0D39                     l3533:
  7387                           
  7388                           ;EEPROM/EEPROM.c: 92:   {;EEPROM/EEPROM.c: 93:     i2c_wb(0xA1);
  7389  0D39  30A1               	movlw	161
  7390  0D3A  120A  158A  23C3  120A  158A  	fcall	_i2c_wb
  7391  0D3F                     l476:	
  7392                           ;EEPROM/EEPROM.c: 94:   }
  7393                           
  7394                           
  7395                           ;EEPROM/EEPROM.c: 95:   ret=i2c_rb(1);
  7396  0D3F  3001               	movlw	1
  7397  0D40  120A  158A  260A  120A  158A  	fcall	_i2c_rb
  7398  0D45  00FF               	movwf	btemp+1
  7399  0D46  087F               	movf	btemp+1,w
  7400  0D47  1283               	bcf	3,5	;RP0=0, select bank0
  7401  0D48  1303               	bcf	3,6	;RP1=0, select bank0
  7402  0D49  00BC               	movwf	e2pext_r@ret
  7403                           
  7404                           ;EEPROM/EEPROM.c: 96:   i2c_stop();
  7405  0D4A  120A  158A  20EA  120A  158A  	fcall	_i2c_stop
  7406  0D4F                     l3535:
  7407                           
  7408                           ;EEPROM/EEPROM.c: 98:   return ret;
  7409  0D4F  1283               	bcf	3,5	;RP0=0, select bank0
  7410  0D50  1303               	bcf	3,6	;RP1=0, select bank0
  7411  0D51  083C               	movf	e2pext_r@ret,w
  7412  0D52                     l477:
  7413  0D52  0008               	return
  7414  0D53                     __end_of_e2pext_r:
  7415                           
  7416                           	psect	text35
  7417  0BC3                     __ptext35:	
  7418 ;; *************** function _i2c_wb *****************
  7419 ;; Defined at:
  7420 ;;		line 39 in file "I2C/I2C.c"
  7421 ;; Parameters:    Size  Location     Type
  7422 ;;  val             1    wreg     unsigned char 
  7423 ;; Auto vars:     Size  Location     Type
  7424 ;;  val             1   24[BANK0 ] unsigned char 
  7425 ;;  i               1   25[BANK0 ] unsigned char 
  7426 ;; Return value:  Size  Location     Type
  7427 ;;                  1    wreg      void 
  7428 ;; Registers used:
  7429 ;;		wreg, status,2, status,0, btemp+1, pclath, cstack
  7430 ;; Tracked objects:
  7431 ;;		On entry : 0/0
  7432 ;;		On exit  : 0/0
  7433 ;;		Unchanged: 0/0
  7434 ;; Data sizes:     COMMON   BANK0   BANK1   BANK3   BANK2
  7435 ;;      Params:         0       0       0       0       0
  7436 ;;      Locals:         0       2       0       0       0
  7437 ;;      Temps:          0       2       0       0       0
  7438 ;;      Totals:         0       4       0       0       0
  7439 ;;Total ram usage:        4 bytes
  7440 ;; Hardware stack levels used:    1
  7441 ;; Hardware stack levels required when called:    5
  7442 ;; This function calls:
  7443 ;;		_delay
  7444 ;; This function is called by:
  7445 ;;		_Set_EEPROM_Data
  7446 ;;		_e2pext_r
  7447 ;; This function uses a non-reentrant model
  7448 ;;
  7449                           
  7450                           
  7451                           ;psect for function _i2c_wb
  7452  0BC3                     _i2c_wb:
  7453                           
  7454                           ;incstack = 0
  7455 ;; hardware stack exceeded
  7456                           ; Regs used in _i2c_wb: [wreg+status,2+status,0+btemp+1+pclath+cstack]
  7457                           ;i2c_wb@val stored from wreg
  7458  0BC3  1283               	bcf	3,5	;RP0=0, select bank0
  7459  0BC4  1303               	bcf	3,6	;RP1=0, select bank0
  7460  0BC5  00B8               	movwf	i2c_wb@val
  7461  0BC6                     l3399:
  7462                           
  7463                           ;I2C/I2C.c: 39: void i2c_wb(unsigned char val);I2C/I2C.c: 40: {;I2C/I2C.c: 41:   unsigne
      +                          d char i;;I2C/I2C.c: 42:   (PORTC &= ~(1<<3));
  7464  0BC6  30F7               	movlw	247
  7465  0BC7  00FF               	movwf	btemp+1
  7466  0BC8  087F               	movf	btemp+1,w
  7467  0BC9  0587               	andwf	7,f	;volatile
  7468  0BCA                     l3401:
  7469                           
  7470                           ;I2C/I2C.c: 43:   for(i=0;i<8;i++)
  7471  0BCA  01B9               	clrf	i2c_wb@i
  7472  0BCB                     l3407:
  7473                           
  7474                           ;I2C/I2C.c: 44:   {;I2C/I2C.c: 45:     PORTCbits.RC4=((val>>(7-i))& 0x01);
  7475  0BCB  0838               	movf	i2c_wb@val,w
  7476  0BCC  00B6               	movwf	??_i2c_wb
  7477  0BCD  0839               	movf	i2c_wb@i,w
  7478  0BCE  3C07               	sublw	7
  7479  0BCF  3E01               	addlw	1
  7480  0BD0  2BD3               	goto	u4674
  7481  0BD1                     u4675:
  7482  0BD1  1003               	clrc
  7483  0BD2  0CB6               	rrf	??_i2c_wb,f
  7484  0BD3                     u4674:
  7485  0BD3  3EFF               	addlw	-1
  7486  0BD4  1D03               	skipz
  7487  0BD5  2BD1               	goto	u4675
  7488  0BD6  0836               	movf	??_i2c_wb,w
  7489  0BD7  3901               	andlw	1
  7490  0BD8  00B7               	movwf	??_i2c_wb+1
  7491  0BD9  0EB7               	swapf	??_i2c_wb+1,f
  7492  0BDA  0807               	movf	7,w	;volatile
  7493  0BDB  0637               	xorwf	??_i2c_wb+1,w
  7494  0BDC  39EF               	andlw	-17
  7495  0BDD  0637               	xorwf	??_i2c_wb+1,w
  7496  0BDE  0087               	movwf	7	;volatile
  7497  0BDF                     l3409:
  7498                           
  7499                           ;I2C/I2C.c: 46:     (PORTC|= (1<<3));
  7500  0BDF  1587               	bsf	7,3	;volatile
  7501  0BE0                     l3411:
  7502                           
  7503                           ;I2C/I2C.c: 47:     delay();
  7504  0BE0  120A  158A  205F  120A  158A  	fcall	_delay
  7505  0BE5                     l3413:
  7506                           
  7507                           ;I2C/I2C.c: 48:     (PORTC &= ~(1<<3));
  7508  0BE5  30F7               	movlw	247
  7509  0BE6  00FF               	movwf	btemp+1
  7510  0BE7  087F               	movf	btemp+1,w
  7511  0BE8  1283               	bcf	3,5	;RP0=0, select bank0
  7512  0BE9  1303               	bcf	3,6	;RP1=0, select bank0
  7513  0BEA  0587               	andwf	7,f	;volatile
  7514  0BEB                     l3415:
  7515                           
  7516                           ;I2C/I2C.c: 49:   }
  7517  0BEB  3001               	movlw	1
  7518  0BEC  00FF               	movwf	btemp+1
  7519  0BED  087F               	movf	btemp+1,w
  7520  0BEE  07B9               	addwf	i2c_wb@i,f
  7521  0BEF                     l3417:
  7522  0BEF  3008               	movlw	8
  7523  0BF0  0239               	subwf	i2c_wb@i,w
  7524  0BF1  1C03               	skipc
  7525  0BF2  2BF4               	goto	u4681
  7526  0BF3  2BF5               	goto	u4680
  7527  0BF4                     u4681:
  7528  0BF4  2BCB               	goto	l3407
  7529  0BF5                     u4680:
  7530  0BF5                     l414:
  7531                           
  7532                           ;I2C/I2C.c: 50:   (PORTC|= (1<<4));
  7533  0BF5  1607               	bsf	7,4	;volatile
  7534  0BF6                     l3419:
  7535                           
  7536                           ;I2C/I2C.c: 51:   delay();
  7537  0BF6  120A  158A  205F  120A  158A  	fcall	_delay
  7538  0BFB                     l3421:
  7539                           
  7540                           ;I2C/I2C.c: 52:   (PORTC|= (1<<3));
  7541  0BFB  1283               	bcf	3,5	;RP0=0, select bank0
  7542  0BFC  1303               	bcf	3,6	;RP1=0, select bank0
  7543  0BFD  1587               	bsf	7,3	;volatile
  7544                           
  7545                           ;I2C/I2C.c: 53:   delay();
  7546  0BFE  120A  158A  205F  120A  158A  	fcall	_delay
  7547  0C03                     l3423:
  7548                           
  7549                           ;I2C/I2C.c: 54:   (PORTC &= ~(1<<3));
  7550  0C03  30F7               	movlw	247
  7551  0C04  00FF               	movwf	btemp+1
  7552  0C05  087F               	movf	btemp+1,w
  7553  0C06  1283               	bcf	3,5	;RP0=0, select bank0
  7554  0C07  1303               	bcf	3,6	;RP1=0, select bank0
  7555  0C08  0587               	andwf	7,f	;volatile
  7556  0C09                     l415:
  7557  0C09  0008               	return
  7558  0C0A                     __end_of_i2c_wb:
  7559                           
  7560                           	psect	text36
  7561  08EA                     __ptext36:	
  7562 ;; *************** function _i2c_stop *****************
  7563 ;; Defined at:
  7564 ;;		line 30 in file "I2C/I2C.c"
  7565 ;; Parameters:    Size  Location     Type
  7566 ;;		None
  7567 ;; Auto vars:     Size  Location     Type
  7568 ;;		None
  7569 ;; Return value:  Size  Location     Type
  7570 ;;                  1    wreg      void 
  7571 ;; Registers used:
  7572 ;;		wreg, status,2, status,0, btemp+1, pclath, cstack
  7573 ;; Tracked objects:
  7574 ;;		On entry : 0/0
  7575 ;;		On exit  : 0/0
  7576 ;;		Unchanged: 0/0
  7577 ;; Data sizes:     COMMON   BANK0   BANK1   BANK3   BANK2
  7578 ;;      Params:         0       0       0       0       0
  7579 ;;      Locals:         0       0       0       0       0
  7580 ;;      Temps:          0       0       0       0       0
  7581 ;;      Totals:         0       0       0       0       0
  7582 ;;Total ram usage:        0 bytes
  7583 ;; Hardware stack levels used:    1
  7584 ;; Hardware stack levels required when called:    5
  7585 ;; This function calls:
  7586 ;;		_delay
  7587 ;; This function is called by:
  7588 ;;		_Set_EEPROM_Data
  7589 ;;		_e2pext_r
  7590 ;; This function uses a non-reentrant model
  7591 ;;
  7592                           
  7593                           
  7594                           ;psect for function _i2c_stop
  7595  08EA                     _i2c_stop:
  7596  08EA                     l3389:	
  7597                           ;incstack = 0
  7598 ;; hardware stack exceeded
  7599                           ; Regs used in _i2c_stop: [wreg+status,2+status,0+btemp+1+pclath+cstack]
  7600                           
  7601                           
  7602                           ;I2C/I2C.c: 32:   (PORTC|= (1<<3));
  7603  08EA  1283               	bcf	3,5	;RP0=0, select bank0
  7604  08EB  1303               	bcf	3,6	;RP1=0, select bank0
  7605  08EC  1587               	bsf	7,3	;volatile
  7606  08ED                     l3391:
  7607                           
  7608                           ;I2C/I2C.c: 33:   (PORTC &= ~(1<<4));
  7609  08ED  30EF               	movlw	239
  7610  08EE  00FF               	movwf	btemp+1
  7611  08EF  087F               	movf	btemp+1,w
  7612  08F0  0587               	andwf	7,f	;volatile
  7613  08F1                     l3393:
  7614                           
  7615                           ;I2C/I2C.c: 34:   delay();
  7616  08F1  120A  158A  205F  120A  158A  	fcall	_delay
  7617  08F6                     l3395:
  7618                           
  7619                           ;I2C/I2C.c: 35:   (PORTC|= (1<<4));
  7620  08F6  1283               	bcf	3,5	;RP0=0, select bank0
  7621  08F7  1303               	bcf	3,6	;RP1=0, select bank0
  7622  08F8  1607               	bsf	7,4	;volatile
  7623  08F9                     l3397:
  7624                           
  7625                           ;I2C/I2C.c: 36:   delay();
  7626  08F9  120A  158A  205F  120A  158A  	fcall	_delay
  7627  08FE                     l410:
  7628  08FE  0008               	return
  7629  08FF                     __end_of_i2c_stop:
  7630                           
  7631                           	psect	text37
  7632  08D5                     __ptext37:	
  7633 ;; *************** function _i2c_start *****************
  7634 ;; Defined at:
  7635 ;;		line 19 in file "I2C/I2C.c"
  7636 ;; Parameters:    Size  Location     Type
  7637 ;;		None
  7638 ;; Auto vars:     Size  Location     Type
  7639 ;;		None
  7640 ;; Return value:  Size  Location     Type
  7641 ;;                  1    wreg      void 
  7642 ;; Registers used:
  7643 ;;		wreg, status,2, status,0, btemp+1, pclath, cstack
  7644 ;; Tracked objects:
  7645 ;;		On entry : 0/0
  7646 ;;		On exit  : 0/0
  7647 ;;		Unchanged: 0/0
  7648 ;; Data sizes:     COMMON   BANK0   BANK1   BANK3   BANK2
  7649 ;;      Params:         0       0       0       0       0
  7650 ;;      Locals:         0       0       0       0       0
  7651 ;;      Temps:          0       0       0       0       0
  7652 ;;      Totals:         0       0       0       0       0
  7653 ;;Total ram usage:        0 bytes
  7654 ;; Hardware stack levels used:    1
  7655 ;; Hardware stack levels required when called:    5
  7656 ;; This function calls:
  7657 ;;		_delay
  7658 ;; This function is called by:
  7659 ;;		_Set_EEPROM_Data
  7660 ;;		_e2pext_r
  7661 ;; This function uses a non-reentrant model
  7662 ;;
  7663                           
  7664                           
  7665                           ;psect for function _i2c_start
  7666  08D5                     _i2c_start:
  7667  08D5                     l3381:	
  7668                           ;incstack = 0
  7669 ;; hardware stack exceeded
  7670                           ; Regs used in _i2c_start: [wreg+status,2+status,0+btemp+1+pclath+cstack]
  7671                           
  7672                           
  7673                           ;I2C/I2C.c: 23:   (PORTC|= (1<<3));
  7674  08D5  1283               	bcf	3,5	;RP0=0, select bank0
  7675  08D6  1303               	bcf	3,6	;RP1=0, select bank0
  7676  08D7  1587               	bsf	7,3	;volatile
  7677                           
  7678                           ;I2C/I2C.c: 24:   (PORTC|= (1<<4));
  7679  08D8  1607               	bsf	7,4	;volatile
  7680  08D9                     l3383:
  7681                           
  7682                           ;I2C/I2C.c: 25:   delay();
  7683  08D9  120A  158A  205F  120A  158A  	fcall	_delay
  7684  08DE                     l3385:
  7685                           
  7686                           ;I2C/I2C.c: 26:   (PORTC &= ~(1<<4));
  7687  08DE  30EF               	movlw	239
  7688  08DF  00FF               	movwf	btemp+1
  7689  08E0  087F               	movf	btemp+1,w
  7690  08E1  1283               	bcf	3,5	;RP0=0, select bank0
  7691  08E2  1303               	bcf	3,6	;RP1=0, select bank0
  7692  08E3  0587               	andwf	7,f	;volatile
  7693  08E4                     l3387:
  7694                           
  7695                           ;I2C/I2C.c: 27:   delay();
  7696  08E4  120A  158A  205F  120A  158A  	fcall	_delay
  7697  08E9                     l407:
  7698  08E9  0008               	return
  7699  08EA                     __end_of_i2c_start:
  7700                           
  7701                           	psect	text38
  7702  0E0A                     __ptext38:	
  7703 ;; *************** function _i2c_rb *****************
  7704 ;; Defined at:
  7705 ;;		line 57 in file "I2C/I2C.c"
  7706 ;; Parameters:    Size  Location     Type
  7707 ;;  ack             1    wreg     unsigned char 
  7708 ;; Auto vars:     Size  Location     Type
  7709 ;;  ack             1   23[BANK0 ] unsigned char 
  7710 ;;  i               1   25[BANK0 ] unsigned char 
  7711 ;;  ret             1   24[BANK0 ] unsigned char 
  7712 ;; Return value:  Size  Location     Type
  7713 ;;                  1    wreg      unsigned char 
  7714 ;; Registers used:
  7715 ;;		wreg, status,2, status,0, btemp+1, pclath, cstack
  7716 ;; Tracked objects:
  7717 ;;		On entry : 0/0
  7718 ;;		On exit  : 0/0
  7719 ;;		Unchanged: 0/0
  7720 ;; Data sizes:     COMMON   BANK0   BANK1   BANK3   BANK2
  7721 ;;      Params:         0       0       0       0       0
  7722 ;;      Locals:         0       3       0       0       0
  7723 ;;      Temps:          0       1       0       0       0
  7724 ;;      Totals:         0       4       0       0       0
  7725 ;;Total ram usage:        4 bytes
  7726 ;; Hardware stack levels used:    1
  7727 ;; Hardware stack levels required when called:    5
  7728 ;; This function calls:
  7729 ;;		_delay
  7730 ;; This function is called by:
  7731 ;;		_e2pext_r
  7732 ;; This function uses a non-reentrant model
  7733 ;;
  7734                           
  7735                           
  7736                           ;psect for function _i2c_rb
  7737  0E0A                     _i2c_rb:
  7738                           
  7739                           ;incstack = 0
  7740 ;; hardware stack exceeded
  7741                           ; Regs used in _i2c_rb: [wreg+status,2+status,0+btemp+1+pclath+cstack]
  7742                           ;i2c_rb@ack stored from wreg
  7743  0E0A  1283               	bcf	3,5	;RP0=0, select bank0
  7744  0E0B  1303               	bcf	3,6	;RP1=0, select bank0
  7745  0E0C  00B7               	movwf	i2c_rb@ack
  7746  0E0D                     l3425:
  7747                           
  7748                           ;I2C/I2C.c: 57: unsigned char i2c_rb(unsigned char ack);I2C/I2C.c: 58: {;I2C/I2C.c: 59: 
      +                            char i;;I2C/I2C.c: 60:   unsigned char ret=0;
  7749  0E0D  01B8               	clrf	i2c_rb@ret
  7750  0E0E                     l3427:
  7751                           
  7752                           ;I2C/I2C.c: 62:   (PORTC &= ~(1<<3));
  7753  0E0E  30F7               	movlw	247
  7754  0E0F  00FF               	movwf	btemp+1
  7755  0E10  087F               	movf	btemp+1,w
  7756  0E11  0587               	andwf	7,f	;volatile
  7757  0E12                     l419:	
  7758                           ;I2C/I2C.c: 63:   (1==0)? ((TRISC &= ~(1<<4))):((TRISC|= (1<<4)));
  7759                           
  7760  0E12  1683               	bsf	3,5	;RP0=1, select bank1
  7761  0E13  1303               	bcf	3,6	;RP1=0, select bank1
  7762  0E14  1607               	bsf	7,4	;volatile
  7763  0E15                     l421:
  7764                           
  7765                           ;I2C/I2C.c: 64:   (PORTC|= (1<<4));
  7766  0E15  1283               	bcf	3,5	;RP0=0, select bank0
  7767  0E16  1303               	bcf	3,6	;RP1=0, select bank0
  7768  0E17  1607               	bsf	7,4	;volatile
  7769  0E18                     l3431:
  7770                           
  7771                           ;I2C/I2C.c: 65:   for(i=0;i<8;i++)
  7772  0E18  01B9               	clrf	i2c_rb@i
  7773  0E19                     l422:
  7774                           
  7775                           ;I2C/I2C.c: 66:   {;I2C/I2C.c: 67:     (PORTC|= (1<<3));
  7776  0E19  1587               	bsf	7,3	;volatile
  7777  0E1A                     l3437:
  7778                           
  7779                           ;I2C/I2C.c: 68:     delay();
  7780  0E1A  120A  158A  205F  120A  158A  	fcall	_delay
  7781  0E1F                     l3439:
  7782                           
  7783                           ;I2C/I2C.c: 69:     ret|=(PORTCbits.RC4<<(7-i));
  7784  0E1F  1283               	bcf	3,5	;RP0=0, select bank0
  7785  0E20  1303               	bcf	3,6	;RP1=0, select bank0
  7786  0E21  0E07               	swapf	7,w	;volatile
  7787  0E22  3901               	andlw	1
  7788  0E23  00B6               	movwf	??_i2c_rb
  7789  0E24  0839               	movf	i2c_rb@i,w
  7790  0E25  3C07               	sublw	7
  7791  0E26  3E01               	addlw	1
  7792  0E27  2E2A               	goto	u4694
  7793  0E28                     u4695:
  7794  0E28  1003               	clrc
  7795  0E29  0DB6               	rlf	??_i2c_rb,f
  7796  0E2A                     u4694:
  7797  0E2A  3EFF               	addlw	-1
  7798  0E2B  1D03               	skipz
  7799  0E2C  2E28               	goto	u4695
  7800  0E2D  0836               	movf	??_i2c_rb,w
  7801  0E2E  00FF               	movwf	btemp+1
  7802  0E2F  087F               	movf	btemp+1,w
  7803  0E30  04B8               	iorwf	i2c_rb@ret,f
  7804  0E31                     l3441:
  7805                           
  7806                           ;I2C/I2C.c: 70:     (PORTC &= ~(1<<3));
  7807  0E31  30F7               	movlw	247
  7808  0E32  00FF               	movwf	btemp+1
  7809  0E33  087F               	movf	btemp+1,w
  7810  0E34  0587               	andwf	7,f	;volatile
  7811  0E35                     l3443:
  7812                           
  7813                           ;I2C/I2C.c: 71:   }
  7814  0E35  3001               	movlw	1
  7815  0E36  00FF               	movwf	btemp+1
  7816  0E37  087F               	movf	btemp+1,w
  7817  0E38  07B9               	addwf	i2c_rb@i,f
  7818  0E39                     l3445:
  7819  0E39  3008               	movlw	8
  7820  0E3A  0239               	subwf	i2c_rb@i,w
  7821  0E3B  1C03               	skipc
  7822  0E3C  2E3E               	goto	u4701
  7823  0E3D  2E3F               	goto	u4700
  7824  0E3E                     u4701:
  7825  0E3E  2E19               	goto	l422
  7826  0E3F                     u4700:
  7827  0E3F                     l3447:
  7828  0E3F  30EF               	movlw	239
  7829  0E40  00FF               	movwf	btemp+1
  7830  0E41  087F               	movf	btemp+1,w
  7831  0E42  1683               	bsf	3,5	;RP0=1, select bank1
  7832  0E43  1303               	bcf	3,6	;RP1=0, select bank1
  7833  0E44  0587               	andwf	7,f	;volatile
  7834  0E45                     l3449:
  7835                           
  7836                           ;I2C/I2C.c: 73:   if(ack)
  7837  0E45  1283               	bcf	3,5	;RP0=0, select bank0
  7838  0E46  1303               	bcf	3,6	;RP1=0, select bank0
  7839  0E47  0837               	movf	i2c_rb@ack,w
  7840  0E48  1903               	btfsc	3,2
  7841  0E49  2E4B               	goto	u4711
  7842  0E4A  2E4C               	goto	u4710
  7843  0E4B                     u4711:
  7844  0E4B  2E51               	goto	l428
  7845  0E4C                     u4710:
  7846  0E4C                     l3451:
  7847                           
  7848                           ;I2C/I2C.c: 74:     (PORTC &= ~(1<<4));
  7849  0E4C  30EF               	movlw	239
  7850  0E4D  00FF               	movwf	btemp+1
  7851  0E4E  087F               	movf	btemp+1,w
  7852  0E4F  0587               	andwf	7,f	;volatile
  7853  0E50  2E52               	goto	l3453
  7854  0E51                     l428:	
  7855                           ;I2C/I2C.c: 75:   else
  7856                           
  7857                           
  7858                           ;I2C/I2C.c: 76:  (PORTC|= (1<<4));
  7859  0E51  1607               	bsf	7,4	;volatile
  7860  0E52                     l3453:
  7861                           
  7862                           ;I2C/I2C.c: 77:   delay();
  7863  0E52  120A  158A  205F  120A  158A  	fcall	_delay
  7864  0E57                     l3455:
  7865                           
  7866                           ;I2C/I2C.c: 78:   (PORTC|= (1<<3));
  7867  0E57  1283               	bcf	3,5	;RP0=0, select bank0
  7868  0E58  1303               	bcf	3,6	;RP1=0, select bank0
  7869  0E59  1587               	bsf	7,3	;volatile
  7870                           
  7871                           ;I2C/I2C.c: 79:   delay();
  7872  0E5A  120A  158A  205F  120A  158A  	fcall	_delay
  7873  0E5F                     l3457:
  7874                           
  7875                           ;I2C/I2C.c: 80:   (PORTC &= ~(1<<3));
  7876  0E5F  30F7               	movlw	247
  7877  0E60  00FF               	movwf	btemp+1
  7878  0E61  087F               	movf	btemp+1,w
  7879  0E62  1283               	bcf	3,5	;RP0=0, select bank0
  7880  0E63  1303               	bcf	3,6	;RP1=0, select bank0
  7881  0E64  0587               	andwf	7,f	;volatile
  7882  0E65                     l3459:
  7883                           
  7884                           ;I2C/I2C.c: 82:   return ret;
  7885  0E65  0838               	movf	i2c_rb@ret,w
  7886  0E66                     l430:
  7887  0E66  0008               	return
  7888  0E67                     __end_of_i2c_rb:
  7889                           
  7890                           	psect	text39
  7891  085F                     __ptext39:	
  7892 ;; *************** function _delay *****************
  7893 ;; Defined at:
  7894 ;;		line 4 in file "I2C/I2C.c"
  7895 ;; Parameters:    Size  Location     Type
  7896 ;;		None
  7897 ;; Auto vars:     Size  Location     Type
  7898 ;;		None
  7899 ;; Return value:  Size  Location     Type
  7900 ;;                  1    wreg      void 
  7901 ;; Registers used:
  7902 ;;		None
  7903 ;; Tracked objects:
  7904 ;;		On entry : 0/0
  7905 ;;		On exit  : 0/0
  7906 ;;		Unchanged: 0/0
  7907 ;; Data sizes:     COMMON   BANK0   BANK1   BANK3   BANK2
  7908 ;;      Params:         0       0       0       0       0
  7909 ;;      Locals:         0       0       0       0       0
  7910 ;;      Temps:          0       0       0       0       0
  7911 ;;      Totals:         0       0       0       0       0
  7912 ;;Total ram usage:        0 bytes
  7913 ;; Hardware stack levels used:    1
  7914 ;; Hardware stack levels required when called:    4
  7915 ;; This function calls:
  7916 ;;		Nothing
  7917 ;; This function is called by:
  7918 ;;		_i2c_start
  7919 ;;		_i2c_stop
  7920 ;;		_i2c_wb
  7921 ;;		_i2c_rb
  7922 ;; This function uses a non-reentrant model
  7923 ;;
  7924                           
  7925                           
  7926                           ;psect for function _delay
  7927  085F                     _delay:
  7928  085F                     l3141:	
  7929                           ;incstack = 0
  7930 ;; hardware stack exceeded
  7931                           ; Regs used in _delay: []
  7932                           
  7933  085F  0000               	nop	;# 
  7934  0860  0000               	nop	;# 
  7935  0861  0000               	nop	;# 
  7936  0862  0000               	nop	;# 
  7937  0863  0000               	nop	;# 
  7938  0864  0000               	nop	;# 
  7939  0865  0000               	nop	;# 
  7940  0866  0000               	nop	;# 
  7941  0867  0000               	nop	;# 
  7942  0868                     l404:
  7943  0868  0008               	return
  7944  0869                     __end_of_delay:
  7945                           
  7946                           	psect	text40
  7947  0948                     __ptext40:	
  7948 ;; *************** function _GPIO_Init *****************
  7949 ;; Defined at:
  7950 ;;		line 12 in file "gpio/gpio.c"
  7951 ;; Parameters:    Size  Location     Type
  7952 ;;		None
  7953 ;; Auto vars:     Size  Location     Type
  7954 ;;		None
  7955 ;; Return value:  Size  Location     Type
  7956 ;;                  1    wreg      void 
  7957 ;; Registers used:
  7958 ;;		wreg, status,2, status,0, btemp+1
  7959 ;; Tracked objects:
  7960 ;;		On entry : 0/0
  7961 ;;		On exit  : 0/0
  7962 ;;		Unchanged: 0/0
  7963 ;; Data sizes:     COMMON   BANK0   BANK1   BANK3   BANK2
  7964 ;;      Params:         0       0       0       0       0
  7965 ;;      Locals:         0       0       0       0       0
  7966 ;;      Temps:          0       0       0       0       0
  7967 ;;      Totals:         0       0       0       0       0
  7968 ;;Total ram usage:        0 bytes
  7969 ;; Hardware stack levels used:    1
  7970 ;; Hardware stack levels required when called:    4
  7971 ;; This function calls:
  7972 ;;		Nothing
  7973 ;; This function is called by:
  7974 ;;		_main
  7975 ;; This function uses a non-reentrant model
  7976 ;;
  7977                           
  7978                           
  7979                           ;psect for function _GPIO_Init
  7980  0948                     _GPIO_Init:
  7981  0948                     l2917:	
  7982                           ;incstack = 0
  7983                           ; Regs used in _GPIO_Init: [wreg+status,2+status,0+btemp+1]
  7984                           
  7985  0948  30DF               	movlw	223
  7986  0949  00FF               	movwf	btemp+1
  7987  094A  087F               	movf	btemp+1,w
  7988  094B  1683               	bsf	3,5	;RP0=1, select bank1
  7989  094C  1303               	bcf	3,6	;RP1=0, select bank1
  7990  094D  0587               	andwf	7,f	;volatile
  7991  094E                     l2919:
  7992  094E  30FB               	movlw	251
  7993  094F  00FF               	movwf	btemp+1
  7994  0950  087F               	movf	btemp+1,w
  7995  0951  0587               	andwf	7,f	;volatile
  7996  0952                     l2921:
  7997  0952  30EF               	movlw	239
  7998  0953  00FF               	movwf	btemp+1
  7999  0954  087F               	movf	btemp+1,w
  8000  0955  0586               	andwf	6,f	;volatile
  8001  0956                     l2923:
  8002  0956  30DF               	movlw	223
  8003  0957  00FF               	movwf	btemp+1
  8004  0958  087F               	movf	btemp+1,w
  8005  0959  0585               	andwf	5,f	;volatile
  8006  095A                     l2925:
  8007  095A  30EF               	movlw	239
  8008  095B  00FF               	movwf	btemp+1
  8009  095C  087F               	movf	btemp+1,w
  8010  095D  0585               	andwf	5,f	;volatile
  8011  095E                     l236:
  8012  095E  1486               	bsf	6,1	;volatile
  8013  095F                     l240:
  8014  095F  1506               	bsf	6,2	;volatile
  8015  0960                     l244:
  8016  0960  1406               	bsf	6,0	;volatile
  8017  0961                     l248:
  8018  0961  1505               	bsf	5,2	;volatile
  8019  0962                     l2935:
  8020  0962  30F7               	movlw	247
  8021  0963  00FF               	movwf	btemp+1
  8022  0964  087F               	movf	btemp+1,w
  8023  0965  0587               	andwf	7,f	;volatile
  8024  0966                     l256:
  8025  0966  1607               	bsf	7,4	;volatile
  8026  0967                     l2939:
  8027  0967  0188               	clrf	8	;volatile
  8028  0968                     l263:
  8029  0968  0008               	return
  8030  0969                     __end_of_GPIO_Init:
  8031                           
  8032                           	psect	text41
  8033  0881                     __ptext41:	
  8034 ;; *************** function _Elements_Init *****************
  8035 ;; Defined at:
  8036 ;;		line 11 in file "Elements/Elements.c"
  8037 ;; Parameters:    Size  Location     Type
  8038 ;;		None
  8039 ;; Auto vars:     Size  Location     Type
  8040 ;;		None
  8041 ;; Return value:  Size  Location     Type
  8042 ;;                  1    wreg      void 
  8043 ;; Registers used:
  8044 ;;		wreg, status,2, status,0, btemp+1
  8045 ;; Tracked objects:
  8046 ;;		On entry : 0/0
  8047 ;;		On exit  : 0/0
  8048 ;;		Unchanged: 0/0
  8049 ;; Data sizes:     COMMON   BANK0   BANK1   BANK3   BANK2
  8050 ;;      Params:         0       0       0       0       0
  8051 ;;      Locals:         0       0       0       0       0
  8052 ;;      Temps:          0       0       0       0       0
  8053 ;;      Totals:         0       0       0       0       0
  8054 ;;Total ram usage:        0 bytes
  8055 ;; Hardware stack levels used:    1
  8056 ;; Hardware stack levels required when called:    4
  8057 ;; This function calls:
  8058 ;;		Nothing
  8059 ;; This function is called by:
  8060 ;;		_main
  8061 ;; This function uses a non-reentrant model
  8062 ;;
  8063                           
  8064                           
  8065                           ;psect for function _Elements_Init
  8066  0881                     _Elements_Init:
  8067  0881                     l2949:	
  8068                           ;incstack = 0
  8069                           ; Regs used in _Elements_Init: [wreg+status,2+status,0+btemp+1]
  8070                           
  8071                           
  8072                           ;Elements/Elements.c: 13:  (PORTB &= ~(1<<4));
  8073  0881  30EF               	movlw	239
  8074  0882  00FF               	movwf	btemp+1
  8075  0883  087F               	movf	btemp+1,w
  8076  0884  1283               	bcf	3,5	;RP0=0, select bank0
  8077  0885  1303               	bcf	3,6	;RP1=0, select bank0
  8078  0886  0586               	andwf	6,f	;volatile
  8079                           
  8080                           ;Elements/Elements.c: 14:  (PORTC &= ~(1<<5));
  8081  0887  30DF               	movlw	223
  8082  0888  00FF               	movwf	btemp+1
  8083  0889  087F               	movf	btemp+1,w
  8084  088A  0587               	andwf	7,f	;volatile
  8085                           
  8086                           ;Elements/Elements.c: 15:  (PORTC &= ~(1<<2));
  8087  088B  30FB               	movlw	251
  8088  088C  00FF               	movwf	btemp+1
  8089  088D  087F               	movf	btemp+1,w
  8090  088E  0587               	andwf	7,f	;volatile
  8091  088F                     l179:
  8092  088F  0008               	return
  8093  0890                     __end_of_Elements_Init:
  8094                           
  8095                           	psect	text42
  8096  0874                     __ptext42:	
  8097 ;; *************** function _Display_Init *****************
  8098 ;; Defined at:
  8099 ;;		line 15 in file "Display/Display.c"
  8100 ;; Parameters:    Size  Location     Type
  8101 ;;		None
  8102 ;; Auto vars:     Size  Location     Type
  8103 ;;		None
  8104 ;; Return value:  Size  Location     Type
  8105 ;;                  1    wreg      void 
  8106 ;; Registers used:
  8107 ;;		wreg, status,2, status,0, btemp+1
  8108 ;; Tracked objects:
  8109 ;;		On entry : 0/0
  8110 ;;		On exit  : 0/0
  8111 ;;		Unchanged: 0/0
  8112 ;; Data sizes:     COMMON   BANK0   BANK1   BANK3   BANK2
  8113 ;;      Params:         0       0       0       0       0
  8114 ;;      Locals:         0       0       0       0       0
  8115 ;;      Temps:          0       0       0       0       0
  8116 ;;      Totals:         0       0       0       0       0
  8117 ;;Total ram usage:        0 bytes
  8118 ;; Hardware stack levels used:    1
  8119 ;; Hardware stack levels required when called:    4
  8120 ;; This function calls:
  8121 ;;		Nothing
  8122 ;; This function is called by:
  8123 ;;		_main
  8124 ;; This function uses a non-reentrant model
  8125 ;;
  8126                           
  8127                           
  8128                           ;psect for function _Display_Init
  8129  0874                     _Display_Init:
  8130  0874                     l2945:	
  8131                           ;incstack = 0
  8132                           ; Regs used in _Display_Init: [wreg+status,2+status,0+btemp+1]
  8133                           
  8134                           
  8135                           ;Display/Display.c: 17:  (PORTA &= ~(1<<5)) ;
  8136  0874  30DF               	movlw	223
  8137  0875  00FF               	movwf	btemp+1
  8138  0876  087F               	movf	btemp+1,w
  8139  0877  1283               	bcf	3,5	;RP0=0, select bank0
  8140  0878  1303               	bcf	3,6	;RP1=0, select bank0
  8141  0879  0585               	andwf	5,f	;volatile
  8142                           
  8143                           ;Display/Display.c: 18:  (PORTA &= ~(1<<4)) ;
  8144  087A  30EF               	movlw	239
  8145  087B  00FF               	movwf	btemp+1
  8146  087C  087F               	movf	btemp+1,w
  8147  087D  0585               	andwf	5,f	;volatile
  8148  087E                     l2947:
  8149                           
  8150                           ;Display/Display.c: 19:  PORTD=0b00111111;
  8151  087E  303F               	movlw	63
  8152  087F  0088               	movwf	8	;volatile
  8153  0880                     l121:
  8154  0880  0008               	return
  8155  0881                     __end_of_Display_Init:
  8156                           
  8157                           	psect	text43
  8158  084D                     __ptext43:	
  8159 ;; *************** function _ADC_Start_Conv *****************
  8160 ;; Defined at:
  8161 ;;		line 38 in file "ADC/ADC.c"
  8162 ;; Parameters:    Size  Location     Type
  8163 ;;		None
  8164 ;; Auto vars:     Size  Location     Type
  8165 ;;		None
  8166 ;; Return value:  Size  Location     Type
  8167 ;;                  1    wreg      void 
  8168 ;; Registers used:
  8169 ;;		None
  8170 ;; Tracked objects:
  8171 ;;		On entry : 0/0
  8172 ;;		On exit  : 0/0
  8173 ;;		Unchanged: 0/0
  8174 ;; Data sizes:     COMMON   BANK0   BANK1   BANK3   BANK2
  8175 ;;      Params:         0       0       0       0       0
  8176 ;;      Locals:         0       0       0       0       0
  8177 ;;      Temps:          0       0       0       0       0
  8178 ;;      Totals:         0       0       0       0       0
  8179 ;;Total ram usage:        0 bytes
  8180 ;; Hardware stack levels used:    1
  8181 ;; Hardware stack levels required when called:    4
  8182 ;; This function calls:
  8183 ;;		Nothing
  8184 ;; This function is called by:
  8185 ;;		_main
  8186 ;; This function uses a non-reentrant model
  8187 ;;
  8188                           
  8189                           
  8190                           ;psect for function _ADC_Start_Conv
  8191  084D                     _ADC_Start_Conv:
  8192  084D                     l2913:	
  8193                           ;incstack = 0
  8194                           ; Regs used in _ADC_Start_Conv: []
  8195                           
  8196                           
  8197                           ;ADC/ADC.c: 40:  if (ADC_Info.ADC_INIT_FLAG==1)
  8198  084D  1283               	bcf	3,5	;RP0=0, select bank0
  8199  084E  1303               	bcf	3,6	;RP1=0, select bank0
  8200  084F  1C50               	btfss	_ADC_Info,0
  8201  0850  2852               	goto	u3721
  8202  0851  2853               	goto	u3720
  8203  0852                     u3721:
  8204  0852  2855               	goto	l25
  8205  0853                     u3720:
  8206  0853                     l2915:
  8207                           
  8208                           ;ADC/ADC.c: 41:  {;ADC/ADC.c: 42:      ADCON0bits.GO_DONE=1 ;
  8209  0853  151F               	bsf	31,2	;volatile
  8210                           
  8211                           ;ADC/ADC.c: 43:      ADC_Info.ADC_START_FLAG=1;
  8212  0854  14D0               	bsf	_ADC_Info,1
  8213  0855                     l25:
  8214  0855  0008               	return
  8215  0856                     __end_of_ADC_Start_Conv:
  8216                           
  8217                           	psect	text44
  8218  092D                     __ptext44:	
  8219 ;; *************** function _ADC_Init *****************
  8220 ;; Defined at:
  8221 ;;		line 13 in file "ADC/ADC.c"
  8222 ;; Parameters:    Size  Location     Type
  8223 ;;		None
  8224 ;; Auto vars:     Size  Location     Type
  8225 ;;		None
  8226 ;; Return value:  Size  Location     Type
  8227 ;;                  1    wreg      void 
  8228 ;; Registers used:
  8229 ;;		None
  8230 ;; Tracked objects:
  8231 ;;		On entry : 0/0
  8232 ;;		On exit  : 0/0
  8233 ;;		Unchanged: 0/0
  8234 ;; Data sizes:     COMMON   BANK0   BANK1   BANK3   BANK2
  8235 ;;      Params:         0       0       0       0       0
  8236 ;;      Locals:         0       0       0       0       0
  8237 ;;      Temps:          0       0       0       0       0
  8238 ;;      Totals:         0       0       0       0       0
  8239 ;;Total ram usage:        0 bytes
  8240 ;; Hardware stack levels used:    1
  8241 ;; Hardware stack levels required when called:    4
  8242 ;; This function calls:
  8243 ;;		Nothing
  8244 ;; This function is called by:
  8245 ;;		_main
  8246 ;; This function uses a non-reentrant model
  8247 ;;
  8248                           
  8249                           
  8250                           ;psect for function _ADC_Init
  8251  092D                     _ADC_Init:
  8252  092D                     l2911:	
  8253                           ;incstack = 0
  8254                           ; Regs used in _ADC_Init: []
  8255                           
  8256                           
  8257                           ;ADC/ADC.c: 16:     ADCON1bits.ADFM=1;
  8258  092D  1683               	bsf	3,5	;RP0=1, select bank1
  8259  092E  1303               	bcf	3,6	;RP1=0, select bank1
  8260  092F  179F               	bsf	31,7	;volatile
  8261                           
  8262                           ;ADC/ADC.c: 18:     ADCON0bits.ADCS0=1 ;
  8263  0930  1283               	bcf	3,5	;RP0=0, select bank0
  8264  0931  1303               	bcf	3,6	;RP1=0, select bank0
  8265  0932  171F               	bsf	31,6	;volatile
  8266                           
  8267                           ;ADC/ADC.c: 19:     ADCON0bits.ADCS1=0;
  8268  0933  139F               	bcf	31,7	;volatile
  8269                           
  8270                           ;ADC/ADC.c: 20:     ADCON1bits.ADCS2=1 ;
  8271  0934  1683               	bsf	3,5	;RP0=1, select bank1
  8272  0935  1303               	bcf	3,6	;RP1=0, select bank1
  8273  0936  171F               	bsf	31,6	;volatile
  8274                           
  8275                           ;ADC/ADC.c: 23:     ADCON0bits.CHS0=0;
  8276  0937  1283               	bcf	3,5	;RP0=0, select bank0
  8277  0938  1303               	bcf	3,6	;RP1=0, select bank0
  8278  0939  119F               	bcf	31,3	;volatile
  8279                           
  8280                           ;ADC/ADC.c: 24:     ADCON0bits.CHS1=1;
  8281  093A  161F               	bsf	31,4	;volatile
  8282                           
  8283                           ;ADC/ADC.c: 25:     ADCON0bits.CHS2=0;
  8284  093B  129F               	bcf	31,5	;volatile
  8285                           
  8286                           ;ADC/ADC.c: 28:     ADCON1bits.PCFG0=0;
  8287  093C  1683               	bsf	3,5	;RP0=1, select bank1
  8288  093D  1303               	bcf	3,6	;RP1=0, select bank1
  8289  093E  101F               	bcf	31,0	;volatile
  8290                           
  8291                           ;ADC/ADC.c: 29:     ADCON1bits.PCFG1=1;
  8292  093F  149F               	bsf	31,1	;volatile
  8293                           
  8294                           ;ADC/ADC.c: 30:     ADCON1bits.PCFG2=0;
  8295  0940  111F               	bcf	31,2	;volatile
  8296                           
  8297                           ;ADC/ADC.c: 31:     ADCON1bits.PCFG3=0;
  8298  0941  119F               	bcf	31,3	;volatile
  8299                           
  8300                           ;ADC/ADC.c: 33:     ADCON0bits.ADON=1;
  8301  0942  1283               	bcf	3,5	;RP0=0, select bank0
  8302  0943  1303               	bcf	3,6	;RP1=0, select bank0
  8303  0944  141F               	bsf	31,0	;volatile
  8304                           
  8305                           ;ADC/ADC.c: 34:     ADCON0bits.GO_DONE=0;
  8306  0945  111F               	bcf	31,2	;volatile
  8307                           
  8308                           ;ADC/ADC.c: 35:     ADC_Info.ADC_INIT_FLAG=1;
  8309  0946  1450               	bsf	_ADC_Info,0
  8310  0947                     l21:
  8311  0947  0008               	return
  8312  0948                     __end_of_ADC_Init:
  8313                           
  8314                           	psect	text45
  8315  098B                     __ptext45:	
  8316 ;; *************** function _myISR *****************
  8317 ;; Defined at:
  8318 ;;		line 11 in file "Interrupt/Interrupt.c"
  8319 ;; Parameters:    Size  Location     Type
  8320 ;;		None
  8321 ;; Auto vars:     Size  Location     Type
  8322 ;;		None
  8323 ;; Return value:  Size  Location     Type
  8324 ;;                  1    wreg      void 
  8325 ;; Registers used:
  8326 ;;		wreg, fsr0l, fsr0h, status,2, status,0, btemp+1, pclath, cstack
  8327 ;; Tracked objects:
  8328 ;;		On entry : 0/0
  8329 ;;		On exit  : 0/0
  8330 ;;		Unchanged: 0/0
  8331 ;; Data sizes:     COMMON   BANK0   BANK1   BANK3   BANK2
  8332 ;;      Params:         0       0       0       0       0
  8333 ;;      Locals:         0       0       0       0       0
  8334 ;;      Temps:          0       4       0       0       0
  8335 ;;      Totals:         0       4       0       0       0
  8336 ;;Total ram usage:        4 bytes
  8337 ;; Hardware stack levels used:    1
  8338 ;; Hardware stack levels required when called:    3
  8339 ;; This function calls:
  8340 ;;		_EXTI_On_Off_CallBack
  8341 ;;		_Timer0_CallBack
  8342 ;; This function is called by:
  8343 ;;		Interrupt level 1
  8344 ;; This function uses a non-reentrant model
  8345 ;;
  8346                           
  8347                           
  8348                           ;psect for function _myISR
  8349  098B                     _myISR:
  8350  098B                     i1l3897:
  8351                           
  8352                           ;Interrupt/Interrupt.c: 13:  if(INTCONbits.INTF)
  8353  098B  1C8B               	btfss	11,1	;volatile
  8354  098C  298E               	goto	u556_21
  8355  098D  298F               	goto	u556_20
  8356  098E                     u556_21:
  8357  098E  2996               	goto	i1l276
  8358  098F                     u556_20:
  8359  098F                     i1l3899:
  8360                           
  8361                           ;Interrupt/Interrupt.c: 14:  {;Interrupt/Interrupt.c: 15:         INTCONbits.INTF=0;
  8362  098F  108B               	bcf	11,1	;volatile
  8363  0990                     i1l3901:
  8364                           
  8365                           ;Interrupt/Interrupt.c: 16:   EXTI_On_Off_CallBack();
  8366  0990  120A  158A  20FF  120A  158A  	fcall	_EXTI_On_Off_CallBack
  8367                           
  8368                           ;Interrupt/Interrupt.c: 18:  }
  8369  0995  29A2               	goto	i1l279
  8370  0996                     i1l276:	
  8371                           ;Interrupt/Interrupt.c: 19:  else if(INTCONbits.TMR0IF)
  8372                           
  8373  0996  1D0B               	btfss	11,2	;volatile
  8374  0997  2999               	goto	u557_21
  8375  0998  299A               	goto	u557_20
  8376  0999                     u557_21:
  8377  0999  29A2               	goto	i1l279
  8378  099A                     u557_20:
  8379  099A                     i1l3903:
  8380                           
  8381                           ;Interrupt/Interrupt.c: 20:  {;Interrupt/Interrupt.c: 21:         INTCONbits.TMR0IF=0;
  8382  099A  110B               	bcf	11,2	;volatile
  8383  099B                     i1l3905:
  8384                           
  8385                           ;Interrupt/Interrupt.c: 22:         TMR0=100;
  8386  099B  3064               	movlw	100
  8387  099C  0081               	movwf	1	;volatile
  8388  099D                     i1l3907:
  8389                           
  8390                           ;Interrupt/Interrupt.c: 23:   Timer0_CallBack();
  8391  099D  120A  158A  2276  120A  158A  	fcall	_Timer0_CallBack
  8392  09A2                     i1l279:
  8393  09A2  1283               	bcf	3,5	;RP0=0, select bank0
  8394  09A3  1303               	bcf	3,6	;RP1=0, select bank0
  8395  09A4  0835               	movf	??_myISR+3,w
  8396  09A5  00FF               	movwf	btemp+1
  8397  09A6  0834               	movf	??_myISR+2,w
  8398  09A7  008A               	movwf	10
  8399  09A8  0833               	movf	??_myISR+1,w
  8400  09A9  0084               	movwf	4
  8401  09AA  0E32               	swapf	??_myISR^0,w
  8402  09AB  0083               	movwf	3
  8403  09AC  0EFE               	swapf	btemp,f
  8404  09AD  0E7E               	swapf	btemp,w
  8405  09AE  0009               	retfie
  8406  09AF                     __end_of_myISR:
  8407                           
  8408                           	psect	intentry
  8409  0004                     __pintentry:	
  8410                           ;incstack = 0
  8411 ;; hardware stack exceeded
  8412                           ; Regs used in _myISR: [wreg-fsr0h+status,2+status,0+btemp+1+pclath+cstack]
  8413                           
  8414  0004                     interrupt_function:
  8415  007E                     saved_w	set	btemp
  8416  0004  00FE               	movwf	btemp
  8417  0005  0E03               	swapf	3,w
  8418  0006  1283               	bcf	3,5	;RP0=0, select bank0
  8419  0007  1303               	bcf	3,6	;RP1=0, select bank0
  8420  0008  00B2               	movwf	??_myISR
  8421  0009  0804               	movf	4,w
  8422  000A  00B3               	movwf	??_myISR+1
  8423  000B  080A               	movf	10,w
  8424  000C  00B4               	movwf	??_myISR+2
  8425  000D  087F               	movf	btemp+1,w
  8426  000E  00B5               	movwf	??_myISR+3
  8427  000F  120A  158A  298B   	ljmp	_myISR
  8428                           
  8429                           	psect	text46
  8430  0A76                     __ptext46:	
  8431 ;; *************** function _Timer0_CallBack *****************
  8432 ;; Defined at:
  8433 ;;		line 31 in file "Timer/Timer.c"
  8434 ;; Parameters:    Size  Location     Type
  8435 ;;		None
  8436 ;; Auto vars:     Size  Location     Type
  8437 ;;		None
  8438 ;; Return value:  Size  Location     Type
  8439 ;;                  1    wreg      void 
  8440 ;; Registers used:
  8441 ;;		wreg, fsr0l, fsr0h, status,2, status,0, btemp+1, pclath, cstack
  8442 ;; Tracked objects:
  8443 ;;		On entry : 0/0
  8444 ;;		On exit  : 0/0
  8445 ;;		Unchanged: 0/0
  8446 ;; Data sizes:     COMMON   BANK0   BANK1   BANK3   BANK2
  8447 ;;      Params:         0       0       0       0       0
  8448 ;;      Locals:         0       0       0       0       0
  8449 ;;      Temps:          0       0       0       0       0
  8450 ;;      Totals:         0       0       0       0       0
  8451 ;;Total ram usage:        0 bytes
  8452 ;; Hardware stack levels used:    1
  8453 ;; Hardware stack levels required when called:    2
  8454 ;; This function calls:
  8455 ;;		_Scheduler_ActivateTask
  8456 ;; This function is called by:
  8457 ;;		_myISR
  8458 ;; This function uses a non-reentrant model
  8459 ;;
  8460                           
  8461                           
  8462                           ;psect for function _Timer0_CallBack
  8463  0A76                     _Timer0_CallBack:
  8464  0A76                     i1l3877:	
  8465                           ;incstack = 0
  8466 ;; hardware stack exceeded
  8467                           ; Regs used in _Timer0_CallBack: [wreg-fsr0h+status,2+status,0+btemp+1+pclath+cstack]
  8468                           
  8469                           
  8470                           ;Timer/Timer.c: 33:  Tick_Num++;
  8471  0A76  3001               	movlw	1
  8472  0A77  1683               	bsf	3,5	;RP0=1, select bank1
  8473  0A78  1303               	bcf	3,6	;RP1=0, select bank1
  8474  0A79  07C8               	addwf	_Tick_Num^(0+128),f
  8475  0A7A  3000               	movlw	0
  8476  0A7B  1803               	skipnc
  8477  0A7C  3001               	movlw	1
  8478  0A7D  07C9               	addwf	(_Tick_Num+1)^(0+128),f
  8479  0A7E  3000               	movlw	0
  8480  0A7F  1803               	skipnc
  8481  0A80  3001               	movlw	1
  8482  0A81  07CA               	addwf	(_Tick_Num+2)^(0+128),f
  8483  0A82  3000               	movlw	0
  8484  0A83  1803               	skipnc
  8485  0A84  3001               	movlw	1
  8486  0A85  07CB               	addwf	(_Tick_Num+3)^(0+128),f
  8487  0A86                     i1l3879:
  8488                           
  8489                           ;Timer/Timer.c: 34:  Scheduler_ActivateTask(Tick_Num );
  8490  0A86  084B               	movf	(_Tick_Num+3)^(0+128),w
  8491  0A87  1283               	bcf	3,5	;RP0=0, select bank0
  8492  0A88  1303               	bcf	3,6	;RP1=0, select bank0
  8493  0A89  00B0               	movwf	Scheduler_ActivateTask@SystemTick+3
  8494  0A8A  1683               	bsf	3,5	;RP0=1, select bank1
  8495  0A8B  1303               	bcf	3,6	;RP1=0, select bank1
  8496  0A8C  084A               	movf	(_Tick_Num+2)^(0+128),w
  8497  0A8D  1283               	bcf	3,5	;RP0=0, select bank0
  8498  0A8E  1303               	bcf	3,6	;RP1=0, select bank0
  8499  0A8F  00AF               	movwf	Scheduler_ActivateTask@SystemTick+2
  8500  0A90  1683               	bsf	3,5	;RP0=1, select bank1
  8501  0A91  1303               	bcf	3,6	;RP1=0, select bank1
  8502  0A92  0849               	movf	(_Tick_Num+1)^(0+128),w
  8503  0A93  1283               	bcf	3,5	;RP0=0, select bank0
  8504  0A94  1303               	bcf	3,6	;RP1=0, select bank0
  8505  0A95  00AE               	movwf	Scheduler_ActivateTask@SystemTick+1
  8506  0A96  1683               	bsf	3,5	;RP0=1, select bank1
  8507  0A97  1303               	bcf	3,6	;RP1=0, select bank1
  8508  0A98  0848               	movf	_Tick_Num^(0+128),w
  8509  0A99  1283               	bcf	3,5	;RP0=0, select bank0
  8510  0A9A  1303               	bcf	3,6	;RP1=0, select bank0
  8511  0A9B  00AD               	movwf	Scheduler_ActivateTask@SystemTick
  8512  0A9C  120A  158A  26CA  120A  158A  	fcall	_Scheduler_ActivateTask
  8513  0AA1                     i1l370:
  8514  0AA1  0008               	return
  8515  0AA2                     __end_of_Timer0_CallBack:
  8516                           
  8517                           	psect	text47
  8518  0ECA                     __ptext47:	
  8519 ;; *************** function _Scheduler_ActivateTask *****************
  8520 ;; Defined at:
  8521 ;;		line 35 in file "Scheduler/Scheduler.c"
  8522 ;; Parameters:    Size  Location     Type
  8523 ;;  SystemTick      4   13[BANK0 ] unsigned long 
  8524 ;; Auto vars:     Size  Location     Type
  8525 ;;  IntityIndex     1   17[BANK0 ] unsigned char 
  8526 ;; Return value:  Size  Location     Type
  8527 ;;                  1    wreg      void 
  8528 ;; Registers used:
  8529 ;;		wreg, fsr0l, fsr0h, status,2, status,0, btemp+1, pclath, cstack
  8530 ;; Tracked objects:
  8531 ;;		On entry : 0/0
  8532 ;;		On exit  : 0/0
  8533 ;;		Unchanged: 0/0
  8534 ;; Data sizes:     COMMON   BANK0   BANK1   BANK3   BANK2
  8535 ;;      Params:         0       4       0       0       0
  8536 ;;      Locals:         0       1       0       0       0
  8537 ;;      Temps:          0       0       0       0       0
  8538 ;;      Totals:         0       5       0       0       0
  8539 ;;Total ram usage:        5 bytes
  8540 ;; Hardware stack levels used:    1
  8541 ;; Hardware stack levels required when called:    1
  8542 ;; This function calls:
  8543 ;;		___llmod
  8544 ;;		i1___bmul
  8545 ;;		i1___lldiv
  8546 ;; This function is called by:
  8547 ;;		_Timer0_CallBack
  8548 ;; This function uses a non-reentrant model
  8549 ;;
  8550                           
  8551                           
  8552                           ;psect for function _Scheduler_ActivateTask
  8553  0ECA                     _Scheduler_ActivateTask:
  8554  0ECA                     i1l3801:	
  8555                           ;incstack = 0
  8556 ;; hardware stack exceeded
  8557                           ; Regs used in _Scheduler_ActivateTask: [wreg-fsr0h+status,2+status,0+btemp+1+pclath+cst
      +                          ack]
  8558                           
  8559                           
  8560                           ;Scheduler/Scheduler.c: 35: void Scheduler_ActivateTask(uint32_t SystemTick);Scheduler/S
      +                          cheduler.c: 36: {;Scheduler/Scheduler.c: 38:   for( uint8_t IntityIndex = 0 ; IntityInde
      +                          x < ( 3U ) ; IntityIndex++ )
  8561  0ECA  1283               	bcf	3,5	;RP0=0, select bank0
  8562  0ECB  1303               	bcf	3,6	;RP1=0, select bank0
  8563  0ECC  01B1               	clrf	Scheduler_ActivateTask@IntityIndex
  8564  0ECD                     i1l3807:
  8565                           
  8566                           ;Scheduler/Scheduler.c: 39:   {;Scheduler/Scheduler.c: 40:     if( ( ((SystemTick)%(Sche
      +                          duler_Intitys[IntityIndex].Peroid/(20UL)))?0:1 ) )
  8567  0ECD  3000               	movlw	0
  8568  0ECE  00F6               	movwf	i1___lldiv@divisor+3
  8569  0ECF  3000               	movlw	0
  8570  0ED0  00F5               	movwf	i1___lldiv@divisor+2
  8571  0ED1  3000               	movlw	0
  8572  0ED2  00F4               	movwf	i1___lldiv@divisor+1
  8573  0ED3  3014               	movlw	20
  8574  0ED4  00F3               	movwf	i1___lldiv@divisor
  8575  0ED5  3005               	movlw	5
  8576  0ED6  00FF               	movwf	btemp+1
  8577  0ED7  087F               	movf	btemp+1,w
  8578  0ED8  00F0               	movwf	i1___bmul@multiplicand
  8579  0ED9  0831               	movf	Scheduler_ActivateTask@IntityIndex,w
  8580  0EDA  120A  158A  20C0  120A  158A  	fcall	i1___bmul
  8581  0EDF  3E02               	addlw	low (((_Scheduler_Intitys-__stringbase)| (0+32768)+1))
  8582  0EE0  0084               	movwf	4
  8583  0EE1  120A  158A  2000  120A  158A  	fcall	stringdir
  8584  0EE6  00F7               	movwf	i1___lldiv@dividend
  8585  0EE7  120A  158A  2000  120A  158A  	fcall	stringdir
  8586  0EEC  00F8               	movwf	i1___lldiv@dividend+1
  8587  0EED  120A  158A  2000  120A  158A  	fcall	stringdir
  8588  0EF2  00F9               	movwf	i1___lldiv@dividend+2
  8589  0EF3  120A  158A  2000  120A  158A  	fcall	stringdir
  8590  0EF8  00FA               	movwf	i1___lldiv@dividend+3
  8591  0EF9  120A  158A  2730  120A  158A  	fcall	i1___lldiv
  8592  0EFE  0876               	movf	?i1___lldiv+3,w
  8593  0EFF  1283               	bcf	3,5	;RP0=0, select bank0
  8594  0F00  1303               	bcf	3,6	;RP1=0, select bank0
  8595  0F01  00A8               	movwf	___llmod@divisor+3
  8596  0F02  0875               	movf	?i1___lldiv+2,w
  8597  0F03  00A7               	movwf	___llmod@divisor+2
  8598  0F04  0874               	movf	?i1___lldiv+1,w
  8599  0F05  00A6               	movwf	___llmod@divisor+1
  8600  0F06  0873               	movf	?i1___lldiv,w
  8601  0F07  00A5               	movwf	___llmod@divisor
  8602  0F08  0830               	movf	Scheduler_ActivateTask@SystemTick+3,w
  8603  0F09  00AC               	movwf	___llmod@dividend+3
  8604  0F0A  082F               	movf	Scheduler_ActivateTask@SystemTick+2,w
  8605  0F0B  00AB               	movwf	___llmod@dividend+2
  8606  0F0C  082E               	movf	Scheduler_ActivateTask@SystemTick+1,w
  8607  0F0D  00AA               	movwf	___llmod@dividend+1
  8608  0F0E  082D               	movf	Scheduler_ActivateTask@SystemTick,w
  8609  0F0F  00A9               	movwf	___llmod@dividend
  8610  0F10  120A  158A  24A4  120A  158A  	fcall	___llmod
  8611  0F15  1283               	bcf	3,5	;RP0=0, select bank0
  8612  0F16  1303               	bcf	3,6	;RP1=0, select bank0
  8613  0F17  0828               	movf	?___llmod+3,w
  8614  0F18  0427               	iorwf	?___llmod+2,w
  8615  0F19  0426               	iorwf	?___llmod+1,w
  8616  0F1A  0425               	iorwf	?___llmod,w
  8617  0F1B  1D03               	skipz
  8618  0F1C  2F1E               	goto	u545_21
  8619  0F1D  2F1F               	goto	u545_20
  8620  0F1E                     u545_21:
  8621  0F1E  2F25               	goto	i1l3811
  8622  0F1F                     u545_20:
  8623  0F1F                     i1l3809:
  8624                           
  8625                           ;Scheduler/Scheduler.c: 41:     {;Scheduler/Scheduler.c: 42:      Scheduler_ActivationFl
      +                          ags[IntityIndex] = 1 ;
  8626  0F1F  0831               	movf	Scheduler_ActivateTask@IntityIndex,w
  8627  0F20  3ED0               	addlw	(low (_Scheduler_ActivationFlags| 0))& (0+255)
  8628  0F21  0084               	movwf	4
  8629  0F22  1383               	bcf	3,7	;select IRP bank1
  8630  0F23  0180               	clrf	0
  8631  0F24  0A80               	incf	0,f
  8632  0F25                     i1l3811:
  8633                           
  8634                           ;Scheduler/Scheduler.c: 44:   }
  8635  0F25  3001               	movlw	1
  8636  0F26  00FF               	movwf	btemp+1
  8637  0F27  087F               	movf	btemp+1,w
  8638  0F28  07B1               	addwf	Scheduler_ActivateTask@IntityIndex,f
  8639  0F29                     i1l3813:
  8640  0F29  3003               	movlw	3
  8641  0F2A  0231               	subwf	Scheduler_ActivateTask@IntityIndex,w
  8642  0F2B  1C03               	skipc
  8643  0F2C  2F2E               	goto	u546_21
  8644  0F2D  2F2F               	goto	u546_20
  8645  0F2E                     u546_21:
  8646  0F2E  2ECD               	goto	i1l3807
  8647  0F2F                     u546_20:
  8648  0F2F                     i1l303:
  8649  0F2F  0008               	return
  8650  0F30                     __end_of_Scheduler_ActivateTask:
  8651                           
  8652                           	psect	text48
  8653  0F30                     __ptext48:	
  8654 ;; *************** function i1___lldiv *****************
  8655 ;; Defined at:
  8656 ;;		line 5 in file "C:\Program Files (x86)\Microchip\xc8\v2.20\pic\sources\c90\common\__lldiv.c"
  8657 ;; Parameters:    Size  Location     Type
  8658 ;;  divisor         4    3[COMMON] unsigned long 
  8659 ;;  dividend        4    7[COMMON] unsigned long 
  8660 ;; Auto vars:     Size  Location     Type
  8661 ;;  quotient        4    0[BANK0 ] unsigned long 
  8662 ;;  counter         1    4[BANK0 ] unsigned char 
  8663 ;; Return value:  Size  Location     Type
  8664 ;;                  4    3[COMMON] unsigned long 
  8665 ;; Registers used:
  8666 ;;		wreg, status,2, status,0, btemp+1
  8667 ;; Tracked objects:
  8668 ;;		On entry : 0/0
  8669 ;;		On exit  : 0/0
  8670 ;;		Unchanged: 0/0
  8671 ;; Data sizes:     COMMON   BANK0   BANK1   BANK3   BANK2
  8672 ;;      Params:         8       0       0       0       0
  8673 ;;      Locals:         0       5       0       0       0
  8674 ;;      Temps:          1       0       0       0       0
  8675 ;;      Totals:         9       5       0       0       0
  8676 ;;Total ram usage:       14 bytes
  8677 ;; Hardware stack levels used:    1
  8678 ;; This function calls:
  8679 ;;		Nothing
  8680 ;; This function is called by:
  8681 ;;		_Scheduler_ActivateTask
  8682 ;; This function uses a non-reentrant model
  8683 ;;
  8684                           
  8685                           
  8686                           ;psect for function i1___lldiv
  8687  0F30                     i1___lldiv:
  8688  0F30                     i1l2823:	
  8689                           ;incstack = 0
  8690 ;; hardware stack exceeded
  8691                           ; Regs used in i1___lldiv: [wreg+status,2+status,0+btemp+1]
  8692                           
  8693  0F30  3000               	movlw	0
  8694  0F31  1283               	bcf	3,5	;RP0=0, select bank0
  8695  0F32  1303               	bcf	3,6	;RP1=0, select bank0
  8696  0F33  00A3               	movwf	i1___lldiv@quotient+3
  8697  0F34  3000               	movlw	0
  8698  0F35  00A2               	movwf	i1___lldiv@quotient+2
  8699  0F36  3000               	movlw	0
  8700  0F37  00A1               	movwf	i1___lldiv@quotient+1
  8701  0F38  3000               	movlw	0
  8702  0F39  00A0               	movwf	i1___lldiv@quotient
  8703  0F3A  0876               	movf	i1___lldiv@divisor+3,w
  8704  0F3B  0475               	iorwf	i1___lldiv@divisor+2,w
  8705  0F3C  0474               	iorwf	i1___lldiv@divisor+1,w
  8706  0F3D  0473               	iorwf	i1___lldiv@divisor,w
  8707  0F3E  1903               	skipnz
  8708  0F3F  2F41               	goto	u358_21
  8709  0F40  2F42               	goto	u358_20
  8710  0F41                     u358_21:
  8711  0F41  2F8F               	goto	i1l2845
  8712  0F42                     u358_20:
  8713  0F42                     i1l2825:
  8714  0F42  01A4               	clrf	i1___lldiv@counter
  8715  0F43  0AA4               	incf	i1___lldiv@counter,f
  8716  0F44  2F52               	goto	i1l2831
  8717  0F45                     i1l2827:
  8718  0F45  3001               	movlw	1
  8719  0F46  00FB               	movwf	??i1___lldiv
  8720  0F47                     u359_25:
  8721  0F47  1003               	clrc
  8722  0F48  0DF3               	rlf	i1___lldiv@divisor,f
  8723  0F49  0DF4               	rlf	i1___lldiv@divisor+1,f
  8724  0F4A  0DF5               	rlf	i1___lldiv@divisor+2,f
  8725  0F4B  0DF6               	rlf	i1___lldiv@divisor+3,f
  8726  0F4C  0BFB               	decfsz	??i1___lldiv,f
  8727  0F4D  2F47               	goto	u359_25
  8728  0F4E                     i1l2829:
  8729  0F4E  3001               	movlw	1
  8730  0F4F  00FF               	movwf	btemp+1
  8731  0F50  087F               	movf	btemp+1,w
  8732  0F51  07A4               	addwf	i1___lldiv@counter,f
  8733  0F52                     i1l2831:
  8734  0F52  1FF6               	btfss	i1___lldiv@divisor+3,7
  8735  0F53  2F55               	goto	u360_21
  8736  0F54  2F56               	goto	u360_20
  8737  0F55                     u360_21:
  8738  0F55  2F45               	goto	i1l2827
  8739  0F56                     u360_20:
  8740  0F56                     i1l2833:
  8741  0F56  3001               	movlw	1
  8742  0F57  00FB               	movwf	??i1___lldiv
  8743  0F58                     u361_25:
  8744  0F58  1003               	clrc
  8745  0F59  0DA0               	rlf	i1___lldiv@quotient,f
  8746  0F5A  0DA1               	rlf	i1___lldiv@quotient+1,f
  8747  0F5B  0DA2               	rlf	i1___lldiv@quotient+2,f
  8748  0F5C  0DA3               	rlf	i1___lldiv@quotient+3,f
  8749  0F5D  0BFB               	decfsz	??i1___lldiv,f
  8750  0F5E  2F58               	goto	u361_25
  8751  0F5F                     i1l2835:
  8752  0F5F  0876               	movf	i1___lldiv@divisor+3,w
  8753  0F60  027A               	subwf	i1___lldiv@dividend+3,w
  8754  0F61  1D03               	skipz
  8755  0F62  2F6D               	goto	u362_25
  8756  0F63  0875               	movf	i1___lldiv@divisor+2,w
  8757  0F64  0279               	subwf	i1___lldiv@dividend+2,w
  8758  0F65  1D03               	skipz
  8759  0F66  2F6D               	goto	u362_25
  8760  0F67  0874               	movf	i1___lldiv@divisor+1,w
  8761  0F68  0278               	subwf	i1___lldiv@dividend+1,w
  8762  0F69  1D03               	skipz
  8763  0F6A  2F6D               	goto	u362_25
  8764  0F6B  0873               	movf	i1___lldiv@divisor,w
  8765  0F6C  0277               	subwf	i1___lldiv@dividend,w
  8766  0F6D                     u362_25:
  8767  0F6D  1C03               	skipc
  8768  0F6E  2F70               	goto	u362_21
  8769  0F6F  2F71               	goto	u362_20
  8770  0F70                     u362_21:
  8771  0F70  2F80               	goto	i1l2841
  8772  0F71                     u362_20:
  8773  0F71                     i1l2837:
  8774  0F71  0873               	movf	i1___lldiv@divisor,w
  8775  0F72  02F7               	subwf	i1___lldiv@dividend,f
  8776  0F73  0874               	movf	i1___lldiv@divisor+1,w
  8777  0F74  1C03               	skipc
  8778  0F75  0F74               	incfsz	i1___lldiv@divisor+1,w
  8779  0F76  02F8               	subwf	i1___lldiv@dividend+1,f
  8780  0F77  0875               	movf	i1___lldiv@divisor+2,w
  8781  0F78  1C03               	skipc
  8782  0F79  0F75               	incfsz	i1___lldiv@divisor+2,w
  8783  0F7A  02F9               	subwf	i1___lldiv@dividend+2,f
  8784  0F7B  0876               	movf	i1___lldiv@divisor+3,w
  8785  0F7C  1C03               	skipc
  8786  0F7D  0F76               	incfsz	i1___lldiv@divisor+3,w
  8787  0F7E  02FA               	subwf	i1___lldiv@dividend+3,f
  8788  0F7F                     i1l2839:
  8789  0F7F  1420               	bsf	i1___lldiv@quotient,0
  8790  0F80                     i1l2841:
  8791  0F80  3001               	movlw	1
  8792  0F81                     u363_25:
  8793  0F81  1003               	clrc
  8794  0F82  0CF6               	rrf	i1___lldiv@divisor+3,f
  8795  0F83  0CF5               	rrf	i1___lldiv@divisor+2,f
  8796  0F84  0CF4               	rrf	i1___lldiv@divisor+1,f
  8797  0F85  0CF3               	rrf	i1___lldiv@divisor,f
  8798  0F86  3EFF               	addlw	-1
  8799  0F87  1D03               	skipz
  8800  0F88  2F81               	goto	u363_25
  8801  0F89                     i1l2843:
  8802  0F89  3001               	movlw	1
  8803  0F8A  02A4               	subwf	i1___lldiv@counter,f
  8804  0F8B  1D03               	btfss	3,2
  8805  0F8C  2F8E               	goto	u364_21
  8806  0F8D  2F8F               	goto	u364_20
  8807  0F8E                     u364_21:
  8808  0F8E  2F56               	goto	i1l2833
  8809  0F8F                     u364_20:
  8810  0F8F                     i1l2845:
  8811  0F8F  0823               	movf	i1___lldiv@quotient+3,w
  8812  0F90  00F6               	movwf	?i1___lldiv+3
  8813  0F91  0822               	movf	i1___lldiv@quotient+2,w
  8814  0F92  00F5               	movwf	?i1___lldiv+2
  8815  0F93  0821               	movf	i1___lldiv@quotient+1,w
  8816  0F94  00F4               	movwf	?i1___lldiv+1
  8817  0F95  0820               	movf	i1___lldiv@quotient,w
  8818  0F96  00F3               	movwf	?i1___lldiv
  8819  0F97                     i1l599:
  8820  0F97  0008               	return
  8821  0F98                     __end_ofi1___lldiv:
  8822                           
  8823                           	psect	text49
  8824  08C0                     __ptext49:	
  8825 ;; *************** function i1___bmul *****************
  8826 ;; Defined at:
  8827 ;;		line 4 in file "C:\Program Files (x86)\Microchip\xc8\v2.20\pic\sources\c90\common\Umul8.c"
  8828 ;; Parameters:    Size  Location     Type
  8829 ;;  multiplier      1    wreg     unsigned char 
  8830 ;;  multiplicand    1    0[COMMON] unsigned char 
  8831 ;; Auto vars:     Size  Location     Type
  8832 ;;  multiplier      1    2[COMMON] unsigned char 
  8833 ;;  product         1    1[COMMON] unsigned char 
  8834 ;; Return value:  Size  Location     Type
  8835 ;;                  1    wreg      unsigned char 
  8836 ;; Registers used:
  8837 ;;		wreg, status,2, status,0, btemp+1
  8838 ;; Tracked objects:
  8839 ;;		On entry : 0/0
  8840 ;;		On exit  : 0/0
  8841 ;;		Unchanged: 0/0
  8842 ;; Data sizes:     COMMON   BANK0   BANK1   BANK3   BANK2
  8843 ;;      Params:         1       0       0       0       0
  8844 ;;      Locals:         2       0       0       0       0
  8845 ;;      Temps:          0       0       0       0       0
  8846 ;;      Totals:         3       0       0       0       0
  8847 ;;Total ram usage:        3 bytes
  8848 ;; Hardware stack levels used:    1
  8849 ;; This function calls:
  8850 ;;		Nothing
  8851 ;; This function is called by:
  8852 ;;		_Scheduler_ActivateTask
  8853 ;; This function uses a non-reentrant model
  8854 ;;
  8855                           
  8856                           
  8857                           ;psect for function i1___bmul
  8858  08C0                     i1___bmul:
  8859                           
  8860                           ;incstack = 0
  8861 ;; hardware stack exceeded
  8862                           ; Regs used in i1___bmul: [wreg+status,2+status,0+btemp+1]
  8863                           ;i1___bmul@multiplier stored from wreg
  8864  08C0  00F2               	movwf	i1___bmul@multiplier
  8865  08C1                     i1l2849:
  8866  08C1  01F1               	clrf	i1___bmul@product
  8867  08C2                     i1l2851:
  8868  08C2  1C72               	btfss	i1___bmul@multiplier,0
  8869  08C3  28C5               	goto	u365_21
  8870  08C4  28C6               	goto	u365_20
  8871  08C5                     u365_21:
  8872  08C5  28CA               	goto	i1l2855
  8873  08C6                     u365_20:
  8874  08C6                     i1l2853:
  8875  08C6  0870               	movf	i1___bmul@multiplicand,w
  8876  08C7  00FF               	movwf	btemp+1
  8877  08C8  087F               	movf	btemp+1,w
  8878  08C9  07F1               	addwf	i1___bmul@product,f
  8879  08CA                     i1l2855:
  8880  08CA  1003               	clrc
  8881  08CB  0DF0               	rlf	i1___bmul@multiplicand,f
  8882  08CC                     i1l2857:
  8883  08CC  1003               	clrc
  8884  08CD  0CF2               	rrf	i1___bmul@multiplier,f
  8885  08CE                     i1l2859:
  8886  08CE  0872               	movf	i1___bmul@multiplier,w
  8887  08CF  1D03               	btfss	3,2
  8888  08D0  28D2               	goto	u366_21
  8889  08D1  28D3               	goto	u366_20
  8890  08D2                     u366_21:
  8891  08D2  28C2               	goto	i1l2851
  8892  08D3                     u366_20:
  8893  08D3                     i1l2861:
  8894  08D3  0871               	movf	i1___bmul@product,w
  8895  08D4                     i1l589:
  8896  08D4  0008               	return
  8897  08D5                     __end_ofi1___bmul:
  8898                           
  8899                           	psect	text50
  8900  0CA4                     __ptext50:	
  8901 ;; *************** function ___llmod *****************
  8902 ;; Defined at:
  8903 ;;		line 5 in file "C:\Program Files (x86)\Microchip\xc8\v2.20\pic\sources\c90\common\llmod.c"
  8904 ;; Parameters:    Size  Location     Type
  8905 ;;  divisor         4    5[BANK0 ] unsigned long 
  8906 ;;  dividend        4    9[BANK0 ] unsigned long 
  8907 ;; Auto vars:     Size  Location     Type
  8908 ;;  counter         1   13[COMMON] unsigned char 
  8909 ;; Return value:  Size  Location     Type
  8910 ;;                  4    5[BANK0 ] unsigned long 
  8911 ;; Registers used:
  8912 ;;		wreg, status,2, status,0, btemp+1
  8913 ;; Tracked objects:
  8914 ;;		On entry : 0/0
  8915 ;;		On exit  : 0/0
  8916 ;;		Unchanged: 0/0
  8917 ;; Data sizes:     COMMON   BANK0   BANK1   BANK3   BANK2
  8918 ;;      Params:         0       8       0       0       0
  8919 ;;      Locals:         1       0       0       0       0
  8920 ;;      Temps:          1       0       0       0       0
  8921 ;;      Totals:         2       8       0       0       0
  8922 ;;Total ram usage:       10 bytes
  8923 ;; Hardware stack levels used:    1
  8924 ;; This function calls:
  8925 ;;		Nothing
  8926 ;; This function is called by:
  8927 ;;		_Scheduler_ActivateTask
  8928 ;; This function uses a non-reentrant model
  8929 ;;
  8930                           
  8931                           
  8932                           ;psect for function ___llmod
  8933  0CA4                     ___llmod:
  8934  0CA4                     i1l2801:	
  8935                           ;incstack = 0
  8936 ;; hardware stack exceeded
  8937                           ; Regs used in ___llmod: [wreg+status,2+status,0+btemp+1]
  8938                           
  8939  0CA4  1283               	bcf	3,5	;RP0=0, select bank0
  8940  0CA5  1303               	bcf	3,6	;RP1=0, select bank0
  8941  0CA6  0828               	movf	___llmod@divisor+3,w
  8942  0CA7  0427               	iorwf	___llmod@divisor+2,w
  8943  0CA8  0426               	iorwf	___llmod@divisor+1,w
  8944  0CA9  0425               	iorwf	___llmod@divisor,w
  8945  0CAA  1903               	skipnz
  8946  0CAB  2CAD               	goto	u352_21
  8947  0CAC  2CAE               	goto	u352_20
  8948  0CAD                     u352_21:
  8949  0CAD  2CF1               	goto	i1l2819
  8950  0CAE                     u352_20:
  8951  0CAE                     i1l2803:
  8952  0CAE  01FD               	clrf	___llmod@counter
  8953  0CAF  0AFD               	incf	___llmod@counter,f
  8954  0CB0  2CBE               	goto	i1l2809
  8955  0CB1                     i1l2805:
  8956  0CB1  3001               	movlw	1
  8957  0CB2  00FC               	movwf	??___llmod
  8958  0CB3                     u353_25:
  8959  0CB3  1003               	clrc
  8960  0CB4  0DA5               	rlf	___llmod@divisor,f
  8961  0CB5  0DA6               	rlf	___llmod@divisor+1,f
  8962  0CB6  0DA7               	rlf	___llmod@divisor+2,f
  8963  0CB7  0DA8               	rlf	___llmod@divisor+3,f
  8964  0CB8  0BFC               	decfsz	??___llmod,f
  8965  0CB9  2CB3               	goto	u353_25
  8966  0CBA                     i1l2807:
  8967  0CBA  3001               	movlw	1
  8968  0CBB  00FF               	movwf	btemp+1
  8969  0CBC  087F               	movf	btemp+1,w
  8970  0CBD  07FD               	addwf	___llmod@counter,f
  8971  0CBE                     i1l2809:
  8972  0CBE  1FA8               	btfss	___llmod@divisor+3,7
  8973  0CBF  2CC1               	goto	u354_21
  8974  0CC0  2CC2               	goto	u354_20
  8975  0CC1                     u354_21:
  8976  0CC1  2CB1               	goto	i1l2805
  8977  0CC2                     u354_20:
  8978  0CC2                     i1l2811:
  8979  0CC2  0828               	movf	___llmod@divisor+3,w
  8980  0CC3  022C               	subwf	___llmod@dividend+3,w
  8981  0CC4  1D03               	skipz
  8982  0CC5  2CD0               	goto	u355_25
  8983  0CC6  0827               	movf	___llmod@divisor+2,w
  8984  0CC7  022B               	subwf	___llmod@dividend+2,w
  8985  0CC8  1D03               	skipz
  8986  0CC9  2CD0               	goto	u355_25
  8987  0CCA  0826               	movf	___llmod@divisor+1,w
  8988  0CCB  022A               	subwf	___llmod@dividend+1,w
  8989  0CCC  1D03               	skipz
  8990  0CCD  2CD0               	goto	u355_25
  8991  0CCE  0825               	movf	___llmod@divisor,w
  8992  0CCF  0229               	subwf	___llmod@dividend,w
  8993  0CD0                     u355_25:
  8994  0CD0  1C03               	skipc
  8995  0CD1  2CD3               	goto	u355_21
  8996  0CD2  2CD4               	goto	u355_20
  8997  0CD3                     u355_21:
  8998  0CD3  2CE2               	goto	i1l2815
  8999  0CD4                     u355_20:
  9000  0CD4                     i1l2813:
  9001  0CD4  0825               	movf	___llmod@divisor,w
  9002  0CD5  02A9               	subwf	___llmod@dividend,f
  9003  0CD6  0826               	movf	___llmod@divisor+1,w
  9004  0CD7  1C03               	skipc
  9005  0CD8  0F26               	incfsz	___llmod@divisor+1,w
  9006  0CD9  02AA               	subwf	___llmod@dividend+1,f
  9007  0CDA  0827               	movf	___llmod@divisor+2,w
  9008  0CDB  1C03               	skipc
  9009  0CDC  0F27               	incfsz	___llmod@divisor+2,w
  9010  0CDD  02AB               	subwf	___llmod@dividend+2,f
  9011  0CDE  0828               	movf	___llmod@divisor+3,w
  9012  0CDF  1C03               	skipc
  9013  0CE0  0F28               	incfsz	___llmod@divisor+3,w
  9014  0CE1  02AC               	subwf	___llmod@dividend+3,f
  9015  0CE2                     i1l2815:
  9016  0CE2  3001               	movlw	1
  9017  0CE3                     u356_25:
  9018  0CE3  1003               	clrc
  9019  0CE4  0CA8               	rrf	___llmod@divisor+3,f
  9020  0CE5  0CA7               	rrf	___llmod@divisor+2,f
  9021  0CE6  0CA6               	rrf	___llmod@divisor+1,f
  9022  0CE7  0CA5               	rrf	___llmod@divisor,f
  9023  0CE8  3EFF               	addlw	-1
  9024  0CE9  1D03               	skipz
  9025  0CEA  2CE3               	goto	u356_25
  9026  0CEB                     i1l2817:
  9027  0CEB  3001               	movlw	1
  9028  0CEC  02FD               	subwf	___llmod@counter,f
  9029  0CED  1D03               	btfss	3,2
  9030  0CEE  2CF0               	goto	u357_21
  9031  0CEF  2CF1               	goto	u357_20
  9032  0CF0                     u357_21:
  9033  0CF0  2CC2               	goto	i1l2811
  9034  0CF1                     u357_20:
  9035  0CF1                     i1l2819:
  9036  0CF1  082C               	movf	___llmod@dividend+3,w
  9037  0CF2  00A8               	movwf	?___llmod+3
  9038  0CF3  082B               	movf	___llmod@dividend+2,w
  9039  0CF4  00A7               	movwf	?___llmod+2
  9040  0CF5  082A               	movf	___llmod@dividend+1,w
  9041  0CF6  00A6               	movwf	?___llmod+1
  9042  0CF7  0829               	movf	___llmod@dividend,w
  9043  0CF8  00A5               	movwf	?___llmod
  9044  0CF9                     i1l785:
  9045  0CF9  0008               	return
  9046  0CFA                     __end_of___llmod:
  9047                           
  9048                           	psect	text51
  9049  08FF                     __ptext51:	
  9050 ;; *************** function _EXTI_On_Off_CallBack *****************
  9051 ;; Defined at:
  9052 ;;		line 22 in file "Buttons/Buttons.c"
  9053 ;; Parameters:    Size  Location     Type
  9054 ;;		None
  9055 ;; Auto vars:     Size  Location     Type
  9056 ;;		None
  9057 ;; Return value:  Size  Location     Type
  9058 ;;                  1    wreg      void 
  9059 ;; Registers used:
  9060 ;;		wreg, status,2, status,0
  9061 ;; Tracked objects:
  9062 ;;		On entry : 0/0
  9063 ;;		On exit  : 0/0
  9064 ;;		Unchanged: 0/0
  9065 ;; Data sizes:     COMMON   BANK0   BANK1   BANK3   BANK2
  9066 ;;      Params:         0       0       0       0       0
  9067 ;;      Locals:         0       0       0       0       0
  9068 ;;      Temps:          0       0       0       0       0
  9069 ;;      Totals:         0       0       0       0       0
  9070 ;;Total ram usage:        0 bytes
  9071 ;; Hardware stack levels used:    1
  9072 ;; This function calls:
  9073 ;;		Nothing
  9074 ;; This function is called by:
  9075 ;;		_myISR
  9076 ;; This function uses a non-reentrant model
  9077 ;;
  9078                           
  9079                           
  9080                           ;psect for function _EXTI_On_Off_CallBack
  9081  08FF                     _EXTI_On_Off_CallBack:
  9082  08FF                     i1l2997:	
  9083                           ;incstack = 0
  9084 ;; hardware stack exceeded
  9085                           ; Regs used in _EXTI_On_Off_CallBack: [wreg+status,2+status,0]
  9086                           
  9087                           
  9088                           ;Buttons/Buttons.c: 24:  if((Mode.Select_Mode==Setting_Mode) || (Mode.Select_Mode==Norma
      +                          l_Mode))
  9089  08FF  3002               	movlw	2
  9090  0900  1283               	bcf	3,5	;RP0=0, select bank0
  9091  0901  1303               	bcf	3,6	;RP1=0, select bank0
  9092  0902  0644               	xorwf	_Mode,w
  9093  0903  1903               	btfsc	3,2
  9094  0904  2906               	goto	u380_21
  9095  0905  2907               	goto	u380_20
  9096  0906                     u380_21:
  9097  0906  290C               	goto	i1l3001
  9098  0907                     u380_20:
  9099  0907                     i1l2999:
  9100  0907  0344               	decf	_Mode,w
  9101  0908  1D03               	btfss	3,2
  9102  0909  290B               	goto	u381_21
  9103  090A  290C               	goto	u381_20
  9104  090B                     u381_21:
  9105  090B  290E               	goto	i1l3003
  9106  090C                     u381_20:
  9107  090C                     i1l3001:
  9108                           
  9109                           ;Buttons/Buttons.c: 25:   {;Buttons/Buttons.c: 27:     Mode.Select_Mode=Off_Mode;
  9110  090C  01C4               	clrf	_Mode
  9111                           
  9112                           ;Buttons/Buttons.c: 29:   }
  9113  090D  2915               	goto	i1l100
  9114  090E                     i1l3003:
  9115  090E  0844               	movf	_Mode,w
  9116  090F  1D03               	btfss	3,2
  9117  0910  2912               	goto	u382_21
  9118  0911  2913               	goto	u382_20
  9119  0912                     u382_21:
  9120  0912  2915               	goto	i1l100
  9121  0913                     u382_20:
  9122  0913                     i1l3005:
  9123                           
  9124                           ;Buttons/Buttons.c: 31:   {;Buttons/Buttons.c: 33:    Mode.Select_Mode=Normal_Mode;
  9125  0913  01C4               	clrf	_Mode
  9126  0914  0AC4               	incf	_Mode,f
  9127  0915                     i1l100:
  9128  0915  0008               	return
  9129  0916                     __end_of_EXTI_On_Off_CallBack:
  9130  0006                     
  9131                           	psect	functab
  9132  0042                     __pfunctab:
  9133  0042                     __fptable:
  9134  0042                     fptable:
  9135  0042  00FF               	movwf	(btemp+1)& (0+127)
  9136  0043  3000               	movlw	high fptable
  9137  0044  008A               	movwf	10
  9138  0045  087F               	movf	(btemp+1)& (0+127),w
  9139  0046  0782               	addwf	2,f
  9140  0047                     fpbase:
  9141  0047  2847               	goto	fpbase	; Call via a null pointer and you will get stuck here.
  9142  0048                     fp__Scheduler_Task3:
  9143  0048  120A  158A  28A0   	ljmp	_Scheduler_Task3
  9144  004B                     fp__Scheduler_Task1:
  9145  004B  120A  158A  283F   	ljmp	_Scheduler_Task1
  9146  004E                     fp__Scheduler_Task2:
  9147  004E  120A  158A  2869   	ljmp	_Scheduler_Task2
  9148  0051                     __end_of__fptable:
  9149  007E                     btemp	set	126	;btemp
  9150  007E                     wtemp0	set	126
  9151                           
  9152                           	psect	config
  9153                           
  9154                           ;Config register CONFIG @ 0x2007
  9155                           ;	Oscillator Selection bits
  9156                           ;	FOSC = HS, HS oscillator
  9157                           ;	Watchdog Timer Enable bit
  9158                           ;	WDTE = OFF, WDT disabled
  9159                           ;	Power-up Timer Enable bit
  9160                           ;	PWRTE = OFF, PWRT disabled
  9161                           ;	Brown-out Reset Enable bit
  9162                           ;	BOREN = OFF, BOR disabled
  9163                           ;	Low-Voltage (Single-Supply) In-Circuit Serial Programming Enable bit
  9164                           ;	LVP = OFF, RB3 is digital I/O, HV on MCLR must be used for programming
  9165                           ;	Data EEPROM Memory Code Protection bit
  9166                           ;	CPD = OFF, Data EEPROM code protection off
  9167                           ;	Flash Program Memory Write Enable bits
  9168                           ;	WRT = OFF, Write protection off; all program memory may be written to by EECON control
  9169                           ;	In-Circuit Debugger Mode bit
  9170                           ;	DEBUG = 0x1, unprogrammed default
  9171                           ;	Flash Program Memory Code Protection bit
  9172                           ;	CP = OFF, Code protection off
  9173  2007                     	org	8199
  9174  2007  3F3A               	dw	16186

Data Sizes:
    Strings     0
    Constant    15
    Data        4
    BSS         69
    Persistent  0
    Stack       0

Auto Spaces:
    Space          Size  Autos    Used
    COMMON           14     14      14
    BANK0            80     36      58
    BANK1            80     29      80
    BANK3            96     13      13
    BANK2            96      0       0

Pointer List with Targets:

    Scheduler_Start$1286	const PTR FTN()void  size(1) Largest target is 1
		 -> Scheduler_Task3(), Scheduler_Task2(), Scheduler_Task1(), 

    memset@p1	PTR void  size(1) Largest target is 3
		 -> Scheduler_ActivationFlags(BANK1[3]), 

    memset@p	PTR unsigned char  size(1) Largest target is 3
		 -> Scheduler_ActivationFlags(BANK1[3]), 

    sp__memset	PTR void  size(1) Largest target is 3
		 -> Scheduler_ActivationFlags(BANK1[3]), 

    S400$fuction_ptr	PTR FTN()void  size(1) Largest target is 1
		 -> Scheduler_Task3(), Scheduler_Task2(), Scheduler_Task1(), 

    Scheduler_Intitys.fuction_ptr	PTR FTN()void  size(1) Largest target is 1
		 -> Scheduler_Task3(), Scheduler_Task2(), Scheduler_Task1(), 

    Average_Value@Avrage_Values	PTR unsigned char  size(1) Largest target is 5
		 -> Temperature(BANK0[5]), 


Critical Paths under _main in COMMON

    None.

Critical Paths under _myISR in COMMON

    _Scheduler_ActivateTask->___llmod
    i1___lldiv->i1___bmul
    ___llmod->i1___lldiv

Critical Paths under _main in BANK0

    _Scheduler_Task3->_Mode_MainFunction
    _Set_EEPROM_Data->_e2pext_r
    _Mode_MainFunction->_Start_Setting_Timer
    _Start_Setting_Timer->___wmul
    _LED_MainFunction->_LED_BLINKING
    _LED_BLINKING->___wmul
    _Temperature_Calc->___xxtofl
    ___fltol->___xxtofl
    ___flmul->___xxtofl
    _Average_Value->___lldiv
    _Scheduler_Task1->_Display_MainFunction
    _Display_MainFunction->_Display_Blink
    _Display_Blink->___wmul
    _Scheduler_Init->_memset
    _Get_EEPROM_Data->_e2pext_r
    _e2pext_r->_i2c_rb
    _e2pext_r->_i2c_wb

Critical Paths under _myISR in BANK0

    _Timer0_CallBack->_Scheduler_ActivateTask
    _Scheduler_ActivateTask->___llmod
    ___llmod->i1___lldiv

Critical Paths under _main in BANK1

    _ADC_Value_Ready_CallBack->_Temperature_Calc
    _Temperature_Calc->___fltol
    ___fltol->___flmul

Critical Paths under _myISR in BANK1

    None.

Critical Paths under _main in BANK3

    _main->_Scheduler_Start
    _ADC_Value_Ready_CallBack->_Temperature_Calc
    _Temperature_Calc->___fltol

Critical Paths under _myISR in BANK3

    None.

Critical Paths under _main in BANK2

    None.

Critical Paths under _myISR in BANK2

    None.

Call Graph Tables:

 ---------------------------------------------------------------------------------
 (Depth) Function   	        Calls       Base Space   Used Autos Params    Refs
 ---------------------------------------------------------------------------------
 (0) _main                                                 0     0      0   13522
                           _ADC_Init
                     _ADC_Start_Conv
                       _Display_Init
                      _Elements_Init
                          _GPIO_Init
                    _Get_EEPROM_Data
                          _Mode_Init
                        _On_Off_Init
                     _Scheduler_Init
                    _Scheduler_Start
                        _Timer0_Init
 ---------------------------------------------------------------------------------
 (1) _Timer0_Init                                          0     0      0       0
 ---------------------------------------------------------------------------------
 (1) _Scheduler_Start                                      1     1      0   12227
                                             12 BANK3      1     1      0
                    _Scheduler_Task1 *
                    _Scheduler_Task2 *
                    _Scheduler_Task3 *
                             ___bmul
 ---------------------------------------------------------------------------------
 (2) ___bmul                                               3     2      1     179
                                             22 BANK0      3     2      1
 ---------------------------------------------------------------------------------
 (2) _Scheduler_Task3                                      0     0      0    2030
              _Elements_MainFunction
                  _Mode_MainFunction
                    _Set_EEPROM_Data
 ---------------------------------------------------------------------------------
 (3) _Set_EEPROM_Data                                      0     0      0     892
                           _e2pext_r
                          _i2c_start
                           _i2c_stop
                             _i2c_wb
 ---------------------------------------------------------------------------------
 (3) _Mode_MainFunction                                    1     1      0    1138
                                             34 BANK0      1     1      0
               _Read_UP_DOWN_BUTTONS
                _Start_Setting_Timer
 ---------------------------------------------------------------------------------
 (4) _Start_Setting_Timer                                  6     2      4    1138
                                             28 BANK0      6     2      4
                             ___wmul
 ---------------------------------------------------------------------------------
 (4) _Read_UP_DOWN_BUTTONS                                 1     1      0       0
                                             22 BANK0      1     1      0
 ---------------------------------------------------------------------------------
 (3) _Elements_MainFunction                                4     4      0       0
                                             22 BANK0      4     4      0
 ---------------------------------------------------------------------------------
 (2) _Scheduler_Task2                                      0     0      0    7481
              _ADC_Conv_MainFunction
                   _LED_MainFunction
 ---------------------------------------------------------------------------------
 (3) _LED_MainFunction                                     0     0      0    1138
                       _LED_BLINKING
 ---------------------------------------------------------------------------------
 (4) _LED_BLINKING                                         6     2      4    1138
                                             28 BANK0      6     2      4
                             ___wmul
 ---------------------------------------------------------------------------------
 (3) _ADC_Conv_MainFunction                                0     0      0    6343
           _ADC_Value_Ready_CallBack
 ---------------------------------------------------------------------------------
 (4) _ADC_Value_Ready_CallBack                             0     0      0    6343
                   _Temperature_Calc
 ---------------------------------------------------------------------------------
 (5) _Temperature_Calc                                     5     5      0    6343
                                             28 BANK1      1     1      0
                                              8 BANK3      4     4      0
                      _Average_Value
                            ___flmul
                            ___fltol
                            ___lwmod
                           ___xxtofl
 ---------------------------------------------------------------------------------
 (6) ___xxtofl                                            14    10      4     566
                                             22 BANK0     14    10      4
 ---------------------------------------------------------------------------------
 (6) ___fltol                                             10     6      4     427
                                             26 BANK1      2     2      0
                                              0 BANK3      8     4      4
                            ___flmul (ARG)
                           ___xxtofl (ARG)
 ---------------------------------------------------------------------------------
 (6) ___flmul                                             26    18      8    3353
                                              0 BANK1     26    18      8
                          __Umul8_16
                           ___xxtofl (ARG)
 ---------------------------------------------------------------------------------
 (7) __Umul8_16                                            9     7      2     980
                                             22 BANK0      9     7      2
 ---------------------------------------------------------------------------------
 (6) _Average_Value                                        8     7      1    1374
                                              0 BANK1      8     7      1
                            ___lldiv
                            ___lwmod
 ---------------------------------------------------------------------------------
 (6) ___lwmod                                              5     1      4     592
                                             22 BANK0      5     1      4
 ---------------------------------------------------------------------------------
 (7) ___lldiv                                             14     6      8     531
                                             22 BANK0     14     6      8
 ---------------------------------------------------------------------------------
 (2) _Scheduler_Task1                                      0     0      0    2376
               _Display_MainFunction
 ---------------------------------------------------------------------------------
 (3) _Display_MainFunction                                 2     2      0    2376
                                             34 BANK0      2     2      0
                      _Display_Blink
                            ___awdiv
                            ___awmod
 ---------------------------------------------------------------------------------
 (4) ___awmod                                              6     2      4     613
                                             22 BANK0      6     2      4
 ---------------------------------------------------------------------------------
 (4) ___awdiv                                              8     4      4     625
                                             22 BANK0      8     4      4
 ---------------------------------------------------------------------------------
 (4) _Display_Blink                                        6     2      4    1138
                                             28 BANK0      6     2      4
                             ___wmul
 ---------------------------------------------------------------------------------
 (5) ___wmul                                               6     2      4     896
                                             22 BANK0      6     2      4
 ---------------------------------------------------------------------------------
 (1) _Scheduler_Init                                       0     0      0     403
                             _memset
 ---------------------------------------------------------------------------------
 (2) _memset                                               6     2      4     403
                                             22 BANK0      6     2      4
 ---------------------------------------------------------------------------------
 (1) _On_Off_Init                                          0     0      0       0
 ---------------------------------------------------------------------------------
 (1) _Mode_Init                                            0     0      0       0
 ---------------------------------------------------------------------------------
 (1) _Get_EEPROM_Data                                      3     3      0     892
                                             31 BANK0      3     3      0
                           _e2pext_r
 ---------------------------------------------------------------------------------
 (4) _e2pext_r                                             5     3      2     762
                                             26 BANK0      5     3      2
                             _i2c_rb
                          _i2c_start
                           _i2c_stop
                             _i2c_wb
 ---------------------------------------------------------------------------------
 (4) _i2c_wb                                               4     4      0     130
                                             22 BANK0      4     4      0
                              _delay
 ---------------------------------------------------------------------------------
 (4) _i2c_stop                                             0     0      0       0
                              _delay
 ---------------------------------------------------------------------------------
 (4) _i2c_start                                            0     0      0       0
                              _delay
 ---------------------------------------------------------------------------------
 (5) _i2c_rb                                               4     4      0     167
                                             22 BANK0      4     4      0
                              _delay
 ---------------------------------------------------------------------------------
 (5) _delay                                                0     0      0       0
 ---------------------------------------------------------------------------------
 (1) _GPIO_Init                                            0     0      0       0
 ---------------------------------------------------------------------------------
 (1) _Elements_Init                                        0     0      0       0
 ---------------------------------------------------------------------------------
 (1) _Display_Init                                         0     0      0       0
 ---------------------------------------------------------------------------------
 (1) _ADC_Start_Conv                                       0     0      0       0
 ---------------------------------------------------------------------------------
 (1) _ADC_Init                                             0     0      0       0
 ---------------------------------------------------------------------------------
 Estimated maximum stack depth 7
 ---------------------------------------------------------------------------------
 (Depth) Function   	        Calls       Base Space   Used Autos Params    Refs
 ---------------------------------------------------------------------------------
 (8) _myISR                                                4     4      0     863
                                             18 BANK0      4     4      0
               _EXTI_On_Off_CallBack
                    _Timer0_CallBack
 ---------------------------------------------------------------------------------
 (9) _Timer0_CallBack                                      0     0      0     863
             _Scheduler_ActivateTask
 ---------------------------------------------------------------------------------
 (10) _Scheduler_ActivateTask                              5     1      4     863
                                             13 BANK0      5     1      4
                            ___llmod
                           i1___bmul
                          i1___lldiv
 ---------------------------------------------------------------------------------
 (11) i1___lldiv                                          14     6      8     214
                                              3 COMMON     9     1      8
                                              0 BANK0      5     5      0
                           i1___bmul (ARG)
 ---------------------------------------------------------------------------------
 (11) i1___bmul                                            3     2      1      87
                                              0 COMMON     3     2      1
 ---------------------------------------------------------------------------------
 (11) ___llmod                                            10     2      8     311
                                             12 COMMON     2     2      0
                                              5 BANK0      8     0      8
                           i1___bmul (ARG)
                          i1___lldiv (ARG)
 ---------------------------------------------------------------------------------
 (9) _EXTI_On_Off_CallBack                                 0     0      0       0
 ---------------------------------------------------------------------------------
 Estimated maximum stack depth 11
 ---------------------------------------------------------------------------------

 Call Graph Graphs:

 _main (ROOT)
   _ADC_Init
   _ADC_Start_Conv
   _Display_Init
   _Elements_Init
   _GPIO_Init
   _Get_EEPROM_Data
     _e2pext_r
       _i2c_rb
         _delay
       _i2c_start
         _delay
       _i2c_stop
         _delay
       _i2c_wb
         _delay
   _Mode_Init
   _On_Off_Init
   _Scheduler_Init
     _memset
   _Scheduler_Start
     _Scheduler_Task1 *
       _Display_MainFunction
         _Display_Blink
           ___wmul
         ___awdiv
         ___awmod
     _Scheduler_Task2 *
       _ADC_Conv_MainFunction
         _ADC_Value_Ready_CallBack
           _Temperature_Calc
             _Average_Value
               ___lldiv
               ___lwmod
             ___flmul
               __Umul8_16
               ___xxtofl (ARG)
             ___fltol
               ___flmul (ARG)
                 __Umul8_16
                 ___xxtofl (ARG)
               ___xxtofl (ARG)
             ___lwmod
             ___xxtofl
       _LED_MainFunction
         _LED_BLINKING
           ___wmul
     _Scheduler_Task3 *
       _Elements_MainFunction
       _Mode_MainFunction
         _Read_UP_DOWN_BUTTONS
         _Start_Setting_Timer
           ___wmul
       _Set_EEPROM_Data
         _e2pext_r
           _i2c_rb
             _delay
           _i2c_start
             _delay
           _i2c_stop
             _delay
           _i2c_wb
             _delay
         _i2c_start
           _delay
         _i2c_stop
           _delay
         _i2c_wb
           _delay
     ___bmul *
   _Timer0_Init

 _myISR (ROOT)
   _EXTI_On_Off_CallBack
   _Timer0_CallBack
     _Scheduler_ActivateTask
       ___llmod
         i1___bmul (ARG)
         i1___lldiv (ARG)
           i1___bmul (ARG)
       i1___bmul
       i1___lldiv
         i1___bmul (ARG)

 Address spaces:
Name               Size   Autos  Total    Cost      Usage
BANK3               60      D       D       9       13.5%
BITBANK3            60      0       0       8        0.0%
SFR3                 0      0       0       4        0.0%
BITSFR3              0      0       0       4        0.0%
BANK2               60      0       0      11        0.0%
BITBANK2            60      0       0      10        0.0%
SFR2                 0      0       0       5        0.0%
BITSFR2              0      0       0       5        0.0%
BANK1               50     1D      50       7      100.0%
BITBANK1            50      0       0       6        0.0%
SFR1                 0      0       0       2        0.0%
BITSFR1              0      0       0       2        0.0%
BANK0               50     24      3A       5       72.5%
BITBANK0            50      0       0       4        0.0%
SFR0                 0      0       0       1        0.0%
BITSFR0              0      0       0       1        0.0%
COMMON               E      E       E       1      100.0%
BITCOMMON            E      0       0       0        0.0%
CODE                 0      0       0       0        0.0%
DATA                 0      0      A5      12        0.0%
ABS                  0      0      A5       3        0.0%
NULL                 0      0       0       0        0.0%
STACK                0      0       0       2        0.0%
EEDATA             100      0       0       0        0.0%


Microchip Technology PIC Macro Assembler V2.20 build 20200408173844 
Symbol Table                                                                                   Sun Jul 12 21:09:04 2020

                                        pc 0002                             ___bmul@product 0037  
                                       l21 0947                                         l30 07FD  
                                       l25 0855                                         l33 085E  
                                       l70 0B49                                         l81 0648  
                                       l92 083E                               ___awdiv@sign 003B  
                                       fsr 0004                        ___wmul@multiplicand 0038  
                      __Umul8_16@word_mpld 003C                           ??_ADC_Start_Conv 0036  
                                      l121 0880                                        l106 09D2  
                                      l204 0CA3                                        l240 095F  
                                      l410 08FE                                        l244 0960  
                                      l236 095E                                        l404 0868  
                                      l164 0B80                                        l421 0E15  
                                      l157 04E4                                        l341 0873  
                                      l430 0E66                                        l422 0E19  
                                      l414 0BF5                                        l166 0B86  
                                      l263 0968                                        l407 08E9  
                                      l415 0C09                                        l256 0966  
                                      l248 0961                                        l344 08AF  
                                      l354 06E6                                        l186 0A75  
                                      l338 0844                                        l179 088F  
                                      l419 0E12                                        l428 0E51  
                                      l196 0AD8                                        l454 0C55  
                                      l390 0EC9                                        l470 0E09  
                                      l383 0834                                        l367 08BF  
                                      l288 0AD9                                        l297 089F  
                                      l474 0D1E                                        l466 0DD8  
                                      l563 09E1                                        l395 0A4B  
                                      l476 0D3F                                        l716 07E1  
                                      l477 0D52                                        l565 09F9  
                                      l729 0DAD                                        l756 0761  
                                      l845 0BC2                                        l749 0778  
                                      l589 092C                                        l599 0FFF  
                                      l759 0778                                        l952 040B  
                                      l971 0A10                                        l964 03FF  
                                      l973 0A22                                        l958 0377  
                                      l996 0509                                        l998 05A0  
                                      fsr0 0004                                        indf 0000  
                             ___awmod@sign 003B                               ___flmul@aexp 00E1  
                             ___flmul@bexp 00E6                               ___flmul@sign 00E0  
                             ___flmul@temp 00EB                               ___flmul@prod 00E7  
                             ___fltol@exp1 00EE                                       l1010 0576  
                                     l1017 098A                                       l1009 056A  
                                     l3101 0BB8                                       l3103 0BBE  
                                     l3111 0A06                                       l3121 05A4  
                                     l3113 0A0A                                       l3201 0084  
                                     l3123 05AC                                       l3115 0A19  
                                     l3107 09FD                                       l3211 0099  
                                     l3203 008A                                       l3141 085F  
                                     l3061 0FAA                                       l3133 05E8  
                                     l3125 05CD                                       l3117 0A1E  
                                     l3109 09FF                                       l3301 03BF  
                                     l3221 00B5                                       l3213 00A1  
                                     l3205 008E                                       l3071 0FC7  
                                     l3063 0FAD                                       l3135 060C  
                                     l3127 05E5                                       l3311 03EB  
                                     l3303 03CA                                       l3231 010C  
                                     l3215 00A3                                       l3207 008F  
                                     l3151 071A                                       l3143 06E7  
                                     l3401 0BCA                                       l3073 0FD9  
                                     l3065 0FB6                                       l3081 0FF7  
                                     l3137 0610                                       l3313 03F3  
                                     l3305 03D9                                       l3241 019F  
                                     l3233 0128                                       l3225 00BE  
                                     l3217 00AB                                       l3209 0094  
                                     l3153 071D                                       l3145 06F6  
                                     l3411 0BE0                                       l3075 0FE7  
                                     l3067 0FBA                                       l3059 0F98  
                                     l3091 0B99                                       l3139 0616  
                                     l3315 03F7                                       l3307 03E3  
                                     l3251 0230                                       l3243 01B9  
                                     l3235 015E                                       l3227 00D8  
                                     l3219 00B0                                       l3155 0725  
                                     l3331 0511                                       l3323 04E8  
                                     l3421 0BFB                                       l3413 0BE5  
                                     l3501 0B82                                       l3077 0FE8  
                                     l3069 0FBE                                       l3093 0B9D  
                                     l3085 0B87                                       l3317 03F8  
                                     l3309 03E5                                       l3261 02FB  
                                     l3253 024D                                       l3245 01D6  
                                     l3237 017A                                       l3229 00E5  
                                     l3181 0051                                       l3165 0735  
                                     l3157 0729                                       l3149 0701  
                                     l3341 052C                                       l3325 04ED  
                                     l3431 0E18                                       l3423 0C03  
                                     l3415 0BEB                                       l3407 0BCB  
                                     l3079 0FF1                                       l3095 0BA1  
                                     l3087 0B8F                                       l3319 0403  
                                     l3271 0347                                       l3263 0323  
                                     l3255 0284                                       l3247 01F0  
                                     l3239 0196                                       l3191 0068  
                                     l3183 0058                                       l3175 0752  
                                     l3167 0740                                       l3159 072D  
                                     l3351 0555                                       l3343 0533  
                                     l3335 051A                                       l3327 04F1  
                                     l3503 0A4C                                       l3511 0A23  
                                     l3441 0E31                                       l3425 0E0D  
                                     l3417 0BEF                                       l3409 0BDF  
                                     l3521 0D05                                       l3601 0D7A  
                                     l3097 0BAB                                       l3089 0B92  
                                     l3281 035C                                       l3273 0348  
                                     l3265 032C                                       l3257 029E  
                                     l3249 020D                                       l3193 006D  
                                     l3185 005E                                       l3177 0766  
                                     l3169 074B                                       l3361 058E  
                                     l3353 0560                                       l3345 0537  
                                     l3337 051F                                       l3329 0501  
                                     l3505 0A6A                                       l3513 0A41  
                                     l3451 0E4C                                       l3443 0E35  
                                     l3427 0E0E                                       l3419 0BF6  
                                     l3531 0D32                                       l3523 0D0A  
                                     l3611 0D99                                       l3603 0D7E  
                                     l3099 0BB1                                       l3291 0381  
                                     l3283 0360                                       l3275 0351  
                                     l3267 033A                                       l3259 02D5  
                                     l3195 0075                                       l3187 0062  
                                     l3179 076B                                       l3363 0593  
                                     l3355 0564                                       l3347 0545  
                                     l3339 0523                                       l3371 064C  
                                     l3507 0A6E                                       l3515 0A47  
                                     l3453 0E52                                       l3445 0E39  
                                     l3437 0E1A                                       l3381 08D5  
                                     l3533 0D39                                       l3525 0D11  
                                     l3517 0CFA                                       l3541 077C  
                                     l3605 0D82                                       l3613 0D9F  
                                     l3293 038F                                       l3285 0374  
                                     l3269 0343                                       l3277 0357  
                                     l3197 0077                                       l3189 0063  
                                     l3365 0597                                       l3357 056E  
                                     l3349 054E                                       l3373 06B9  
                                     l3621 07E2                                       l3509 0A71  
                                     l2911 092D                                       l3455 0E57  
                                     l3447 0E3F                                       l3439 0E1F  
                                     l3383 08D9                                       l3391 08ED  
                                     l3535 0D4F                                       l3527 0D18  
                                     l3519 0D01                                       l3471 09EF  
                                     l3463 09D3                                       l3551 0790  
                                     l3543 0780                                       l3615 0DA4  
                                     l3607 0D8C                                       l3295 0393  
                                     l3279 035B                                       l3199 007F  
                                     l3367 0598                                       l3359 0578  
                                     l3375 06C7                                       l3631 07FA  
                                     l3623 07E8                                       l3711 0ABD  
                                     l2913 084D                                       l2921 0952  
                                     l3457 0E5F                                       l3449 0E45  
                                     l3385 08DE                                       l3393 08F1  
                                     l3529 0D2B                                       l3473 09F5  
                                     l3465 09D7                                       l3561 07A6  
                                     l3553 0794                                       l3545 0785  
                                     l3617 0DA9                                       l3609 0D92  
                                     l3641 0420                                       l3633 040C  
                                     l3297 03AC                                       l3289 037C  
                                     l3377 06DF                                       l3625 07EC  
                                     l3721 0AD4                                       l3713 0AC2  
                                     l3705 0AA2                                       l3481 09BD  
                                     l2915 0853                                       l2923 0956  
                                     l3459 0E65                                       l3387 08E4  
                                     l3395 08F6                                       l3467 09DB  
                                     l3491 0B6F                                       l3571 07C6  
                                     l3563 07AA                                       l3555 0796  
                                     l3547 0787                                       l3539 0779  
                                     l3651 0438                                       l3643 0425  
                                     l3635 0413                                       l3299 03B2  
                                     l3379 06E5                                       l3627 07F1  
                                     l3715 0AC7                                       l3707 0AAA  
                                     l3731 0C79                                       l3723 0C56  
                                     l3483 09C9                                       l2925 095A  
                                     l2917 0948                                       l3397 08F9  
                                     l3389 08EA                                       l3469 09E8  
                                     l3493 0B70                                       l3573 07CD  
                                     l3565 07AE                                       l3557 079C  
                                     l3549 078B                                       l3661 0476  
                                     l3653 043D                                       l3645 042A  
                                     l3637 0417                                       l3477 0856  
                                     l3629 07F5                                       l3717 0AC9  
                                     l3709 0AAF                                       l3741 0C98  
                                     l3733 0C7A                                       l3725 0C5C  
                                     l3485 09CE                                       l3821 08A0  
                                     l2935 0962                                       l2919 094E  
                                     l3399 0BC6                                       l2951 0831  
                                     l2943 0839                                       l3495 0B74  
                                     l3487 0B4C                                       l3567 07BF  
                                     l3559 079F                                       l3575 07D3  
                                     l3591 0D61                                       l3583 0D53  
                                     l3671 0489                                       l3663 047A  
                                     l3655 0469                                       l3647 0432  
                                     l3639 041A                                       l3719 0ACE  
                                     l3735 0C7F                                       l3727 0C61  
                                     l3743 0C9B                                       l3479 09AF  
                                     l3751 0E81                                       l3815 083F  
                                     l3831 0924                                       l3823 0919  
                                     l2945 0874                                       l3841 0C0A  
                                     l3497 0B79                                       l3489 0B6A  
                                     l3577 07D8                                       l3569 07C5  
                                     l3593 0D65                                       l3585 0D56  
                                     l3681 0497                                       l3673 048B  
                                     l3665 047C                                       l3657 046D  
                                     l3649 0433                                       l3737 0C93  
                                     l3729 0C75                                       l3753 0E8F  
                                     l3761 0EA8                                       l3745 0E67  
                                     l3817 0869                                       l3833 0926  
                                     l3825 091A                                       l2947 087E  
                                     l2939 0967                                       l3851 0C40  
                                     l3843 0C19                                       l3499 0B7E  
                                     l3579 07DD                                       l3595 0D6A  
                                     l3587 0D5A                                       l3691 04A6  
                                     l3683 049A                                       l3675 048E  
                                     l3667 0481                                       l3659 0472  
                                     l3739 0C97                                       l3763 0EB4  
                                     l3755 0E9B                                       l3747 0E6C  
                                     l3771 0DAE                                       l3819 086E  
                                     l3835 092B                                       l3827 091E  
                                     l2949 0881                                       l3853 0C46  
                                     l3845 0C29                                       l3597 0D70  
                                     l3589 0D5F                                       l3685 049D  
                                     l3677 0491                                       l3669 0485  
                                     l3765 0EC0                                       l3757 0EA1  
                                     l3749 0E74                                       l3781 0DC4  
                                     l3773 0DB4                                       l3829 0922  
                                     l3861 0AD9                                       l3855 0C4C  
                                     l3847 0C36                                       l3839 0C0A  
                                     l3599 0D73                                       l3687 04A0  
                                     l3679 0494                                       l3695 04A9  
                                     l3767 0EC6                                       l3759 0EA5  
                                     l3791 0E03                                       l3783 0DCB  
                                     l3775 0DB9                                       l3871 0AFF  
                                     l2975 08B0                                       l3857 0C51  
                                     l3849 0C3B                                       l3793 096C  
                                     l3929 04B1                                       l3689 04A3  
                                     l3697 04D1                                       l3785 0DD2  
                                     l3777 0DBE                                       l3873 0B06  
                                     l2977 08BA                                       l3881 0B12  
                                     l3795 0971                                       l3859 0890  
                                     l3699 04D7                                       l3787 0DED  
                                     l3779 0DBF                                       l3875 0B0A  
                                     l3867 0ADC                                       l2979 08BE  
                                     l3891 0B3A                                       l3883 0B17  
                                     l3797 0978                                       l3789 0DF3  
                                     l3869 0AE5                                       l3893 0B3F  
                                     l3885 0B1C                                       l3799 097C  
                                     l3895 0B44                                       l3887 0B2B  
                                     l3889 0B30                             ??_LED_BLINKING 0040  
                                     u4000 0A1E                                       u4001 0A1D  
                                     u4100 074A                                       u4101 0749  
                                     u4110 0751                                       u4031 05FD  
                                     u4015 05B8                                       u4111 0750  
                                     u5000 0D70                                       u4040 0616  
                                     u4032 05FE                                       u4200 0099  
                                     u5001 0D6F                                       u4041 0615  
                                     u4033 0604                                       u4025 05EB  
                                     u4201 0098                                       u4034 0605  
                                     u4210 00B0                                       u4130 0766  
                                     u4050 06F6                                       u4035 060B  
                                     u4211 00AF                                       u4131 0765  
                                     u4051 06F5                                       u5020 0D82  
                                     u4036 060C                                       u4220 00B5  
                                     u4140 076B                                       u4060 0711  
                                     u5100 07F5                                       u5021 0D81  
                                     u4221 00B4                                       u4141 076A  
                                     u4125 0756                                       u5101 07F4  
                                     u5030 0D8C                                       u5110 0413  
                                     u4150 0062                                       u4070 072D  
                                     u5031 0D8B                                       u5015 0D74  
                                     u5111 0412                                       u4311 023F  
                                     u4231 011A                                       u4151 0061  
                                     u4071 072C                                       u5120 0420  
                                     u4400 0347                                       u4312 0246  
                                     u4232 0121                                       u4160 0068  
                                     u4080 0734                                       u5200 0AAF  
                                     u5121 041F                                       u4401 0346  
                                     u4321 0276                                       u4313 024D  
                                     u4305 020F                                       u4241 0136  
                                     u4233 0128                                       u4161 0067  
                                     u4081 0733                                       u4065 070C  
                                     u5201 0AAE                                       u5050 0D9F  
                                     u5130 042A                                       u4322 027D  
                                     u4242 013D                                       u4170 006D  
                                     u5210 0AC2                                       u5051 0D9E  
                                     u5035 0D88                                       u5131 0429  
                                     u4331 02AD                                       u4323 0284  
                                     u4251 016C                                       u4243 0144  
                                     u4171 006C                                       u5211 0AC1  
                                     u5060 0DA4                                       u5140 0438  
                                     u4500 03D9                                       u4420 035B  
                                     u4340 02E1                                       u4332 02B4  
                                     u4252 0173                                       u4180 008E  
                                     u5220 0AC7                                       u5061 0DA3  
                                     u5045 0D93                                       u5141 0437  
                                     u4501 03D8                                       u4421 035A  
                                     u4333 02BB                                       u4261 0188  
                                     u4253 017A                                       u4181 008D  
                                     u5221 0AC6                                       u5150 043D  
                                     u4510 03F7                                       u4430 0360  
                                     u4262 018F                                       u4190 0094  
                                     u5070 07E8                                       u5230 0ACE  
                                     u5310 0E8F                                       u5151 043C  
                                     u4511 03F6                                       u4431 035F  
                                     u4415 034A                                       u4351 02ED  
                                     u4263 0196                                       u4191 0093  
                                     u4095 0736                                       u5071 07E7  
                                     u5231 0ACD                                       u5311 0E8E  
                                     u3720 0853                                       u5160 0472  
                                     u4440 0374                                       u4360 0309  
                                     u4352 02F4                                       u4600 0564  
                                     u4520 04ED                                       u5080 07EC  
                                     u5240 0AD4                                       u5400 0DB4  
                                     u3721 0852                                       u5161 0471  
                                     u4505 03D5                                       u4441 0373  
                                     u4353 02FB                                       u4345 02DC  
                                     u4281 01C8                                       u4601 0563  
                                     u4521 04EC                                       u5081 07EB  
                                     u5241 0AD3                                       u5305 0E86  
                                     u5401 0DB3                                       u5170 0481  
                                     u4450 037B                                       u4282 01CF  
                                     u4610 056A                                       u4530 04F1  
                                     u5090 07F1                                       u5250 0C5C  
                                     u5330 0E9B                                       u5410 0DCB  
                                     u5171 0480                                       u4451 037A  
                                     u4371 0315                                       u4291 01FF  
                                     u4283 01D6                                       u4275 0198  
                                     u4611 0569                                       u4531 04F0  
                                     u5091 07F0                                       u5251 0C5B  
                                     u5331 0E9A                                       u5411 0DCA  
                                     u4700 0E3F                                       u5180 04D7  
                                     u4460 0381                                       u4372 031C  
                                     u4292 0206                                       u4620 056E  
                                     u4540 0511                                       u5260 0C61  
                                     u5340 0EA1                                       u5420 0E03  
                                     u4701 0E3E                                       u5181 04D6  
                                     u4461 0380                                       u4373 0323  
                                     u4365 0304                                       u4293 020D  
                                     u4621 056D                                       u4541 0510  
                                     u5261 0C60                                       u5341 0EA0  
                                     u5325 0E92                                       u5421 0E02  
                                     u4710 0E4C                                       u5510 0C40  
                                     u3910 0FF7                                       u4470 0393  
                                     u4630 0583                                       u5190 0AAA  
                                     u5270 0C75                                       u5430 0E09  
                                     u4711 0E4B                                       u5511 0C3F  
                                     u3911 0FF6                                       u4471 0392  
                                     u5191 0AA9                                       u5271 0C74  
                                     u5431 0E08                                       u5520 0C46  
                                     u5440 098A                                       u4720 09DB  
                                     u3920 0B8F                                       u4480 03A2  
                                     u4640 0593                                       u4560 0532  
                                     u5280 0C93                                       u4800 09CE  
                                     u5360 0EB4                                       u5521 0C45  
                                     u5505 0C2C                                       u5441 0989  
                                     u4721 09DA                                       u3905 0FE9  
                                     u3921 0B8E                                       u4385 0325  
                                     u4641 0592                                       u4561 0531  
                                     u5281 0C92                                       u4801 09CD  
                                     u5361 0EB3                                       u5530 0C4C  
                                     u4810 0B6A                                       u3850 0FAA  
                                     u4490 03BF                                       u4650 0597  
                                     u5290 0E74                                       u5531 0C4B  
                                     u4811 0B69                                       u3851 0FA9  
                                     u4491 03BE                                       u4395 033C  
                                     u4651 0596                                       u4635 057E  
                                     u4555 0524                                       u5275 0C71  
                                     u5355 0EAB                                       u5291 0E73  
                                     u4820 0B6F                                       u4900 079C  
                                     u3940 0BA1                                       u4580 0554  
                                     u4660 06E5                                       u5380 0EC0  
                                     u5540 0AE5                                       u4821 0B6E  
                                     u4901 079B                                       u3941 0BA0  
                                     u4485 039D                                       u4581 0553  
                                     u4661 06E4                                       u5285 0C8F  
                                     u5381 0EBF                                       u5541 0AE4  
                                     u4750 09F5                                       u4830 0B7E  
                                     u3870 0FBE                                       u3950 0BAB  
                                     u5390 0EC6                                       u5470 091E  
                                     u5550 0B10                                       u4751 09F4  
                                     u4735 09E2                                       u4831 0B7D  
                                     u4815 0B66                                       u3871 0FBD  
                                     u3951 0BAA                                       u3935 0B93  
                                     u4495 03BB                                       u4575 0546  
                                     u5391 0EC5                                       u5375 0EB7  
                                     u5471 091D                                       u5551 0B0F  
                                     u4680 0BF5                                       u4920 07AE  
                                     u4840 0A6A                                       u5480 092B  
                                     u4681 0BF4                                       u4745 09E9  
                                     u4921 07AD                                       u3865 0FAF  
                                     u4841 0A69                                       u5481 092A  
                                     u4674 0BD3                                       u5490 0C19  
                                     u3890 0FD9                                       u3970 0BBE  
                                     u4770 09BD                                       u4850 0A41  
                                     u4675 0BD1                                       u5491 0C18  
                                     u4915 07A0                                       u3891 0FD8  
                                     u3971 0BBD                                       u3955 0BA7  
                                     u4595 0559                                       u4771 09BC  
                                     u4851 0A40                                       u4860 0D11  
                                     u4940 07BF                                       u3980 0A0A  
                                     u4861 0D10                                       u4941 07BE  
                                     u3885 0FC0                                       u3965 0BB2  
                                     u3981 0A09                                       u4845 0A66  
                                     u4765 09B4                                       u4694 0E2A  
                                     u4870 0D32                                       u4790 09C9  
                                     u4695 0E28                                       u4871 0D31  
                                     u4935 07AF                                       u3895 0FD5  
                                     u4791 09C8                                       u4855 0A3D  
                                     u4960 07D3                                       u4880 0780  
                                     u4961 07D2                                       u4945 07BB  
                                     u4881 077F                                       u4785 09C0  
                                     u4970 07D8                                       u4890 078B  
                                     u4971 07D7                                       u4955 07C7  
                                     u4891 078A                                       u3995 0A11  
                                     u4980 0D5A                                       u4981 0D59  
                                     u4990 0D65                                       u4991 0D64  
                                     _TMR0 0001                                       _Mode 0044  
                __size_of_Temperature_Calc 009E                          i1___lldiv@divisor 0073  
                                     _main 0B12                   ??_Scheduler_ActivateTask 007E  
                                     btemp 007E                          i1___lldiv@counter 0024  
                         __end_of_ADC_Init 0948                                       start 0012  
                               e2pext_r@ah 003E                                 e2pext_r@al 003D  
                       __size_of_GPIO_Init 0021                              ??_On_Off_Init 0036  
                        ___bmul@multiplier 0038                           ??_Scheduler_Init 003C  
                        ??_Timer0_CallBack 007E                            _Average_Nvalues 0059  
                            ___fltol@sign1 00ED                                      ?_main 0070  
                          __end_of___awdiv 07E2                            __end_of___awmod 0DAE  
                          __end_of___flmul 040C                            __end_of___fltol 0779  
                          __end_of___lldiv 1000                            ___awdiv@divisor 0036  
                          __end_of___llmod 0CFA                                      i1l100 0915  
                                    i1l303 0F2F                            __end_of___lwmod 0BC3  
                                    i1l370 0AA1                                      i1l276 0996  
                                    i1l279 09A2                                      i1l589 08D4  
                                    i1l599 0F97                                      i1l785 0CF9  
                          ___awdiv@counter 003A                                      _PORTA 0005  
                                    _PORTB 0006                                      _PORTC 0007  
                                    _PORTD 0008                                      _TRISA 0085  
                                    _TRISB 0086                                      _TRISC 0087  
                                    _TRISD 0088                         i1___lldiv@dividend 0077  
                                    _delay 085F                                      _myISR 098B  
                                    fpbase 0047                      Display_Blink@Times_Ms 003C  
               Average_Value@Avrage_Values 00D3                           __end_ofi1___bmul 08D5  
                                    pclath 000A                                      status 0003  
                                    wtemp0 007E                                e2pext_r@ret 003C  
                       __size_ofi1___lldiv 0068                            _Set_EEPROM_Data 0DAE  
                         ?_Get_EEPROM_Data 0070                 ??_ADC_Value_Ready_CallBack 0044  
             __size_of_Start_Setting_Timer 0029                            __initialization 0015  
                        ??_Scheduler_Task1 0044                          ??_Scheduler_Task2 0044  
                        ??_Scheduler_Task3 0043                               __end_of_main 0B4C  
                        ??_Scheduler_Start 0044                         i1___lldiv@quotient 0020  
                         __end_of_i2c_stop 08FF                           __end_of_e2pext_r 0D53  
                  ??_Elements_MainFunction 0036                        __end_of_On_Off_Init 083F  
                                   ??_main 0044                          __end_of_GPIO_Init 0969  
                     __end_of_Display_Init 0881                       _Display_MainFunction 040C  
                                   ?_delay 0070                                     ?_myISR 0070  
                         ___llmod@dividend 0029                                     _ADRESL 009E  
                         ___awdiv@dividend 0038                                     i1l3001 090C  
                                   i1l3003 090E                                     i1l3005 0913  
                                   i1l2801 0CA4                                     i1l2811 0CC2  
                                   i1l2803 0CAE                                     i1l2813 0CD4  
                                   i1l2805 0CB1                                     i1l2815 0CE2  
                                   i1l2807 0CBA                                     i1l2831 0F52  
                                   i1l2823 0F30                                     i1l2817 0CEB  
                                   i1l2809 0CBE                                     i1l2841 0F80  
                                   i1l2833 0F56                                     i1l2825 0F42  
                                   i1l3801 0ECA                                     i1l2819 0CF1  
                                   i1l2851 08C2                                     i1l2843 0F89  
                                   i1l2835 0F5F                                     i1l2827 0F45  
                                   i1l3811 0F25                                     i1l2861 08D3  
                                   i1l2853 08C6                                     i1l2837 0F71  
                                   i1l2829 0F4E                                     i1l2845 0F8F  
                                   i1l3813 0F29                                     i1l3901 0990  
                                   i1l2855 08CA                                     i1l2839 0F7F  
                                   i1l3807 0ECD                                     i1l3903 099A  
                                   i1l2857 08CC                                     i1l2849 08C1  
                                   i1l3809 0F1F                                     i1l3905 099B  
                                   i1l2859 08CE                                     i1l3907 099D  
                                   i1l2997 08FF                                     i1l3877 0A76  
                                   i1l2999 0907                                     i1l3879 0A86  
                                   i1l3897 098B                                     i1l3899 098F  
                                   _INTEDG 040E                                     u352_20 0CAE  
                                   u360_20 0F56                                     u352_21 0CAD  
                                   u360_21 0F55                                     u353_25 0CB3  
                                   u361_25 0F58                                     u354_20 0CC2  
                                   u362_20 0F71                                     u354_21 0CC1  
                                   u362_21 0F70                                     u362_25 0F6D  
                                   u355_20 0CD4                                     u355_21 0CD3  
                                   u355_25 0CD0                                     u363_25 0F81  
                                   u380_20 0907                                     u364_20 0F8F  
                                   u380_21 0906                                     u364_21 0F8E  
                                   u356_25 0CE3                                     u381_20 090C  
                                   u357_20 0CF1                                     u365_20 08C6  
                                   u381_21 090B                                     u357_21 0CF0  
                                   u365_21 08C5                                     u382_20 0913  
                                   u366_20 08D3                                     u358_20 0F42  
                                   u382_21 0912                                     u366_21 08D2  
                                   u358_21 0F41                                     u359_25 0F47  
                                   u545_20 0F1F                                     u545_21 0F1E  
                                   u546_20 0F2F                                     u546_21 0F2E  
                                   u556_20 098F                                     u556_21 098E  
                                   u557_20 099A                                     u557_21 0999  
                         __end_of__fptable 0051                         __size_of_i2c_start 0015  
                         __end_of___xxtofl 05A1            __size_of_Scheduler_ActivateTask 0066  
                       __size_of_Mode_Init 0004                             _Enable_Display 004F  
                            ??_Timer0_Init 0036                                     _i2c_rb 0E0A  
                                   _i2c_wb 0BC3               __end_of_EXTI_On_Off_CallBack 0916  
                                   ___bmul 0916                  __size_of_LED_MainFunction 0037  
                                   ___wmul 09D3                                  ??___awdiv 003A  
                                ??___awmod 003A                                  ??___flmul 00DB  
                                ??___fltol 0194                                  ??___lldiv 003E  
                                ??___llmod 007C                                  ??___lwmod 003A  
                                   _memset 0969                       __end_of_LED_BLINKING 0A76  
                         ___awdiv@quotient 003C                            ___awmod@divisor 0036  
                          ___awmod@counter 003A          Scheduler_ActivateTask@IntityIndex 0031  
           __size_of_ADC_Conv_MainFunction 001C                                     fptable 0042  
            __end_of_ADC_Conv_MainFunction 07FE                          __end_ofi1___lldiv 0F98  
                                   fptotal 0006                         __size_of__Umul8_16 0029  
                                ?_ADC_Init 0070                        Get_EEPROM_Data@Flag 0040  
                                   saved_w 007E                        Get_EEPROM_Data@Temp 0041  
             __end_of_Read_UP_DOWN_BUTTONS 09D3                      ?_Display_MainFunction 0070  
                             e2pext_r@addr 003A           Scheduler_ActivateTask@SystemTick 002D  
                  __end_of_Set_EEPROM_Data 0E0A                      __end_of_Elements_Init 0890  
                             ___xxtofl@arg 0040                               ___xxtofl@exp 003F  
                             ___xxtofl@val 0036                           _Temperature_Calc 0649  
                  __end_of__initialization 003E                                 ___fltol@f1 0190  
                      ___bmul@multiplicand 0036                                _On_Off_Init 0839  
                           __pcstackCOMMON 0070                               __pidataBANK0 0835  
                            __end_of_delay 0869                              __end_of_myISR 09AF  
                      __end_of_Timer0_Init 08C0                                  ?i1___bmul 0070  
                   _Scheduler_ActivateTask 0ECA                          __end_of_i2c_start 08EA  
           Start_Setting_Timer@Peroid_Task 003E                             _OPTION_REGbits 0081  
                        __end_of_Mode_Init 0835                                 ??_ADC_Init 0036  
                    __end_of_Average_Value 0649                                    ??_delay 0036  
                         i1___bmul@product 0071                                    ??_myISR 0032  
                        Set_EEPROM_Data@ah 0048                          Set_EEPROM_Data@al 0047  
                        Set_EEPROM_Data@nt 0046                                 __pbssBANK0 0044  
                               __pbssBANK1 00A0                                  ?_i2c_stop 0070  
                                ?_e2pext_r 003A                            _Timer0_CallBack 0A76  
                                  ?_i2c_rb 0070                                    ?_i2c_wb 0070  
                        __end_of__Umul8_16 0A23                                 __pmaintext 0B12  
                    __end_of_Display_Blink 0B87                                    ?___bmul 0036  
                                  ?___wmul 0036                                 __pintentry 0004  
                                  ?_memset 0036                                 ??i1___bmul 0071  
                    __size_of_Display_Init 000D                    LED_BLINKING@Task_Peroid 003E  
              Display_MainFunction@Digit_1 004D                Display_MainFunction@Digit_2 004C  
                                ?___xxtofl 0036                     ??_Display_MainFunction 0042  
              Display_MainFunction@Display 004A                        _Start_Setting_Timer 0A23  
                     _EXTI_On_Off_CallBack 08FF             Display_MainFunction@Tempreture 004B  
                         ?_Set_EEPROM_Data 0070                                 __stringtab 0800  
                                  i2c_rb@i 0039                                    i2c_wb@i 0039  
                          _Scheduler_Task1 083F                            _Scheduler_Task2 0869  
                          _Scheduler_Task3 08A0                            _Scheduler_Start 0AD9  
                               ??_i2c_stop 0036                                 ??_e2pext_r 003C  
                              _Timer0_Init 08B0                            __size_of_i2c_rb 005D  
                          __size_of_i2c_wb 0047                       ?_Start_Setting_Timer 003C  
                    __size_of_LED_BLINKING 002A                               _Display_Init 0874  
                     _Read_UP_DOWN_BUTTONS 09AF                           _LED_MainFunction 0AA2  
                          __size_of___bmul 0017                                    ___awdiv 0779  
                                  ___awmod 0D53                                    ___flmul 0051  
                                  ___fltol 06E7                                    ___lldiv 0F98  
                          __size_of___wmul 0027                                    ___llmod 0CA4  
                                  ___lwmod 0B87                                _Temperature 0051  
                          __size_of_memset 0022             __size_of_Elements_MainFunction 004E  
                                  __ptext1 08B0                                    __ptext2 0AD9  
                                  __ptext3 0916                                    __ptext4 0869  
                                  __ptext5 083F                                    __ptext6 08A0  
                                  __ptext7 0DAE                                    __ptext8 0E67  
                                  __ptext9 0A23                Start_Setting_Timer@Timer_Ms 003C  
            __end_of_Elements_MainFunction 0CA4                                 ??___xxtofl 003A  
                         ___awmod@dividend 0038                        i1___bmul@multiplier 0072  
                    ?_EXTI_On_Off_CallBack 0070                    __end_of_Timer0_CallBack 0AA2  
                                  clrloop0 0846                                  _GPIO_Init 0948  
                     end_of_initialization 003E                    __size_of_ADC_Start_Conv 0009  
                             _LED_BLINKING 0A4C                                    memset@c 0036  
                                  memset@n 0038                                    memset@p 003A  
                          ___lldiv@divisor 0036                      ??_Start_Setting_Timer 0040  
                          ___lldiv@counter 0043                      ?_Read_UP_DOWN_BUTTONS 0070  
                 __size_of_Get_EEPROM_Data 004C                   __end_of_Temperature_Calc 06E7  
                                _PORTCbits 0007                    __size_of_Scheduler_Init 0010  
                            ___xxtofl@sign 003E                    __end_of_Scheduler_Task1 0845  
                  __end_of_Scheduler_Task2 0874                    __end_of_Scheduler_Task3 08B0  
        __size_of_ADC_Value_Ready_CallBack 0009                  ?_ADC_Value_Ready_CallBack 0070  
                  __end_of_Scheduler_Start 0B12                                  i1___lldiv 0F30  
                        __size_of_ADC_Init 001B                                 ?_GPIO_Init 0070  
                      LED_BLINKING@Counter 0056                                ___flmul@grs 00E2  
                                i2c_rb@ack 0037                                  i2c_rb@ret 0038  
                Temperature_Calc@ADC_VALUE 00EF                                  i2c_wb@val 0038  
                        _Scheduler_Intitys 0806                        LED_BLINKING@Time_Ms 003C  
                             ?_On_Off_Init 0070                             __end_of_i2c_rb 0E67  
                           __end_of_i2c_wb 0C0A                    ?_Scheduler_ActivateTask 002D  
                           __end_of___bmul 092D                       Display_Blink@Counter 0057  
                           __end_of___wmul 09FA                             __end_of_memset 098B  
                        __size_ofi1___bmul 0015                        start_initialization 0015  
                   ??_EXTI_On_Off_CallBack 0070                      _ADC_Conv_MainFunction 07E2  
                        _Mode_MainFunction 0E67                                  _i2c_start 08D5  
                               ?i1___lldiv 0073                           ?_Timer0_CallBack 0070  
                                _Mode_Init 0831                         ?_Mode_MainFunction 0070  
                __end_of_Scheduler_Intitys 0815                            ___llmod@divisor 0025  
                          ___llmod@counter 007D                        ??_Mode_MainFunction 0042  
                        __size_of_i2c_stop 0015                          __size_of_e2pext_r 0059  
                                 ??_i2c_rb 0036                                   ??_i2c_wb 0036  
                   ??_Read_UP_DOWN_BUTTONS 0036             __end_of_Scheduler_ActivateTask 0F30  
                                 ??___bmul 0037                                   ??___wmul 003A  
                                __Umul8_16 09FA                                __pdataBANK0 0056  
                                 ??_memset 003A                     __size_of_Elements_Init 000F  
                __end_of_Mode_MainFunction 0ECA                                  ___flmul@a 00D7  
                                ___flmul@b 00D3                          ??_Get_EEPROM_Data 003F  
                                ___latbits 0002                              __pcstackBANK0 0020  
                            __pcstackBANK1 00D3                              __pcstackBANK3 0190  
                         ?_Scheduler_Task1 0070                           ?_Scheduler_Task2 0070  
                         ?_Scheduler_Task3 0070                                 ?_i2c_start 0070  
                         ?_Scheduler_Start 0070                          __size_of__fptable 000F  
                        __size_of___xxtofl 00BC                   __end_of_LED_MainFunction 0AD9  
                               ?_Mode_Init 0070                                ??_GPIO_Init 0036  
                           _ADC_Start_Conv 084D                                _EEPROM_Data 0049  
                             ?_Timer0_Init 0070                                  __pfunctab 0042  
                   __size_of_Average_Value 00A8                                   ?___awdiv 0036  
                                 ?___awmod 0036                                   ?___flmul 00D3  
                                 ?___fltol 0190                                   ?___lldiv 0036  
                                 ?___llmod 0025                                 ?__Umul8_16 0036  
                                 ?___lwmod 0036                                  __pstrings 0800  
                           _Scheduler_Init 0890                     ?_ADC_Conv_MainFunction 0070  
                                 _ADC_Info 0050                                   _ADC_Init 092D  
                   __end_of_ADC_Start_Conv 0856              __size_of_Display_MainFunction 00D9  
                              ??i1___lldiv 007B                             __size_of_delay 000A  
                   __size_of_Display_Blink 003B                             __size_of_myISR 0024  
Display_MainFunction@Enable_Digit_Selector 0058                          interrupt_function 0004  
                            _Elements_Init 0881                             ___wmul@product 003A  
                                clear_ram0 0845                      i1___bmul@multiplicand 0070  
                 __size_of_Set_EEPROM_Data 005C           __end_of_ADC_Value_Ready_CallBack 085F  
                     __size_of_On_Off_Init 0006                     __end_of_Scheduler_Init 08A0  
                                 i1___bmul 08C0                                 _ADCON0bits 001F  
                              __stringbase 0805                                 _ADCON1bits 009F  
                        ___wmul@multiplier 0036                          ?_Temperature_Calc 0070  
               __size_of_Mode_MainFunction 0063                      _Elements_MainFunction 0C56  
                       ??_Temperature_Calc 0198                                ??_i2c_start 0036  
                          ?_ADC_Start_Conv 0070                              _Average_Value 05A1  
                              ??_Mode_Init 0036                             ?_Elements_Init 0070  
              __end_of_Start_Setting_Timer 0A4C                                   _i2c_stop 08EA  
                                 _e2pext_r 0CFA                                   _Tick_Num 00C8  
                            _Display_Blink 0B4C                                ??__Umul8_16 0038  
                         __size_of___awdiv 0069                           __size_of___awmod 005B  
                         __size_of___flmul 03BB                           __size_of___fltol 0092  
                         __size_of___lldiv 0068                           __size_of___llmod 0056  
                         __size_of___lwmod 003C                            ?_Scheduler_Init 0070  
                       __end_of__stringtab 0806                                   __fptable 0042  
                                 ___xxtofl 04E5                   Display_Blink@Task_Peroid 003E  
                           ?_Average_Value 00D3                                   __ptext10 09AF  
                                 __ptext11 0C56                                   __ptext20 09FA  
                                 __ptext12 0AA2                                   __ptext21 05A1  
                                 __ptext13 0A4C                                   __ptext30 0969  
                                 __ptext22 0B87                                   __ptext14 07E2  
                                 __ptext31 0839                                   __ptext23 0F98  
                                 __ptext15 0856                                   __ptext40 0948  
                                 __ptext32 0831                                   __ptext24 040C  
                                 __ptext16 0649                                   __ptext41 0881  
                                 __ptext33 0C0A                                   __ptext25 0D53  
                                 __ptext17 04E5                                   __ptext50 0CA4  
                                 __ptext42 0874                                   __ptext34 0CFA  
                                 __ptext26 0779                                   __ptext18 06E7  
                                 __ptext51 08FF                                   __ptext43 084D  
                                 __ptext35 0BC3                                   __ptext27 0B4C  
                                 __ptext19 0051                                   __ptext44 092D  
                                 __ptext36 08EA                                   __ptext28 09D3  
                                 __ptext45 098B                                   __ptext37 08D5  
                                 __ptext29 0890                                   __ptext46 0A76  
                                 __ptext38 0E0A                                   __ptext47 0ECA  
                                 __ptext39 085F                                   __ptext48 0F30  
                                 __ptext49 08C0                              __size_of_main 003A  
                                 _temb_val 00A0                             ?_Display_Blink 003C  
                            _Avrage_buffer 00CC                       __size_of_Timer0_Init 0010  
                          _Get_EEPROM_Data 0C0A                          ??_Set_EEPROM_Data 003F  
                 _ADC_Value_Ready_CallBack 0856                     ?_Elements_MainFunction 0070  
                               _LED_Status 004E                                 _INTCONbits 000B  
                                 memset@p1 003B              __size_of_EXTI_On_Off_CallBack 0017  
                          ??_Elements_Init 0036                          ?_LED_MainFunction 0070  
                                 intlevel1 0042                         ??_LED_MainFunction 0042  
                         ___lwmod@dividend 0038                           ___lldiv@dividend 003A  
               Scheduler_Start@IntityIndex 019C                  _Scheduler_ActivationFlags 00D0  
                 __size_of_Timer0_CallBack 002C                                  stringcode 0800  
                            ?_Display_Init 0070              __size_of_Read_UP_DOWN_BUTTONS 0024  
                  ??_ADC_Conv_MainFunction 0044                     __Umul8_16@multiplicand 0036  
                          ??_Average_Value 00D4                           ___lldiv@quotient 003F  
                          ___lwmod@divisor 0036                            ___lwmod@counter 003A  
                                 stringdir 0800                                   stringtab 0800  
                       Average_Value@Value 00D9                         Average_Value@index 00DA  
                            ?_LED_BLINKING 003C                   __size_of_Scheduler_Task1 0006  
                 __size_of_Scheduler_Task2 000B                   __size_of_Scheduler_Task3 0010  
                       fp__Scheduler_Task1 004B                         fp__Scheduler_Task2 004E  
                       fp__Scheduler_Task3 0048                   __size_of_Scheduler_Start 0039  
                     __Umul8_16@multiplier 003E                    __end_of_Get_EEPROM_Data 0C56  
                          ??_Display_Blink 0040                             ??_Display_Init 0036  
             __end_of_Display_MainFunction 04E5                          __Umul8_16@product 003A  
