

Microchip MPLAB XC8 Assembler V2.20 build 20200408173844 
                                                                                               Sat Jul 18 01:59:39 2020

Microchip MPLAB XC8 C Compiler v2.20 (Free license) build 20200408173844 Og1 
     1                           	processor	16F877A
     2                           	pagewidth 120
     3                           	opt	flic
     4                           	psect	idataBANK0,global,class=CODE,delta=2,noexec
     5                           	psect	strings,global,class=STRING,delta=2,noexec
     6                           	psect	cinit,global,class=CODE,merge=1,delta=2
     7                           	psect	bssBANK0,global,class=BANK0,space=1,delta=1,noexec
     8                           	psect	dataBANK0,global,class=BANK0,space=1,delta=1,noexec
     9                           	psect	bssBANK1,global,class=BANK1,space=1,delta=1,noexec
    10                           	psect	clrtext,global,class=CODE,delta=2
    11                           	psect	cstackBANK3,global,class=BANK3,space=1,delta=1,noexec
    12                           	psect	cstackBANK1,global,class=BANK1,space=1,delta=1,noexec
    13                           	psect	cstackCOMMON,global,class=COMMON,space=1,delta=1,noexec
    14                           	psect	cstackBANK0,global,class=BANK0,space=1,delta=1,noexec
    15                           	psect	maintext,global,class=CODE,split=1,delta=2
    16                           	psect	text1,local,class=CODE,merge=1,delta=2
    17                           	psect	text2,local,class=CODE,merge=1,delta=2
    18                           	psect	text3,local,class=CODE,merge=1,delta=2,group=1
    19                           	psect	text4,local,class=CODE,merge=1,delta=2
    20                           	psect	text5,local,class=CODE,merge=1,delta=2
    21                           	psect	text6,local,class=CODE,merge=1,delta=2
    22                           	psect	text7,local,class=CODE,merge=1,delta=2
    23                           	psect	text8,local,class=CODE,merge=1,delta=2
    24                           	psect	text9,local,class=CODE,merge=1,delta=2
    25                           	psect	text10,local,class=CODE,merge=1,delta=2
    26                           	psect	text11,local,class=CODE,merge=1,delta=2
    27                           	psect	text12,local,class=CODE,merge=1,delta=2
    28                           	psect	text13,local,class=CODE,merge=1,delta=2,group=1
    29                           	psect	text14,local,class=CODE,merge=1,delta=2,group=1
    30                           	psect	text15,local,class=CODE,merge=1,delta=2,group=1
    31                           	psect	text16,local,class=CODE,merge=1,delta=2,group=1
    32                           	psect	text17,local,class=CODE,merge=1,delta=2
    33                           	psect	text18,local,class=CODE,merge=1,delta=2,group=1
    34                           	psect	text19,local,class=CODE,merge=1,delta=2,group=1
    35                           	psect	text20,local,class=CODE,merge=1,delta=2
    36                           	psect	text21,local,class=CODE,merge=1,delta=2
    37                           	psect	text22,local,class=CODE,merge=1,delta=2
    38                           	psect	text23,local,class=CODE,merge=1,delta=2
    39                           	psect	text24,local,class=CODE,merge=1,delta=2
    40                           	psect	text25,local,class=CODE,merge=1,delta=2
    41                           	psect	text26,local,class=CODE,merge=1,delta=2
    42                           	psect	text27,local,class=CODE,merge=1,delta=2
    43                           	psect	text28,local,class=CODE,merge=1,delta=2,group=1
    44                           	psect	text29,local,class=CODE,merge=1,delta=2
    45                           	psect	text30,local,class=CODE,merge=1,delta=2,group=1
    46                           	psect	text31,local,class=CODE,merge=1,delta=2
    47                           	psect	text32,local,class=CODE,merge=1,delta=2,group=2
    48                           	psect	text33,local,class=CODE,merge=1,delta=2
    49                           	psect	text34,local,class=CODE,merge=1,delta=2
    50                           	psect	text35,local,class=CODE,merge=1,delta=2
    51                           	psect	text36,local,class=CODE,merge=1,delta=2
    52                           	psect	text37,local,class=CODE,merge=1,delta=2
    53                           	psect	text38,local,class=CODE,merge=1,delta=2,group=1
    54                           	psect	text39,local,class=CODE,merge=1,delta=2
    55                           	psect	text40,local,class=CODE,merge=1,delta=2
    56                           	psect	text41,local,class=CODE,merge=1,delta=2
    57                           	psect	text42,local,class=CODE,merge=1,delta=2
    58                           	psect	text43,local,class=CODE,merge=1,delta=2
    59                           	psect	text44,local,class=CODE,merge=1,delta=2
    60                           	psect	text45,local,class=CODE,merge=1,delta=2
    61                           	psect	text46,local,class=CODE,merge=1,delta=2
    62                           	psect	text47,local,class=CODE,merge=1,delta=2
    63                           	psect	text48,local,class=CODE,merge=1,delta=2
    64                           	psect	text49,local,class=CODE,merge=1,delta=2
    65                           	psect	text50,local,class=CODE,merge=1,delta=2
    66                           	psect	intentry,global,class=CODE,delta=2
    67                           	psect	text51,local,class=CODE,merge=1,delta=2
    68                           	psect	text52,local,class=CODE,merge=1,delta=2
    69                           	psect	text53,local,class=CODE,merge=1,delta=2
    70                           	psect	text54,local,class=CODE,merge=1,delta=2
    71                           	psect	text55,local,class=CODE,merge=1,delta=2,group=1
    72                           	psect	text56,local,class=CODE,merge=1,delta=2
    73                           	psect	functab,global,class=ENTRY,delta=2
    74                           	psect	config,global,abs,ovrld,class=CONFIG,space=4,delta=2,noexec
    75                           	dabs	1,0x7E,2
    76  0000                     
    77                           ; Version 2.20
    78                           ; Generated 12/02/2020 GMT
    79                           ; 
    80                           ; Copyright © 2020, Microchip Technology Inc. and its subsidiaries ("Microchip")
    81                           ; All rights reserved.
    82                           ; 
    83                           ; This software is developed by Microchip Technology Inc. and its subsidiaries ("Microch
      +                          ip").
    84                           ; 
    85                           ; Redistribution and use in source and binary forms, with or without modification, are
    86                           ; permitted provided that the following conditions are met:
    87                           ; 
    88                           ;     1. Redistributions of source code must retain the above copyright notice, this lis
      +                          t of
    89                           ;        conditions and the following disclaimer.
    90                           ; 
    91                           ;     2. Redistributions in binary form must reproduce the above copyright notice, this 
      +                          list
    92                           ;        of conditions and the following disclaimer in the documentation and/or other
    93                           ;        materials provided with the distribution.
    94                           ; 
    95                           ;     3. Microchip's name may not be used to endorse or promote products derived from th
      +                          is
    96                           ;        software without specific prior written permission.
    97                           ; 
    98                           ; THIS SOFTWARE IS PROVIDED BY MICROCHIP "AS IS" AND ANY EXPRESS OR IMPLIED WARRANTIES,
    99                           ; INCLUDING, BUT NOT LIMITED TO, THE IMPLIED WARRANTIES OF MERCHANTABILITY AND FITNESS F
      +                          OR
   100                           ; PURPOSE ARE DISCLAIMED.  IN NO EVENT SHALL MICROCHIP BE LIABLE FOR ANY DIRECT, INDIREC
      +                          T,
   101                           ; INCIDENTAL, SPECIAL, EXEMPLARY, OR CONSEQUENTIAL DAMAGES (INCLUDING BUT NOT LIMITED TO
   102                           ; PROCUREMENT OF SUBSTITUTE GOODS OR SERVICES; LOSS OF USE, DATA OR PROFITS; OR BUSINESS
   103                           ; INTERRUPTION) HOWSOEVER CAUSED AND ON ANY THEORY OF LIABILITY, WHETHER IN CONTRACT, ST
      +                          RICT
   104                           ; LIABILITY, OR TORT (INCLUDING NEGLIGENCE OR OTHERWISE) ARISING IN ANY WAY OUT OF THE U
      +                          SE OF
   105                           ; THIS SOFTWARE, EVEN IF ADVISED OF THE POSSIBILITY OF SUCH DAMAGE.
   106                           ; 
   107                           ; 
   108                           ; Code-generator required, PIC16F877A Definitions
   109                           ; 
   110                           ; SFR Addresses
   111  0000                     	;# 
   112  0001                     	;# 
   113  0002                     	;# 
   114  0003                     	;# 
   115  0004                     	;# 
   116  0005                     	;# 
   117  0006                     	;# 
   118  0007                     	;# 
   119  0008                     	;# 
   120  0009                     	;# 
   121  000A                     	;# 
   122  000B                     	;# 
   123  000C                     	;# 
   124  000D                     	;# 
   125  000E                     	;# 
   126  000E                     	;# 
   127  000F                     	;# 
   128  0010                     	;# 
   129  0011                     	;# 
   130  0012                     	;# 
   131  0013                     	;# 
   132  0014                     	;# 
   133  0015                     	;# 
   134  0015                     	;# 
   135  0016                     	;# 
   136  0017                     	;# 
   137  0018                     	;# 
   138  0019                     	;# 
   139  001A                     	;# 
   140  001B                     	;# 
   141  001B                     	;# 
   142  001C                     	;# 
   143  001D                     	;# 
   144  001E                     	;# 
   145  001F                     	;# 
   146  0081                     	;# 
   147  0085                     	;# 
   148  0086                     	;# 
   149  0087                     	;# 
   150  0088                     	;# 
   151  0089                     	;# 
   152  008C                     	;# 
   153  008D                     	;# 
   154  008E                     	;# 
   155  0091                     	;# 
   156  0092                     	;# 
   157  0093                     	;# 
   158  0094                     	;# 
   159  0098                     	;# 
   160  0099                     	;# 
   161  009C                     	;# 
   162  009D                     	;# 
   163  009E                     	;# 
   164  009F                     	;# 
   165  010C                     	;# 
   166  010D                     	;# 
   167  010E                     	;# 
   168  010F                     	;# 
   169  018C                     	;# 
   170  018D                     	;# 
   171  0000                     	;# 
   172  0001                     	;# 
   173  0002                     	;# 
   174  0003                     	;# 
   175  0004                     	;# 
   176  0005                     	;# 
   177  0006                     	;# 
   178  0007                     	;# 
   179  0008                     	;# 
   180  0009                     	;# 
   181  000A                     	;# 
   182  000B                     	;# 
   183  000C                     	;# 
   184  000D                     	;# 
   185  000E                     	;# 
   186  000E                     	;# 
   187  000F                     	;# 
   188  0010                     	;# 
   189  0011                     	;# 
   190  0012                     	;# 
   191  0013                     	;# 
   192  0014                     	;# 
   193  0015                     	;# 
   194  0015                     	;# 
   195  0016                     	;# 
   196  0017                     	;# 
   197  0018                     	;# 
   198  0019                     	;# 
   199  001A                     	;# 
   200  001B                     	;# 
   201  001B                     	;# 
   202  001C                     	;# 
   203  001D                     	;# 
   204  001E                     	;# 
   205  001F                     	;# 
   206  0081                     	;# 
   207  0085                     	;# 
   208  0086                     	;# 
   209  0087                     	;# 
   210  0088                     	;# 
   211  0089                     	;# 
   212  008C                     	;# 
   213  008D                     	;# 
   214  008E                     	;# 
   215  0091                     	;# 
   216  0092                     	;# 
   217  0093                     	;# 
   218  0094                     	;# 
   219  0098                     	;# 
   220  0099                     	;# 
   221  009C                     	;# 
   222  009D                     	;# 
   223  009E                     	;# 
   224  009F                     	;# 
   225  010C                     	;# 
   226  010D                     	;# 
   227  010E                     	;# 
   228  010F                     	;# 
   229  018C                     	;# 
   230  018D                     	;# 
   231  0000                     	;# 
   232  0001                     	;# 
   233  0002                     	;# 
   234  0003                     	;# 
   235  0004                     	;# 
   236  0005                     	;# 
   237  0006                     	;# 
   238  0007                     	;# 
   239  0008                     	;# 
   240  0009                     	;# 
   241  000A                     	;# 
   242  000B                     	;# 
   243  000C                     	;# 
   244  000D                     	;# 
   245  000E                     	;# 
   246  000E                     	;# 
   247  000F                     	;# 
   248  0010                     	;# 
   249  0011                     	;# 
   250  0012                     	;# 
   251  0013                     	;# 
   252  0014                     	;# 
   253  0015                     	;# 
   254  0015                     	;# 
   255  0016                     	;# 
   256  0017                     	;# 
   257  0018                     	;# 
   258  0019                     	;# 
   259  001A                     	;# 
   260  001B                     	;# 
   261  001B                     	;# 
   262  001C                     	;# 
   263  001D                     	;# 
   264  001E                     	;# 
   265  001F                     	;# 
   266  0081                     	;# 
   267  0085                     	;# 
   268  0086                     	;# 
   269  0087                     	;# 
   270  0088                     	;# 
   271  0089                     	;# 
   272  008C                     	;# 
   273  008D                     	;# 
   274  008E                     	;# 
   275  0091                     	;# 
   276  0092                     	;# 
   277  0093                     	;# 
   278  0094                     	;# 
   279  0098                     	;# 
   280  0099                     	;# 
   281  009C                     	;# 
   282  009D                     	;# 
   283  009E                     	;# 
   284  009F                     	;# 
   285  010C                     	;# 
   286  010D                     	;# 
   287  010E                     	;# 
   288  010F                     	;# 
   289  018C                     	;# 
   290  018D                     	;# 
   291  0000                     	;# 
   292  0001                     	;# 
   293  0002                     	;# 
   294  0003                     	;# 
   295  0004                     	;# 
   296  0005                     	;# 
   297  0006                     	;# 
   298  0007                     	;# 
   299  0008                     	;# 
   300  0009                     	;# 
   301  000A                     	;# 
   302  000B                     	;# 
   303  000C                     	;# 
   304  000D                     	;# 
   305  000E                     	;# 
   306  000E                     	;# 
   307  000F                     	;# 
   308  0010                     	;# 
   309  0011                     	;# 
   310  0012                     	;# 
   311  0013                     	;# 
   312  0014                     	;# 
   313  0015                     	;# 
   314  0015                     	;# 
   315  0016                     	;# 
   316  0017                     	;# 
   317  0018                     	;# 
   318  0019                     	;# 
   319  001A                     	;# 
   320  001B                     	;# 
   321  001B                     	;# 
   322  001C                     	;# 
   323  001D                     	;# 
   324  001E                     	;# 
   325  001F                     	;# 
   326  0081                     	;# 
   327  0085                     	;# 
   328  0086                     	;# 
   329  0087                     	;# 
   330  0088                     	;# 
   331  0089                     	;# 
   332  008C                     	;# 
   333  008D                     	;# 
   334  008E                     	;# 
   335  0091                     	;# 
   336  0092                     	;# 
   337  0093                     	;# 
   338  0094                     	;# 
   339  0098                     	;# 
   340  0099                     	;# 
   341  009C                     	;# 
   342  009D                     	;# 
   343  009E                     	;# 
   344  009F                     	;# 
   345  010C                     	;# 
   346  010D                     	;# 
   347  010E                     	;# 
   348  010F                     	;# 
   349  018C                     	;# 
   350  018D                     	;# 
   351  0000                     	;# 
   352  0001                     	;# 
   353  0002                     	;# 
   354  0003                     	;# 
   355  0004                     	;# 
   356  0005                     	;# 
   357  0006                     	;# 
   358  0007                     	;# 
   359  0008                     	;# 
   360  0009                     	;# 
   361  000A                     	;# 
   362  000B                     	;# 
   363  000C                     	;# 
   364  000D                     	;# 
   365  000E                     	;# 
   366  000E                     	;# 
   367  000F                     	;# 
   368  0010                     	;# 
   369  0011                     	;# 
   370  0012                     	;# 
   371  0013                     	;# 
   372  0014                     	;# 
   373  0015                     	;# 
   374  0015                     	;# 
   375  0016                     	;# 
   376  0017                     	;# 
   377  0018                     	;# 
   378  0019                     	;# 
   379  001A                     	;# 
   380  001B                     	;# 
   381  001B                     	;# 
   382  001C                     	;# 
   383  001D                     	;# 
   384  001E                     	;# 
   385  001F                     	;# 
   386  0081                     	;# 
   387  0085                     	;# 
   388  0086                     	;# 
   389  0087                     	;# 
   390  0088                     	;# 
   391  0089                     	;# 
   392  008C                     	;# 
   393  008D                     	;# 
   394  008E                     	;# 
   395  0091                     	;# 
   396  0092                     	;# 
   397  0093                     	;# 
   398  0094                     	;# 
   399  0098                     	;# 
   400  0099                     	;# 
   401  009C                     	;# 
   402  009D                     	;# 
   403  009E                     	;# 
   404  009F                     	;# 
   405  010C                     	;# 
   406  010D                     	;# 
   407  010E                     	;# 
   408  010F                     	;# 
   409  018C                     	;# 
   410  018D                     	;# 
   411  0000                     	;# 
   412  0001                     	;# 
   413  0002                     	;# 
   414  0003                     	;# 
   415  0004                     	;# 
   416  0005                     	;# 
   417  0006                     	;# 
   418  0007                     	;# 
   419  0008                     	;# 
   420  0009                     	;# 
   421  000A                     	;# 
   422  000B                     	;# 
   423  000C                     	;# 
   424  000D                     	;# 
   425  000E                     	;# 
   426  000E                     	;# 
   427  000F                     	;# 
   428  0010                     	;# 
   429  0011                     	;# 
   430  0012                     	;# 
   431  0013                     	;# 
   432  0014                     	;# 
   433  0015                     	;# 
   434  0015                     	;# 
   435  0016                     	;# 
   436  0017                     	;# 
   437  0018                     	;# 
   438  0019                     	;# 
   439  001A                     	;# 
   440  001B                     	;# 
   441  001B                     	;# 
   442  001C                     	;# 
   443  001D                     	;# 
   444  001E                     	;# 
   445  001F                     	;# 
   446  0081                     	;# 
   447  0085                     	;# 
   448  0086                     	;# 
   449  0087                     	;# 
   450  0088                     	;# 
   451  0089                     	;# 
   452  008C                     	;# 
   453  008D                     	;# 
   454  008E                     	;# 
   455  0091                     	;# 
   456  0092                     	;# 
   457  0093                     	;# 
   458  0094                     	;# 
   459  0098                     	;# 
   460  0099                     	;# 
   461  009C                     	;# 
   462  009D                     	;# 
   463  009E                     	;# 
   464  009F                     	;# 
   465  010C                     	;# 
   466  010D                     	;# 
   467  010E                     	;# 
   468  010F                     	;# 
   469  018C                     	;# 
   470  018D                     	;# 
   471  0000                     	;# 
   472  0001                     	;# 
   473  0002                     	;# 
   474  0003                     	;# 
   475  0004                     	;# 
   476  0005                     	;# 
   477  0006                     	;# 
   478  0007                     	;# 
   479  0008                     	;# 
   480  0009                     	;# 
   481  000A                     	;# 
   482  000B                     	;# 
   483  000C                     	;# 
   484  000D                     	;# 
   485  000E                     	;# 
   486  000E                     	;# 
   487  000F                     	;# 
   488  0010                     	;# 
   489  0011                     	;# 
   490  0012                     	;# 
   491  0013                     	;# 
   492  0014                     	;# 
   493  0015                     	;# 
   494  0015                     	;# 
   495  0016                     	;# 
   496  0017                     	;# 
   497  0018                     	;# 
   498  0019                     	;# 
   499  001A                     	;# 
   500  001B                     	;# 
   501  001B                     	;# 
   502  001C                     	;# 
   503  001D                     	;# 
   504  001E                     	;# 
   505  001F                     	;# 
   506  0081                     	;# 
   507  0085                     	;# 
   508  0086                     	;# 
   509  0087                     	;# 
   510  0088                     	;# 
   511  0089                     	;# 
   512  008C                     	;# 
   513  008D                     	;# 
   514  008E                     	;# 
   515  0091                     	;# 
   516  0092                     	;# 
   517  0093                     	;# 
   518  0094                     	;# 
   519  0098                     	;# 
   520  0099                     	;# 
   521  009C                     	;# 
   522  009D                     	;# 
   523  009E                     	;# 
   524  009F                     	;# 
   525  010C                     	;# 
   526  010D                     	;# 
   527  010E                     	;# 
   528  010F                     	;# 
   529  018C                     	;# 
   530  018D                     	;# 
   531  0000                     	;# 
   532  0001                     	;# 
   533  0002                     	;# 
   534  0003                     	;# 
   535  0004                     	;# 
   536  0005                     	;# 
   537  0006                     	;# 
   538  0007                     	;# 
   539  0008                     	;# 
   540  0009                     	;# 
   541  000A                     	;# 
   542  000B                     	;# 
   543  000C                     	;# 
   544  000D                     	;# 
   545  000E                     	;# 
   546  000E                     	;# 
   547  000F                     	;# 
   548  0010                     	;# 
   549  0011                     	;# 
   550  0012                     	;# 
   551  0013                     	;# 
   552  0014                     	;# 
   553  0015                     	;# 
   554  0015                     	;# 
   555  0016                     	;# 
   556  0017                     	;# 
   557  0018                     	;# 
   558  0019                     	;# 
   559  001A                     	;# 
   560  001B                     	;# 
   561  001B                     	;# 
   562  001C                     	;# 
   563  001D                     	;# 
   564  001E                     	;# 
   565  001F                     	;# 
   566  0081                     	;# 
   567  0085                     	;# 
   568  0086                     	;# 
   569  0087                     	;# 
   570  0088                     	;# 
   571  0089                     	;# 
   572  008C                     	;# 
   573  008D                     	;# 
   574  008E                     	;# 
   575  0091                     	;# 
   576  0092                     	;# 
   577  0093                     	;# 
   578  0094                     	;# 
   579  0098                     	;# 
   580  0099                     	;# 
   581  009C                     	;# 
   582  009D                     	;# 
   583  009E                     	;# 
   584  009F                     	;# 
   585  010C                     	;# 
   586  010D                     	;# 
   587  010E                     	;# 
   588  010F                     	;# 
   589  018C                     	;# 
   590  018D                     	;# 
   591  0000                     	;# 
   592  0001                     	;# 
   593  0002                     	;# 
   594  0003                     	;# 
   595  0004                     	;# 
   596  0005                     	;# 
   597  0006                     	;# 
   598  0007                     	;# 
   599  0008                     	;# 
   600  0009                     	;# 
   601  000A                     	;# 
   602  000B                     	;# 
   603  000C                     	;# 
   604  000D                     	;# 
   605  000E                     	;# 
   606  000E                     	;# 
   607  000F                     	;# 
   608  0010                     	;# 
   609  0011                     	;# 
   610  0012                     	;# 
   611  0013                     	;# 
   612  0014                     	;# 
   613  0015                     	;# 
   614  0015                     	;# 
   615  0016                     	;# 
   616  0017                     	;# 
   617  0018                     	;# 
   618  0019                     	;# 
   619  001A                     	;# 
   620  001B                     	;# 
   621  001B                     	;# 
   622  001C                     	;# 
   623  001D                     	;# 
   624  001E                     	;# 
   625  001F                     	;# 
   626  0081                     	;# 
   627  0085                     	;# 
   628  0086                     	;# 
   629  0087                     	;# 
   630  0088                     	;# 
   631  0089                     	;# 
   632  008C                     	;# 
   633  008D                     	;# 
   634  008E                     	;# 
   635  0091                     	;# 
   636  0092                     	;# 
   637  0093                     	;# 
   638  0094                     	;# 
   639  0098                     	;# 
   640  0099                     	;# 
   641  009C                     	;# 
   642  009D                     	;# 
   643  009E                     	;# 
   644  009F                     	;# 
   645  010C                     	;# 
   646  010D                     	;# 
   647  010E                     	;# 
   648  010F                     	;# 
   649  018C                     	;# 
   650  018D                     	;# 
   651  0000                     	;# 
   652  0001                     	;# 
   653  0002                     	;# 
   654  0003                     	;# 
   655  0004                     	;# 
   656  0005                     	;# 
   657  0006                     	;# 
   658  0007                     	;# 
   659  0008                     	;# 
   660  0009                     	;# 
   661  000A                     	;# 
   662  000B                     	;# 
   663  000C                     	;# 
   664  000D                     	;# 
   665  000E                     	;# 
   666  000E                     	;# 
   667  000F                     	;# 
   668  0010                     	;# 
   669  0011                     	;# 
   670  0012                     	;# 
   671  0013                     	;# 
   672  0014                     	;# 
   673  0015                     	;# 
   674  0015                     	;# 
   675  0016                     	;# 
   676  0017                     	;# 
   677  0018                     	;# 
   678  0019                     	;# 
   679  001A                     	;# 
   680  001B                     	;# 
   681  001B                     	;# 
   682  001C                     	;# 
   683  001D                     	;# 
   684  001E                     	;# 
   685  001F                     	;# 
   686  0081                     	;# 
   687  0085                     	;# 
   688  0086                     	;# 
   689  0087                     	;# 
   690  0088                     	;# 
   691  0089                     	;# 
   692  008C                     	;# 
   693  008D                     	;# 
   694  008E                     	;# 
   695  0091                     	;# 
   696  0092                     	;# 
   697  0093                     	;# 
   698  0094                     	;# 
   699  0098                     	;# 
   700  0099                     	;# 
   701  009C                     	;# 
   702  009D                     	;# 
   703  009E                     	;# 
   704  009F                     	;# 
   705  010C                     	;# 
   706  010D                     	;# 
   707  010E                     	;# 
   708  010F                     	;# 
   709  018C                     	;# 
   710  018D                     	;# 
   711  0000                     	;# 
   712  0001                     	;# 
   713  0002                     	;# 
   714  0003                     	;# 
   715  0004                     	;# 
   716  0005                     	;# 
   717  0006                     	;# 
   718  0007                     	;# 
   719  0008                     	;# 
   720  0009                     	;# 
   721  000A                     	;# 
   722  000B                     	;# 
   723  000C                     	;# 
   724  000D                     	;# 
   725  000E                     	;# 
   726  000E                     	;# 
   727  000F                     	;# 
   728  0010                     	;# 
   729  0011                     	;# 
   730  0012                     	;# 
   731  0013                     	;# 
   732  0014                     	;# 
   733  0015                     	;# 
   734  0015                     	;# 
   735  0016                     	;# 
   736  0017                     	;# 
   737  0018                     	;# 
   738  0019                     	;# 
   739  001A                     	;# 
   740  001B                     	;# 
   741  001B                     	;# 
   742  001C                     	;# 
   743  001D                     	;# 
   744  001E                     	;# 
   745  001F                     	;# 
   746  0081                     	;# 
   747  0085                     	;# 
   748  0086                     	;# 
   749  0087                     	;# 
   750  0088                     	;# 
   751  0089                     	;# 
   752  008C                     	;# 
   753  008D                     	;# 
   754  008E                     	;# 
   755  0091                     	;# 
   756  0092                     	;# 
   757  0093                     	;# 
   758  0094                     	;# 
   759  0098                     	;# 
   760  0099                     	;# 
   761  009C                     	;# 
   762  009D                     	;# 
   763  009E                     	;# 
   764  009F                     	;# 
   765  010C                     	;# 
   766  010D                     	;# 
   767  010E                     	;# 
   768  010F                     	;# 
   769  018C                     	;# 
   770  018D                     	;# 
   771  0000                     	;# 
   772  0001                     	;# 
   773  0002                     	;# 
   774  0003                     	;# 
   775  0004                     	;# 
   776  0005                     	;# 
   777  0006                     	;# 
   778  0007                     	;# 
   779  0008                     	;# 
   780  0009                     	;# 
   781  000A                     	;# 
   782  000B                     	;# 
   783  000C                     	;# 
   784  000D                     	;# 
   785  000E                     	;# 
   786  000E                     	;# 
   787  000F                     	;# 
   788  0010                     	;# 
   789  0011                     	;# 
   790  0012                     	;# 
   791  0013                     	;# 
   792  0014                     	;# 
   793  0015                     	;# 
   794  0015                     	;# 
   795  0016                     	;# 
   796  0017                     	;# 
   797  0018                     	;# 
   798  0019                     	;# 
   799  001A                     	;# 
   800  001B                     	;# 
   801  001B                     	;# 
   802  001C                     	;# 
   803  001D                     	;# 
   804  001E                     	;# 
   805  001F                     	;# 
   806  0081                     	;# 
   807  0085                     	;# 
   808  0086                     	;# 
   809  0087                     	;# 
   810  0088                     	;# 
   811  0089                     	;# 
   812  008C                     	;# 
   813  008D                     	;# 
   814  008E                     	;# 
   815  0091                     	;# 
   816  0092                     	;# 
   817  0093                     	;# 
   818  0094                     	;# 
   819  0098                     	;# 
   820  0099                     	;# 
   821  009C                     	;# 
   822  009D                     	;# 
   823  009E                     	;# 
   824  009F                     	;# 
   825  010C                     	;# 
   826  010D                     	;# 
   827  010E                     	;# 
   828  010F                     	;# 
   829  018C                     	;# 
   830  018D                     	;# 
   831  0000                     	;# 
   832  0001                     	;# 
   833  0002                     	;# 
   834  0003                     	;# 
   835  0004                     	;# 
   836  0005                     	;# 
   837  0006                     	;# 
   838  0007                     	;# 
   839  0008                     	;# 
   840  0009                     	;# 
   841  000A                     	;# 
   842  000B                     	;# 
   843  000C                     	;# 
   844  000D                     	;# 
   845  000E                     	;# 
   846  000E                     	;# 
   847  000F                     	;# 
   848  0010                     	;# 
   849  0011                     	;# 
   850  0012                     	;# 
   851  0013                     	;# 
   852  0014                     	;# 
   853  0015                     	;# 
   854  0015                     	;# 
   855  0016                     	;# 
   856  0017                     	;# 
   857  0018                     	;# 
   858  0019                     	;# 
   859  001A                     	;# 
   860  001B                     	;# 
   861  001B                     	;# 
   862  001C                     	;# 
   863  001D                     	;# 
   864  001E                     	;# 
   865  001F                     	;# 
   866  0081                     	;# 
   867  0085                     	;# 
   868  0086                     	;# 
   869  0087                     	;# 
   870  0088                     	;# 
   871  0089                     	;# 
   872  008C                     	;# 
   873  008D                     	;# 
   874  008E                     	;# 
   875  0091                     	;# 
   876  0092                     	;# 
   877  0093                     	;# 
   878  0094                     	;# 
   879  0098                     	;# 
   880  0099                     	;# 
   881  009C                     	;# 
   882  009D                     	;# 
   883  009E                     	;# 
   884  009F                     	;# 
   885  010C                     	;# 
   886  010D                     	;# 
   887  010E                     	;# 
   888  010F                     	;# 
   889  018C                     	;# 
   890  018D                     	;# 
   891  0000                     	;# 
   892  0001                     	;# 
   893  0002                     	;# 
   894  0003                     	;# 
   895  0004                     	;# 
   896  0005                     	;# 
   897  0006                     	;# 
   898  0007                     	;# 
   899  0008                     	;# 
   900  0009                     	;# 
   901  000A                     	;# 
   902  000B                     	;# 
   903  000C                     	;# 
   904  000D                     	;# 
   905  000E                     	;# 
   906  000E                     	;# 
   907  000F                     	;# 
   908  0010                     	;# 
   909  0011                     	;# 
   910  0012                     	;# 
   911  0013                     	;# 
   912  0014                     	;# 
   913  0015                     	;# 
   914  0015                     	;# 
   915  0016                     	;# 
   916  0017                     	;# 
   917  0018                     	;# 
   918  0019                     	;# 
   919  001A                     	;# 
   920  001B                     	;# 
   921  001B                     	;# 
   922  001C                     	;# 
   923  001D                     	;# 
   924  001E                     	;# 
   925  001F                     	;# 
   926  0081                     	;# 
   927  0085                     	;# 
   928  0086                     	;# 
   929  0087                     	;# 
   930  0088                     	;# 
   931  0089                     	;# 
   932  008C                     	;# 
   933  008D                     	;# 
   934  008E                     	;# 
   935  0091                     	;# 
   936  0092                     	;# 
   937  0093                     	;# 
   938  0094                     	;# 
   939  0098                     	;# 
   940  0099                     	;# 
   941  009C                     	;# 
   942  009D                     	;# 
   943  009E                     	;# 
   944  009F                     	;# 
   945  010C                     	;# 
   946  010D                     	;# 
   947  010E                     	;# 
   948  010F                     	;# 
   949  018C                     	;# 
   950  018D                     	;# 
   951  0000                     	;# 
   952  0001                     	;# 
   953  0002                     	;# 
   954  0003                     	;# 
   955  0004                     	;# 
   956  0005                     	;# 
   957  0006                     	;# 
   958  0007                     	;# 
   959  0008                     	;# 
   960  0009                     	;# 
   961  000A                     	;# 
   962  000B                     	;# 
   963  000C                     	;# 
   964  000D                     	;# 
   965  000E                     	;# 
   966  000E                     	;# 
   967  000F                     	;# 
   968  0010                     	;# 
   969  0011                     	;# 
   970  0012                     	;# 
   971  0013                     	;# 
   972  0014                     	;# 
   973  0015                     	;# 
   974  0015                     	;# 
   975  0016                     	;# 
   976  0017                     	;# 
   977  0018                     	;# 
   978  0019                     	;# 
   979  001A                     	;# 
   980  001B                     	;# 
   981  001B                     	;# 
   982  001C                     	;# 
   983  001D                     	;# 
   984  001E                     	;# 
   985  001F                     	;# 
   986  0081                     	;# 
   987  0085                     	;# 
   988  0086                     	;# 
   989  0087                     	;# 
   990  0088                     	;# 
   991  0089                     	;# 
   992  008C                     	;# 
   993  008D                     	;# 
   994  008E                     	;# 
   995  0091                     	;# 
   996  0092                     	;# 
   997  0093                     	;# 
   998  0094                     	;# 
   999  0098                     	;# 
  1000  0099                     	;# 
  1001  009C                     	;# 
  1002  009D                     	;# 
  1003  009E                     	;# 
  1004  009F                     	;# 
  1005  010C                     	;# 
  1006  010D                     	;# 
  1007  010E                     	;# 
  1008  010F                     	;# 
  1009  018C                     	;# 
  1010  018D                     	;# 
  1011  0000                     	;# 
  1012  0001                     	;# 
  1013  0002                     	;# 
  1014  0003                     	;# 
  1015  0004                     	;# 
  1016  0005                     	;# 
  1017  0006                     	;# 
  1018  0007                     	;# 
  1019  0008                     	;# 
  1020  0009                     	;# 
  1021  000A                     	;# 
  1022  000B                     	;# 
  1023  000C                     	;# 
  1024  000D                     	;# 
  1025  000E                     	;# 
  1026  000E                     	;# 
  1027  000F                     	;# 
  1028  0010                     	;# 
  1029  0011                     	;# 
  1030  0012                     	;# 
  1031  0013                     	;# 
  1032  0014                     	;# 
  1033  0015                     	;# 
  1034  0015                     	;# 
  1035  0016                     	;# 
  1036  0017                     	;# 
  1037  0018                     	;# 
  1038  0019                     	;# 
  1039  001A                     	;# 
  1040  001B                     	;# 
  1041  001B                     	;# 
  1042  001C                     	;# 
  1043  001D                     	;# 
  1044  001E                     	;# 
  1045  001F                     	;# 
  1046  0081                     	;# 
  1047  0085                     	;# 
  1048  0086                     	;# 
  1049  0087                     	;# 
  1050  0088                     	;# 
  1051  0089                     	;# 
  1052  008C                     	;# 
  1053  008D                     	;# 
  1054  008E                     	;# 
  1055  0091                     	;# 
  1056  0092                     	;# 
  1057  0093                     	;# 
  1058  0094                     	;# 
  1059  0098                     	;# 
  1060  0099                     	;# 
  1061  009C                     	;# 
  1062  009D                     	;# 
  1063  009E                     	;# 
  1064  009F                     	;# 
  1065  010C                     	;# 
  1066  010D                     	;# 
  1067  010E                     	;# 
  1068  010F                     	;# 
  1069  018C                     	;# 
  1070  018D                     	;# 
  1071                           
  1072                           	psect	idataBANK0
  1073  08A5                     __pidataBANK0:
  1074                           
  1075                           ;initializer for SSD_SelectDigit@Enable_Digit_Selector
  1076  08A5  3401               	retlw	1
  1077                           
  1078                           ;initializer for _Counter
  1079  08A6  3401               	retlw	1
  1080                           
  1081                           ;initializer for _Average_Nvalues
  1082  08A7  340A               	retlw	10
  1083                           
  1084                           ;initializer for LED_BLINKING@Counter
  1085  08A8  3401               	retlw	1
  1086                           
  1087                           	psect	strings
  1088  0800                     __pstrings:
  1089  0800                     stringtab:
  1090  0800                     __stringtab:
  1091  0800                     stringcode:	
  1092                           ;	String table - string pointers are 1 byte each
  1093                           
  1094  0800                     stringdir:
  1095  0800  3008               	movlw	high stringdir
  1096  0801  008A               	movwf	10
  1097  0802  0804               	movf	4,w
  1098  0803  0A84               	incf	4,f
  1099  0804  0782               	addwf	2,f
  1100  0805                     __stringbase:
  1101  0805  3400               	retlw	0
  1102  0806                     __end_of__stringtab:
  1103  0806                     _Scheduler_Intitys:
  1104  0806  3406               	retlw	low (fp__Scheduler_Task1-fpbase)
  1105  0807  3414               	retlw	20
  1106  0808  3400               	retlw	0
  1107  0809  3400               	retlw	0
  1108  080A  3400               	retlw	0
  1109  080B  3409               	retlw	low (fp__Scheduler_Task2-fpbase)
  1110  080C  3464               	retlw	100
  1111  080D  3400               	retlw	0
  1112  080E  3400               	retlw	0
  1113  080F  3400               	retlw	0
  1114  0810  3403               	retlw	low (fp__Scheduler_Task3-fpbase)
  1115  0811  34F4               	retlw	244
  1116  0812  3401               	retlw	1
  1117  0813  3400               	retlw	0
  1118  0814  3400               	retlw	0
  1119  0815                     __end_of_Scheduler_Intitys:
  1120  0815                     _Interrupt_CallBack:
  1121  0815  3401               	retlw	low (fp__EXTI_On_Off_CallBack-i1fpbase)
  1122  0816  3404               	retlw	low (fp__Timer0_CallBack-i1fpbase)
  1123  0817                     __end_of_Interrupt_CallBack:
  1124  0008                     _PORTD	set	8
  1125  0005                     _PORTA	set	5
  1126  0013                     _SSPBUF	set	19
  1127  0001                     _TMR0	set	1
  1128  0007                     _PORTC	set	7
  1129  0006                     _PORTB	set	6
  1130  000B                     _INTCONbits	set	11
  1131  001F                     _ADCON0bits	set	31
  1132  0063                     _SSPIF	set	99
  1133  00A5                     _SSPEN	set	165
  1134  00A3                     _SSPM3	set	163
  1135  00A2                     _SSPM2	set	162
  1136  00A1                     _SSPM1	set	161
  1137  00A0                     _SSPM0	set	160
  1138  0093                     _SSPADD	set	147
  1139  0081                     _OPTION_REGbits	set	129
  1140  0088                     _TRISD	set	136
  1141  0085                     _TRISA	set	133
  1142  0086                     _TRISB	set	134
  1143  0087                     _TRISC	set	135
  1144  009E                     _ADRESL	set	158
  1145  009F                     _ADCON1bits	set	159
  1146  048A                     _PEN	set	1162
  1147  048C                     _ACKEN	set	1164
  1148  048D                     _ACKDT	set	1165
  1149  04A0                     _BF	set	1184
  1150  048B                     _RCEN	set	1163
  1151  0488                     _SEN	set	1160
  1152  040E                     _INTEDG	set	1038
  1153                           
  1154                           	psect	cinit
  1155  0015                     start_initialization:	
  1156                           ; #config settings
  1157                           
  1158  0015                     __initialization:
  1159                           
  1160                           ; Initialize objects allocated to BANK0
  1161  0015  120A  158A  20A5  120A  118A  	fcall	__pidataBANK0	;fetch initializer
  1162  001A  00D6               	movwf	__pdataBANK0& (0+127)
  1163  001B  120A  158A  20A6  120A  118A  	fcall	__pidataBANK0+1	;fetch initializer
  1164  0020  00D7               	movwf	(__pdataBANK0+1)& (0+127)
  1165  0021  120A  158A  20A7  120A  118A  	fcall	__pidataBANK0+2	;fetch initializer
  1166  0026  00D8               	movwf	(__pdataBANK0+2)& (0+127)
  1167  0027  120A  158A  20A8  120A  118A  	fcall	__pidataBANK0+3	;fetch initializer
  1168  002C  00D9               	movwf	(__pdataBANK0+3)& (0+127)
  1169                           
  1170                           ; Clear objects allocated to BANK1
  1171  002D  1383               	bcf	3,7	;select IRP bank0
  1172  002E  30A0               	movlw	low __pbssBANK1
  1173  002F  0084               	movwf	4
  1174  0030  30D3               	movlw	low (__pbssBANK1+51)
  1175  0031  120A  158A  20C3  120A  118A  	fcall	clear_ram0
  1176                           
  1177                           ; Clear objects allocated to BANK0
  1178  0036  3044               	movlw	low __pbssBANK0
  1179  0037  0084               	movwf	4
  1180  0038  3056               	movlw	low (__pbssBANK0+18)
  1181  0039  120A  158A  20C3  120A  118A  	fcall	clear_ram0
  1182  003E                     end_of_initialization:	
  1183                           ;End of C runtime variable initialization code
  1184                           
  1185  003E                     __end_of__initialization:
  1186  003E  0183               	clrf	3
  1187  003F  120A  158A  2CA1   	ljmp	_main	;jump to C main() function
  1188                           
  1189                           	psect	bssBANK0
  1190  0044                     __pbssBANK0:
  1191  0044                     SSD_SelectDigit@Digit_2:
  1192  0044                     	ds	1
  1193  0045                     SSD_SelectDigit@Digit_1:
  1194  0045                     	ds	1
  1195  0046                     _Tempreture:
  1196  0046                     	ds	1
  1197  0047                     _SSD:
  1198  0047                     	ds	1
  1199  0048                     EEPROM_Read@Data:
  1200  0048                     	ds	1
  1201  0049                     _EEPROM_Data:
  1202  0049                     	ds	1
  1203  004A                     _Buttons:
  1204  004A                     	ds	1
  1205  004B                     _LED_Status:
  1206  004B                     	ds	1
  1207  004C                     _Enable_SSD:
  1208  004C                     	ds	1
  1209  004D                     _ADC_Info:
  1210  004D                     	ds	1
  1211  004E                     _Temperature:
  1212  004E                     	ds	6
  1213  0054                     _Mode:
  1214  0054                     	ds	2
  1215                           
  1216                           	psect	dataBANK0
  1217  0056                     __pdataBANK0:
  1218  0056                     SSD_SelectDigit@Enable_Digit_Selector:
  1219  0056                     	ds	1
  1220  0057                     _Counter:
  1221  0057                     	ds	1
  1222  0058                     _Average_Nvalues:
  1223  0058                     	ds	1
  1224  0059                     LED_BLINKING@Counter:
  1225  0059                     	ds	1
  1226                           
  1227                           	psect	bssBANK1
  1228  00A0                     __pbssBANK1:
  1229  00A0                     _temb_val:
  1230  00A0                     	ds	40
  1231  00C8                     _Tick_Num:
  1232  00C8                     	ds	4
  1233  00CC                     _Avrage_buffer:
  1234  00CC                     	ds	4
  1235  00D0                     _Scheduler_ActivationFlags:
  1236  00D0                     	ds	3
  1237                           
  1238                           	psect	clrtext
  1239  08C3                     clear_ram0:	
  1240                           ;	Called with FSR containing the base address, and
  1241                           ;	W with the last address+1
  1242                           
  1243  08C3  0064               	clrwdt	;clear the watchdog before getting into this loop
  1244  08C4                     clrloop0:
  1245  08C4  0180               	clrf	0	;clear RAM location pointed to by FSR
  1246  08C5  0A84               	incf	4,f	;increment pointer
  1247  08C6  0604               	xorwf	4,w	;XOR with final address
  1248  08C7  1903               	btfsc	3,2	;have we reached the end yet?
  1249  08C8  3400               	retlw	0	;all done for this memory range, return
  1250  08C9  0604               	xorwf	4,w	;XOR again to restore value
  1251  08CA  28C4               	goto	clrloop0	;do the next byte
  1252                           
  1253                           	psect	cstackBANK3
  1254  0190                     __pcstackBANK3:
  1255  0190                     ?___fltol:
  1256  0190                     ___fltol@f1:	
  1257                           ; 4 bytes @ 0x0
  1258                           
  1259                           
  1260                           ; 4 bytes @ 0x0
  1261  0190                     	ds	4
  1262  0194                     ??___fltol:
  1263                           
  1264                           ; 1 bytes @ 0x4
  1265  0194                     	ds	4
  1266  0198                     ??_Temperature_Calc:
  1267                           
  1268                           ; 1 bytes @ 0x8
  1269  0198                     	ds	4
  1270                           
  1271                           	psect	cstackBANK1
  1272  00D3                     __pcstackBANK1:
  1273  00D3                     ?_Average_Value:
  1274  00D3                     ??_Elements_MainFunction:	
  1275                           ; 1 bytes @ 0x0
  1276                           
  1277  00D3                     ?___flmul:	
  1278                           ; 1 bytes @ 0x0
  1279                           
  1280  00D3                     Average_Value@Avrage_Values:	
  1281                           ; 4 bytes @ 0x0
  1282                           
  1283  00D3                     ___flmul@b:	
  1284                           ; 1 bytes @ 0x0
  1285                           
  1286                           
  1287                           ; 4 bytes @ 0x0
  1288  00D3                     	ds	1
  1289  00D4                     ??_Average_Value:
  1290                           
  1291                           ; 1 bytes @ 0x1
  1292  00D4                     	ds	3
  1293  00D7                     ___flmul@a:
  1294                           
  1295                           ; 4 bytes @ 0x4
  1296  00D7                     	ds	2
  1297  00D9                     Average_Value@Value:
  1298                           
  1299                           ; 1 bytes @ 0x6
  1300  00D9                     	ds	1
  1301  00DA                     Average_Value@index:
  1302                           
  1303                           ; 1 bytes @ 0x7
  1304  00DA                     	ds	1
  1305  00DB                     ??___flmul:
  1306                           
  1307                           ; 1 bytes @ 0x8
  1308  00DB                     	ds	5
  1309  00E0                     ___flmul@sign:
  1310                           
  1311                           ; 1 bytes @ 0xD
  1312  00E0                     	ds	1
  1313  00E1                     ___flmul@aexp:
  1314                           
  1315                           ; 1 bytes @ 0xE
  1316  00E1                     	ds	1
  1317  00E2                     ___flmul@grs:
  1318                           
  1319                           ; 4 bytes @ 0xF
  1320  00E2                     	ds	4
  1321  00E6                     ___flmul@bexp:
  1322                           
  1323                           ; 1 bytes @ 0x13
  1324  00E6                     	ds	1
  1325  00E7                     ___flmul@prod:
  1326                           
  1327                           ; 4 bytes @ 0x14
  1328  00E7                     	ds	4
  1329  00EB                     ___flmul@temp:
  1330                           
  1331                           ; 2 bytes @ 0x18
  1332  00EB                     	ds	2
  1333  00ED                     ___fltol@sign1:
  1334                           
  1335                           ; 1 bytes @ 0x1A
  1336  00ED                     	ds	1
  1337  00EE                     ___fltol@exp1:
  1338                           
  1339                           ; 1 bytes @ 0x1B
  1340  00EE                     	ds	1
  1341  00EF                     Scheduler_Start@IntityIndex:
  1342                           
  1343                           ; 1 bytes @ 0x1C
  1344  00EF                     	ds	1
  1345                           
  1346                           	psect	cstackCOMMON
  1347  0070                     __pcstackCOMMON:
  1348  0070                     ?_EXTI_On_Off_CallBack:
  1349  0070                     ??_EXTI_On_Off_CallBack:	
  1350                           ; 1 bytes @ 0x0
  1351                           
  1352  0070                     ?_Timer0_CallBack:	
  1353                           ; 1 bytes @ 0x0
  1354                           
  1355  0070                     ?_GPIO_Init:	
  1356                           ; 1 bytes @ 0x0
  1357                           
  1358  0070                     ?_I2c_Init:	
  1359                           ; 1 bytes @ 0x0
  1360                           
  1361  0070                     ?_On_Off_Init:	
  1362                           ; 1 bytes @ 0x0
  1363                           
  1364  0070                     ?_SSD_Init:	
  1365                           ; 1 bytes @ 0x0
  1366                           
  1367  0070                     ?_Elements_Init:	
  1368                           ; 1 bytes @ 0x0
  1369                           
  1370  0070                     ?_ModeManager_Init:	
  1371                           ; 1 bytes @ 0x0
  1372                           
  1373  0070                     ?_Get_EEPROM_Data:	
  1374                           ; 1 bytes @ 0x0
  1375                           
  1376  0070                     ?_Scheduler_Init:	
  1377                           ; 1 bytes @ 0x0
  1378                           
  1379  0070                     ?_Timer0_Init:	
  1380                           ; 1 bytes @ 0x0
  1381                           
  1382  0070                     ?_Scheduler_Start:	
  1383                           ; 1 bytes @ 0x0
  1384                           
  1385  0070                     ?_Scheduler_Task1:	
  1386                           ; 1 bytes @ 0x0
  1387                           
  1388  0070                     ?_Scheduler_Task2:	
  1389                           ; 1 bytes @ 0x0
  1390                           
  1391  0070                     ?_Scheduler_Task3:	
  1392                           ; 1 bytes @ 0x0
  1393                           
  1394  0070                     ?_SSD_MainFunction:	
  1395                           ; 1 bytes @ 0x0
  1396                           
  1397  0070                     ?_Temperature_MainFunction:	
  1398                           ; 1 bytes @ 0x0
  1399                           
  1400  0070                     ?_ModeManager_MainFunction:	
  1401                           ; 1 bytes @ 0x0
  1402                           
  1403  0070                     ?_Set_EEPROM_Data:	
  1404                           ; 1 bytes @ 0x0
  1405                           
  1406  0070                     ?_Temperature_Calc:	
  1407                           ; 1 bytes @ 0x0
  1408                           
  1409  0070                     ?_EEPROM_Read:	
  1410                           ; 1 bytes @ 0x0
  1411                           
  1412  0070                     ?_SSD_SelectDisplay:	
  1413                           ; 1 bytes @ 0x0
  1414                           
  1415  0070                     ?_SSD_SelectDigit:	
  1416                           ; 1 bytes @ 0x0
  1417                           
  1418  0070                     ?_ADC_Init:	
  1419                           ; 1 bytes @ 0x0
  1420                           
  1421  0070                     ?_ADC_Start_Conv:	
  1422                           ; 1 bytes @ 0x0
  1423                           
  1424  0070                     ?_ADC_Get_Value:	
  1425                           ; 1 bytes @ 0x0
  1426                           
  1427  0070                     ?_main:	
  1428                           ; 1 bytes @ 0x0
  1429                           
  1430  0070                     ?_Buttons_MainFunction:	
  1431                           ; 1 bytes @ 0x0
  1432                           
  1433  0070                     ?_LED_Control:	
  1434                           ; 1 bytes @ 0x0
  1435                           
  1436  0070                     ?_Elements_MainFunction:	
  1437                           ; 1 bytes @ 0x0
  1438                           
  1439  0070                     ?_myISR:	
  1440                           ; 1 bytes @ 0x0
  1441                           
  1442  0070                     ?_I2c_Start:	
  1443                           ; 1 bytes @ 0x0
  1444                           
  1445  0070                     ?_I2c_Read:	
  1446                           ; 1 bytes @ 0x0
  1447                           
  1448  0070                     ?_I2c_Send_NAck:	
  1449                           ; 1 bytes @ 0x0
  1450                           
  1451  0070                     ?_I2c_Stop:	
  1452                           ; 1 bytes @ 0x0
  1453                           
  1454  0070                     ?_I2c_Write:	
  1455                           ; 1 bytes @ 0x0
  1456                           
  1457  0070                     ?_I2c_WaitAck:	
  1458                           ; 1 bytes @ 0x0
  1459                           
  1460  0070                     ?i1___bmul:	
  1461                           ; 1 bytes @ 0x0
  1462                           
  1463  0070                     i1___bmul@multiplicand:	
  1464                           ; 1 bytes @ 0x0
  1465                           
  1466                           
  1467                           ; 1 bytes @ 0x0
  1468  0070                     	ds	1
  1469  0071                     ??i1___bmul:
  1470  0071                     i1___bmul@product:	
  1471                           ; 1 bytes @ 0x1
  1472                           
  1473                           
  1474                           ; 1 bytes @ 0x1
  1475  0071                     	ds	1
  1476  0072                     i1___bmul@multiplier:
  1477                           
  1478                           ; 1 bytes @ 0x2
  1479  0072                     	ds	1
  1480  0073                     ?i1___lldiv:
  1481  0073                     i1___lldiv@divisor:	
  1482                           ; 4 bytes @ 0x3
  1483                           
  1484                           
  1485                           ; 4 bytes @ 0x3
  1486  0073                     	ds	4
  1487  0077                     i1___lldiv@dividend:
  1488                           
  1489                           ; 4 bytes @ 0x7
  1490  0077                     	ds	4
  1491  007B                     ??i1___lldiv:
  1492                           
  1493                           ; 1 bytes @ 0xB
  1494  007B                     	ds	1
  1495  007C                     ??___llmod:
  1496                           
  1497                           ; 1 bytes @ 0xC
  1498  007C                     	ds	1
  1499  007D                     ___llmod@counter:
  1500                           
  1501                           ; 1 bytes @ 0xD
  1502  007D                     	ds	1
  1503  007E                     ??_Timer0_CallBack:
  1504  007E                     ??_Scheduler_ActivateTask:	
  1505                           ; 1 bytes @ 0xE
  1506                           
  1507                           
  1508                           	psect	cstackBANK0
  1509  0020                     __pcstackBANK0:	
  1510                           ; 1 bytes @ 0xE
  1511                           
  1512  0020                     i1___lldiv@quotient:
  1513                           
  1514                           ; 4 bytes @ 0x0
  1515  0020                     	ds	4
  1516  0024                     i1___lldiv@counter:
  1517                           
  1518                           ; 1 bytes @ 0x4
  1519  0024                     	ds	1
  1520  0025                     ?___llmod:
  1521  0025                     ___llmod@divisor:	
  1522                           ; 4 bytes @ 0x5
  1523                           
  1524                           
  1525                           ; 4 bytes @ 0x5
  1526  0025                     	ds	4
  1527  0029                     ___llmod@dividend:
  1528                           
  1529                           ; 4 bytes @ 0x9
  1530  0029                     	ds	4
  1531  002D                     ?_Scheduler_ActivateTask:
  1532  002D                     Scheduler_ActivateTask@SystemTick:	
  1533                           ; 1 bytes @ 0xD
  1534                           
  1535                           
  1536                           ; 4 bytes @ 0xD
  1537  002D                     	ds	4
  1538  0031                     Scheduler_ActivateTask@IntityIndex:
  1539                           
  1540                           ; 1 bytes @ 0x11
  1541  0031                     	ds	1
  1542  0032                     ??_myISR:
  1543                           
  1544                           ; 1 bytes @ 0x12
  1545  0032                     	ds	4
  1546  0036                     ??_GPIO_Init:
  1547  0036                     ??_I2c_Init:	
  1548                           ; 1 bytes @ 0x16
  1549                           
  1550  0036                     ??_On_Off_Init:	
  1551                           ; 1 bytes @ 0x16
  1552                           
  1553  0036                     ??_SSD_Init:	
  1554                           ; 1 bytes @ 0x16
  1555                           
  1556  0036                     ??_Elements_Init:	
  1557                           ; 1 bytes @ 0x16
  1558                           
  1559  0036                     ??_ModeManager_Init:	
  1560                           ; 1 bytes @ 0x16
  1561                           
  1562  0036                     ??_Timer0_Init:	
  1563                           ; 1 bytes @ 0x16
  1564                           
  1565  0036                     ?_memset:	
  1566                           ; 1 bytes @ 0x16
  1567                           
  1568  0036                     ??_ADC_Init:	
  1569                           ; 1 bytes @ 0x16
  1570                           
  1571  0036                     ??_ADC_Start_Conv:	
  1572                           ; 1 bytes @ 0x16
  1573                           
  1574  0036                     ??_ADC_Get_Value:	
  1575                           ; 1 bytes @ 0x16
  1576                           
  1577  0036                     ??_Buttons_MainFunction:	
  1578                           ; 1 bytes @ 0x16
  1579                           
  1580  0036                     ??_I2c_Start:	
  1581                           ; 1 bytes @ 0x16
  1582                           
  1583  0036                     ??_I2c_Read:	
  1584                           ; 1 bytes @ 0x16
  1585                           
  1586  0036                     ??_I2c_Send_NAck:	
  1587                           ; 1 bytes @ 0x16
  1588                           
  1589  0036                     ??_I2c_Stop:	
  1590                           ; 1 bytes @ 0x16
  1591                           
  1592  0036                     ??_I2c_Write:	
  1593                           ; 1 bytes @ 0x16
  1594                           
  1595  0036                     ??_I2c_WaitAck:	
  1596                           ; 1 bytes @ 0x16
  1597                           
  1598  0036                     ?___bmul:	
  1599                           ; 1 bytes @ 0x16
  1600                           
  1601  0036                     ?__Umul8_16:	
  1602                           ; 1 bytes @ 0x16
  1603                           
  1604  0036                     ?___wmul:	
  1605                           ; 2 bytes @ 0x16
  1606                           
  1607  0036                     ?___awdiv:	
  1608                           ; 2 bytes @ 0x16
  1609                           
  1610  0036                     ?___awmod:	
  1611                           ; 2 bytes @ 0x16
  1612                           
  1613  0036                     ?___lwmod:	
  1614                           ; 2 bytes @ 0x16
  1615                           
  1616  0036                     ?___lldiv:	
  1617                           ; 2 bytes @ 0x16
  1618                           
  1619  0036                     ?___xxtofl:	
  1620                           ; 4 bytes @ 0x16
  1621                           
  1622  0036                     ADC_Get_Value@Buffer:	
  1623                           ; 4 bytes @ 0x16
  1624                           
  1625  0036                     I2c_Read@data:	
  1626                           ; 1 bytes @ 0x16
  1627                           
  1628  0036                     I2c_Write@data:	
  1629                           ; 1 bytes @ 0x16
  1630                           
  1631  0036                     ___bmul@multiplicand:	
  1632                           ; 1 bytes @ 0x16
  1633                           
  1634  0036                     __Umul8_16@multiplicand:	
  1635                           ; 1 bytes @ 0x16
  1636                           
  1637  0036                     ___wmul@multiplier:	
  1638                           ; 1 bytes @ 0x16
  1639                           
  1640  0036                     ___awdiv@divisor:	
  1641                           ; 2 bytes @ 0x16
  1642                           
  1643  0036                     ___awmod@divisor:	
  1644                           ; 2 bytes @ 0x16
  1645                           
  1646  0036                     ___lwmod@divisor:	
  1647                           ; 2 bytes @ 0x16
  1648                           
  1649  0036                     memset@c:	
  1650                           ; 2 bytes @ 0x16
  1651                           
  1652  0036                     ___lldiv@divisor:	
  1653                           ; 2 bytes @ 0x16
  1654                           
  1655  0036                     ___xxtofl@val:	
  1656                           ; 4 bytes @ 0x16
  1657                           
  1658                           
  1659                           ; 4 bytes @ 0x16
  1660  0036                     	ds	1
  1661  0037                     ??_EEPROM_Read:
  1662  0037                     ?_EEPROM_Write:	
  1663                           ; 1 bytes @ 0x17
  1664                           
  1665  0037                     ??___bmul:	
  1666                           ; 1 bytes @ 0x17
  1667                           
  1668  0037                     EEPROM_Write@Addr:	
  1669                           ; 1 bytes @ 0x17
  1670                           
  1671  0037                     EEPROM_Read@Addr:	
  1672                           ; 1 bytes @ 0x17
  1673                           
  1674  0037                     ___bmul@product:	
  1675                           ; 1 bytes @ 0x17
  1676                           
  1677                           
  1678                           ; 1 bytes @ 0x17
  1679  0037                     	ds	1
  1680  0038                     ??_EEPROM_Write:
  1681  0038                     ??__Umul8_16:	
  1682                           ; 1 bytes @ 0x18
  1683                           
  1684  0038                     EEPROM_Write@Data:	
  1685                           ; 1 bytes @ 0x18
  1686                           
  1687  0038                     ___bmul@multiplier:	
  1688                           ; 1 bytes @ 0x18
  1689                           
  1690  0038                     ___wmul@multiplicand:	
  1691                           ; 1 bytes @ 0x18
  1692                           
  1693  0038                     ___awdiv@dividend:	
  1694                           ; 2 bytes @ 0x18
  1695                           
  1696  0038                     ___awmod@dividend:	
  1697                           ; 2 bytes @ 0x18
  1698                           
  1699  0038                     ___lwmod@dividend:	
  1700                           ; 2 bytes @ 0x18
  1701                           
  1702  0038                     memset@n:	
  1703                           ; 2 bytes @ 0x18
  1704                           
  1705                           
  1706                           ; 2 bytes @ 0x18
  1707  0038                     	ds	1
  1708  0039                     ??_Set_EEPROM_Data:
  1709                           
  1710                           ; 1 bytes @ 0x19
  1711  0039                     	ds	1
  1712  003A                     ??_memset:
  1713  003A                     ??___wmul:	
  1714                           ; 1 bytes @ 0x1A
  1715                           
  1716  003A                     ??___awdiv:	
  1717                           ; 1 bytes @ 0x1A
  1718                           
  1719  003A                     ??___awmod:	
  1720                           ; 1 bytes @ 0x1A
  1721                           
  1722  003A                     ??___lwmod:	
  1723                           ; 1 bytes @ 0x1A
  1724                           
  1725  003A                     ??___xxtofl:	
  1726                           ; 1 bytes @ 0x1A
  1727                           
  1728  003A                     ___awdiv@counter:	
  1729                           ; 1 bytes @ 0x1A
  1730                           
  1731  003A                     ___awmod@counter:	
  1732                           ; 1 bytes @ 0x1A
  1733                           
  1734  003A                     ___lwmod@counter:	
  1735                           ; 1 bytes @ 0x1A
  1736                           
  1737  003A                     memset@p:	
  1738                           ; 1 bytes @ 0x1A
  1739                           
  1740  003A                     ___wmul@product:	
  1741                           ; 1 bytes @ 0x1A
  1742                           
  1743  003A                     __Umul8_16@product:	
  1744                           ; 2 bytes @ 0x1A
  1745                           
  1746  003A                     ___lldiv@dividend:	
  1747                           ; 2 bytes @ 0x1A
  1748                           
  1749                           
  1750                           ; 4 bytes @ 0x1A
  1751  003A                     	ds	1
  1752  003B                     ___awdiv@sign:
  1753  003B                     ___awmod@sign:	
  1754                           ; 1 bytes @ 0x1B
  1755                           
  1756  003B                     memset@p1:	
  1757                           ; 1 bytes @ 0x1B
  1758                           
  1759                           
  1760                           ; 1 bytes @ 0x1B
  1761  003B                     	ds	1
  1762  003C                     ??_Get_EEPROM_Data:
  1763  003C                     ??_Scheduler_Init:	
  1764                           ; 1 bytes @ 0x1C
  1765                           
  1766  003C                     ?_Mode_Setting_Timer:	
  1767                           ; 1 bytes @ 0x1C
  1768                           
  1769  003C                     ?_LED_BLINKING:	
  1770                           ; 1 bytes @ 0x1C
  1771                           
  1772  003C                     ?_SSD_Blink:	
  1773                           ; 1 bytes @ 0x1C
  1774                           
  1775  003C                     LED_BLINKING@Time_Ms:	
  1776                           ; 1 bytes @ 0x1C
  1777                           
  1778  003C                     Mode_Setting_Timer@Timer_Ms:	
  1779                           ; 2 bytes @ 0x1C
  1780                           
  1781  003C                     SSD_Blink@Times_Ms:	
  1782                           ; 2 bytes @ 0x1C
  1783                           
  1784  003C                     ___awdiv@quotient:	
  1785                           ; 2 bytes @ 0x1C
  1786                           
  1787  003C                     __Umul8_16@word_mpld:	
  1788                           ; 2 bytes @ 0x1C
  1789                           
  1790                           
  1791                           ; 2 bytes @ 0x1C
  1792  003C                     	ds	2
  1793  003E                     ??_Mode_Setting_Timer:
  1794  003E                     ??_SSD_SelectDigit:	
  1795                           ; 1 bytes @ 0x1E
  1796                           
  1797  003E                     ??_LED_BLINKING:	
  1798                           ; 1 bytes @ 0x1E
  1799                           
  1800  003E                     ??_SSD_Blink:	
  1801                           ; 1 bytes @ 0x1E
  1802                           
  1803  003E                     ??___lldiv:	
  1804                           ; 1 bytes @ 0x1E
  1805                           
  1806  003E                     __Umul8_16@multiplier:	
  1807                           ; 1 bytes @ 0x1E
  1808                           
  1809  003E                     ___xxtofl@sign:	
  1810                           ; 1 bytes @ 0x1E
  1811                           
  1812                           
  1813                           ; 1 bytes @ 0x1E
  1814  003E                     	ds	1
  1815  003F                     ___xxtofl@exp:
  1816  003F                     ___lldiv@quotient:	
  1817                           ; 1 bytes @ 0x1F
  1818                           
  1819                           
  1820                           ; 4 bytes @ 0x1F
  1821  003F                     	ds	1
  1822  0040                     ??_Scheduler_Task3:
  1823  0040                     ??_SSD_MainFunction:	
  1824                           ; 1 bytes @ 0x20
  1825                           
  1826  0040                     ??_ModeManager_MainFunction:	
  1827                           ; 1 bytes @ 0x20
  1828                           
  1829  0040                     ??_SSD_SelectDisplay:	
  1830                           ; 1 bytes @ 0x20
  1831                           
  1832  0040                     ??_LED_Control:	
  1833                           ; 1 bytes @ 0x20
  1834                           
  1835  0040                     ___xxtofl@arg:	
  1836                           ; 1 bytes @ 0x20
  1837                           
  1838                           
  1839                           ; 4 bytes @ 0x20
  1840  0040                     	ds	2
  1841  0042                     ??_Scheduler_Task1:
  1842                           
  1843                           ; 1 bytes @ 0x22
  1844  0042                     	ds	1
  1845  0043                     ___lldiv@counter:
  1846                           
  1847                           ; 1 bytes @ 0x23
  1848  0043                     	ds	1
  1849  0044                     ??_Scheduler_Start:
  1850  0044                     ??_Scheduler_Task2:	
  1851                           ; 1 bytes @ 0x24
  1852                           
  1853  0044                     ??_Temperature_MainFunction:	
  1854                           ; 1 bytes @ 0x24
  1855                           
  1856  0044                     ??_main:	
  1857                           ; 1 bytes @ 0x24
  1858                           
  1859                           
  1860                           	psect	maintext
  1861  0CA1                     __pmaintext:	
  1862                           ; 1 bytes @ 0x24
  1863 ;;
  1864 ;;Main: autosize = 0, tempsize = 0, incstack = 0, save=0
  1865 ;;
  1866 ;; *************** function _main *****************
  1867 ;; Defined at:
  1868 ;;		line 30 in file "main.c"
  1869 ;; Parameters:    Size  Location     Type
  1870 ;;		None
  1871 ;; Auto vars:     Size  Location     Type
  1872 ;;		None
  1873 ;; Return value:  Size  Location     Type
  1874 ;;                  1    wreg      void 
  1875 ;; Registers used:
  1876 ;;		wreg, fsr0l, fsr0h, status,2, status,0, btemp+1, pclath, cstack
  1877 ;; Tracked objects:
  1878 ;;		On entry : B00/0
  1879 ;;		On exit  : 0/0
  1880 ;;		Unchanged: 0/0
  1881 ;; Data sizes:     COMMON   BANK0   BANK1   BANK3   BANK2
  1882 ;;      Params:         0       0       0       0       0
  1883 ;;      Locals:         0       0       0       0       0
  1884 ;;      Temps:          0       0       0       0       0
  1885 ;;      Totals:         0       0       0       0       0
  1886 ;;Total ram usage:        0 bytes
  1887 ;; Hardware stack levels required when called:   10
  1888 ;; This function calls:
  1889 ;;		_ADC_Init
  1890 ;;		_ADC_Start_Conv
  1891 ;;		_Elements_Init
  1892 ;;		_GPIO_Init
  1893 ;;		_Get_EEPROM_Data
  1894 ;;		_I2c_Init
  1895 ;;		_ModeManager_Init
  1896 ;;		_On_Off_Init
  1897 ;;		_SSD_Init
  1898 ;;		_Scheduler_Init
  1899 ;;		_Scheduler_Start
  1900 ;;		_Timer0_Init
  1901 ;; This function is called by:
  1902 ;;		Startup code after reset
  1903 ;; This function uses a non-reentrant model
  1904 ;;
  1905                           
  1906                           
  1907                           ;psect for function _main
  1908  0CA1                     _main:
  1909  0CA1                     l3839:	
  1910                           ;incstack = 0
  1911 ;; hardware stack exceeded
  1912                           ; Regs used in _main: [wreg-fsr0h+status,2+status,0+btemp+1+pclath+cstack]
  1913                           
  1914                           
  1915                           ;main.c: 32:   GPIO_Init();
  1916  0CA1  120A  158A  21EA  120A  158A  	fcall	_GPIO_Init
  1917  0CA6                     l3841:
  1918                           
  1919                           ;main.c: 33:   I2c_Init();
  1920  0CA6  120A  158A  210A  120A  158A  	fcall	_I2c_Init
  1921  0CAB                     l3843:
  1922                           
  1923                           ;main.c: 34:   ADC_Init();
  1924  0CAB  120A  158A  21CF  120A  158A  	fcall	_ADC_Init
  1925  0CB0                     l3845:
  1926                           
  1927                           ;main.c: 35:   On_Off_Init();
  1928  0CB0  120A  158A  20AF  120A  158A  	fcall	_On_Off_Init
  1929  0CB5                     l3847:
  1930                           
  1931                           ;main.c: 36:   SSD_Init();
  1932  0CB5  120A  158A  2116  120A  158A  	fcall	_SSD_Init
  1933  0CBA                     l3849:
  1934                           
  1935                           ;main.c: 37:   Elements_Init();
  1936  0CBA  120A  158A  20FE  120A  158A  	fcall	_Elements_Init
  1937  0CBF                     l3851:
  1938                           
  1939                           ;main.c: 38:   ModeManager_Init();
  1940  0CBF  120A  158A  20A1  120A  158A  	fcall	_ModeManager_Init
  1941  0CC4                     l3853:
  1942                           
  1943                           ;main.c: 39:   Get_EEPROM_Data();
  1944  0CC4  120A  158A  23B8  120A  158A  	fcall	_Get_EEPROM_Data
  1945  0CC9                     l3855:
  1946                           
  1947                           ;main.c: 40:   ADC_Start_Conv();
  1948  0CC9  120A  158A  20CB  120A  158A  	fcall	_ADC_Start_Conv
  1949  0CCE                     l3857:
  1950                           
  1951                           ;main.c: 41:   Scheduler_Init();
  1952  0CCE  120A  158A  2131  120A  158A  	fcall	_Scheduler_Init
  1953  0CD3                     l3859:
  1954                           
  1955                           ;main.c: 42:   Timer0_Init();
  1956  0CD3  120A  158A  2151  120A  158A  	fcall	_Timer0_Init
  1957                           
  1958                           ;main.c: 43:   Scheduler_Start();
  1959  0CD8  120A  158A  23F1  120A  158A  	fcall	_Scheduler_Start
  1960  0CDD                     l68:
  1961  0CDD  120A  118A  2812   	ljmp	start
  1962  0CE0                     __end_of_main:
  1963                           
  1964                           	psect	text1
  1965  0951                     __ptext1:	
  1966 ;; *************** function _Timer0_Init *****************
  1967 ;; Defined at:
  1968 ;;		line 22 in file "Timer/Timer.c"
  1969 ;; Parameters:    Size  Location     Type
  1970 ;;		None
  1971 ;; Auto vars:     Size  Location     Type
  1972 ;;		None
  1973 ;; Return value:  Size  Location     Type
  1974 ;;                  1    wreg      void 
  1975 ;; Registers used:
  1976 ;;		wreg
  1977 ;; Tracked objects:
  1978 ;;		On entry : 0/0
  1979 ;;		On exit  : 0/0
  1980 ;;		Unchanged: 0/0
  1981 ;; Data sizes:     COMMON   BANK0   BANK1   BANK3   BANK2
  1982 ;;      Params:         0       0       0       0       0
  1983 ;;      Locals:         0       0       0       0       0
  1984 ;;      Temps:          0       0       0       0       0
  1985 ;;      Totals:         0       0       0       0       0
  1986 ;;Total ram usage:        0 bytes
  1987 ;; Hardware stack levels used:    1
  1988 ;; Hardware stack levels required when called:    4
  1989 ;; This function calls:
  1990 ;;		Nothing
  1991 ;; This function is called by:
  1992 ;;		_main
  1993 ;; This function uses a non-reentrant model
  1994 ;;
  1995                           
  1996                           
  1997                           ;psect for function _Timer0_Init
  1998  0951                     _Timer0_Init:
  1999  0951                     l2975:	
  2000                           ;incstack = 0
  2001                           ; Regs used in _Timer0_Init: [wreg]
  2002                           
  2003                           
  2004                           ;Timer/Timer.c: 25:      OPTION_REGbits.T0CS=0;
  2005  0951  1683               	bsf	3,5	;RP0=1, select bank1
  2006  0952  1303               	bcf	3,6	;RP1=0, select bank1
  2007  0953  1281               	bcf	1,5	;volatile
  2008                           
  2009                           ;Timer/Timer.c: 26:      OPTION_REGbits.PSA=0;
  2010  0954  1181               	bcf	1,3	;volatile
  2011                           
  2012                           ;Timer/Timer.c: 29:      OPTION_REGbits.PS0=1;
  2013  0955  1401               	bsf	1,0	;volatile
  2014                           
  2015                           ;Timer/Timer.c: 30:      OPTION_REGbits.PS1=1;
  2016  0956  1481               	bsf	1,1	;volatile
  2017                           
  2018                           ;Timer/Timer.c: 31:      OPTION_REGbits.PS2=1;
  2019  0957  1501               	bsf	1,2	;volatile
  2020                           
  2021                           ;Timer/Timer.c: 34:         INTCONbits.TMR0IE=1;
  2022  0958  168B               	bsf	11,5	;volatile
  2023                           
  2024                           ;Timer/Timer.c: 35:         INTCONbits.PEIE=1;
  2025  0959  170B               	bsf	11,6	;volatile
  2026                           
  2027                           ;Timer/Timer.c: 36:         INTCONbits.GIE=1;
  2028  095A  178B               	bsf	11,7	;volatile
  2029  095B                     l2977:
  2030                           
  2031                           ;Timer/Timer.c: 38:      TMR0=100;
  2032  095B  3064               	movlw	100
  2033  095C  1283               	bcf	3,5	;RP0=0, select bank0
  2034  095D  1303               	bcf	3,6	;RP1=0, select bank0
  2035  095E  0081               	movwf	1	;volatile
  2036  095F                     l2979:
  2037                           
  2038                           ;Timer/Timer.c: 39:         INTCONbits.TMR0IF=0;
  2039  095F  110B               	bcf	11,2	;volatile
  2040  0960                     l329:
  2041  0960  0008               	return
  2042  0961                     __end_of_Timer0_Init:
  2043                           
  2044                           	psect	text2
  2045  0BF1                     __ptext2:	
  2046 ;; *************** function _Scheduler_Start *****************
  2047 ;; Defined at:
  2048 ;;		line 13 in file "Scheduler/Scheduler.c"
  2049 ;; Parameters:    Size  Location     Type
  2050 ;;		None
  2051 ;; Auto vars:     Size  Location     Type
  2052 ;;  IntityIndex     1   28[BANK1 ] unsigned char 
  2053 ;; Return value:  Size  Location     Type
  2054 ;;                  1    wreg      void 
  2055 ;; Registers used:
  2056 ;;		wreg, fsr0l, fsr0h, status,2, status,0, btemp+1, pclath, cstack
  2057 ;; Tracked objects:
  2058 ;;		On entry : 0/0
  2059 ;;		On exit  : 0/0
  2060 ;;		Unchanged: 0/0
  2061 ;; Data sizes:     COMMON   BANK0   BANK1   BANK3   BANK2
  2062 ;;      Params:         0       0       0       0       0
  2063 ;;      Locals:         0       0       1       0       0
  2064 ;;      Temps:          0       0       0       0       0
  2065 ;;      Totals:         0       0       1       0       0
  2066 ;;Total ram usage:        1 bytes
  2067 ;; Hardware stack levels used:    1
  2068 ;; Hardware stack levels required when called:    9
  2069 ;; This function calls:
  2070 ;;		_Scheduler_Task1
  2071 ;;		_Scheduler_Task2
  2072 ;;		_Scheduler_Task3
  2073 ;;		___bmul
  2074 ;; This function is called by:
  2075 ;;		_main
  2076 ;; This function uses a non-reentrant model
  2077 ;;
  2078                           
  2079                           
  2080                           ;psect for function _Scheduler_Start
  2081  0BF1                     _Scheduler_Start:
  2082  0BF1                     l238:	
  2083                           ;incstack = 0
  2084 ;; hardware stack exceeded
  2085                           ; Regs used in _Scheduler_Start: [wreg-fsr0h+status,2+status,0+btemp+1+pclath+cstack]
  2086                           ;Scheduler/Scheduler.c: 15:   while(1)
  2087                           
  2088  0BF1                     l3819:
  2089                           
  2090                           ;Scheduler/Scheduler.c: 16:   {;Scheduler/Scheduler.c: 17:  for( uint8_t IntityIndex = 0
      +                           ; IntityIndex < ( 3U ) ; IntityIndex++ )
  2091  0BF1  1683               	bsf	3,5	;RP0=1, select bank1
  2092  0BF2  1303               	bcf	3,6	;RP1=0, select bank1
  2093  0BF3  01EF               	clrf	Scheduler_Start@IntityIndex^(0+128)
  2094  0BF4                     l3825:
  2095                           
  2096                           ;Scheduler/Scheduler.c: 18:  {;Scheduler/Scheduler.c: 19:   if( Scheduler_ActivationFlag
      +                          s[IntityIndex] == 1 )
  2097  0BF4  086F               	movf	Scheduler_Start@IntityIndex^(0+128),w
  2098  0BF5  3ED0               	addlw	(low (_Scheduler_ActivationFlags| 0))& (0+255)
  2099  0BF6  0084               	movwf	4
  2100  0BF7  1383               	bcf	3,7	;select IRP bank1
  2101  0BF8  0300               	decf	0,w
  2102  0BF9  1D03               	btfss	3,2
  2103  0BFA  2BFC               	goto	u5211
  2104  0BFB  2BFD               	goto	u5210
  2105  0BFC                     u5211:
  2106  0BFC  2C1E               	goto	l3831
  2107  0BFD                     u5210:
  2108  0BFD                     l3827:
  2109                           
  2110                           ;Scheduler/Scheduler.c: 20:   {;Scheduler/Scheduler.c: 21:    (*Scheduler_Intitys[Intity
      +                          Index].fuction_ptr)();
  2111  0BFD  3005               	movlw	5
  2112  0BFE  00FF               	movwf	btemp+1
  2113  0BFF  087F               	movf	btemp+1,w
  2114  0C00  1283               	bcf	3,5	;RP0=0, select bank0
  2115  0C01  1303               	bcf	3,6	;RP1=0, select bank0
  2116  0C02  00B6               	movwf	___bmul@multiplicand
  2117  0C03  1683               	bsf	3,5	;RP0=1, select bank1
  2118  0C04  1303               	bcf	3,6	;RP1=0, select bank1
  2119  0C05  086F               	movf	Scheduler_Start@IntityIndex^(0+128),w
  2120  0C06  120A  158A  21A0  120A  158A  	fcall	___bmul
  2121  0C0B  3E01               	addlw	low ((_Scheduler_Intitys-__stringbase)| (0+32768))
  2122  0C0C  0084               	movwf	4
  2123  0C0D  120A  158A  2000  120A  158A  	fcall	stringdir
  2124  0C12  120A  118A  2042  120A  158A  	fcall	fptable
  2125  0C17                     l3829:
  2126                           
  2127                           ;Scheduler/Scheduler.c: 22:    Scheduler_ActivationFlags[IntityIndex] = 0 ;
  2128  0C17  1683               	bsf	3,5	;RP0=1, select bank1
  2129  0C18  1303               	bcf	3,6	;RP1=0, select bank1
  2130  0C19  086F               	movf	Scheduler_Start@IntityIndex^(0+128),w
  2131  0C1A  3ED0               	addlw	(low (_Scheduler_ActivationFlags| 0))& (0+255)
  2132  0C1B  0084               	movwf	4
  2133  0C1C  1383               	bcf	3,7	;select IRP bank1
  2134  0C1D  0180               	clrf	0
  2135  0C1E                     l3831:
  2136                           
  2137                           ;Scheduler/Scheduler.c: 24:  }
  2138  0C1E  3001               	movlw	1
  2139  0C1F  00FF               	movwf	btemp+1
  2140  0C20  087F               	movf	btemp+1,w
  2141  0C21  07EF               	addwf	Scheduler_Start@IntityIndex^(0+128),f
  2142  0C22                     l3833:
  2143  0C22  3003               	movlw	3
  2144  0C23  026F               	subwf	Scheduler_Start@IntityIndex^(0+128),w
  2145  0C24  1C03               	skipc
  2146  0C25  2C27               	goto	u5221
  2147  0C26  2C28               	goto	u5220
  2148  0C27                     u5221:
  2149  0C27  2BF4               	goto	l3825
  2150  0C28                     u5220:
  2151  0C28  2BF1               	goto	l238
  2152  0C29  0008               	return
  2153  0C2A                     __end_of_Scheduler_Start:
  2154                           
  2155                           	psect	text3
  2156  09A0                     __ptext3:	
  2157 ;; *************** function ___bmul *****************
  2158 ;; Defined at:
  2159 ;;		line 4 in file "C:\Program Files (x86)\Microchip\xc8\v2.20\pic\sources\c90\common\Umul8.c"
  2160 ;; Parameters:    Size  Location     Type
  2161 ;;  multiplier      1    wreg     unsigned char 
  2162 ;;  multiplicand    1   22[BANK0 ] unsigned char 
  2163 ;; Auto vars:     Size  Location     Type
  2164 ;;  multiplier      1   24[BANK0 ] unsigned char 
  2165 ;;  product         1   23[BANK0 ] unsigned char 
  2166 ;; Return value:  Size  Location     Type
  2167 ;;                  1    wreg      unsigned char 
  2168 ;; Registers used:
  2169 ;;		wreg, status,2, status,0, btemp+1
  2170 ;; Tracked objects:
  2171 ;;		On entry : 0/0
  2172 ;;		On exit  : 0/0
  2173 ;;		Unchanged: 0/0
  2174 ;; Data sizes:     COMMON   BANK0   BANK1   BANK3   BANK2
  2175 ;;      Params:         0       1       0       0       0
  2176 ;;      Locals:         0       2       0       0       0
  2177 ;;      Temps:          0       0       0       0       0
  2178 ;;      Totals:         0       3       0       0       0
  2179 ;;Total ram usage:        3 bytes
  2180 ;; Hardware stack levels used:    1
  2181 ;; Hardware stack levels required when called:    4
  2182 ;; This function calls:
  2183 ;;		Nothing
  2184 ;; This function is called by:
  2185 ;;		_Scheduler_Start
  2186 ;;		_Scheduler_ActivateTask
  2187 ;; This function uses a non-reentrant model
  2188 ;;
  2189                           
  2190                           
  2191                           ;psect for function ___bmul
  2192  09A0                     ___bmul:
  2193                           
  2194                           ;incstack = 0
  2195                           ; Regs used in ___bmul: [wreg+status,2+status,0+btemp+1]
  2196                           ;___bmul@multiplier stored from wreg
  2197  09A0  1283               	bcf	3,5	;RP0=0, select bank0
  2198  09A1  1303               	bcf	3,6	;RP1=0, select bank0
  2199  09A2  00B8               	movwf	___bmul@multiplier
  2200  09A3                     l3789:
  2201  09A3  01B7               	clrf	___bmul@product
  2202  09A4                     l3791:
  2203  09A4  1C38               	btfss	___bmul@multiplier,0
  2204  09A5  29A7               	goto	u5161
  2205  09A6  29A8               	goto	u5160
  2206  09A7                     u5161:
  2207  09A7  29AC               	goto	l3795
  2208  09A8                     u5160:
  2209  09A8                     l3793:
  2210  09A8  0836               	movf	___bmul@multiplicand,w
  2211  09A9  00FF               	movwf	btemp+1
  2212  09AA  087F               	movf	btemp+1,w
  2213  09AB  07B7               	addwf	___bmul@product,f
  2214  09AC                     l3795:
  2215  09AC  1003               	clrc
  2216  09AD  0DB6               	rlf	___bmul@multiplicand,f
  2217  09AE                     l3797:
  2218  09AE  1003               	clrc
  2219  09AF  0CB8               	rrf	___bmul@multiplier,f
  2220  09B0                     l3799:
  2221  09B0  0838               	movf	___bmul@multiplier,w
  2222  09B1  1D03               	btfss	3,2
  2223  09B2  29B4               	goto	u5171
  2224  09B3  29B5               	goto	u5170
  2225  09B4                     u5171:
  2226  09B4  29A4               	goto	l3791
  2227  09B5                     u5170:
  2228  09B5                     l3801:
  2229  09B5  0837               	movf	___bmul@product,w
  2230  09B6                     l649:
  2231  09B6  0008               	return
  2232  09B7                     __end_of___bmul:
  2233                           
  2234                           	psect	text4
  2235  0941                     __ptext4:	
  2236 ;; *************** function _Scheduler_Task2 *****************
  2237 ;; Defined at:
  2238 ;;		line 25 in file "Scheduler/Tasks.c"
  2239 ;; Parameters:    Size  Location     Type
  2240 ;;		None
  2241 ;; Auto vars:     Size  Location     Type
  2242 ;;		None
  2243 ;; Return value:  Size  Location     Type
  2244 ;;                  1    wreg      void 
  2245 ;; Registers used:
  2246 ;;		wreg, fsr0l, fsr0h, status,2, status,0, btemp+1, pclath, cstack
  2247 ;; Tracked objects:
  2248 ;;		On entry : 0/0
  2249 ;;		On exit  : 0/0
  2250 ;;		Unchanged: 0/0
  2251 ;; Data sizes:     COMMON   BANK0   BANK1   BANK3   BANK2
  2252 ;;      Params:         0       0       0       0       0
  2253 ;;      Locals:         0       0       0       0       0
  2254 ;;      Temps:          0       0       0       0       0
  2255 ;;      Totals:         0       0       0       0       0
  2256 ;;Total ram usage:        0 bytes
  2257 ;; Hardware stack levels used:    1
  2258 ;; Hardware stack levels required when called:    8
  2259 ;; This function calls:
  2260 ;;		_Buttons_MainFunction
  2261 ;;		_Elements_MainFunction
  2262 ;;		_Temperature_MainFunction
  2263 ;; This function is called by:
  2264 ;;		_Scheduler_Start
  2265 ;; This function uses a non-reentrant model
  2266 ;;
  2267                           
  2268                           
  2269                           ;psect for function _Scheduler_Task2
  2270  0941                     _Scheduler_Task2:
  2271  0941                     l3759:	
  2272                           ;incstack = 0
  2273 ;; hardware stack exceeded
  2274                           ; Regs used in _Scheduler_Task2: [wreg-fsr0h+status,2+status,0+btemp+1+pclath+cstack]
  2275                           
  2276                           
  2277                           ;Scheduler/Tasks.c: 27:     Buttons_MainFunction();
  2278  0941  120A  158A  2677  120A  158A  	fcall	_Buttons_MainFunction
  2279  0946                     l3761:
  2280                           
  2281                           ;Scheduler/Tasks.c: 28:  Temperature_MainFunction();
  2282  0946  120A  158A  2161  120A  158A  	fcall	_Temperature_MainFunction
  2283  094B                     l3763:
  2284                           
  2285                           ;Scheduler/Tasks.c: 29:  Elements_MainFunction();
  2286  094B  120A  158A  279A  120A  158A  	fcall	_Elements_MainFunction
  2287  0950                     l293:
  2288  0950  0008               	return
  2289  0951                     __end_of_Scheduler_Task2:
  2290                           
  2291                           	psect	text5
  2292  08B5                     __ptext5:	
  2293 ;; *************** function _Scheduler_Task1 *****************
  2294 ;; Defined at:
  2295 ;;		line 19 in file "Scheduler/Tasks.c"
  2296 ;; Parameters:    Size  Location     Type
  2297 ;;		None
  2298 ;; Auto vars:     Size  Location     Type
  2299 ;;		None
  2300 ;; Return value:  Size  Location     Type
  2301 ;;                  1    wreg      void 
  2302 ;; Registers used:
  2303 ;;		wreg, fsr0l, fsr0h, status,2, status,0, btemp+1, pclath, cstack
  2304 ;; Tracked objects:
  2305 ;;		On entry : 0/0
  2306 ;;		On exit  : 0/0
  2307 ;;		Unchanged: 0/0
  2308 ;; Data sizes:     COMMON   BANK0   BANK1   BANK3   BANK2
  2309 ;;      Params:         0       0       0       0       0
  2310 ;;      Locals:         0       0       0       0       0
  2311 ;;      Temps:          0       0       0       0       0
  2312 ;;      Totals:         0       0       0       0       0
  2313 ;;Total ram usage:        0 bytes
  2314 ;; Hardware stack levels used:    1
  2315 ;; Hardware stack levels required when called:    8
  2316 ;; This function calls:
  2317 ;;		_SSD_MainFunction
  2318 ;; This function is called by:
  2319 ;;		_Scheduler_Start
  2320 ;; This function uses a non-reentrant model
  2321 ;;
  2322                           
  2323                           
  2324                           ;psect for function _Scheduler_Task1
  2325  08B5                     _Scheduler_Task1:
  2326  08B5                     l3757:	
  2327                           ;incstack = 0
  2328 ;; hardware stack exceeded
  2329                           ; Regs used in _Scheduler_Task1: [wreg-fsr0h+status,2+status,0+btemp+1+pclath+cstack]
  2330                           
  2331                           
  2332                           ;Scheduler/Tasks.c: 21:  SSD_MainFunction();
  2333  08B5  120A  158A  25C3  120A  158A  	fcall	_SSD_MainFunction
  2334  08BA                     l290:
  2335  08BA  0008               	return
  2336  08BB                     __end_of_Scheduler_Task1:
  2337                           
  2338                           	psect	text6
  2339  08F3                     __ptext6:	
  2340 ;; *************** function _Scheduler_Task3 *****************
  2341 ;; Defined at:
  2342 ;;		line 32 in file "Scheduler/Tasks.c"
  2343 ;; Parameters:    Size  Location     Type
  2344 ;;		None
  2345 ;; Auto vars:     Size  Location     Type
  2346 ;;		None
  2347 ;; Return value:  Size  Location     Type
  2348 ;;                  1    wreg      void 
  2349 ;; Registers used:
  2350 ;;		wreg, status,2, status,0, btemp+1, pclath, cstack
  2351 ;; Tracked objects:
  2352 ;;		On entry : 0/0
  2353 ;;		On exit  : 0/0
  2354 ;;		Unchanged: 0/0
  2355 ;; Data sizes:     COMMON   BANK0   BANK1   BANK3   BANK2
  2356 ;;      Params:         0       0       0       0       0
  2357 ;;      Locals:         0       0       0       0       0
  2358 ;;      Temps:          0       0       0       0       0
  2359 ;;      Totals:         0       0       0       0       0
  2360 ;;Total ram usage:        0 bytes
  2361 ;; Hardware stack levels used:    1
  2362 ;; Hardware stack levels required when called:    7
  2363 ;; This function calls:
  2364 ;;		_ModeManager_MainFunction
  2365 ;;		_Set_EEPROM_Data
  2366 ;; This function is called by:
  2367 ;;		_Scheduler_Start
  2368 ;; This function uses a non-reentrant model
  2369 ;;
  2370                           
  2371                           
  2372                           ;psect for function _Scheduler_Task3
  2373  08F3                     _Scheduler_Task3:
  2374  08F3                     l3765:	
  2375                           ;incstack = 0
  2376 ;; hardware stack exceeded
  2377                           ; Regs used in _Scheduler_Task3: [wreg+status,2+status,0+btemp+1+pclath+cstack]
  2378                           
  2379                           
  2380                           ;Scheduler/Tasks.c: 34:     ModeManager_MainFunction();
  2381  08F3  120A  158A  24E0  120A  158A  	fcall	_ModeManager_MainFunction
  2382                           
  2383                           ;Scheduler/Tasks.c: 35:     Set_EEPROM_Data();
  2384  08F8  120A  118A  27E6  120A  158A  	fcall	_Set_EEPROM_Data
  2385  08FD                     l296:
  2386  08FD  0008               	return
  2387  08FE                     __end_of_Scheduler_Task3:
  2388                           
  2389                           	psect	text7
  2390  07E6                     __ptext7:	
  2391 ;; *************** function _Set_EEPROM_Data *****************
  2392 ;; Defined at:
  2393 ;;		line 56 in file "EEPROM/EEPROM.c"
  2394 ;; Parameters:    Size  Location     Type
  2395 ;;		None
  2396 ;; Auto vars:     Size  Location     Type
  2397 ;;		None
  2398 ;; Return value:  Size  Location     Type
  2399 ;;                  1    wreg      void 
  2400 ;; Registers used:
  2401 ;;		wreg, status,2, status,0, btemp+1, pclath, cstack
  2402 ;; Tracked objects:
  2403 ;;		On entry : 0/0
  2404 ;;		On exit  : 0/0
  2405 ;;		Unchanged: 0/0
  2406 ;; Data sizes:     COMMON   BANK0   BANK1   BANK3   BANK2
  2407 ;;      Params:         0       0       0       0       0
  2408 ;;      Locals:         0       0       0       0       0
  2409 ;;      Temps:          0       0       0       0       0
  2410 ;;      Totals:         0       0       0       0       0
  2411 ;;Total ram usage:        0 bytes
  2412 ;; Hardware stack levels used:    1
  2413 ;; Hardware stack levels required when called:    6
  2414 ;; This function calls:
  2415 ;;		_EEPROM_Write
  2416 ;; This function is called by:
  2417 ;;		_Scheduler_Task3
  2418 ;; This function uses a non-reentrant model
  2419 ;;
  2420                           
  2421                           
  2422                           ;psect for function _Set_EEPROM_Data
  2423  07E6                     _Set_EEPROM_Data:
  2424  07E6                     l3727:	
  2425                           ;incstack = 0
  2426 ;; hardware stack exceeded
  2427                           ; Regs used in _Set_EEPROM_Data: [wreg+status,2+status,0+btemp+1+pclath+cstack]
  2428                           
  2429                           
  2430                           ;EEPROM/EEPROM.c: 60:  if(Temperature.Store_Set_Temp_Flag==1)
  2431  07E6  1283               	bcf	3,5	;RP0=0, select bank0
  2432  07E7  1303               	bcf	3,6	;RP1=0, select bank0
  2433  07E8  1CD2               	btfss	_Temperature+4,1
  2434  07E9  2FEB               	goto	u5121
  2435  07EA  2FEC               	goto	u5120
  2436  07EB                     u5121:
  2437  07EB  2FFD               	goto	l458
  2438  07EC                     u5120:
  2439  07EC                     l3729:
  2440                           
  2441                           ;EEPROM/EEPROM.c: 61:  {;EEPROM/EEPROM.c: 62:     EEPROM_Data=Temperature.Set_Temp;
  2442  07EC  0851               	movf	_Temperature+3,w
  2443  07ED  00FF               	movwf	btemp+1
  2444  07EE  087F               	movf	btemp+1,w
  2445  07EF  00C9               	movwf	_EEPROM_Data
  2446  07F0                     l3731:
  2447                           
  2448                           ;EEPROM/EEPROM.c: 63:     EEPROM_Write(EEPROM_Data,0x0A);
  2449  07F0  300A               	movlw	10
  2450  07F1  00FF               	movwf	btemp+1
  2451  07F2  087F               	movf	btemp+1,w
  2452  07F3  00B7               	movwf	EEPROM_Write@Addr
  2453  07F4  0849               	movf	_EEPROM_Data,w
  2454  07F5  120A  158A  2385  120A  118A  	fcall	_EEPROM_Write
  2455  07FA                     l3733:
  2456                           
  2457                           ;EEPROM/EEPROM.c: 64:     Temperature.Store_Set_Temp_Flag=0;
  2458  07FA  1283               	bcf	3,5	;RP0=0, select bank0
  2459  07FB  1303               	bcf	3,6	;RP1=0, select bank0
  2460  07FC  10D2               	bcf	_Temperature+4,1
  2461  07FD                     l458:
  2462  07FD  0008               	return
  2463  07FE                     __end_of_Set_EEPROM_Data:
  2464                           
  2465                           	psect	text8
  2466  0B85                     __ptext8:	
  2467 ;; *************** function _EEPROM_Write *****************
  2468 ;; Defined at:
  2469 ;;		line 80 in file "EEPROM/EEPROM.c"
  2470 ;; Parameters:    Size  Location     Type
  2471 ;;  Data            1    wreg     unsigned char 
  2472 ;;  Addr            1   23[BANK0 ] unsigned char 
  2473 ;; Auto vars:     Size  Location     Type
  2474 ;;  Data            1   24[BANK0 ] unsigned char 
  2475 ;; Return value:  Size  Location     Type
  2476 ;;                  1    wreg      void 
  2477 ;; Registers used:
  2478 ;;		wreg, status,2, status,0, pclath, cstack
  2479 ;; Tracked objects:
  2480 ;;		On entry : 0/0
  2481 ;;		On exit  : 0/0
  2482 ;;		Unchanged: 0/0
  2483 ;; Data sizes:     COMMON   BANK0   BANK1   BANK3   BANK2
  2484 ;;      Params:         0       1       0       0       0
  2485 ;;      Locals:         0       1       0       0       0
  2486 ;;      Temps:          0       0       0       0       0
  2487 ;;      Totals:         0       2       0       0       0
  2488 ;;Total ram usage:        2 bytes
  2489 ;; Hardware stack levels used:    1
  2490 ;; Hardware stack levels required when called:    5
  2491 ;; This function calls:
  2492 ;;		_I2c_Start
  2493 ;;		_I2c_Stop
  2494 ;;		_I2c_WaitAck
  2495 ;;		_I2c_Write
  2496 ;; This function is called by:
  2497 ;;		_Set_EEPROM_Data
  2498 ;; This function uses a non-reentrant model
  2499 ;;
  2500                           
  2501                           
  2502                           ;psect for function _EEPROM_Write
  2503  0B85                     _EEPROM_Write:
  2504                           
  2505                           ;incstack = 0
  2506 ;; hardware stack exceeded
  2507                           ; Regs used in _EEPROM_Write: [wreg+status,2+status,0+pclath+cstack]
  2508                           ;EEPROM_Write@Data stored from wreg
  2509  0B85  1283               	bcf	3,5	;RP0=0, select bank0
  2510  0B86  1303               	bcf	3,6	;RP1=0, select bank0
  2511  0B87  00B8               	movwf	EEPROM_Write@Data
  2512  0B88                     l3561:
  2513                           
  2514                           ;EEPROM/EEPROM.c: 80: void EEPROM_Write(uint8_t Data,uint8_t Addr);EEPROM/EEPROM.c: 81: 
      +                          {;EEPROM/EEPROM.c: 82:  I2c_Start();
  2515  0B88  120A  158A  20DD  120A  158A  	fcall	_I2c_Start
  2516  0B8D                     l3563:
  2517                           
  2518                           ;EEPROM/EEPROM.c: 83:  I2c_Write(0xA0);
  2519  0B8D  30A0               	movlw	160
  2520  0B8E  120A  158A  20A9  120A  158A  	fcall	_I2c_Write
  2521  0B93                     l3565:
  2522                           
  2523                           ;EEPROM/EEPROM.c: 84:  I2c_WaitAck();
  2524  0B93  120A  158A  20BB  120A  158A  	fcall	_I2c_WaitAck
  2525                           
  2526                           ;EEPROM/EEPROM.c: 85:  I2c_Write(Addr);
  2527  0B98  1283               	bcf	3,5	;RP0=0, select bank0
  2528  0B99  1303               	bcf	3,6	;RP1=0, select bank0
  2529  0B9A  0837               	movf	EEPROM_Write@Addr,w
  2530  0B9B  120A  158A  20A9  120A  158A  	fcall	_I2c_Write
  2531  0BA0                     l3567:
  2532                           
  2533                           ;EEPROM/EEPROM.c: 86:  I2c_WaitAck();
  2534  0BA0  120A  158A  20BB  120A  158A  	fcall	_I2c_WaitAck
  2535  0BA5                     l3569:
  2536                           
  2537                           ;EEPROM/EEPROM.c: 87:  I2c_Write(Data);
  2538  0BA5  1283               	bcf	3,5	;RP0=0, select bank0
  2539  0BA6  1303               	bcf	3,6	;RP1=0, select bank0
  2540  0BA7  0838               	movf	EEPROM_Write@Data,w
  2541  0BA8  120A  158A  20A9  120A  158A  	fcall	_I2c_Write
  2542                           
  2543                           ;EEPROM/EEPROM.c: 88:  I2c_WaitAck();
  2544  0BAD  120A  158A  20BB  120A  158A  	fcall	_I2c_WaitAck
  2545                           
  2546                           ;EEPROM/EEPROM.c: 89:  I2c_Stop();
  2547  0BB2  120A  158A  20E8  120A  158A  	fcall	_I2c_Stop
  2548  0BB7                     l461:
  2549  0BB7  0008               	return
  2550  0BB8                     __end_of_EEPROM_Write:
  2551                           
  2552                           	psect	text9
  2553  0CE0                     __ptext9:	
  2554 ;; *************** function _ModeManager_MainFunction *****************
  2555 ;; Defined at:
  2556 ;;		line 47 in file "WaterHeater_Mode/WaterHeater_Mode.c"
  2557 ;; Parameters:    Size  Location     Type
  2558 ;;		None
  2559 ;; Auto vars:     Size  Location     Type
  2560 ;;		None
  2561 ;; Return value:  Size  Location     Type
  2562 ;;                  1    wreg      void 
  2563 ;; Registers used:
  2564 ;;		wreg, status,2, status,0, btemp+1, pclath, cstack
  2565 ;; Tracked objects:
  2566 ;;		On entry : 0/0
  2567 ;;		On exit  : 0/0
  2568 ;;		Unchanged: 0/0
  2569 ;; Data sizes:     COMMON   BANK0   BANK1   BANK3   BANK2
  2570 ;;      Params:         0       0       0       0       0
  2571 ;;      Locals:         0       0       0       0       0
  2572 ;;      Temps:          0       0       0       0       0
  2573 ;;      Totals:         0       0       0       0       0
  2574 ;;Total ram usage:        0 bytes
  2575 ;; Hardware stack levels used:    1
  2576 ;; Hardware stack levels required when called:    6
  2577 ;; This function calls:
  2578 ;;		_Mode_Setting_Timer
  2579 ;; This function is called by:
  2580 ;;		_Scheduler_Task3
  2581 ;; This function uses a non-reentrant model
  2582 ;;
  2583                           
  2584                           
  2585                           ;psect for function _ModeManager_MainFunction
  2586  0CE0                     _ModeManager_MainFunction:
  2587  0CE0                     l3693:	
  2588                           ;incstack = 0
  2589 ;; hardware stack exceeded
  2590                           ; Regs used in _ModeManager_MainFunction: [wreg+status,2+status,0+btemp+1+pclath+cstack]
  2591                           
  2592                           
  2593                           ;WaterHeater_Mode/WaterHeater_Mode.c: 50:    if(Mode.Select_Mode==Setting_Mode)
  2594  0CE0  3002               	movlw	2
  2595  0CE1  1283               	bcf	3,5	;RP0=0, select bank0
  2596  0CE2  1303               	bcf	3,6	;RP1=0, select bank0
  2597  0CE3  0654               	xorwf	_Mode,w
  2598  0CE4  1D03               	btfss	3,2
  2599  0CE5  2CE7               	goto	u5051
  2600  0CE6  2CE8               	goto	u5050
  2601  0CE7                     u5051:
  2602  0CE7  2D24               	goto	l356
  2603  0CE8                     u5050:
  2604  0CE8                     l3695:
  2605                           
  2606                           ;WaterHeater_Mode/WaterHeater_Mode.c: 51:    {;WaterHeater_Mode/WaterHeater_Mode.c: 53: 
      +                              Mode_Setting_Timer(5000);
  2607  0CE8  3088               	movlw	136
  2608  0CE9  00BC               	movwf	Mode_Setting_Timer@Timer_Ms
  2609  0CEA  3013               	movlw	19
  2610  0CEB  00BD               	movwf	Mode_Setting_Timer@Timer_Ms+1
  2611  0CEC  120A  158A  22CC  120A  158A  	fcall	_Mode_Setting_Timer
  2612  0CF1                     l3697:
  2613                           
  2614                           ;WaterHeater_Mode/WaterHeater_Mode.c: 54:     if(Buttons.UpFlag &&!Buttons.DownFlag && T
      +                          emperature.Set_Temp !=(75U))
  2615  0CF1  1283               	bcf	3,5	;RP0=0, select bank0
  2616  0CF2  1303               	bcf	3,6	;RP1=0, select bank0
  2617  0CF3  1C4A               	btfss	_Buttons,0
  2618  0CF4  2CF6               	goto	u5061
  2619  0CF5  2CF7               	goto	u5060
  2620  0CF6                     u5061:
  2621  0CF6  2D0D               	goto	l353
  2622  0CF7                     u5060:
  2623  0CF7                     l3699:
  2624  0CF7  18CA               	btfsc	_Buttons,1
  2625  0CF8  2CFA               	goto	u5071
  2626  0CF9  2CFB               	goto	u5070
  2627  0CFA                     u5071:
  2628  0CFA  2D0D               	goto	l353
  2629  0CFB                     u5070:
  2630  0CFB                     l3701:
  2631  0CFB  304B               	movlw	75
  2632  0CFC  0651               	xorwf	_Temperature+3,w
  2633  0CFD  1903               	btfsc	3,2
  2634  0CFE  2D00               	goto	u5081
  2635  0CFF  2D01               	goto	u5080
  2636  0D00                     u5081:
  2637  0D00  2D0D               	goto	l353
  2638  0D01                     u5080:
  2639  0D01                     l3703:
  2640                           
  2641                           ;WaterHeater_Mode/WaterHeater_Mode.c: 55:      {;WaterHeater_Mode/WaterHeater_Mode.c: 57
      +                          :       Temperature.Set_Temp += (5U);
  2642  0D01  3005               	movlw	5
  2643  0D02  00FF               	movwf	btemp+1
  2644  0D03  087F               	movf	btemp+1,w
  2645  0D04  07D1               	addwf	_Temperature+3,f
  2646  0D05                     l3705:
  2647                           
  2648                           ;WaterHeater_Mode/WaterHeater_Mode.c: 58:           Enable_SSD=Enable_SSD_On;
  2649  0D05  01CC               	clrf	_Enable_SSD
  2650  0D06  0ACC               	incf	_Enable_SSD,f
  2651  0D07                     l3707:
  2652                           
  2653                           ;WaterHeater_Mode/WaterHeater_Mode.c: 59:           Counter =1;
  2654  0D07  01D7               	clrf	_Counter
  2655  0D08  0AD7               	incf	_Counter,f
  2656  0D09                     l3709:
  2657                           
  2658                           ;WaterHeater_Mode/WaterHeater_Mode.c: 60:       Mode.Setting_Mode_Timer=1;
  2659  0D09  01D5               	clrf	_Mode+1
  2660  0D0A  0AD5               	incf	_Mode+1,f
  2661  0D0B                     l3711:
  2662                           
  2663                           ;WaterHeater_Mode/WaterHeater_Mode.c: 61:           Buttons.UpFlag=0;
  2664  0D0B  104A               	bcf	_Buttons,0
  2665                           
  2666                           ;WaterHeater_Mode/WaterHeater_Mode.c: 63:      }
  2667  0D0C  2D24               	goto	l356
  2668  0D0D                     l353:	
  2669                           ;WaterHeater_Mode/WaterHeater_Mode.c: 64:      else if(Buttons.DownFlag &&!Buttons.UpFla
      +                          g&& Temperature.Set_Temp !=(35U))
  2670                           
  2671  0D0D  1CCA               	btfss	_Buttons,1
  2672  0D0E  2D10               	goto	u5091
  2673  0D0F  2D11               	goto	u5090
  2674  0D10                     u5091:
  2675  0D10  2D24               	goto	l356
  2676  0D11                     u5090:
  2677  0D11                     l3713:
  2678  0D11  184A               	btfsc	_Buttons,0
  2679  0D12  2D14               	goto	u5101
  2680  0D13  2D15               	goto	u5100
  2681  0D14                     u5101:
  2682  0D14  2D24               	goto	l356
  2683  0D15                     u5100:
  2684  0D15                     l3715:
  2685  0D15  3023               	movlw	35
  2686  0D16  0651               	xorwf	_Temperature+3,w
  2687  0D17  1903               	btfsc	3,2
  2688  0D18  2D1A               	goto	u5111
  2689  0D19  2D1B               	goto	u5110
  2690  0D1A                     u5111:
  2691  0D1A  2D24               	goto	l356
  2692  0D1B                     u5110:
  2693  0D1B                     l3717:
  2694                           
  2695                           ;WaterHeater_Mode/WaterHeater_Mode.c: 65:      {;WaterHeater_Mode/WaterHeater_Mode.c: 66
      +                          :       Temperature.Set_Temp -= (5U);
  2696  0D1B  3005               	movlw	5
  2697  0D1C  02D1               	subwf	_Temperature+3,f
  2698  0D1D                     l3719:
  2699                           
  2700                           ;WaterHeater_Mode/WaterHeater_Mode.c: 67:           Enable_SSD=Enable_SSD_On;
  2701  0D1D  01CC               	clrf	_Enable_SSD
  2702  0D1E  0ACC               	incf	_Enable_SSD,f
  2703  0D1F                     l3721:
  2704                           
  2705                           ;WaterHeater_Mode/WaterHeater_Mode.c: 68:           Counter =1;
  2706  0D1F  01D7               	clrf	_Counter
  2707  0D20  0AD7               	incf	_Counter,f
  2708  0D21                     l3723:
  2709                           
  2710                           ;WaterHeater_Mode/WaterHeater_Mode.c: 69:       Mode.Setting_Mode_Timer=1;
  2711  0D21  01D5               	clrf	_Mode+1
  2712  0D22  0AD5               	incf	_Mode+1,f
  2713  0D23                     l3725:
  2714                           
  2715                           ;WaterHeater_Mode/WaterHeater_Mode.c: 70:           Buttons.DownFlag=0;
  2716  0D23  10CA               	bcf	_Buttons,1
  2717  0D24                     l356:
  2718  0D24  0008               	return
  2719  0D25                     __end_of_ModeManager_MainFunction:
  2720                           
  2721                           	psect	text10
  2722  0ACC                     __ptext10:	
  2723 ;; *************** function _Mode_Setting_Timer *****************
  2724 ;; Defined at:
  2725 ;;		line 88 in file "WaterHeater_Mode/WaterHeater_Mode.c"
  2726 ;; Parameters:    Size  Location     Type
  2727 ;;  Timer_Ms        2   28[BANK0 ] unsigned int 
  2728 ;; Auto vars:     Size  Location     Type
  2729 ;;		None
  2730 ;; Return value:  Size  Location     Type
  2731 ;;                  1    wreg      void 
  2732 ;; Registers used:
  2733 ;;		wreg, status,2, status,0, btemp+1, pclath, cstack
  2734 ;; Tracked objects:
  2735 ;;		On entry : 0/0
  2736 ;;		On exit  : 0/0
  2737 ;;		Unchanged: 0/0
  2738 ;; Data sizes:     COMMON   BANK0   BANK1   BANK3   BANK2
  2739 ;;      Params:         0       2       0       0       0
  2740 ;;      Locals:         0       0       0       0       0
  2741 ;;      Temps:          0       2       0       0       0
  2742 ;;      Totals:         0       4       0       0       0
  2743 ;;Total ram usage:        4 bytes
  2744 ;; Hardware stack levels used:    1
  2745 ;; Hardware stack levels required when called:    5
  2746 ;; This function calls:
  2747 ;;		___wmul
  2748 ;; This function is called by:
  2749 ;;		_ModeManager_MainFunction
  2750 ;; This function uses a non-reentrant model
  2751 ;;
  2752                           
  2753                           
  2754                           ;psect for function _Mode_Setting_Timer
  2755  0ACC                     _Mode_Setting_Timer:
  2756  0ACC                     l3555:	
  2757                           ;incstack = 0
  2758 ;; hardware stack exceeded
  2759                           ; Regs used in _Mode_Setting_Timer: [wreg+status,2+status,0+btemp+1+pclath+cstack]
  2760                           
  2761                           
  2762                           ;WaterHeater_Mode/WaterHeater_Mode.c: 88: void Mode_Setting_Timer(uint16_t Timer_Ms);Wat
      +                          erHeater_Mode/WaterHeater_Mode.c: 89: {;WaterHeater_Mode/WaterHeater_Mode.c: 90:  if(Mod
      +                          e.Setting_Mode_Timer*500==Timer_Ms)
  2763  0ACC  1283               	bcf	3,5	;RP0=0, select bank0
  2764  0ACD  1303               	bcf	3,6	;RP1=0, select bank0
  2765  0ACE  0855               	movf	_Mode+1,w
  2766  0ACF  00BE               	movwf	??_Mode_Setting_Timer
  2767  0AD0  01BF               	clrf	??_Mode_Setting_Timer+1
  2768  0AD1  083E               	movf	??_Mode_Setting_Timer,w
  2769  0AD2  00B6               	movwf	___wmul@multiplier
  2770  0AD3  083F               	movf	??_Mode_Setting_Timer+1,w
  2771  0AD4  00B7               	movwf	___wmul@multiplier+1
  2772  0AD5  30F4               	movlw	244
  2773  0AD6  00B8               	movwf	___wmul@multiplicand
  2774  0AD7  3001               	movlw	1
  2775  0AD8  00B9               	movwf	___wmul@multiplicand+1
  2776  0AD9  120A  158A  222A  120A  158A  	fcall	___wmul
  2777  0ADE  1283               	bcf	3,5	;RP0=0, select bank0
  2778  0ADF  1303               	bcf	3,6	;RP1=0, select bank0
  2779  0AE0  083D               	movf	Mode_Setting_Timer@Timer_Ms+1,w
  2780  0AE1  0637               	xorwf	?___wmul+1,w
  2781  0AE2  1D03               	skipz
  2782  0AE3  2AE6               	goto	u4785
  2783  0AE4  083C               	movf	Mode_Setting_Timer@Timer_Ms,w
  2784  0AE5  0636               	xorwf	?___wmul,w
  2785  0AE6                     u4785:
  2786  0AE6  1D03               	skipz
  2787  0AE7  2AE9               	goto	u4781
  2788  0AE8  2AEA               	goto	u4780
  2789  0AE9                     u4781:
  2790  0AE9  2AF2               	goto	l3559
  2791  0AEA                     u4780:
  2792  0AEA                     l3557:
  2793                           
  2794                           ;WaterHeater_Mode/WaterHeater_Mode.c: 91:  {;WaterHeater_Mode/WaterHeater_Mode.c: 92:   
      +                          Temperature.Store_Set_Temp_Flag=1;
  2795  0AEA  14D2               	bsf	_Temperature+4,1
  2796                           
  2797                           ;WaterHeater_Mode/WaterHeater_Mode.c: 93:   Mode.Select_Mode=Normal_Mode;
  2798  0AEB  01D4               	clrf	_Mode
  2799  0AEC  0AD4               	incf	_Mode,f
  2800                           
  2801                           ;WaterHeater_Mode/WaterHeater_Mode.c: 94:   Mode.Setting_Mode_Timer=1;
  2802  0AED  01D5               	clrf	_Mode+1
  2803  0AEE  0AD5               	incf	_Mode+1,f
  2804                           
  2805                           ;WaterHeater_Mode/WaterHeater_Mode.c: 95:         Buttons.UpFlag=0;
  2806  0AEF  104A               	bcf	_Buttons,0
  2807                           
  2808                           ;WaterHeater_Mode/WaterHeater_Mode.c: 96:         Buttons.DownFlag=0;
  2809  0AF0  10CA               	bcf	_Buttons,1
  2810                           
  2811                           ;WaterHeater_Mode/WaterHeater_Mode.c: 98:  }
  2812  0AF1  2AF6               	goto	l361
  2813  0AF2                     l3559:
  2814                           
  2815                           ;WaterHeater_Mode/WaterHeater_Mode.c: 100:  {;WaterHeater_Mode/WaterHeater_Mode.c: 101: 
      +                            Mode.Setting_Mode_Timer++;
  2816  0AF2  3001               	movlw	1
  2817  0AF3  00FF               	movwf	btemp+1
  2818  0AF4  087F               	movf	btemp+1,w
  2819  0AF5  07D5               	addwf	_Mode+1,f
  2820  0AF6                     l361:
  2821  0AF6  0008               	return
  2822  0AF7                     __end_of_Mode_Setting_Timer:
  2823                           
  2824                           	psect	text11
  2825  0961                     __ptext11:	
  2826 ;; *************** function _Temperature_MainFunction *****************
  2827 ;; Defined at:
  2828 ;;		line 24 in file "Temperature/Temperature.c"
  2829 ;; Parameters:    Size  Location     Type
  2830 ;;		None
  2831 ;; Auto vars:     Size  Location     Type
  2832 ;;		None
  2833 ;; Return value:  Size  Location     Type
  2834 ;;                  1    wreg      void 
  2835 ;; Registers used:
  2836 ;;		wreg, fsr0l, fsr0h, status,2, status,0, btemp+1, pclath, cstack
  2837 ;; Tracked objects:
  2838 ;;		On entry : 0/0
  2839 ;;		On exit  : 0/0
  2840 ;;		Unchanged: 0/0
  2841 ;; Data sizes:     COMMON   BANK0   BANK1   BANK3   BANK2
  2842 ;;      Params:         0       0       0       0       0
  2843 ;;      Locals:         0       0       0       0       0
  2844 ;;      Temps:          0       0       0       0       0
  2845 ;;      Totals:         0       0       0       0       0
  2846 ;;Total ram usage:        0 bytes
  2847 ;; Hardware stack levels used:    1
  2848 ;; Hardware stack levels required when called:    7
  2849 ;; This function calls:
  2850 ;;		_ADC_Get_Value
  2851 ;;		_Temperature_Calc
  2852 ;; This function is called by:
  2853 ;;		_Scheduler_Task2
  2854 ;; This function uses a non-reentrant model
  2855 ;;
  2856                           
  2857                           
  2858                           ;psect for function _Temperature_MainFunction
  2859  0961                     _Temperature_MainFunction:
  2860  0961                     l3689:	
  2861                           ;incstack = 0
  2862 ;; hardware stack exceeded
  2863                           ; Regs used in _Temperature_MainFunction: [wreg-fsr0h+status,2+status,0+btemp+1+pclath+c
      +                          stack]
  2864                           
  2865                           
  2866                           ;Temperature/Temperature.c: 26:   if(Mode.Select_Mode==Normal_Mode)
  2867  0961  1283               	bcf	3,5	;RP0=0, select bank0
  2868  0962  1303               	bcf	3,6	;RP1=0, select bank0
  2869  0963  0354               	decf	_Mode,w
  2870  0964  1D03               	btfss	3,2
  2871  0965  2967               	goto	u5041
  2872  0966  2968               	goto	u5040
  2873  0967                     u5041:
  2874  0967  296E               	goto	l311
  2875  0968                     u5040:
  2876  0968                     l3691:
  2877                           
  2878                           ;Temperature/Temperature.c: 27:   {;Temperature/Temperature.c: 28:    ADC_Get_Value(&Tem
      +                          perature.ADC_Value);
  2879  0968  3050               	movlw	(low ((_Temperature| 0+2)))& (0+255)
  2880  0969  120A  158A  21B7  120A  158A  	fcall	_ADC_Get_Value
  2881  096E                     l311:	
  2882                           ;Temperature/Temperature.c: 29:   }
  2883                           
  2884                           
  2885                           ;Temperature/Temperature.c: 30:   Temperature_Calc();
  2886  096E  120A  118A  257E  120A  158A  	fcall	_Temperature_Calc
  2887  0973                     l312:
  2888  0973  0008               	return
  2889  0974                     __end_of_Temperature_MainFunction:
  2890                           
  2891                           	psect	text12
  2892  057E                     __ptext12:	
  2893 ;; *************** function _Temperature_Calc *****************
  2894 ;; Defined at:
  2895 ;;		line 45 in file "Temperature/Temperature.c"
  2896 ;; Parameters:    Size  Location     Type
  2897 ;;		None
  2898 ;; Auto vars:     Size  Location     Type
  2899 ;;		None
  2900 ;; Return value:  Size  Location     Type
  2901 ;;                  1    wreg      void 
  2902 ;; Registers used:
  2903 ;;		wreg, fsr0l, fsr0h, status,2, status,0, btemp+1, pclath, cstack
  2904 ;; Tracked objects:
  2905 ;;		On entry : 0/0
  2906 ;;		On exit  : 0/0
  2907 ;;		Unchanged: 0/0
  2908 ;; Data sizes:     COMMON   BANK0   BANK1   BANK3   BANK2
  2909 ;;      Params:         0       0       0       0       0
  2910 ;;      Locals:         0       0       0       0       0
  2911 ;;      Temps:          0       0       0       4       0
  2912 ;;      Totals:         0       0       0       4       0
  2913 ;;Total ram usage:        4 bytes
  2914 ;; Hardware stack levels used:    1
  2915 ;; Hardware stack levels required when called:    6
  2916 ;; This function calls:
  2917 ;;		_Average_Value
  2918 ;;		___flmul
  2919 ;;		___fltol
  2920 ;;		___lwmod
  2921 ;;		___xxtofl
  2922 ;; This function is called by:
  2923 ;;		_Temperature_MainFunction
  2924 ;; This function uses a non-reentrant model
  2925 ;;
  2926                           
  2927                           
  2928                           ;psect for function _Temperature_Calc
  2929  057E                     _Temperature_Calc:
  2930  057E                     l3545:	
  2931                           ;incstack = 0
  2932 ;; hardware stack exceeded
  2933                           ; Regs used in _Temperature_Calc: [wreg-fsr0h+status,2+status,0+btemp+1+pclath+cstack]
  2934                           
  2935                           
  2936                           ;Temperature/Temperature.c: 47:  Temperature.Temp_Value=Temperature.ADC_Value * 0.4882;
  2937  057E  1283               	bcf	3,5	;RP0=0, select bank0
  2938  057F  1303               	bcf	3,6	;RP1=0, select bank0
  2939  0580  0850               	movf	_Temperature+2,w
  2940  0581  1683               	bsf	3,5	;RP0=1, select bank3
  2941  0582  1703               	bsf	3,6	;RP1=1, select bank3
  2942  0583  0098               	movwf	??_Temperature_Calc^(0+384)
  2943  0584  0199               	clrf	(??_Temperature_Calc^(0+384)+1)
  2944  0585  019A               	clrf	(??_Temperature_Calc^(0+384)+2)
  2945  0586  019B               	clrf	(??_Temperature_Calc^(0+384)+3)
  2946  0587  081B               	movf	(??_Temperature_Calc+3)^(0+384),w
  2947  0588  1283               	bcf	3,5	;RP0=0, select bank0
  2948  0589  1303               	bcf	3,6	;RP1=0, select bank0
  2949  058A  00B9               	movwf	___xxtofl@val+3
  2950  058B  1683               	bsf	3,5	;RP0=1, select bank3
  2951  058C  1703               	bsf	3,6	;RP1=1, select bank3
  2952  058D  081A               	movf	(??_Temperature_Calc+2)^(0+384),w
  2953  058E  1283               	bcf	3,5	;RP0=0, select bank0
  2954  058F  1303               	bcf	3,6	;RP1=0, select bank0
  2955  0590  00B8               	movwf	___xxtofl@val+2
  2956  0591  1683               	bsf	3,5	;RP0=1, select bank3
  2957  0592  1703               	bsf	3,6	;RP1=1, select bank3
  2958  0593  0819               	movf	(??_Temperature_Calc+1)^(0+384),w
  2959  0594  1283               	bcf	3,5	;RP0=0, select bank0
  2960  0595  1303               	bcf	3,6	;RP1=0, select bank0
  2961  0596  00B7               	movwf	___xxtofl@val+1
  2962  0597  1683               	bsf	3,5	;RP0=1, select bank3
  2963  0598  1703               	bsf	3,6	;RP1=1, select bank3
  2964  0599  0818               	movf	??_Temperature_Calc^(0+384),w
  2965  059A  1283               	bcf	3,5	;RP0=0, select bank0
  2966  059B  1303               	bcf	3,6	;RP1=0, select bank0
  2967  059C  00B6               	movwf	___xxtofl@val
  2968  059D  3001               	movlw	1
  2969  059E  120A  118A  241A  120A  118A  	fcall	___xxtofl
  2970  05A3  1283               	bcf	3,5	;RP0=0, select bank0
  2971  05A4  1303               	bcf	3,6	;RP1=0, select bank0
  2972  05A5  0839               	movf	?___xxtofl+3,w
  2973  05A6  1683               	bsf	3,5	;RP0=1, select bank1
  2974  05A7  1303               	bcf	3,6	;RP1=0, select bank1
  2975  05A8  00DA               	movwf	(___flmul@a+3)^(0+128)
  2976  05A9  1283               	bcf	3,5	;RP0=0, select bank0
  2977  05AA  1303               	bcf	3,6	;RP1=0, select bank0
  2978  05AB  0838               	movf	?___xxtofl+2,w
  2979  05AC  1683               	bsf	3,5	;RP0=1, select bank1
  2980  05AD  1303               	bcf	3,6	;RP1=0, select bank1
  2981  05AE  00D9               	movwf	(___flmul@a+2)^(0+128)
  2982  05AF  1283               	bcf	3,5	;RP0=0, select bank0
  2983  05B0  1303               	bcf	3,6	;RP1=0, select bank0
  2984  05B1  0837               	movf	?___xxtofl+1,w
  2985  05B2  1683               	bsf	3,5	;RP0=1, select bank1
  2986  05B3  1303               	bcf	3,6	;RP1=0, select bank1
  2987  05B4  00D8               	movwf	(___flmul@a+1)^(0+128)
  2988  05B5  1283               	bcf	3,5	;RP0=0, select bank0
  2989  05B6  1303               	bcf	3,6	;RP1=0, select bank0
  2990  05B7  0836               	movf	?___xxtofl,w
  2991  05B8  1683               	bsf	3,5	;RP0=1, select bank1
  2992  05B9  1303               	bcf	3,6	;RP1=0, select bank1
  2993  05BA  00D7               	movwf	___flmul@a^(0+128)
  2994  05BB  303E               	movlw	62
  2995  05BC  00D6               	movwf	(___flmul@b+3)^(0+128)
  2996  05BD  30F9               	movlw	249
  2997  05BE  00D5               	movwf	(___flmul@b+2)^(0+128)
  2998  05BF  30F5               	movlw	245
  2999  05C0  00D4               	movwf	(___flmul@b+1)^(0+128)
  3000  05C1  305A               	movlw	90
  3001  05C2  00D3               	movwf	___flmul@b^(0+128)
  3002  05C3  120A  118A  205F  120A  118A  	fcall	___flmul
  3003  05C8  1683               	bsf	3,5	;RP0=1, select bank1
  3004  05C9  1303               	bcf	3,6	;RP1=0, select bank1
  3005  05CA  0856               	movf	(?___flmul+3)^(0+128),w
  3006  05CB  1683               	bsf	3,5	;RP0=1, select bank3
  3007  05CC  1703               	bsf	3,6	;RP1=1, select bank3
  3008  05CD  0093               	movwf	(___fltol@f1+3)^(0+384)
  3009  05CE  1683               	bsf	3,5	;RP0=1, select bank1
  3010  05CF  1303               	bcf	3,6	;RP1=0, select bank1
  3011  05D0  0855               	movf	(?___flmul+2)^(0+128),w
  3012  05D1  1683               	bsf	3,5	;RP0=1, select bank3
  3013  05D2  1703               	bsf	3,6	;RP1=1, select bank3
  3014  05D3  0092               	movwf	(___fltol@f1+2)^(0+384)
  3015  05D4  1683               	bsf	3,5	;RP0=1, select bank1
  3016  05D5  1303               	bcf	3,6	;RP1=0, select bank1
  3017  05D6  0854               	movf	(?___flmul+1)^(0+128),w
  3018  05D7  1683               	bsf	3,5	;RP0=1, select bank3
  3019  05D8  1703               	bsf	3,6	;RP1=1, select bank3
  3020  05D9  0091               	movwf	(___fltol@f1+1)^(0+384)
  3021  05DA  1683               	bsf	3,5	;RP0=1, select bank1
  3022  05DB  1303               	bcf	3,6	;RP1=0, select bank1
  3023  05DC  0853               	movf	?___flmul^(0+128),w
  3024  05DD  1683               	bsf	3,5	;RP0=1, select bank3
  3025  05DE  1703               	bsf	3,6	;RP1=1, select bank3
  3026  05DF  0090               	movwf	___fltol@f1^(0+384)
  3027  05E0  120A  118A  261B  120A  118A  	fcall	___fltol
  3028  05E5  1683               	bsf	3,5	;RP0=1, select bank3
  3029  05E6  1703               	bsf	3,6	;RP1=1, select bank3
  3030  05E7  0810               	movf	?___fltol^(0+384),w
  3031  05E8  00FF               	movwf	btemp+1
  3032  05E9  087F               	movf	btemp+1,w
  3033  05EA  1283               	bcf	3,5	;RP0=0, select bank0
  3034  05EB  1303               	bcf	3,6	;RP1=0, select bank0
  3035  05EC  00CE               	movwf	_Temperature
  3036  05ED                     l3547:
  3037                           
  3038                           ;Temperature/Temperature.c: 48:  Average_Value(Temperature.Temp_Value, &Temperature.Aver
      +                          age_Value);
  3039  05ED  304F               	movlw	(low ((_Temperature| 0+1)))& (0+255)
  3040  05EE  00FF               	movwf	btemp+1
  3041  05EF  087F               	movf	btemp+1,w
  3042  05F0  1683               	bsf	3,5	;RP0=1, select bank1
  3043  05F1  1303               	bcf	3,6	;RP1=0, select bank1
  3044  05F2  00D3               	movwf	Average_Value@Avrage_Values^(0+128)
  3045  05F3  1283               	bcf	3,5	;RP0=0, select bank0
  3046  05F4  1303               	bcf	3,6	;RP1=0, select bank0
  3047  05F5  084E               	movf	_Temperature,w
  3048  05F6  120A  118A  24D6  120A  118A  	fcall	_Average_Value
  3049  05FB                     l3549:
  3050                           
  3051                           ;Temperature/Temperature.c: 49:  Temperature.Average_NValues=(Temperature.Average_NValue
      +                          s+1)%10U;
  3052  05FB  300A               	movlw	10
  3053  05FC  1283               	bcf	3,5	;RP0=0, select bank0
  3054  05FD  1303               	bcf	3,6	;RP1=0, select bank0
  3055  05FE  00B6               	movwf	___lwmod@divisor
  3056  05FF  3000               	movlw	0
  3057  0600  00B7               	movwf	___lwmod@divisor+1
  3058  0601  0853               	movf	_Temperature+5,w
  3059  0602  3E01               	addlw	1
  3060  0603  00B8               	movwf	___lwmod@dividend
  3061  0604  3000               	movlw	0
  3062  0605  1803               	skipnc
  3063  0606  3001               	movlw	1
  3064  0607  00B9               	movwf	___lwmod@dividend+1
  3065  0608  120A  158A  2465  120A  118A  	fcall	___lwmod
  3066  060D  1283               	bcf	3,5	;RP0=0, select bank0
  3067  060E  1303               	bcf	3,6	;RP1=0, select bank0
  3068  060F  0836               	movf	?___lwmod,w
  3069  0610  00FF               	movwf	btemp+1
  3070  0611  087F               	movf	btemp+1,w
  3071  0612  00D3               	movwf	_Temperature+5
  3072  0613                     l3551:
  3073                           
  3074                           ;Temperature/Temperature.c: 51:  if(Temperature.Average_NValues==9)
  3075  0613  3009               	movlw	9
  3076  0614  0653               	xorwf	_Temperature+5,w
  3077  0615  1D03               	btfss	3,2
  3078  0616  2E18               	goto	u4771
  3079  0617  2E19               	goto	u4770
  3080  0618                     u4771:
  3081  0618  2E1A               	goto	l316
  3082  0619                     u4770:
  3083  0619                     l3553:
  3084                           
  3085                           ;Temperature/Temperature.c: 52:  {;Temperature/Temperature.c: 53:        Temperature.Ave
      +                          rage_Value_Ready_Flag=1;
  3086  0619  1452               	bsf	_Temperature+4,0
  3087  061A                     l316:
  3088  061A  0008               	return
  3089  061B                     __end_of_Temperature_Calc:
  3090                           
  3091                           	psect	text13
  3092  041A                     __ptext13:	
  3093 ;; *************** function ___xxtofl *****************
  3094 ;; Defined at:
  3095 ;;		line 10 in file "C:\Program Files (x86)\Microchip\xc8\v2.20\pic\sources\c90\common\xxtofl.c"
  3096 ;; Parameters:    Size  Location     Type
  3097 ;;  sign            1    wreg     unsigned char 
  3098 ;;  val             4   22[BANK0 ] long 
  3099 ;; Auto vars:     Size  Location     Type
  3100 ;;  sign            1   30[BANK0 ] unsigned char 
  3101 ;;  arg             4   32[BANK0 ] unsigned long 
  3102 ;;  exp             1   31[BANK0 ] unsigned char 
  3103 ;; Return value:  Size  Location     Type
  3104 ;;                  4   22[BANK0 ] unsigned char 
  3105 ;; Registers used:
  3106 ;;		wreg, status,2, status,0, btemp+1
  3107 ;; Tracked objects:
  3108 ;;		On entry : 0/0
  3109 ;;		On exit  : 0/0
  3110 ;;		Unchanged: 0/0
  3111 ;; Data sizes:     COMMON   BANK0   BANK1   BANK3   BANK2
  3112 ;;      Params:         0       4       0       0       0
  3113 ;;      Locals:         0       6       0       0       0
  3114 ;;      Temps:          0       4       0       0       0
  3115 ;;      Totals:         0      14       0       0       0
  3116 ;;Total ram usage:       14 bytes
  3117 ;; Hardware stack levels used:    1
  3118 ;; Hardware stack levels required when called:    4
  3119 ;; This function calls:
  3120 ;;		Nothing
  3121 ;; This function is called by:
  3122 ;;		_Temperature_Calc
  3123 ;; This function uses a non-reentrant model
  3124 ;;
  3125                           
  3126                           
  3127                           ;psect for function ___xxtofl
  3128  041A                     ___xxtofl:
  3129                           
  3130                           ;incstack = 0
  3131 ;; hardware stack exceeded
  3132                           ; Regs used in ___xxtofl: [wreg+status,2+status,0+btemp+1]
  3133                           ;___xxtofl@sign stored from wreg
  3134  041A  1283               	bcf	3,5	;RP0=0, select bank0
  3135  041B  1303               	bcf	3,6	;RP1=0, select bank0
  3136  041C  00BE               	movwf	___xxtofl@sign
  3137  041D                     l3475:
  3138  041D  083E               	movf	___xxtofl@sign,w
  3139  041E  1903               	btfsc	3,2
  3140  041F  2C21               	goto	u4611
  3141  0420  2C22               	goto	u4610
  3142  0421                     u4611:
  3143  0421  2C36               	goto	l3481
  3144  0422                     u4610:
  3145  0422                     l3477:
  3146  0422  1FB9               	btfss	___xxtofl@val+3,7
  3147  0423  2C25               	goto	u4621
  3148  0424  2C26               	goto	u4620
  3149  0425                     u4621:
  3150  0425  2C36               	goto	l3481
  3151  0426                     u4620:
  3152  0426                     l3479:
  3153  0426  0936               	comf	___xxtofl@val,w
  3154  0427  00C0               	movwf	___xxtofl@arg
  3155  0428  0937               	comf	___xxtofl@val+1,w
  3156  0429  00C1               	movwf	___xxtofl@arg+1
  3157  042A  0938               	comf	___xxtofl@val+2,w
  3158  042B  00C2               	movwf	___xxtofl@arg+2
  3159  042C  0939               	comf	___xxtofl@val+3,w
  3160  042D  00C3               	movwf	___xxtofl@arg+3
  3161  042E  0AC0               	incf	___xxtofl@arg,f
  3162  042F  1903               	skipnz
  3163  0430  0AC1               	incf	___xxtofl@arg+1,f
  3164  0431  1903               	skipnz
  3165  0432  0AC2               	incf	___xxtofl@arg+2,f
  3166  0433  1903               	skipnz
  3167  0434  0AC3               	incf	___xxtofl@arg+3,f
  3168  0435  2C3E               	goto	l1056
  3169  0436                     l3481:
  3170  0436  0839               	movf	___xxtofl@val+3,w
  3171  0437  00C3               	movwf	___xxtofl@arg+3
  3172  0438  0838               	movf	___xxtofl@val+2,w
  3173  0439  00C2               	movwf	___xxtofl@arg+2
  3174  043A  0837               	movf	___xxtofl@val+1,w
  3175  043B  00C1               	movwf	___xxtofl@arg+1
  3176  043C  0836               	movf	___xxtofl@val,w
  3177  043D  00C0               	movwf	___xxtofl@arg
  3178  043E                     l1056:
  3179  043E  0839               	movf	___xxtofl@val+3,w
  3180  043F  0438               	iorwf	___xxtofl@val+2,w
  3181  0440  0437               	iorwf	___xxtofl@val+1,w
  3182  0441  0436               	iorwf	___xxtofl@val,w
  3183  0442  1D03               	skipz
  3184  0443  2C45               	goto	u4631
  3185  0444  2C46               	goto	u4630
  3186  0445                     u4631:
  3187  0445  2C4F               	goto	l3487
  3188  0446                     u4630:
  3189  0446                     l3483:
  3190  0446  3000               	movlw	0
  3191  0447  00B9               	movwf	?___xxtofl+3
  3192  0448  3000               	movlw	0
  3193  0449  00B8               	movwf	?___xxtofl+2
  3194  044A  3000               	movlw	0
  3195  044B  00B7               	movwf	?___xxtofl+1
  3196  044C  3000               	movlw	0
  3197  044D  00B6               	movwf	?___xxtofl
  3198  044E  2CD5               	goto	l1058
  3199  044F                     l3487:
  3200  044F  3096               	movlw	150
  3201  0450  00FF               	movwf	btemp+1
  3202  0451  087F               	movf	btemp+1,w
  3203  0452  00BF               	movwf	___xxtofl@exp
  3204  0453  2C61               	goto	l3493
  3205  0454                     l3489:
  3206  0454  3001               	movlw	1
  3207  0455  00FF               	movwf	btemp+1
  3208  0456  087F               	movf	btemp+1,w
  3209  0457  07BF               	addwf	___xxtofl@exp,f
  3210  0458                     l3491:
  3211  0458  3001               	movlw	1
  3212  0459                     u4645:
  3213  0459  1003               	clrc
  3214  045A  0CC3               	rrf	___xxtofl@arg+3,f
  3215  045B  0CC2               	rrf	___xxtofl@arg+2,f
  3216  045C  0CC1               	rrf	___xxtofl@arg+1,f
  3217  045D  0CC0               	rrf	___xxtofl@arg,f
  3218  045E  3EFF               	addlw	-1
  3219  045F  1D03               	skipz
  3220  0460  2C59               	goto	u4645
  3221  0461                     l3493:
  3222  0461  30FE               	movlw	254
  3223  0462  0543               	andwf	___xxtofl@arg+3,w
  3224  0463  1D03               	btfss	3,2
  3225  0464  2C66               	goto	u4651
  3226  0465  2C67               	goto	u4650
  3227  0466                     u4651:
  3228  0466  2C54               	goto	l3489
  3229  0467                     u4650:
  3230  0467  2C83               	goto	l3501
  3231  0468                     l3495:
  3232  0468  3001               	movlw	1
  3233  0469  00FF               	movwf	btemp+1
  3234  046A  087F               	movf	btemp+1,w
  3235  046B  07BF               	addwf	___xxtofl@exp,f
  3236  046C                     l3497:
  3237  046C  3001               	movlw	1
  3238  046D  07C0               	addwf	___xxtofl@arg,f
  3239  046E  3000               	movlw	0
  3240  046F  1803               	skipnc
  3241  0470  3001               	movlw	1
  3242  0471  07C1               	addwf	___xxtofl@arg+1,f
  3243  0472  3000               	movlw	0
  3244  0473  1803               	skipnc
  3245  0474  3001               	movlw	1
  3246  0475  07C2               	addwf	___xxtofl@arg+2,f
  3247  0476  3000               	movlw	0
  3248  0477  1803               	skipnc
  3249  0478  3001               	movlw	1
  3250  0479  07C3               	addwf	___xxtofl@arg+3,f
  3251  047A                     l3499:
  3252  047A  3001               	movlw	1
  3253  047B                     u4665:
  3254  047B  1003               	clrc
  3255  047C  0CC3               	rrf	___xxtofl@arg+3,f
  3256  047D  0CC2               	rrf	___xxtofl@arg+2,f
  3257  047E  0CC1               	rrf	___xxtofl@arg+1,f
  3258  047F  0CC0               	rrf	___xxtofl@arg,f
  3259  0480  3EFF               	addlw	-1
  3260  0481  1D03               	skipz
  3261  0482  2C7B               	goto	u4665
  3262  0483                     l3501:
  3263  0483  30FF               	movlw	255
  3264  0484  0543               	andwf	___xxtofl@arg+3,w
  3265  0485  1D03               	btfss	3,2
  3266  0486  2C88               	goto	u4671
  3267  0487  2C89               	goto	u4670
  3268  0488                     u4671:
  3269  0488  2C68               	goto	l3495
  3270  0489                     u4670:
  3271  0489  2C95               	goto	l3505
  3272  048A                     l3503:
  3273  048A  3001               	movlw	1
  3274  048B  02BF               	subwf	___xxtofl@exp,f
  3275  048C  3001               	movlw	1
  3276  048D  00BA               	movwf	??___xxtofl
  3277  048E                     u4685:
  3278  048E  1003               	clrc
  3279  048F  0DC0               	rlf	___xxtofl@arg,f
  3280  0490  0DC1               	rlf	___xxtofl@arg+1,f
  3281  0491  0DC2               	rlf	___xxtofl@arg+2,f
  3282  0492  0DC3               	rlf	___xxtofl@arg+3,f
  3283  0493  0BBA               	decfsz	??___xxtofl,f
  3284  0494  2C8E               	goto	u4685
  3285  0495                     l3505:
  3286  0495  1BC2               	btfsc	___xxtofl@arg+2,7
  3287  0496  2C98               	goto	u4691
  3288  0497  2C99               	goto	u4690
  3289  0498                     u4691:
  3290  0498  2C9F               	goto	l1069
  3291  0499                     u4690:
  3292  0499                     l3507:
  3293  0499  3002               	movlw	2
  3294  049A  023F               	subwf	___xxtofl@exp,w
  3295  049B  1803               	skipnc
  3296  049C  2C9E               	goto	u4701
  3297  049D  2C9F               	goto	u4700
  3298  049E                     u4701:
  3299  049E  2C8A               	goto	l3503
  3300  049F                     u4700:
  3301  049F                     l1069:
  3302  049F  183F               	btfsc	___xxtofl@exp,0
  3303  04A0  2CA2               	goto	u4711
  3304  04A1  2CA3               	goto	u4710
  3305  04A2                     u4711:
  3306  04A2  2CAB               	goto	l1070
  3307  04A3                     u4710:
  3308  04A3                     l3509:
  3309  04A3  30FF               	movlw	255
  3310  04A4  05C0               	andwf	___xxtofl@arg,f
  3311  04A5  30FF               	movlw	255
  3312  04A6  05C1               	andwf	___xxtofl@arg+1,f
  3313  04A7  307F               	movlw	127
  3314  04A8  05C2               	andwf	___xxtofl@arg+2,f
  3315  04A9  30FF               	movlw	255
  3316  04AA  05C3               	andwf	___xxtofl@arg+3,f
  3317  04AB                     l1070:
  3318  04AB  1003               	clrc
  3319  04AC  0CBF               	rrf	___xxtofl@exp,f
  3320  04AD                     l3511:
  3321  04AD  083F               	movf	___xxtofl@exp,w
  3322  04AE  00BA               	movwf	??___xxtofl
  3323  04AF  01BB               	clrf	??___xxtofl+1
  3324  04B0  01BC               	clrf	??___xxtofl+2
  3325  04B1  01BD               	clrf	??___xxtofl+3
  3326  04B2  3018               	movlw	24
  3327  04B3                     u4725:
  3328  04B3  1003               	clrc
  3329  04B4  0DBA               	rlf	??___xxtofl,f
  3330  04B5  0DBB               	rlf	??___xxtofl+1,f
  3331  04B6  0DBC               	rlf	??___xxtofl+2,f
  3332  04B7  0DBD               	rlf	??___xxtofl+3,f
  3333  04B8                     u4720:
  3334  04B8  3EFF               	addlw	-1
  3335  04B9  1D03               	skipz
  3336  04BA  2CB3               	goto	u4725
  3337  04BB  083A               	movf	??___xxtofl,w
  3338  04BC  04C0               	iorwf	___xxtofl@arg,f
  3339  04BD  083B               	movf	??___xxtofl+1,w
  3340  04BE  04C1               	iorwf	___xxtofl@arg+1,f
  3341  04BF  083C               	movf	??___xxtofl+2,w
  3342  04C0  04C2               	iorwf	___xxtofl@arg+2,f
  3343  04C1  083D               	movf	??___xxtofl+3,w
  3344  04C2  04C3               	iorwf	___xxtofl@arg+3,f
  3345  04C3                     l3513:
  3346  04C3  083E               	movf	___xxtofl@sign,w
  3347  04C4  1903               	btfsc	3,2
  3348  04C5  2CC7               	goto	u4731
  3349  04C6  2CC8               	goto	u4730
  3350  04C7                     u4731:
  3351  04C7  2CCD               	goto	l3519
  3352  04C8                     u4730:
  3353  04C8                     l3515:
  3354  04C8  1FB9               	btfss	___xxtofl@val+3,7
  3355  04C9  2CCB               	goto	u4741
  3356  04CA  2CCC               	goto	u4740
  3357  04CB                     u4741:
  3358  04CB  2CCD               	goto	l3519
  3359  04CC                     u4740:
  3360  04CC                     l3517:
  3361  04CC  17C3               	bsf	___xxtofl@arg+3,7
  3362  04CD                     l3519:
  3363  04CD  0843               	movf	___xxtofl@arg+3,w
  3364  04CE  00B9               	movwf	?___xxtofl+3
  3365  04CF  0842               	movf	___xxtofl@arg+2,w
  3366  04D0  00B8               	movwf	?___xxtofl+2
  3367  04D1  0841               	movf	___xxtofl@arg+1,w
  3368  04D2  00B7               	movwf	?___xxtofl+1
  3369  04D3  0840               	movf	___xxtofl@arg,w
  3370  04D4  00B6               	movwf	?___xxtofl
  3371  04D5                     l1058:
  3372  04D5  0008               	return
  3373  04D6                     __end_of___xxtofl:
  3374                           
  3375                           	psect	text14
  3376  061B                     __ptext14:	
  3377 ;; *************** function ___fltol *****************
  3378 ;; Defined at:
  3379 ;;		line 43 in file "C:\Program Files (x86)\Microchip\xc8\v2.20\pic\sources\c90\common\fltol.c"
  3380 ;; Parameters:    Size  Location     Type
  3381 ;;  f1              4    0[BANK3 ] unsigned char 
  3382 ;; Auto vars:     Size  Location     Type
  3383 ;;  exp1            1   27[BANK1 ] unsigned char 
  3384 ;;  sign1           1   26[BANK1 ] unsigned char 
  3385 ;; Return value:  Size  Location     Type
  3386 ;;                  4    0[BANK3 ] long 
  3387 ;; Registers used:
  3388 ;;		wreg, status,2, status,0, btemp+1
  3389 ;; Tracked objects:
  3390 ;;		On entry : 0/0
  3391 ;;		On exit  : 0/0
  3392 ;;		Unchanged: 0/0
  3393 ;; Data sizes:     COMMON   BANK0   BANK1   BANK3   BANK2
  3394 ;;      Params:         0       0       0       4       0
  3395 ;;      Locals:         0       0       2       0       0
  3396 ;;      Temps:          0       0       0       4       0
  3397 ;;      Totals:         0       0       2       8       0
  3398 ;;Total ram usage:       10 bytes
  3399 ;; Hardware stack levels used:    1
  3400 ;; Hardware stack levels required when called:    4
  3401 ;; This function calls:
  3402 ;;		Nothing
  3403 ;; This function is called by:
  3404 ;;		_Temperature_Calc
  3405 ;; This function uses a non-reentrant model
  3406 ;;
  3407                           
  3408                           
  3409                           ;psect for function ___fltol
  3410  061B                     ___fltol:
  3411  061B                     l3295:	
  3412                           ;incstack = 0
  3413 ;; hardware stack exceeded
  3414                           ; Regs used in ___fltol: [wreg+status,2+status,0+btemp+1]
  3415                           
  3416  061B  1003               	clrc
  3417  061C  1683               	bsf	3,5	;RP0=1, select bank3
  3418  061D  1703               	bsf	3,6	;RP1=1, select bank3
  3419  061E  0D12               	rlf	(___fltol@f1+2)^(0+384),w
  3420  061F  0D13               	rlf	(___fltol@f1+3)^(0+384),w
  3421  0620  00FF               	movwf	btemp+1
  3422  0621  087F               	movf	btemp+1,w
  3423  0622  1683               	bsf	3,5	;RP0=1, select bank1
  3424  0623  1303               	bcf	3,6	;RP1=0, select bank1
  3425  0624  00EE               	movwf	___fltol@exp1^(0+128)
  3426  0625  086E               	movf	___fltol@exp1^(0+128),w
  3427  0626  1D03               	btfss	3,2
  3428  0627  2E29               	goto	u4141
  3429  0628  2E2A               	goto	u4140
  3430  0629                     u4141:
  3431  0629  2E35               	goto	l3301
  3432  062A                     u4140:
  3433  062A                     l3297:
  3434  062A  3000               	movlw	0
  3435  062B  1683               	bsf	3,5	;RP0=1, select bank3
  3436  062C  1703               	bsf	3,6	;RP1=1, select bank3
  3437  062D  0093               	movwf	(?___fltol+3)^(0+384)
  3438  062E  3000               	movlw	0
  3439  062F  0092               	movwf	(?___fltol+2)^(0+384)
  3440  0630  3000               	movlw	0
  3441  0631  0091               	movwf	(?___fltol+1)^(0+384)
  3442  0632  3000               	movlw	0
  3443  0633  0090               	movwf	?___fltol^(0+384)
  3444  0634  2EAC               	goto	l809
  3445  0635                     l3301:
  3446  0635  1683               	bsf	3,5	;RP0=1, select bank3
  3447  0636  1703               	bsf	3,6	;RP1=1, select bank3
  3448  0637  0810               	movf	___fltol@f1^(0+384),w
  3449  0638  0094               	movwf	??___fltol^(0+384)
  3450  0639  0811               	movf	(___fltol@f1+1)^(0+384),w
  3451  063A  0095               	movwf	(??___fltol^(0+384)+1)
  3452  063B  0812               	movf	(___fltol@f1+2)^(0+384),w
  3453  063C  0096               	movwf	(??___fltol^(0+384)+2)
  3454  063D  0813               	movf	(___fltol@f1+3)^(0+384),w
  3455  063E  0097               	movwf	(??___fltol^(0+384)+3)
  3456  063F  301F               	movlw	31
  3457  0640                     u4155:
  3458  0640  1003               	clrc
  3459  0641  0C97               	rrf	(??___fltol^(0+384)+3),f
  3460  0642  0C96               	rrf	(??___fltol^(0+384)+2),f
  3461  0643  0C95               	rrf	(??___fltol^(0+384)+1),f
  3462  0644  0C94               	rrf	??___fltol^(0+384),f
  3463  0645                     u4150:
  3464  0645  3EFF               	addlw	-1
  3465  0646  1D03               	skipz
  3466  0647  2E40               	goto	u4155
  3467  0648  0814               	movf	??___fltol^(0+384),w
  3468  0649  00FF               	movwf	btemp+1
  3469  064A  087F               	movf	btemp+1,w
  3470  064B  1683               	bsf	3,5	;RP0=1, select bank1
  3471  064C  1303               	bcf	3,6	;RP1=0, select bank1
  3472  064D  00ED               	movwf	___fltol@sign1^(0+128)
  3473  064E                     l3303:
  3474  064E  1683               	bsf	3,5	;RP0=1, select bank3
  3475  064F  1703               	bsf	3,6	;RP1=1, select bank3
  3476  0650  1792               	bsf	(___fltol@f1^(0+384)+2),7
  3477  0651                     l3305:
  3478  0651  30FF               	movlw	255
  3479  0652  0590               	andwf	___fltol@f1^(0+384),f
  3480  0653  30FF               	movlw	255
  3481  0654  0591               	andwf	(___fltol@f1+1)^(0+384),f
  3482  0655  30FF               	movlw	255
  3483  0656  0592               	andwf	(___fltol@f1+2)^(0+384),f
  3484  0657  3000               	movlw	0
  3485  0658  0593               	andwf	(___fltol@f1+3)^(0+384),f
  3486  0659                     l3307:
  3487  0659  3096               	movlw	150
  3488  065A  1683               	bsf	3,5	;RP0=1, select bank1
  3489  065B  1303               	bcf	3,6	;RP1=0, select bank1
  3490  065C  02EE               	subwf	___fltol@exp1^(0+128),f
  3491  065D                     l3309:
  3492  065D  1FEE               	btfss	___fltol@exp1^(0+128),7
  3493  065E  2E60               	goto	u4161
  3494  065F  2E61               	goto	u4160
  3495  0660                     u4161:
  3496  0660  2E7F               	goto	l3321
  3497  0661                     u4160:
  3498  0661                     l3311:
  3499  0661  086E               	movf	___fltol@exp1^(0+128),w
  3500  0662  3A80               	xorlw	128
  3501  0663  3E97               	addlw	151
  3502  0664  1803               	skipnc
  3503  0665  2E67               	goto	u4171
  3504  0666  2E68               	goto	u4170
  3505  0667                     u4171:
  3506  0667  2E69               	goto	l3317
  3507  0668                     u4170:
  3508  0668  2E2A               	goto	l3297
  3509  0669                     l3317:
  3510  0669  3001               	movlw	1
  3511  066A                     u4185:
  3512  066A  1003               	clrc
  3513  066B  1683               	bsf	3,5	;RP0=1, select bank3
  3514  066C  1703               	bsf	3,6	;RP1=1, select bank3
  3515  066D  0C93               	rrf	(___fltol@f1+3)^(0+384),f
  3516  066E  0C92               	rrf	(___fltol@f1+2)^(0+384),f
  3517  066F  0C91               	rrf	(___fltol@f1+1)^(0+384),f
  3518  0670  0C90               	rrf	___fltol@f1^(0+384),f
  3519  0671  3EFF               	addlw	-1
  3520  0672  1D03               	skipz
  3521  0673  2E6A               	goto	u4185
  3522  0674                     l3319:
  3523  0674  3001               	movlw	1
  3524  0675  00FF               	movwf	btemp+1
  3525  0676  087F               	movf	btemp+1,w
  3526  0677  1683               	bsf	3,5	;RP0=1, select bank1
  3527  0678  1303               	bcf	3,6	;RP1=0, select bank1
  3528  0679  07EE               	addwf	___fltol@exp1^(0+128),f
  3529  067A  1D03               	btfss	3,2
  3530  067B  2E7D               	goto	u4191
  3531  067C  2E7E               	goto	u4190
  3532  067D                     u4191:
  3533  067D  2E69               	goto	l3317
  3534  067E                     u4190:
  3535  067E  2E9A               	goto	l3329
  3536  067F                     l3321:
  3537  067F  3020               	movlw	32
  3538  0680  026E               	subwf	___fltol@exp1^(0+128),w
  3539  0681  1C03               	skipc
  3540  0682  2E84               	goto	u4201
  3541  0683  2E85               	goto	u4200
  3542  0684                     u4201:
  3543  0684  2E95               	goto	l816
  3544  0685                     u4200:
  3545  0685  2E2A               	goto	l3297
  3546  0686                     l3327:
  3547  0686  3001               	movlw	1
  3548  0687  1683               	bsf	3,5	;RP0=1, select bank3
  3549  0688  1703               	bsf	3,6	;RP1=1, select bank3
  3550  0689  0094               	movwf	??___fltol^(0+384)
  3551  068A                     u4215:
  3552  068A  1003               	clrc
  3553  068B  0D90               	rlf	___fltol@f1^(0+384),f
  3554  068C  0D91               	rlf	(___fltol@f1+1)^(0+384),f
  3555  068D  0D92               	rlf	(___fltol@f1+2)^(0+384),f
  3556  068E  0D93               	rlf	(___fltol@f1+3)^(0+384),f
  3557  068F  0B94               	decfsz	??___fltol^(0+384),f
  3558  0690  2E8A               	goto	u4215
  3559  0691  3001               	movlw	1
  3560  0692  1683               	bsf	3,5	;RP0=1, select bank1
  3561  0693  1303               	bcf	3,6	;RP1=0, select bank1
  3562  0694  02EE               	subwf	___fltol@exp1^(0+128),f
  3563  0695                     l816:
  3564  0695  086E               	movf	___fltol@exp1^(0+128),w
  3565  0696  1D03               	btfss	3,2
  3566  0697  2E99               	goto	u4221
  3567  0698  2E9A               	goto	u4220
  3568  0699                     u4221:
  3569  0699  2E86               	goto	l3327
  3570  069A                     u4220:
  3571  069A                     l3329:
  3572  069A  086D               	movf	___fltol@sign1^(0+128),w
  3573  069B  1903               	btfsc	3,2
  3574  069C  2E9E               	goto	u4231
  3575  069D  2E9F               	goto	u4230
  3576  069E                     u4231:
  3577  069E  2EAC               	goto	l819
  3578  069F                     u4230:
  3579  069F                     l3331:
  3580  069F  1683               	bsf	3,5	;RP0=1, select bank3
  3581  06A0  1703               	bsf	3,6	;RP1=1, select bank3
  3582  06A1  0990               	comf	___fltol@f1^(0+384),f
  3583  06A2  0991               	comf	(___fltol@f1+1)^(0+384),f
  3584  06A3  0992               	comf	(___fltol@f1+2)^(0+384),f
  3585  06A4  0993               	comf	(___fltol@f1+3)^(0+384),f
  3586  06A5  0A90               	incf	___fltol@f1^(0+384),f
  3587  06A6  1903               	skipnz
  3588  06A7  0A91               	incf	(___fltol@f1+1)^(0+384),f
  3589  06A8  1903               	skipnz
  3590  06A9  0A92               	incf	(___fltol@f1+2)^(0+384),f
  3591  06AA  1903               	skipnz
  3592  06AB  0A93               	incf	(___fltol@f1+3)^(0+384),f
  3593  06AC                     l819:
  3594  06AC                     l809:
  3595  06AC  0008               	return
  3596  06AD                     __end_of___fltol:
  3597                           
  3598                           	psect	text15
  3599  005F                     __ptext15:	
  3600 ;; *************** function ___flmul *****************
  3601 ;; Defined at:
  3602 ;;		line 8 in file "C:\Program Files (x86)\Microchip\xc8\v2.20\pic\sources\c90\common\sprcmul.c"
  3603 ;; Parameters:    Size  Location     Type
  3604 ;;  b               4    0[BANK1 ] long 
  3605 ;;  a               4    4[BANK1 ] long 
  3606 ;; Auto vars:     Size  Location     Type
  3607 ;;  prod            4   20[BANK1 ] struct .
  3608 ;;  grs             4   15[BANK1 ] unsigned long 
  3609 ;;  temp            2   24[BANK1 ] struct .
  3610 ;;  bexp            1   19[BANK1 ] unsigned char 
  3611 ;;  aexp            1   14[BANK1 ] unsigned char 
  3612 ;;  sign            1   13[BANK1 ] unsigned char 
  3613 ;; Return value:  Size  Location     Type
  3614 ;;                  4    0[BANK1 ] unsigned char 
  3615 ;; Registers used:
  3616 ;;		wreg, status,2, status,0, btemp+1, pclath, cstack
  3617 ;; Tracked objects:
  3618 ;;		On entry : 0/0
  3619 ;;		On exit  : 0/0
  3620 ;;		Unchanged: 0/0
  3621 ;; Data sizes:     COMMON   BANK0   BANK1   BANK3   BANK2
  3622 ;;      Params:         0       0       8       0       0
  3623 ;;      Locals:         0       0      13       0       0
  3624 ;;      Temps:          0       0       5       0       0
  3625 ;;      Totals:         0       0      26       0       0
  3626 ;;Total ram usage:       26 bytes
  3627 ;; Hardware stack levels used:    1
  3628 ;; Hardware stack levels required when called:    5
  3629 ;; This function calls:
  3630 ;;		__Umul8_16
  3631 ;; This function is called by:
  3632 ;;		_Temperature_Calc
  3633 ;; This function uses a non-reentrant model
  3634 ;;
  3635                           
  3636                           
  3637                           ;psect for function ___flmul
  3638  005F                     ___flmul:
  3639  005F                     l3333:	
  3640                           ;incstack = 0
  3641 ;; hardware stack exceeded
  3642                           ; Regs used in ___flmul: [wreg+status,2+status,0+btemp+1+pclath+cstack]
  3643                           
  3644  005F  1683               	bsf	3,5	;RP0=1, select bank1
  3645  0060  1303               	bcf	3,6	;RP1=0, select bank1
  3646  0061  0856               	movf	(___flmul@b^(0+128)+3),w
  3647  0062  3980               	andlw	128
  3648  0063  00FF               	movwf	btemp+1
  3649  0064  087F               	movf	btemp+1,w
  3650  0065  00E0               	movwf	___flmul@sign^(0+128)
  3651  0066                     l3335:
  3652  0066  0856               	movf	(___flmul@b^(0+128)+3),w
  3653  0067  00DB               	movwf	??___flmul^(0+128)
  3654  0068  075B               	addwf	??___flmul^(0+128),w
  3655  0069  00FF               	movwf	btemp+1
  3656  006A  087F               	movf	btemp+1,w
  3657  006B  00E6               	movwf	___flmul@bexp^(0+128)
  3658  006C                     l3337:
  3659  006C  1FD5               	btfss	(___flmul@b^(0+128)+2),7
  3660  006D  286F               	goto	u4241
  3661  006E  2870               	goto	u4240
  3662  006F                     u4241:
  3663  006F  2871               	goto	l3341
  3664  0070                     u4240:
  3665  0070                     l3339:
  3666  0070  1466               	bsf	___flmul@bexp^(0+128),0
  3667  0071                     l3341:
  3668  0071  0866               	movf	___flmul@bexp^(0+128),w
  3669  0072  1903               	btfsc	3,2
  3670  0073  2875               	goto	u4251
  3671  0074  2876               	goto	u4250
  3672  0075                     u4251:
  3673  0075  2885               	goto	l3349
  3674  0076                     u4250:
  3675  0076                     l3343:
  3676  0076  0A66               	incf	___flmul@bexp^(0+128),w
  3677  0077  1D03               	btfss	3,2
  3678  0078  287A               	goto	u4261
  3679  0079  287B               	goto	u4260
  3680  007A                     u4261:
  3681  007A  2883               	goto	l3347
  3682  007B                     u4260:
  3683  007B                     l3345:
  3684  007B  3000               	movlw	0
  3685  007C  00D6               	movwf	(___flmul@b+3)^(0+128)
  3686  007D  3000               	movlw	0
  3687  007E  00D5               	movwf	(___flmul@b+2)^(0+128)
  3688  007F  3000               	movlw	0
  3689  0080  00D4               	movwf	(___flmul@b+1)^(0+128)
  3690  0081  3000               	movlw	0
  3691  0082  00D3               	movwf	___flmul@b^(0+128)
  3692  0083                     l3347:
  3693  0083  17D5               	bsf	(___flmul@b^(0+128)+2),7
  3694  0084  288D               	goto	l3351
  3695  0085                     l3349:
  3696  0085  3000               	movlw	0
  3697  0086  00D6               	movwf	(___flmul@b+3)^(0+128)
  3698  0087  3000               	movlw	0
  3699  0088  00D5               	movwf	(___flmul@b+2)^(0+128)
  3700  0089  3000               	movlw	0
  3701  008A  00D4               	movwf	(___flmul@b+1)^(0+128)
  3702  008B  3000               	movlw	0
  3703  008C  00D3               	movwf	___flmul@b^(0+128)
  3704  008D                     l3351:
  3705  008D  085A               	movf	(___flmul@a^(0+128)+3),w
  3706  008E  3980               	andlw	128
  3707  008F  00FF               	movwf	btemp+1
  3708  0090  087F               	movf	btemp+1,w
  3709  0091  06E0               	xorwf	___flmul@sign^(0+128),f
  3710  0092                     l3353:
  3711  0092  085A               	movf	(___flmul@a^(0+128)+3),w
  3712  0093  00DB               	movwf	??___flmul^(0+128)
  3713  0094  075B               	addwf	??___flmul^(0+128),w
  3714  0095  00FF               	movwf	btemp+1
  3715  0096  087F               	movf	btemp+1,w
  3716  0097  00E1               	movwf	___flmul@aexp^(0+128)
  3717  0098                     l3355:
  3718  0098  1FD9               	btfss	(___flmul@a^(0+128)+2),7
  3719  0099  289B               	goto	u4271
  3720  009A  289C               	goto	u4270
  3721  009B                     u4271:
  3722  009B  289D               	goto	l3359
  3723  009C                     u4270:
  3724  009C                     l3357:
  3725  009C  1461               	bsf	___flmul@aexp^(0+128),0
  3726  009D                     l3359:
  3727  009D  0861               	movf	___flmul@aexp^(0+128),w
  3728  009E  1903               	btfsc	3,2
  3729  009F  28A1               	goto	u4281
  3730  00A0  28A2               	goto	u4280
  3731  00A1                     u4281:
  3732  00A1  28B1               	goto	l3367
  3733  00A2                     u4280:
  3734  00A2                     l3361:
  3735  00A2  0A61               	incf	___flmul@aexp^(0+128),w
  3736  00A3  1D03               	btfss	3,2
  3737  00A4  28A6               	goto	u4291
  3738  00A5  28A7               	goto	u4290
  3739  00A6                     u4291:
  3740  00A6  28AF               	goto	l3365
  3741  00A7                     u4290:
  3742  00A7                     l3363:
  3743  00A7  3000               	movlw	0
  3744  00A8  00DA               	movwf	(___flmul@a+3)^(0+128)
  3745  00A9  3000               	movlw	0
  3746  00AA  00D9               	movwf	(___flmul@a+2)^(0+128)
  3747  00AB  3000               	movlw	0
  3748  00AC  00D8               	movwf	(___flmul@a+1)^(0+128)
  3749  00AD  3000               	movlw	0
  3750  00AE  00D7               	movwf	___flmul@a^(0+128)
  3751  00AF                     l3365:
  3752  00AF  17D9               	bsf	(___flmul@a^(0+128)+2),7
  3753  00B0  28B9               	goto	l3369
  3754  00B1                     l3367:
  3755  00B1  3000               	movlw	0
  3756  00B2  00DA               	movwf	(___flmul@a+3)^(0+128)
  3757  00B3  3000               	movlw	0
  3758  00B4  00D9               	movwf	(___flmul@a+2)^(0+128)
  3759  00B5  3000               	movlw	0
  3760  00B6  00D8               	movwf	(___flmul@a+1)^(0+128)
  3761  00B7  3000               	movlw	0
  3762  00B8  00D7               	movwf	___flmul@a^(0+128)
  3763  00B9                     l3369:
  3764  00B9  0861               	movf	___flmul@aexp^(0+128),w
  3765  00BA  1903               	btfsc	3,2
  3766  00BB  28BD               	goto	u4301
  3767  00BC  28BE               	goto	u4300
  3768  00BD                     u4301:
  3769  00BD  28C3               	goto	l3373
  3770  00BE                     u4300:
  3771  00BE                     l3371:
  3772  00BE  0866               	movf	___flmul@bexp^(0+128),w
  3773  00BF  1D03               	btfss	3,2
  3774  00C0  28C2               	goto	u4311
  3775  00C1  28C3               	goto	u4310
  3776  00C2                     u4311:
  3777  00C2  28CC               	goto	l3377
  3778  00C3                     u4310:
  3779  00C3                     l3373:
  3780  00C3  3000               	movlw	0
  3781  00C4  00D6               	movwf	(?___flmul+3)^(0+128)
  3782  00C5  3000               	movlw	0
  3783  00C6  00D5               	movwf	(?___flmul+2)^(0+128)
  3784  00C7  3000               	movlw	0
  3785  00C8  00D4               	movwf	(?___flmul+1)^(0+128)
  3786  00C9  3000               	movlw	0
  3787  00CA  00D3               	movwf	?___flmul^(0+128)
  3788  00CB  2C19               	goto	l1012
  3789  00CC                     l3377:
  3790  00CC  0853               	movf	___flmul@b^(0+128),w
  3791  00CD  00FF               	movwf	btemp+1
  3792  00CE  087F               	movf	btemp+1,w
  3793  00CF  1283               	bcf	3,5	;RP0=0, select bank0
  3794  00D0  1303               	bcf	3,6	;RP1=0, select bank0
  3795  00D1  00B6               	movwf	__Umul8_16@multiplicand
  3796  00D2  1683               	bsf	3,5	;RP0=1, select bank1
  3797  00D3  1303               	bcf	3,6	;RP1=0, select bank1
  3798  00D4  0859               	movf	(___flmul@a^(0+128)+2),w
  3799  00D5  120A  158A  2279  120A  118A  	fcall	__Umul8_16
  3800  00DA  1283               	bcf	3,5	;RP0=0, select bank0
  3801  00DB  1303               	bcf	3,6	;RP1=0, select bank0
  3802  00DC  0837               	movf	?__Umul8_16+1,w
  3803  00DD  1683               	bsf	3,5	;RP0=1, select bank1
  3804  00DE  1303               	bcf	3,6	;RP1=0, select bank1
  3805  00DF  00EC               	movwf	(___flmul@temp+1)^(0+128)
  3806  00E0  1283               	bcf	3,5	;RP0=0, select bank0
  3807  00E1  1303               	bcf	3,6	;RP1=0, select bank0
  3808  00E2  0836               	movf	?__Umul8_16,w
  3809  00E3  1683               	bsf	3,5	;RP0=1, select bank1
  3810  00E4  1303               	bcf	3,6	;RP1=0, select bank1
  3811  00E5  00EB               	movwf	___flmul@temp^(0+128)
  3812  00E6                     l3379:
  3813  00E6  086B               	movf	___flmul@temp^(0+128),w
  3814  00E7  00DB               	movwf	??___flmul^(0+128)
  3815  00E8  01DC               	clrf	(??___flmul^(0+128)+1)
  3816  00E9  01DD               	clrf	(??___flmul^(0+128)+2)
  3817  00EA  01DE               	clrf	(??___flmul^(0+128)+3)
  3818  00EB  085E               	movf	(??___flmul+3)^(0+128),w
  3819  00EC  00E5               	movwf	(___flmul@grs+3)^(0+128)
  3820  00ED  085D               	movf	(??___flmul+2)^(0+128),w
  3821  00EE  00E4               	movwf	(___flmul@grs+2)^(0+128)
  3822  00EF  085C               	movf	(??___flmul+1)^(0+128),w
  3823  00F0  00E3               	movwf	(___flmul@grs+1)^(0+128)
  3824  00F1  085B               	movf	??___flmul^(0+128),w
  3825  00F2  00E2               	movwf	___flmul@grs^(0+128)
  3826  00F3                     l3381:
  3827  00F3  086C               	movf	(___flmul@temp^(0+128)+1),w
  3828  00F4  00DB               	movwf	??___flmul^(0+128)
  3829  00F5  01DC               	clrf	(??___flmul^(0+128)+1)
  3830  00F6  01DD               	clrf	(??___flmul^(0+128)+2)
  3831  00F7  01DE               	clrf	(??___flmul^(0+128)+3)
  3832  00F8  085E               	movf	(??___flmul+3)^(0+128),w
  3833  00F9  00EA               	movwf	(___flmul@prod+3)^(0+128)
  3834  00FA  085D               	movf	(??___flmul+2)^(0+128),w
  3835  00FB  00E9               	movwf	(___flmul@prod+2)^(0+128)
  3836  00FC  085C               	movf	(??___flmul+1)^(0+128),w
  3837  00FD  00E8               	movwf	(___flmul@prod+1)^(0+128)
  3838  00FE  085B               	movf	??___flmul^(0+128),w
  3839  00FF  00E7               	movwf	___flmul@prod^(0+128)
  3840  0100  0854               	movf	(___flmul@b^(0+128)+1),w
  3841  0101  00FF               	movwf	btemp+1
  3842  0102  087F               	movf	btemp+1,w
  3843  0103  1283               	bcf	3,5	;RP0=0, select bank0
  3844  0104  1303               	bcf	3,6	;RP1=0, select bank0
  3845  0105  00B6               	movwf	__Umul8_16@multiplicand
  3846  0106  1683               	bsf	3,5	;RP0=1, select bank1
  3847  0107  1303               	bcf	3,6	;RP1=0, select bank1
  3848  0108  0858               	movf	(___flmul@a^(0+128)+1),w
  3849  0109  120A  158A  2279  120A  118A  	fcall	__Umul8_16
  3850  010E  1283               	bcf	3,5	;RP0=0, select bank0
  3851  010F  1303               	bcf	3,6	;RP1=0, select bank0
  3852  0110  0837               	movf	?__Umul8_16+1,w
  3853  0111  1683               	bsf	3,5	;RP0=1, select bank1
  3854  0112  1303               	bcf	3,6	;RP1=0, select bank1
  3855  0113  00EC               	movwf	(___flmul@temp+1)^(0+128)
  3856  0114  1283               	bcf	3,5	;RP0=0, select bank0
  3857  0115  1303               	bcf	3,6	;RP1=0, select bank0
  3858  0116  0836               	movf	?__Umul8_16,w
  3859  0117  1683               	bsf	3,5	;RP0=1, select bank1
  3860  0118  1303               	bcf	3,6	;RP1=0, select bank1
  3861  0119  00EB               	movwf	___flmul@temp^(0+128)
  3862  011A                     l3383:
  3863  011A  086B               	movf	___flmul@temp^(0+128),w
  3864  011B  00DB               	movwf	??___flmul^(0+128)
  3865  011C  01DC               	clrf	(??___flmul^(0+128)+1)
  3866  011D  01DD               	clrf	(??___flmul^(0+128)+2)
  3867  011E  01DE               	clrf	(??___flmul^(0+128)+3)
  3868  011F  085B               	movf	??___flmul^(0+128),w
  3869  0120  07E2               	addwf	___flmul@grs^(0+128),f
  3870  0121  085C               	movf	(??___flmul+1)^(0+128),w
  3871  0122  1103               	clrz
  3872  0123  1803               	skipnc
  3873  0124  3E01               	addlw	1
  3874  0125  1903               	skipnz
  3875  0126  2928               	goto	u4321
  3876  0127  07E3               	addwf	(___flmul@grs+1)^(0+128),f
  3877  0128                     u4321:
  3878  0128  085D               	movf	(??___flmul+2)^(0+128),w
  3879  0129  1103               	clrz
  3880  012A  1803               	skipnc
  3881  012B  3E01               	addlw	1
  3882  012C  1903               	skipnz
  3883  012D  292F               	goto	u4322
  3884  012E  07E4               	addwf	(___flmul@grs+2)^(0+128),f
  3885  012F                     u4322:
  3886  012F  085E               	movf	(??___flmul+3)^(0+128),w
  3887  0130  1103               	clrz
  3888  0131  1803               	skipnc
  3889  0132  3E01               	addlw	1
  3890  0133  1903               	skipnz
  3891  0134  2936               	goto	u4323
  3892  0135  07E5               	addwf	(___flmul@grs+3)^(0+128),f
  3893  0136                     u4323:
  3894  0136                     l3385:
  3895  0136  086C               	movf	(___flmul@temp^(0+128)+1),w
  3896  0137  00DB               	movwf	??___flmul^(0+128)
  3897  0138  01DC               	clrf	(??___flmul^(0+128)+1)
  3898  0139  01DD               	clrf	(??___flmul^(0+128)+2)
  3899  013A  01DE               	clrf	(??___flmul^(0+128)+3)
  3900  013B  085B               	movf	??___flmul^(0+128),w
  3901  013C  07E7               	addwf	___flmul@prod^(0+128),f
  3902  013D  085C               	movf	(??___flmul+1)^(0+128),w
  3903  013E  1103               	clrz
  3904  013F  1803               	skipnc
  3905  0140  3E01               	addlw	1
  3906  0141  1903               	skipnz
  3907  0142  2944               	goto	u4331
  3908  0143  07E8               	addwf	(___flmul@prod+1)^(0+128),f
  3909  0144                     u4331:
  3910  0144  085D               	movf	(??___flmul+2)^(0+128),w
  3911  0145  1103               	clrz
  3912  0146  1803               	skipnc
  3913  0147  3E01               	addlw	1
  3914  0148  1903               	skipnz
  3915  0149  294B               	goto	u4332
  3916  014A  07E9               	addwf	(___flmul@prod+2)^(0+128),f
  3917  014B                     u4332:
  3918  014B  085E               	movf	(??___flmul+3)^(0+128),w
  3919  014C  1103               	clrz
  3920  014D  1803               	skipnc
  3921  014E  3E01               	addlw	1
  3922  014F  1903               	skipnz
  3923  0150  2952               	goto	u4333
  3924  0151  07EA               	addwf	(___flmul@prod+3)^(0+128),f
  3925  0152                     u4333:
  3926  0152  0855               	movf	(___flmul@b^(0+128)+2),w
  3927  0153  00FF               	movwf	btemp+1
  3928  0154  087F               	movf	btemp+1,w
  3929  0155  1283               	bcf	3,5	;RP0=0, select bank0
  3930  0156  1303               	bcf	3,6	;RP1=0, select bank0
  3931  0157  00B6               	movwf	__Umul8_16@multiplicand
  3932  0158  1683               	bsf	3,5	;RP0=1, select bank1
  3933  0159  1303               	bcf	3,6	;RP1=0, select bank1
  3934  015A  0857               	movf	___flmul@a^(0+128),w
  3935  015B  120A  158A  2279  120A  118A  	fcall	__Umul8_16
  3936  0160  1283               	bcf	3,5	;RP0=0, select bank0
  3937  0161  1303               	bcf	3,6	;RP1=0, select bank0
  3938  0162  0837               	movf	?__Umul8_16+1,w
  3939  0163  1683               	bsf	3,5	;RP0=1, select bank1
  3940  0164  1303               	bcf	3,6	;RP1=0, select bank1
  3941  0165  00EC               	movwf	(___flmul@temp+1)^(0+128)
  3942  0166  1283               	bcf	3,5	;RP0=0, select bank0
  3943  0167  1303               	bcf	3,6	;RP1=0, select bank0
  3944  0168  0836               	movf	?__Umul8_16,w
  3945  0169  1683               	bsf	3,5	;RP0=1, select bank1
  3946  016A  1303               	bcf	3,6	;RP1=0, select bank1
  3947  016B  00EB               	movwf	___flmul@temp^(0+128)
  3948  016C                     l3387:
  3949  016C  086B               	movf	___flmul@temp^(0+128),w
  3950  016D  00DB               	movwf	??___flmul^(0+128)
  3951  016E  01DC               	clrf	(??___flmul^(0+128)+1)
  3952  016F  01DD               	clrf	(??___flmul^(0+128)+2)
  3953  0170  01DE               	clrf	(??___flmul^(0+128)+3)
  3954  0171  085B               	movf	??___flmul^(0+128),w
  3955  0172  07E2               	addwf	___flmul@grs^(0+128),f
  3956  0173  085C               	movf	(??___flmul+1)^(0+128),w
  3957  0174  1103               	clrz
  3958  0175  1803               	skipnc
  3959  0176  3E01               	addlw	1
  3960  0177  1903               	skipnz
  3961  0178  297A               	goto	u4341
  3962  0179  07E3               	addwf	(___flmul@grs+1)^(0+128),f
  3963  017A                     u4341:
  3964  017A  085D               	movf	(??___flmul+2)^(0+128),w
  3965  017B  1103               	clrz
  3966  017C  1803               	skipnc
  3967  017D  3E01               	addlw	1
  3968  017E  1903               	skipnz
  3969  017F  2981               	goto	u4342
  3970  0180  07E4               	addwf	(___flmul@grs+2)^(0+128),f
  3971  0181                     u4342:
  3972  0181  085E               	movf	(??___flmul+3)^(0+128),w
  3973  0182  1103               	clrz
  3974  0183  1803               	skipnc
  3975  0184  3E01               	addlw	1
  3976  0185  1903               	skipnz
  3977  0186  2988               	goto	u4343
  3978  0187  07E5               	addwf	(___flmul@grs+3)^(0+128),f
  3979  0188                     u4343:
  3980  0188                     l3389:
  3981  0188  086C               	movf	(___flmul@temp^(0+128)+1),w
  3982  0189  00DB               	movwf	??___flmul^(0+128)
  3983  018A  01DC               	clrf	(??___flmul^(0+128)+1)
  3984  018B  01DD               	clrf	(??___flmul^(0+128)+2)
  3985  018C  01DE               	clrf	(??___flmul^(0+128)+3)
  3986  018D  085B               	movf	??___flmul^(0+128),w
  3987  018E  07E7               	addwf	___flmul@prod^(0+128),f
  3988  018F  085C               	movf	(??___flmul+1)^(0+128),w
  3989  0190  1103               	clrz
  3990  0191  1803               	skipnc
  3991  0192  3E01               	addlw	1
  3992  0193  1903               	skipnz
  3993  0194  2996               	goto	u4351
  3994  0195  07E8               	addwf	(___flmul@prod+1)^(0+128),f
  3995  0196                     u4351:
  3996  0196  085D               	movf	(??___flmul+2)^(0+128),w
  3997  0197  1103               	clrz
  3998  0198  1803               	skipnc
  3999  0199  3E01               	addlw	1
  4000  019A  1903               	skipnz
  4001  019B  299D               	goto	u4352
  4002  019C  07E9               	addwf	(___flmul@prod+2)^(0+128),f
  4003  019D                     u4352:
  4004  019D  085E               	movf	(??___flmul+3)^(0+128),w
  4005  019E  1103               	clrz
  4006  019F  1803               	skipnc
  4007  01A0  3E01               	addlw	1
  4008  01A1  1903               	skipnz
  4009  01A2  29A4               	goto	u4353
  4010  01A3  07EA               	addwf	(___flmul@prod+3)^(0+128),f
  4011  01A4                     u4353:
  4012  01A4                     l3391:
  4013  01A4  3008               	movlw	8
  4014  01A5  00DB               	movwf	??___flmul^(0+128)
  4015  01A6                     u4365:
  4016  01A6  1003               	clrc
  4017  01A7  0DE2               	rlf	___flmul@grs^(0+128),f
  4018  01A8  0DE3               	rlf	(___flmul@grs+1)^(0+128),f
  4019  01A9  0DE4               	rlf	(___flmul@grs+2)^(0+128),f
  4020  01AA  0DE5               	rlf	(___flmul@grs+3)^(0+128),f
  4021  01AB  0BDB               	decfsz	??___flmul^(0+128),f
  4022  01AC  29A6               	goto	u4365
  4023  01AD                     l3393:
  4024  01AD  0854               	movf	(___flmul@b^(0+128)+1),w
  4025  01AE  00FF               	movwf	btemp+1
  4026  01AF  087F               	movf	btemp+1,w
  4027  01B0  1283               	bcf	3,5	;RP0=0, select bank0
  4028  01B1  1303               	bcf	3,6	;RP1=0, select bank0
  4029  01B2  00B6               	movwf	__Umul8_16@multiplicand
  4030  01B3  1683               	bsf	3,5	;RP0=1, select bank1
  4031  01B4  1303               	bcf	3,6	;RP1=0, select bank1
  4032  01B5  0857               	movf	___flmul@a^(0+128),w
  4033  01B6  120A  158A  2279  120A  118A  	fcall	__Umul8_16
  4034  01BB  1283               	bcf	3,5	;RP0=0, select bank0
  4035  01BC  1303               	bcf	3,6	;RP1=0, select bank0
  4036  01BD  0837               	movf	?__Umul8_16+1,w
  4037  01BE  1683               	bsf	3,5	;RP0=1, select bank1
  4038  01BF  1303               	bcf	3,6	;RP1=0, select bank1
  4039  01C0  00EC               	movwf	(___flmul@temp+1)^(0+128)
  4040  01C1  1283               	bcf	3,5	;RP0=0, select bank0
  4041  01C2  1303               	bcf	3,6	;RP1=0, select bank0
  4042  01C3  0836               	movf	?__Umul8_16,w
  4043  01C4  1683               	bsf	3,5	;RP0=1, select bank1
  4044  01C5  1303               	bcf	3,6	;RP1=0, select bank1
  4045  01C6  00EB               	movwf	___flmul@temp^(0+128)
  4046  01C7                     l3395:
  4047  01C7  086B               	movf	___flmul@temp^(0+128),w
  4048  01C8  00DB               	movwf	??___flmul^(0+128)
  4049  01C9  086C               	movf	(___flmul@temp+1)^(0+128),w
  4050  01CA  00DC               	movwf	(??___flmul^(0+128)+1)
  4051  01CB  01DD               	clrf	(??___flmul^(0+128)+2)
  4052  01CC  01DE               	clrf	(??___flmul^(0+128)+3)
  4053  01CD  085B               	movf	??___flmul^(0+128),w
  4054  01CE  07E2               	addwf	___flmul@grs^(0+128),f
  4055  01CF  085C               	movf	(??___flmul+1)^(0+128),w
  4056  01D0  1103               	clrz
  4057  01D1  1803               	skipnc
  4058  01D2  3E01               	addlw	1
  4059  01D3  1903               	skipnz
  4060  01D4  29D6               	goto	u4371
  4061  01D5  07E3               	addwf	(___flmul@grs+1)^(0+128),f
  4062  01D6                     u4371:
  4063  01D6  085D               	movf	(??___flmul+2)^(0+128),w
  4064  01D7  1103               	clrz
  4065  01D8  1803               	skipnc
  4066  01D9  3E01               	addlw	1
  4067  01DA  1903               	skipnz
  4068  01DB  29DD               	goto	u4372
  4069  01DC  07E4               	addwf	(___flmul@grs+2)^(0+128),f
  4070  01DD                     u4372:
  4071  01DD  085E               	movf	(??___flmul+3)^(0+128),w
  4072  01DE  1103               	clrz
  4073  01DF  1803               	skipnc
  4074  01E0  3E01               	addlw	1
  4075  01E1  1903               	skipnz
  4076  01E2  29E4               	goto	u4373
  4077  01E3  07E5               	addwf	(___flmul@grs+3)^(0+128),f
  4078  01E4                     u4373:
  4079  01E4                     l3397:
  4080  01E4  0853               	movf	___flmul@b^(0+128),w
  4081  01E5  00FF               	movwf	btemp+1
  4082  01E6  087F               	movf	btemp+1,w
  4083  01E7  1283               	bcf	3,5	;RP0=0, select bank0
  4084  01E8  1303               	bcf	3,6	;RP1=0, select bank0
  4085  01E9  00B6               	movwf	__Umul8_16@multiplicand
  4086  01EA  1683               	bsf	3,5	;RP0=1, select bank1
  4087  01EB  1303               	bcf	3,6	;RP1=0, select bank1
  4088  01EC  0858               	movf	(___flmul@a^(0+128)+1),w
  4089  01ED  120A  158A  2279  120A  118A  	fcall	__Umul8_16
  4090  01F2  1283               	bcf	3,5	;RP0=0, select bank0
  4091  01F3  1303               	bcf	3,6	;RP1=0, select bank0
  4092  01F4  0837               	movf	?__Umul8_16+1,w
  4093  01F5  1683               	bsf	3,5	;RP0=1, select bank1
  4094  01F6  1303               	bcf	3,6	;RP1=0, select bank1
  4095  01F7  00EC               	movwf	(___flmul@temp+1)^(0+128)
  4096  01F8  1283               	bcf	3,5	;RP0=0, select bank0
  4097  01F9  1303               	bcf	3,6	;RP1=0, select bank0
  4098  01FA  0836               	movf	?__Umul8_16,w
  4099  01FB  1683               	bsf	3,5	;RP0=1, select bank1
  4100  01FC  1303               	bcf	3,6	;RP1=0, select bank1
  4101  01FD  00EB               	movwf	___flmul@temp^(0+128)
  4102  01FE                     l3399:
  4103  01FE  086B               	movf	___flmul@temp^(0+128),w
  4104  01FF  00DB               	movwf	??___flmul^(0+128)
  4105  0200  086C               	movf	(___flmul@temp+1)^(0+128),w
  4106  0201  00DC               	movwf	(??___flmul^(0+128)+1)
  4107  0202  01DD               	clrf	(??___flmul^(0+128)+2)
  4108  0203  01DE               	clrf	(??___flmul^(0+128)+3)
  4109  0204  085B               	movf	??___flmul^(0+128),w
  4110  0205  07E2               	addwf	___flmul@grs^(0+128),f
  4111  0206  085C               	movf	(??___flmul+1)^(0+128),w
  4112  0207  1103               	clrz
  4113  0208  1803               	skipnc
  4114  0209  3E01               	addlw	1
  4115  020A  1903               	skipnz
  4116  020B  2A0D               	goto	u4381
  4117  020C  07E3               	addwf	(___flmul@grs+1)^(0+128),f
  4118  020D                     u4381:
  4119  020D  085D               	movf	(??___flmul+2)^(0+128),w
  4120  020E  1103               	clrz
  4121  020F  1803               	skipnc
  4122  0210  3E01               	addlw	1
  4123  0211  1903               	skipnz
  4124  0212  2A14               	goto	u4382
  4125  0213  07E4               	addwf	(___flmul@grs+2)^(0+128),f
  4126  0214                     u4382:
  4127  0214  085E               	movf	(??___flmul+3)^(0+128),w
  4128  0215  1103               	clrz
  4129  0216  1803               	skipnc
  4130  0217  3E01               	addlw	1
  4131  0218  1903               	skipnz
  4132  0219  2A1B               	goto	u4383
  4133  021A  07E5               	addwf	(___flmul@grs+3)^(0+128),f
  4134  021B                     u4383:
  4135  021B                     l3401:
  4136  021B  3008               	movlw	8
  4137  021C  00DB               	movwf	??___flmul^(0+128)
  4138  021D                     u4395:
  4139  021D  1003               	clrc
  4140  021E  0DE2               	rlf	___flmul@grs^(0+128),f
  4141  021F  0DE3               	rlf	(___flmul@grs+1)^(0+128),f
  4142  0220  0DE4               	rlf	(___flmul@grs+2)^(0+128),f
  4143  0221  0DE5               	rlf	(___flmul@grs+3)^(0+128),f
  4144  0222  0BDB               	decfsz	??___flmul^(0+128),f
  4145  0223  2A1D               	goto	u4395
  4146  0224  0853               	movf	___flmul@b^(0+128),w
  4147  0225  00FF               	movwf	btemp+1
  4148  0226  087F               	movf	btemp+1,w
  4149  0227  1283               	bcf	3,5	;RP0=0, select bank0
  4150  0228  1303               	bcf	3,6	;RP1=0, select bank0
  4151  0229  00B6               	movwf	__Umul8_16@multiplicand
  4152  022A  1683               	bsf	3,5	;RP0=1, select bank1
  4153  022B  1303               	bcf	3,6	;RP1=0, select bank1
  4154  022C  0857               	movf	___flmul@a^(0+128),w
  4155  022D  120A  158A  2279  120A  118A  	fcall	__Umul8_16
  4156  0232  1283               	bcf	3,5	;RP0=0, select bank0
  4157  0233  1303               	bcf	3,6	;RP1=0, select bank0
  4158  0234  0837               	movf	?__Umul8_16+1,w
  4159  0235  1683               	bsf	3,5	;RP0=1, select bank1
  4160  0236  1303               	bcf	3,6	;RP1=0, select bank1
  4161  0237  00EC               	movwf	(___flmul@temp+1)^(0+128)
  4162  0238  1283               	bcf	3,5	;RP0=0, select bank0
  4163  0239  1303               	bcf	3,6	;RP1=0, select bank0
  4164  023A  0836               	movf	?__Umul8_16,w
  4165  023B  1683               	bsf	3,5	;RP0=1, select bank1
  4166  023C  1303               	bcf	3,6	;RP1=0, select bank1
  4167  023D  00EB               	movwf	___flmul@temp^(0+128)
  4168  023E                     l3403:
  4169  023E  086B               	movf	___flmul@temp^(0+128),w
  4170  023F  00DB               	movwf	??___flmul^(0+128)
  4171  0240  086C               	movf	(___flmul@temp+1)^(0+128),w
  4172  0241  00DC               	movwf	(??___flmul^(0+128)+1)
  4173  0242  01DD               	clrf	(??___flmul^(0+128)+2)
  4174  0243  01DE               	clrf	(??___flmul^(0+128)+3)
  4175  0244  085B               	movf	??___flmul^(0+128),w
  4176  0245  07E2               	addwf	___flmul@grs^(0+128),f
  4177  0246  085C               	movf	(??___flmul+1)^(0+128),w
  4178  0247  1103               	clrz
  4179  0248  1803               	skipnc
  4180  0249  3E01               	addlw	1
  4181  024A  1903               	skipnz
  4182  024B  2A4D               	goto	u4401
  4183  024C  07E3               	addwf	(___flmul@grs+1)^(0+128),f
  4184  024D                     u4401:
  4185  024D  085D               	movf	(??___flmul+2)^(0+128),w
  4186  024E  1103               	clrz
  4187  024F  1803               	skipnc
  4188  0250  3E01               	addlw	1
  4189  0251  1903               	skipnz
  4190  0252  2A54               	goto	u4402
  4191  0253  07E4               	addwf	(___flmul@grs+2)^(0+128),f
  4192  0254                     u4402:
  4193  0254  085E               	movf	(??___flmul+3)^(0+128),w
  4194  0255  1103               	clrz
  4195  0256  1803               	skipnc
  4196  0257  3E01               	addlw	1
  4197  0258  1903               	skipnz
  4198  0259  2A5B               	goto	u4403
  4199  025A  07E5               	addwf	(___flmul@grs+3)^(0+128),f
  4200  025B                     u4403:
  4201  025B                     l3405:
  4202  025B  0854               	movf	(___flmul@b^(0+128)+1),w
  4203  025C  00FF               	movwf	btemp+1
  4204  025D  087F               	movf	btemp+1,w
  4205  025E  1283               	bcf	3,5	;RP0=0, select bank0
  4206  025F  1303               	bcf	3,6	;RP1=0, select bank0
  4207  0260  00B6               	movwf	__Umul8_16@multiplicand
  4208  0261  1683               	bsf	3,5	;RP0=1, select bank1
  4209  0262  1303               	bcf	3,6	;RP1=0, select bank1
  4210  0263  0859               	movf	(___flmul@a^(0+128)+2),w
  4211  0264  120A  158A  2279  120A  118A  	fcall	__Umul8_16
  4212  0269  1283               	bcf	3,5	;RP0=0, select bank0
  4213  026A  1303               	bcf	3,6	;RP1=0, select bank0
  4214  026B  0837               	movf	?__Umul8_16+1,w
  4215  026C  1683               	bsf	3,5	;RP0=1, select bank1
  4216  026D  1303               	bcf	3,6	;RP1=0, select bank1
  4217  026E  00EC               	movwf	(___flmul@temp+1)^(0+128)
  4218  026F  1283               	bcf	3,5	;RP0=0, select bank0
  4219  0270  1303               	bcf	3,6	;RP1=0, select bank0
  4220  0271  0836               	movf	?__Umul8_16,w
  4221  0272  1683               	bsf	3,5	;RP0=1, select bank1
  4222  0273  1303               	bcf	3,6	;RP1=0, select bank1
  4223  0274  00EB               	movwf	___flmul@temp^(0+128)
  4224  0275  086B               	movf	___flmul@temp^(0+128),w
  4225  0276  00DB               	movwf	??___flmul^(0+128)
  4226  0277  086C               	movf	(___flmul@temp+1)^(0+128),w
  4227  0278  00DC               	movwf	(??___flmul^(0+128)+1)
  4228  0279  01DD               	clrf	(??___flmul^(0+128)+2)
  4229  027A  01DE               	clrf	(??___flmul^(0+128)+3)
  4230  027B  085B               	movf	??___flmul^(0+128),w
  4231  027C  07E7               	addwf	___flmul@prod^(0+128),f
  4232  027D  085C               	movf	(??___flmul+1)^(0+128),w
  4233  027E  1103               	clrz
  4234  027F  1803               	skipnc
  4235  0280  3E01               	addlw	1
  4236  0281  1903               	skipnz
  4237  0282  2A84               	goto	u4411
  4238  0283  07E8               	addwf	(___flmul@prod+1)^(0+128),f
  4239  0284                     u4411:
  4240  0284  085D               	movf	(??___flmul+2)^(0+128),w
  4241  0285  1103               	clrz
  4242  0286  1803               	skipnc
  4243  0287  3E01               	addlw	1
  4244  0288  1903               	skipnz
  4245  0289  2A8B               	goto	u4412
  4246  028A  07E9               	addwf	(___flmul@prod+2)^(0+128),f
  4247  028B                     u4412:
  4248  028B  085E               	movf	(??___flmul+3)^(0+128),w
  4249  028C  1103               	clrz
  4250  028D  1803               	skipnc
  4251  028E  3E01               	addlw	1
  4252  028F  1903               	skipnz
  4253  0290  2A92               	goto	u4413
  4254  0291  07EA               	addwf	(___flmul@prod+3)^(0+128),f
  4255  0292                     u4413:
  4256  0292                     l3407:
  4257  0292  0855               	movf	(___flmul@b^(0+128)+2),w
  4258  0293  00FF               	movwf	btemp+1
  4259  0294  087F               	movf	btemp+1,w
  4260  0295  1283               	bcf	3,5	;RP0=0, select bank0
  4261  0296  1303               	bcf	3,6	;RP1=0, select bank0
  4262  0297  00B6               	movwf	__Umul8_16@multiplicand
  4263  0298  1683               	bsf	3,5	;RP0=1, select bank1
  4264  0299  1303               	bcf	3,6	;RP1=0, select bank1
  4265  029A  0858               	movf	(___flmul@a^(0+128)+1),w
  4266  029B  120A  158A  2279  120A  118A  	fcall	__Umul8_16
  4267  02A0  1283               	bcf	3,5	;RP0=0, select bank0
  4268  02A1  1303               	bcf	3,6	;RP1=0, select bank0
  4269  02A2  0837               	movf	?__Umul8_16+1,w
  4270  02A3  1683               	bsf	3,5	;RP0=1, select bank1
  4271  02A4  1303               	bcf	3,6	;RP1=0, select bank1
  4272  02A5  00EC               	movwf	(___flmul@temp+1)^(0+128)
  4273  02A6  1283               	bcf	3,5	;RP0=0, select bank0
  4274  02A7  1303               	bcf	3,6	;RP1=0, select bank0
  4275  02A8  0836               	movf	?__Umul8_16,w
  4276  02A9  1683               	bsf	3,5	;RP0=1, select bank1
  4277  02AA  1303               	bcf	3,6	;RP1=0, select bank1
  4278  02AB  00EB               	movwf	___flmul@temp^(0+128)
  4279  02AC                     l3409:
  4280  02AC  086B               	movf	___flmul@temp^(0+128),w
  4281  02AD  00DB               	movwf	??___flmul^(0+128)
  4282  02AE  086C               	movf	(___flmul@temp+1)^(0+128),w
  4283  02AF  00DC               	movwf	(??___flmul^(0+128)+1)
  4284  02B0  01DD               	clrf	(??___flmul^(0+128)+2)
  4285  02B1  01DE               	clrf	(??___flmul^(0+128)+3)
  4286  02B2  085B               	movf	??___flmul^(0+128),w
  4287  02B3  07E7               	addwf	___flmul@prod^(0+128),f
  4288  02B4  085C               	movf	(??___flmul+1)^(0+128),w
  4289  02B5  1103               	clrz
  4290  02B6  1803               	skipnc
  4291  02B7  3E01               	addlw	1
  4292  02B8  1903               	skipnz
  4293  02B9  2ABB               	goto	u4421
  4294  02BA  07E8               	addwf	(___flmul@prod+1)^(0+128),f
  4295  02BB                     u4421:
  4296  02BB  085D               	movf	(??___flmul+2)^(0+128),w
  4297  02BC  1103               	clrz
  4298  02BD  1803               	skipnc
  4299  02BE  3E01               	addlw	1
  4300  02BF  1903               	skipnz
  4301  02C0  2AC2               	goto	u4422
  4302  02C1  07E9               	addwf	(___flmul@prod+2)^(0+128),f
  4303  02C2                     u4422:
  4304  02C2  085E               	movf	(??___flmul+3)^(0+128),w
  4305  02C3  1103               	clrz
  4306  02C4  1803               	skipnc
  4307  02C5  3E01               	addlw	1
  4308  02C6  1903               	skipnz
  4309  02C7  2AC9               	goto	u4423
  4310  02C8  07EA               	addwf	(___flmul@prod+3)^(0+128),f
  4311  02C9                     u4423:
  4312  02C9  0855               	movf	(___flmul@b^(0+128)+2),w
  4313  02CA  00FF               	movwf	btemp+1
  4314  02CB  087F               	movf	btemp+1,w
  4315  02CC  1283               	bcf	3,5	;RP0=0, select bank0
  4316  02CD  1303               	bcf	3,6	;RP1=0, select bank0
  4317  02CE  00B6               	movwf	__Umul8_16@multiplicand
  4318  02CF  1683               	bsf	3,5	;RP0=1, select bank1
  4319  02D0  1303               	bcf	3,6	;RP1=0, select bank1
  4320  02D1  0859               	movf	(___flmul@a^(0+128)+2),w
  4321  02D2  120A  158A  2279  120A  118A  	fcall	__Umul8_16
  4322  02D7  1283               	bcf	3,5	;RP0=0, select bank0
  4323  02D8  1303               	bcf	3,6	;RP1=0, select bank0
  4324  02D9  0837               	movf	?__Umul8_16+1,w
  4325  02DA  1683               	bsf	3,5	;RP0=1, select bank1
  4326  02DB  1303               	bcf	3,6	;RP1=0, select bank1
  4327  02DC  00EC               	movwf	(___flmul@temp+1)^(0+128)
  4328  02DD  1283               	bcf	3,5	;RP0=0, select bank0
  4329  02DE  1303               	bcf	3,6	;RP1=0, select bank0
  4330  02DF  0836               	movf	?__Umul8_16,w
  4331  02E0  1683               	bsf	3,5	;RP0=1, select bank1
  4332  02E1  1303               	bcf	3,6	;RP1=0, select bank1
  4333  02E2  00EB               	movwf	___flmul@temp^(0+128)
  4334  02E3                     l3411:
  4335  02E3  086B               	movf	___flmul@temp^(0+128),w
  4336  02E4  00DB               	movwf	??___flmul^(0+128)
  4337  02E5  086C               	movf	(___flmul@temp+1)^(0+128),w
  4338  02E6  00DC               	movwf	(??___flmul^(0+128)+1)
  4339  02E7  01DD               	clrf	(??___flmul^(0+128)+2)
  4340  02E8  01DE               	clrf	(??___flmul^(0+128)+3)
  4341  02E9  3008               	movlw	8
  4342  02EA                     u4435:
  4343  02EA  1003               	clrc
  4344  02EB  0DDB               	rlf	??___flmul^(0+128),f
  4345  02EC  0DDC               	rlf	(??___flmul^(0+128)+1),f
  4346  02ED  0DDD               	rlf	(??___flmul^(0+128)+2),f
  4347  02EE  0DDE               	rlf	(??___flmul^(0+128)+3),f
  4348  02EF                     u4430:
  4349  02EF  3EFF               	addlw	-1
  4350  02F0  1D03               	skipz
  4351  02F1  2AEA               	goto	u4435
  4352  02F2  085B               	movf	??___flmul^(0+128),w
  4353  02F3  07E7               	addwf	___flmul@prod^(0+128),f
  4354  02F4  085C               	movf	(??___flmul+1)^(0+128),w
  4355  02F5  1103               	clrz
  4356  02F6  1803               	skipnc
  4357  02F7  3E01               	addlw	1
  4358  02F8  1903               	skipnz
  4359  02F9  2AFB               	goto	u4441
  4360  02FA  07E8               	addwf	(___flmul@prod+1)^(0+128),f
  4361  02FB                     u4441:
  4362  02FB  085D               	movf	(??___flmul+2)^(0+128),w
  4363  02FC  1103               	clrz
  4364  02FD  1803               	skipnc
  4365  02FE  3E01               	addlw	1
  4366  02FF  1903               	skipnz
  4367  0300  2B02               	goto	u4442
  4368  0301  07E9               	addwf	(___flmul@prod+2)^(0+128),f
  4369  0302                     u4442:
  4370  0302  085E               	movf	(??___flmul+3)^(0+128),w
  4371  0303  1103               	clrz
  4372  0304  1803               	skipnc
  4373  0305  3E01               	addlw	1
  4374  0306  1903               	skipnz
  4375  0307  2B09               	goto	u4443
  4376  0308  07EA               	addwf	(___flmul@prod+3)^(0+128),f
  4377  0309                     u4443:
  4378  0309                     l3413:
  4379  0309  0862               	movf	___flmul@grs^(0+128),w
  4380  030A  00DB               	movwf	??___flmul^(0+128)
  4381  030B  0863               	movf	(___flmul@grs+1)^(0+128),w
  4382  030C  00DC               	movwf	(??___flmul^(0+128)+1)
  4383  030D  0864               	movf	(___flmul@grs+2)^(0+128),w
  4384  030E  00DD               	movwf	(??___flmul^(0+128)+2)
  4385  030F  0865               	movf	(___flmul@grs+3)^(0+128),w
  4386  0310  00DE               	movwf	(??___flmul^(0+128)+3)
  4387  0311  3018               	movlw	24
  4388  0312                     u4455:
  4389  0312  1003               	clrc
  4390  0313  0CDE               	rrf	(??___flmul^(0+128)+3),f
  4391  0314  0CDD               	rrf	(??___flmul^(0+128)+2),f
  4392  0315  0CDC               	rrf	(??___flmul^(0+128)+1),f
  4393  0316  0CDB               	rrf	??___flmul^(0+128),f
  4394  0317                     u4450:
  4395  0317  3EFF               	addlw	-1
  4396  0318  1D03               	skipz
  4397  0319  2B12               	goto	u4455
  4398  031A  085B               	movf	??___flmul^(0+128),w
  4399  031B  07E7               	addwf	___flmul@prod^(0+128),f
  4400  031C  085C               	movf	(??___flmul+1)^(0+128),w
  4401  031D  1103               	clrz
  4402  031E  1803               	skipnc
  4403  031F  3E01               	addlw	1
  4404  0320  1903               	skipnz
  4405  0321  2B23               	goto	u4461
  4406  0322  07E8               	addwf	(___flmul@prod+1)^(0+128),f
  4407  0323                     u4461:
  4408  0323  085D               	movf	(??___flmul+2)^(0+128),w
  4409  0324  1103               	clrz
  4410  0325  1803               	skipnc
  4411  0326  3E01               	addlw	1
  4412  0327  1903               	skipnz
  4413  0328  2B2A               	goto	u4462
  4414  0329  07E9               	addwf	(___flmul@prod+2)^(0+128),f
  4415  032A                     u4462:
  4416  032A  085E               	movf	(??___flmul+3)^(0+128),w
  4417  032B  1103               	clrz
  4418  032C  1803               	skipnc
  4419  032D  3E01               	addlw	1
  4420  032E  1903               	skipnz
  4421  032F  2B31               	goto	u4463
  4422  0330  07EA               	addwf	(___flmul@prod+3)^(0+128),f
  4423  0331                     u4463:
  4424  0331                     l3415:
  4425  0331  3008               	movlw	8
  4426  0332  00DB               	movwf	??___flmul^(0+128)
  4427  0333                     u4475:
  4428  0333  1003               	clrc
  4429  0334  0DE2               	rlf	___flmul@grs^(0+128),f
  4430  0335  0DE3               	rlf	(___flmul@grs+1)^(0+128),f
  4431  0336  0DE4               	rlf	(___flmul@grs+2)^(0+128),f
  4432  0337  0DE5               	rlf	(___flmul@grs+3)^(0+128),f
  4433  0338  0BDB               	decfsz	??___flmul^(0+128),f
  4434  0339  2B33               	goto	u4475
  4435  033A                     l3417:
  4436  033A  0866               	movf	___flmul@bexp^(0+128),w
  4437  033B  0761               	addwf	___flmul@aexp^(0+128),w
  4438  033C  00DB               	movwf	??___flmul^(0+128)
  4439  033D  01DC               	clrf	(??___flmul^(0+128)+1)
  4440  033E  0DDC               	rlf	(??___flmul+1)^(0+128),f
  4441  033F  085B               	movf	??___flmul^(0+128),w
  4442  0340  3E82               	addlw	130
  4443  0341  00EB               	movwf	___flmul@temp^(0+128)
  4444  0342  085C               	movf	(??___flmul+1)^(0+128),w
  4445  0343  1803               	skipnc
  4446  0344  3E01               	addlw	1
  4447  0345  3EFF               	addlw	255
  4448  0346  00EC               	movwf	(___flmul@temp+1)^(0+128)
  4449  0347  2B65               	goto	l3429
  4450  0348                     l3419:
  4451  0348  3001               	movlw	1
  4452  0349  00DB               	movwf	??___flmul^(0+128)
  4453  034A                     u4485:
  4454  034A  1003               	clrc
  4455  034B  0DE7               	rlf	___flmul@prod^(0+128),f
  4456  034C  0DE8               	rlf	(___flmul@prod+1)^(0+128),f
  4457  034D  0DE9               	rlf	(___flmul@prod+2)^(0+128),f
  4458  034E  0DEA               	rlf	(___flmul@prod+3)^(0+128),f
  4459  034F  0BDB               	decfsz	??___flmul^(0+128),f
  4460  0350  2B4A               	goto	u4485
  4461  0351                     l3421:
  4462  0351  1FE5               	btfss	(___flmul@grs+3)^(0+128),7
  4463  0352  2B54               	goto	u4491
  4464  0353  2B55               	goto	u4490
  4465  0354                     u4491:
  4466  0354  2B56               	goto	l3425
  4467  0355                     u4490:
  4468  0355                     l3423:
  4469  0355  1467               	bsf	___flmul@prod^(0+128),0
  4470  0356                     l3425:
  4471  0356  3001               	movlw	1
  4472  0357  00DB               	movwf	??___flmul^(0+128)
  4473  0358                     u4505:
  4474  0358  1003               	clrc
  4475  0359  0DE2               	rlf	___flmul@grs^(0+128),f
  4476  035A  0DE3               	rlf	(___flmul@grs+1)^(0+128),f
  4477  035B  0DE4               	rlf	(___flmul@grs+2)^(0+128),f
  4478  035C  0DE5               	rlf	(___flmul@grs+3)^(0+128),f
  4479  035D  0BDB               	decfsz	??___flmul^(0+128),f
  4480  035E  2B58               	goto	u4505
  4481  035F                     l3427:
  4482  035F  30FF               	movlw	255
  4483  0360  07EB               	addwf	___flmul@temp^(0+128),f
  4484  0361  1803               	skipnc
  4485  0362  0AEC               	incf	(___flmul@temp+1)^(0+128),f
  4486  0363  30FF               	movlw	255
  4487  0364  07EC               	addwf	(___flmul@temp+1)^(0+128),f
  4488  0365                     l3429:
  4489  0365  1FE9               	btfss	(___flmul@prod+2)^(0+128),7
  4490  0366  2B68               	goto	u4511
  4491  0367  2B69               	goto	u4510
  4492  0368                     u4511:
  4493  0368  2B48               	goto	l3419
  4494  0369                     u4510:
  4495  0369                     l3431:
  4496  0369  01E1               	clrf	___flmul@aexp^(0+128)
  4497  036A                     l3433:
  4498  036A  1FE5               	btfss	(___flmul@grs+3)^(0+128),7
  4499  036B  2B6D               	goto	u4521
  4500  036C  2B6E               	goto	u4520
  4501  036D                     u4521:
  4502  036D  2B8A               	goto	l3441
  4503  036E                     u4520:
  4504  036E                     l3435:
  4505  036E  30FF               	movlw	255
  4506  036F  0562               	andwf	___flmul@grs^(0+128),w
  4507  0370  00DB               	movwf	??___flmul^(0+128)
  4508  0371  30FF               	movlw	255
  4509  0372  0563               	andwf	(___flmul@grs+1)^(0+128),w
  4510  0373  00DC               	movwf	(??___flmul^(0+128)+1)
  4511  0374  30FF               	movlw	255
  4512  0375  0564               	andwf	(___flmul@grs+2)^(0+128),w
  4513  0376  00DD               	movwf	(??___flmul^(0+128)+2)
  4514  0377  307F               	movlw	127
  4515  0378  0565               	andwf	(___flmul@grs+3)^(0+128),w
  4516  0379  00DE               	movwf	(??___flmul^(0+128)+3)
  4517  037A  085E               	movf	(??___flmul+3)^(0+128),w
  4518  037B  045D               	iorwf	(??___flmul+2)^(0+128),w
  4519  037C  045C               	iorwf	(??___flmul+1)^(0+128),w
  4520  037D  045B               	iorwf	??___flmul^(0+128),w
  4521  037E  1903               	skipnz
  4522  037F  2B81               	goto	u4531
  4523  0380  2B82               	goto	u4530
  4524  0381                     u4531:
  4525  0381  2B85               	goto	l1018
  4526  0382                     u4530:
  4527  0382                     l3437:
  4528  0382  01E1               	clrf	___flmul@aexp^(0+128)
  4529  0383  0AE1               	incf	___flmul@aexp^(0+128),f
  4530  0384  2B8A               	goto	l3441
  4531  0385                     l1018:
  4532  0385  1C67               	btfss	___flmul@prod^(0+128),0
  4533  0386  2B88               	goto	u4541
  4534  0387  2B89               	goto	u4540
  4535  0388                     u4541:
  4536  0388  2B8A               	goto	l3441
  4537  0389                     u4540:
  4538  0389  2B82               	goto	l3437
  4539  038A                     l3441:
  4540  038A  0861               	movf	___flmul@aexp^(0+128),w
  4541  038B  1903               	btfsc	3,2
  4542  038C  2B8E               	goto	u4551
  4543  038D  2B8F               	goto	u4550
  4544  038E                     u4551:
  4545  038E  2BC0               	goto	l3451
  4546  038F                     u4550:
  4547  038F                     l3443:
  4548  038F  3001               	movlw	1
  4549  0390  07E7               	addwf	___flmul@prod^(0+128),f
  4550  0391  3000               	movlw	0
  4551  0392  1803               	skipnc
  4552  0393  3001               	movlw	1
  4553  0394  07E8               	addwf	(___flmul@prod+1)^(0+128),f
  4554  0395  3000               	movlw	0
  4555  0396  1803               	skipnc
  4556  0397  3001               	movlw	1
  4557  0398  07E9               	addwf	(___flmul@prod+2)^(0+128),f
  4558  0399  3000               	movlw	0
  4559  039A  1803               	skipnc
  4560  039B  3001               	movlw	1
  4561  039C  07EA               	addwf	(___flmul@prod+3)^(0+128),f
  4562  039D                     l3445:
  4563  039D  1C6A               	btfss	(___flmul@prod+3)^(0+128),0
  4564  039E  2BA0               	goto	u4561
  4565  039F  2BA1               	goto	u4560
  4566  03A0                     u4561:
  4567  03A0  2BC0               	goto	l3451
  4568  03A1                     u4560:
  4569  03A1                     l3447:
  4570  03A1  0867               	movf	___flmul@prod^(0+128),w
  4571  03A2  00DB               	movwf	??___flmul^(0+128)
  4572  03A3  0868               	movf	(___flmul@prod+1)^(0+128),w
  4573  03A4  00DC               	movwf	(??___flmul^(0+128)+1)
  4574  03A5  0869               	movf	(___flmul@prod+2)^(0+128),w
  4575  03A6  00DD               	movwf	(??___flmul^(0+128)+2)
  4576  03A7  086A               	movf	(___flmul@prod+3)^(0+128),w
  4577  03A8  00DE               	movwf	(??___flmul^(0+128)+3)
  4578  03A9  3001               	movlw	1
  4579  03AA  00DF               	movwf	(??___flmul+4)^(0+128)
  4580  03AB                     u4575:
  4581  03AB  0D5E               	rlf	(??___flmul^(0+128)+3),w
  4582  03AC  0CDE               	rrf	(??___flmul^(0+128)+3),f
  4583  03AD  0CDD               	rrf	(??___flmul^(0+128)+2),f
  4584  03AE  0CDC               	rrf	(??___flmul^(0+128)+1),f
  4585  03AF  0CDB               	rrf	??___flmul^(0+128),f
  4586  03B0                     u4570:
  4587  03B0  0BDF               	decfsz	(??___flmul+4)^(0+128),f
  4588  03B1  2BAB               	goto	u4575
  4589  03B2  085E               	movf	(??___flmul+3)^(0+128),w
  4590  03B3  00EA               	movwf	(___flmul@prod+3)^(0+128)
  4591  03B4  085D               	movf	(??___flmul+2)^(0+128),w
  4592  03B5  00E9               	movwf	(___flmul@prod+2)^(0+128)
  4593  03B6  085C               	movf	(??___flmul+1)^(0+128),w
  4594  03B7  00E8               	movwf	(___flmul@prod+1)^(0+128)
  4595  03B8  085B               	movf	??___flmul^(0+128),w
  4596  03B9  00E7               	movwf	___flmul@prod^(0+128)
  4597  03BA                     l3449:
  4598  03BA  3001               	movlw	1
  4599  03BB  07EB               	addwf	___flmul@temp^(0+128),f
  4600  03BC  1803               	skipnc
  4601  03BD  0AEC               	incf	(___flmul@temp+1)^(0+128),f
  4602  03BE  3000               	movlw	0
  4603  03BF  07EC               	addwf	(___flmul@temp+1)^(0+128),f
  4604  03C0                     l3451:
  4605  03C0  086C               	movf	(___flmul@temp+1)^(0+128),w
  4606  03C1  3A80               	xorlw	128
  4607  03C2  00FF               	movwf	btemp+1
  4608  03C3  3080               	movlw	128
  4609  03C4  027F               	subwf	btemp+1,w
  4610  03C5  1D03               	skipz
  4611  03C6  2BC9               	goto	u4585
  4612  03C7  30FF               	movlw	255
  4613  03C8  026B               	subwf	___flmul@temp^(0+128),w
  4614  03C9                     u4585:
  4615  03C9  1C03               	skipc
  4616  03CA  2BCC               	goto	u4581
  4617  03CB  2BCD               	goto	u4580
  4618  03CC                     u4581:
  4619  03CC  2BD8               	goto	l3455
  4620  03CD                     u4580:
  4621  03CD                     l3453:
  4622  03CD  307F               	movlw	127
  4623  03CE  1683               	bsf	3,5	;RP0=1, select bank1
  4624  03CF  1303               	bcf	3,6	;RP1=0, select bank1
  4625  03D0  00EA               	movwf	(___flmul@prod+3)^(0+128)
  4626  03D1  3080               	movlw	128
  4627  03D2  00E9               	movwf	(___flmul@prod+2)^(0+128)
  4628  03D3  3000               	movlw	0
  4629  03D4  00E8               	movwf	(___flmul@prod+1)^(0+128)
  4630  03D5  3000               	movlw	0
  4631  03D6  00E7               	movwf	___flmul@prod^(0+128)
  4632  03D7  2C0D               	goto	l1024
  4633  03D8                     l3455:
  4634  03D8  1683               	bsf	3,5	;RP0=1, select bank1
  4635  03D9  1303               	bcf	3,6	;RP1=0, select bank1
  4636  03DA  086C               	movf	(___flmul@temp+1)^(0+128),w
  4637  03DB  3A80               	xorlw	128
  4638  03DC  00FF               	movwf	btemp+1
  4639  03DD  3080               	movlw	128
  4640  03DE  027F               	subwf	btemp+1,w
  4641  03DF  1D03               	skipz
  4642  03E0  2BE3               	goto	u4595
  4643  03E1  3001               	movlw	1
  4644  03E2  026B               	subwf	___flmul@temp^(0+128),w
  4645  03E3                     u4595:
  4646  03E3  1803               	skipnc
  4647  03E4  2BE6               	goto	u4591
  4648  03E5  2BE7               	goto	u4590
  4649  03E6                     u4591:
  4650  03E6  2BF3               	goto	l3461
  4651  03E7                     u4590:
  4652  03E7                     l3457:
  4653  03E7  3000               	movlw	0
  4654  03E8  1683               	bsf	3,5	;RP0=1, select bank1
  4655  03E9  1303               	bcf	3,6	;RP1=0, select bank1
  4656  03EA  00EA               	movwf	(___flmul@prod+3)^(0+128)
  4657  03EB  3000               	movlw	0
  4658  03EC  00E9               	movwf	(___flmul@prod+2)^(0+128)
  4659  03ED  3000               	movlw	0
  4660  03EE  00E8               	movwf	(___flmul@prod+1)^(0+128)
  4661  03EF  3000               	movlw	0
  4662  03F0  00E7               	movwf	___flmul@prod^(0+128)
  4663  03F1                     l3459:
  4664  03F1  01E0               	clrf	___flmul@sign^(0+128)
  4665  03F2  2C0D               	goto	l1024
  4666  03F3                     l3461:
  4667  03F3  1683               	bsf	3,5	;RP0=1, select bank1
  4668  03F4  1303               	bcf	3,6	;RP1=0, select bank1
  4669  03F5  086B               	movf	___flmul@temp^(0+128),w
  4670  03F6  00FF               	movwf	btemp+1
  4671  03F7  087F               	movf	btemp+1,w
  4672  03F8  00E6               	movwf	___flmul@bexp^(0+128)
  4673  03F9                     l3463:
  4674  03F9  30FF               	movlw	255
  4675  03FA  05E7               	andwf	___flmul@prod^(0+128),f
  4676  03FB  30FF               	movlw	255
  4677  03FC  05E8               	andwf	(___flmul@prod+1)^(0+128),f
  4678  03FD  307F               	movlw	127
  4679  03FE  05E9               	andwf	(___flmul@prod+2)^(0+128),f
  4680  03FF  3000               	movlw	0
  4681  0400  05EA               	andwf	(___flmul@prod+3)^(0+128),f
  4682  0401                     l3465:
  4683  0401  1C66               	btfss	___flmul@bexp^(0+128),0
  4684  0402  2C04               	goto	u4601
  4685  0403  2C05               	goto	u4600
  4686  0404                     u4601:
  4687  0404  2C06               	goto	l3469
  4688  0405                     u4600:
  4689  0405                     l3467:
  4690  0405  17E9               	bsf	(___flmul@prod^(0+128)+2),7
  4691  0406                     l3469:
  4692  0406  0866               	movf	___flmul@bexp^(0+128),w
  4693  0407  00DB               	movwf	??___flmul^(0+128)
  4694  0408  1003               	clrc
  4695  0409  0C5B               	rrf	??___flmul^(0+128),w
  4696  040A  00FF               	movwf	btemp+1
  4697  040B  087F               	movf	btemp+1,w
  4698  040C  00EA               	movwf	(___flmul@prod^(0+128)+3)
  4699  040D                     l1024:
  4700  040D  0860               	movf	___flmul@sign^(0+128),w
  4701  040E  00FF               	movwf	btemp+1
  4702  040F  087F               	movf	btemp+1,w
  4703  0410  04EA               	iorwf	(___flmul@prod^(0+128)+3),f
  4704  0411                     l3471:
  4705  0411  086A               	movf	(___flmul@prod+3)^(0+128),w
  4706  0412  00D6               	movwf	(?___flmul+3)^(0+128)
  4707  0413  0869               	movf	(___flmul@prod+2)^(0+128),w
  4708  0414  00D5               	movwf	(?___flmul+2)^(0+128)
  4709  0415  0868               	movf	(___flmul@prod+1)^(0+128),w
  4710  0416  00D4               	movwf	(?___flmul+1)^(0+128)
  4711  0417  0867               	movf	___flmul@prod^(0+128),w
  4712  0418  00D3               	movwf	?___flmul^(0+128)
  4713  0419                     l1012:
  4714  0419  0008               	return
  4715  041A                     __end_of___flmul:
  4716                           
  4717                           	psect	text16
  4718  0A79                     __ptext16:	
  4719 ;; *************** function __Umul8_16 *****************
  4720 ;; Defined at:
  4721 ;;		line 4 in file "C:\Program Files (x86)\Microchip\xc8\v2.20\pic\sources\c90\common\Umul8_16.c"
  4722 ;; Parameters:    Size  Location     Type
  4723 ;;  multiplier      1    wreg     unsigned char 
  4724 ;;  multiplicand    1   22[BANK0 ] unsigned char 
  4725 ;; Auto vars:     Size  Location     Type
  4726 ;;  multiplier      1   30[BANK0 ] unsigned char 
  4727 ;;  word_mpld       2   28[BANK0 ] unsigned int 
  4728 ;;  product         2   26[BANK0 ] unsigned int 
  4729 ;; Return value:  Size  Location     Type
  4730 ;;                  2   22[BANK0 ] unsigned int 
  4731 ;; Registers used:
  4732 ;;		wreg, status,2, status,0
  4733 ;; Tracked objects:
  4734 ;;		On entry : 0/0
  4735 ;;		On exit  : 0/0
  4736 ;;		Unchanged: 0/0
  4737 ;; Data sizes:     COMMON   BANK0   BANK1   BANK3   BANK2
  4738 ;;      Params:         0       2       0       0       0
  4739 ;;      Locals:         0       5       0       0       0
  4740 ;;      Temps:          0       2       0       0       0
  4741 ;;      Totals:         0       9       0       0       0
  4742 ;;Total ram usage:        9 bytes
  4743 ;; Hardware stack levels used:    1
  4744 ;; Hardware stack levels required when called:    4
  4745 ;; This function calls:
  4746 ;;		Nothing
  4747 ;; This function is called by:
  4748 ;;		___flmul
  4749 ;; This function uses a non-reentrant model
  4750 ;;
  4751                           
  4752                           
  4753                           ;psect for function __Umul8_16
  4754  0A79                     __Umul8_16:
  4755                           
  4756                           ;incstack = 0
  4757 ;; hardware stack exceeded
  4758                           ; Regs used in __Umul8_16: [wreg+status,2+status,0]
  4759                           ;__Umul8_16@multiplier stored from wreg
  4760  0A79  1283               	bcf	3,5	;RP0=0, select bank0
  4761  0A7A  1303               	bcf	3,6	;RP1=0, select bank0
  4762  0A7B  00BE               	movwf	__Umul8_16@multiplier
  4763  0A7C                     l3147:
  4764  0A7C  01BA               	clrf	__Umul8_16@product
  4765  0A7D  01BB               	clrf	__Umul8_16@product+1
  4766  0A7E                     l3149:
  4767  0A7E  0836               	movf	__Umul8_16@multiplicand,w
  4768  0A7F  00B8               	movwf	??__Umul8_16
  4769  0A80  01B9               	clrf	??__Umul8_16+1
  4770  0A81  0838               	movf	??__Umul8_16,w
  4771  0A82  00BC               	movwf	__Umul8_16@word_mpld
  4772  0A83  0839               	movf	??__Umul8_16+1,w
  4773  0A84  00BD               	movwf	__Umul8_16@word_mpld+1
  4774  0A85                     l3151:
  4775  0A85  1C3E               	btfss	__Umul8_16@multiplier,0
  4776  0A86  2A88               	goto	u3811
  4777  0A87  2A89               	goto	u3810
  4778  0A88                     u3811:
  4779  0A88  2A8F               	goto	l1031
  4780  0A89                     u3810:
  4781  0A89                     l3153:
  4782  0A89  083C               	movf	__Umul8_16@word_mpld,w
  4783  0A8A  07BA               	addwf	__Umul8_16@product,f
  4784  0A8B  1803               	skipnc
  4785  0A8C  0ABB               	incf	__Umul8_16@product+1,f
  4786  0A8D  083D               	movf	__Umul8_16@word_mpld+1,w
  4787  0A8E  07BB               	addwf	__Umul8_16@product+1,f
  4788  0A8F                     l1031:
  4789  0A8F  3001               	movlw	1
  4790  0A90                     u3825:
  4791  0A90  1003               	clrc
  4792  0A91  0DBC               	rlf	__Umul8_16@word_mpld,f
  4793  0A92  0DBD               	rlf	__Umul8_16@word_mpld+1,f
  4794  0A93  3EFF               	addlw	-1
  4795  0A94  1D03               	skipz
  4796  0A95  2A90               	goto	u3825
  4797  0A96  1003               	clrc
  4798  0A97  0CBE               	rrf	__Umul8_16@multiplier,f
  4799  0A98                     l3155:
  4800  0A98  083E               	movf	__Umul8_16@multiplier,w
  4801  0A99  1D03               	btfss	3,2
  4802  0A9A  2A9C               	goto	u3831
  4803  0A9B  2A9D               	goto	u3830
  4804  0A9C                     u3831:
  4805  0A9C  2A85               	goto	l3151
  4806  0A9D                     u3830:
  4807  0A9D                     l3157:
  4808  0A9D  083B               	movf	__Umul8_16@product+1,w
  4809  0A9E  00B7               	movwf	?__Umul8_16+1
  4810  0A9F  083A               	movf	__Umul8_16@product,w
  4811  0AA0  00B6               	movwf	?__Umul8_16
  4812  0AA1                     l1033:
  4813  0AA1  0008               	return
  4814  0AA2                     __end_of__Umul8_16:
  4815                           
  4816                           	psect	text17
  4817  04D6                     __ptext17:	
  4818 ;; *************** function _Average_Value *****************
  4819 ;; Defined at:
  4820 ;;		line 24 in file "Average/Average.c"
  4821 ;; Parameters:    Size  Location     Type
  4822 ;;  Value           1    wreg     unsigned char 
  4823 ;;  Avrage_Value    1    0[BANK1 ] PTR unsigned char 
  4824 ;;		 -> Temperature(6), 
  4825 ;; Auto vars:     Size  Location     Type
  4826 ;;  Value           1    6[BANK1 ] unsigned char 
  4827 ;;  index           1    7[BANK1 ] unsigned char 
  4828 ;; Return value:  Size  Location     Type
  4829 ;;                  1    wreg      void 
  4830 ;; Registers used:
  4831 ;;		wreg, fsr0l, fsr0h, status,2, status,0, btemp+1, pclath, cstack
  4832 ;; Tracked objects:
  4833 ;;		On entry : 0/0
  4834 ;;		On exit  : 0/0
  4835 ;;		Unchanged: 0/0
  4836 ;; Data sizes:     COMMON   BANK0   BANK1   BANK3   BANK2
  4837 ;;      Params:         0       0       1       0       0
  4838 ;;      Locals:         0       0       2       0       0
  4839 ;;      Temps:          0       0       5       0       0
  4840 ;;      Totals:         0       0       8       0       0
  4841 ;;Total ram usage:        8 bytes
  4842 ;; Hardware stack levels used:    1
  4843 ;; Hardware stack levels required when called:    5
  4844 ;; This function calls:
  4845 ;;		___lldiv
  4846 ;;		___lwmod
  4847 ;; This function is called by:
  4848 ;;		_Temperature_Calc
  4849 ;; This function uses a non-reentrant model
  4850 ;;
  4851                           
  4852                           
  4853                           ;psect for function _Average_Value
  4854  04D6                     _Average_Value:
  4855                           
  4856                           ;incstack = 0
  4857 ;; hardware stack exceeded
  4858                           ; Regs used in _Average_Value: [wreg-fsr0h+status,2+status,0+btemp+1+pclath+cstack]
  4859                           ;Average_Value@Value stored from wreg
  4860  04D6  1683               	bsf	3,5	;RP0=1, select bank1
  4861  04D7  1303               	bcf	3,6	;RP1=0, select bank1
  4862  04D8  00D9               	movwf	Average_Value@Value^(0+128)
  4863  04D9                     l3161:
  4864                           
  4865                           ;Average/Average.c: 24: void Average_Value(uint8_t Value,uint8_t *Avrage_Values);Average
      +                          /Average.c: 25: {;Average/Average.c: 27:     Avrage_buffer=0;
  4866  04D9  3000               	movlw	0
  4867  04DA  00CF               	movwf	(_Avrage_buffer+3)^(0+128)
  4868  04DB  3000               	movlw	0
  4869  04DC  00CE               	movwf	(_Avrage_buffer+2)^(0+128)
  4870  04DD  3000               	movlw	0
  4871  04DE  00CD               	movwf	(_Avrage_buffer+1)^(0+128)
  4872  04DF  3000               	movlw	0
  4873  04E0  00CC               	movwf	_Avrage_buffer^(0+128)
  4874  04E1                     l3163:
  4875                           
  4876                           ;Average/Average.c: 28:  temb_val[Average_Nvalues]=Value;
  4877  04E1  0859               	movf	Average_Value@Value^(0+128),w
  4878  04E2  00D4               	movwf	??_Average_Value^(0+128)
  4879  04E3  01D5               	clrf	(??_Average_Value^(0+128)+1)
  4880  04E4  01D6               	clrf	(??_Average_Value^(0+128)+2)
  4881  04E5  01D7               	clrf	(??_Average_Value^(0+128)+3)
  4882  04E6  1283               	bcf	3,5	;RP0=0, select bank0
  4883  04E7  1303               	bcf	3,6	;RP1=0, select bank0
  4884  04E8  0858               	movf	_Average_Nvalues,w
  4885  04E9  1683               	bsf	3,5	;RP0=1, select bank1
  4886  04EA  1303               	bcf	3,6	;RP1=0, select bank1
  4887  04EB  00D8               	movwf	(??_Average_Value+4)^(0+128)
  4888  04EC  3001               	movlw	1
  4889  04ED                     u3845:
  4890  04ED  1003               	clrc
  4891  04EE  0DD8               	rlf	(??_Average_Value+4)^(0+128),f
  4892  04EF  3EFF               	addlw	-1
  4893  04F0  1D03               	skipz
  4894  04F1  2CED               	goto	u3845
  4895  04F2  1003               	clrc
  4896  04F3  0D58               	rlf	(??_Average_Value+4)^(0+128),w
  4897  04F4  3EA0               	addlw	(low (_temb_val| 0))& (0+255)
  4898  04F5  0084               	movwf	4
  4899  04F6  0854               	movf	??_Average_Value^(0+128),w
  4900  04F7  1383               	bcf	3,7	;select IRP bank1
  4901  04F8  0080               	movwf	0
  4902  04F9  0A84               	incf	4,f
  4903  04FA  0855               	movf	(??_Average_Value+1)^(0+128),w
  4904  04FB  0080               	movwf	0
  4905  04FC  0A84               	incf	4,f
  4906  04FD  0856               	movf	(??_Average_Value+2)^(0+128),w
  4907  04FE  0080               	movwf	0
  4908  04FF  0A84               	incf	4,f
  4909  0500  0857               	movf	(??_Average_Value+3)^(0+128),w
  4910  0501  0080               	movwf	0
  4911  0502                     l3165:
  4912                           
  4913                           ;Average/Average.c: 30:  Average_Nvalues= (Average_Nvalues+1)%10U;
  4914  0502  300A               	movlw	10
  4915  0503  1283               	bcf	3,5	;RP0=0, select bank0
  4916  0504  1303               	bcf	3,6	;RP1=0, select bank0
  4917  0505  00B6               	movwf	___lwmod@divisor
  4918  0506  3000               	movlw	0
  4919  0507  00B7               	movwf	___lwmod@divisor+1
  4920  0508  0858               	movf	_Average_Nvalues,w
  4921  0509  3E01               	addlw	1
  4922  050A  00B8               	movwf	___lwmod@dividend
  4923  050B  3000               	movlw	0
  4924  050C  1803               	skipnc
  4925  050D  3001               	movlw	1
  4926  050E  00B9               	movwf	___lwmod@dividend+1
  4927  050F  120A  158A  2465  120A  118A  	fcall	___lwmod
  4928  0514  1283               	bcf	3,5	;RP0=0, select bank0
  4929  0515  1303               	bcf	3,6	;RP1=0, select bank0
  4930  0516  0836               	movf	?___lwmod,w
  4931  0517  00FF               	movwf	btemp+1
  4932  0518  087F               	movf	btemp+1,w
  4933  0519  00D8               	movwf	_Average_Nvalues
  4934  051A                     l3167:
  4935                           
  4936                           ;Average/Average.c: 32:  for(uint8_t index=0;index<10U;index++)
  4937  051A  1683               	bsf	3,5	;RP0=1, select bank1
  4938  051B  1303               	bcf	3,6	;RP1=0, select bank1
  4939  051C  01DA               	clrf	Average_Value@index^(0+128)
  4940  051D                     l3173:
  4941                           
  4942                           ;Average/Average.c: 33:  {;Average/Average.c: 34:   Avrage_buffer+=temb_val[index];
  4943  051D  085A               	movf	Average_Value@index^(0+128),w
  4944  051E  00D4               	movwf	??_Average_Value^(0+128)
  4945  051F  3001               	movlw	1
  4946  0520                     u3855:
  4947  0520  1003               	clrc
  4948  0521  0DD4               	rlf	??_Average_Value^(0+128),f
  4949  0522  3EFF               	addlw	-1
  4950  0523  1D03               	skipz
  4951  0524  2D20               	goto	u3855
  4952  0525  1003               	clrc
  4953  0526  0D54               	rlf	??_Average_Value^(0+128),w
  4954  0527  3EA0               	addlw	(low (_temb_val| 0))& (0+255)
  4955  0528  0084               	movwf	4
  4956  0529  1383               	bcf	3,7	;select IRP bank1
  4957  052A  0800               	movf	0,w
  4958  052B  07CC               	addwf	_Avrage_buffer^(0+128),f
  4959  052C  0A84               	incf	4,f
  4960  052D  0800               	movf	0,w
  4961  052E  1803               	skipnc
  4962  052F  0F00               	incfsz	0,w
  4963  0530  2D32               	goto	u3861
  4964  0531  2D33               	goto	u3862
  4965  0532                     u3861:
  4966  0532  07CD               	addwf	(_Avrage_buffer+1)^(0+128),f
  4967  0533                     u3862:
  4968  0533  0A84               	incf	4,f
  4969  0534  0800               	movf	0,w
  4970  0535  1803               	skipnc
  4971  0536  0F00               	incfsz	0,w
  4972  0537  2D39               	goto	u3863
  4973  0538  2D3A               	goto	u3864
  4974  0539                     u3863:
  4975  0539  07CE               	addwf	(_Avrage_buffer+2)^(0+128),f
  4976  053A                     u3864:
  4977  053A  0A84               	incf	4,f
  4978  053B  0800               	movf	0,w
  4979  053C  1803               	skipnc
  4980  053D  0F00               	incfsz	0,w
  4981  053E  2D40               	goto	u3865
  4982  053F  2D41               	goto	u3866
  4983  0540                     u3865:
  4984  0540  07CF               	addwf	(_Avrage_buffer+3)^(0+128),f
  4985  0541                     u3866:
  4986  0541                     l3175:
  4987                           
  4988                           ;Average/Average.c: 35:  }
  4989  0541  3001               	movlw	1
  4990  0542  00FF               	movwf	btemp+1
  4991  0543  087F               	movf	btemp+1,w
  4992  0544  07DA               	addwf	Average_Value@index^(0+128),f
  4993  0545                     l3177:
  4994  0545  300A               	movlw	10
  4995  0546  025A               	subwf	Average_Value@index^(0+128),w
  4996  0547  1C03               	skipc
  4997  0548  2D4A               	goto	u3871
  4998  0549  2D4B               	goto	u3870
  4999  054A                     u3871:
  5000  054A  2D1D               	goto	l3173
  5001  054B                     u3870:
  5002  054B                     l3179:
  5003                           
  5004                           ;Average/Average.c: 38:    *Avrage_Values=Avrage_buffer/10U;
  5005  054B  3000               	movlw	0
  5006  054C  1283               	bcf	3,5	;RP0=0, select bank0
  5007  054D  1303               	bcf	3,6	;RP1=0, select bank0
  5008  054E  00B9               	movwf	___lldiv@divisor+3
  5009  054F  3000               	movlw	0
  5010  0550  00B8               	movwf	___lldiv@divisor+2
  5011  0551  3000               	movlw	0
  5012  0552  00B7               	movwf	___lldiv@divisor+1
  5013  0553  300A               	movlw	10
  5014  0554  00B6               	movwf	___lldiv@divisor
  5015  0555  1683               	bsf	3,5	;RP0=1, select bank1
  5016  0556  1303               	bcf	3,6	;RP1=0, select bank1
  5017  0557  084F               	movf	(_Avrage_buffer+3)^(0+128),w
  5018  0558  1283               	bcf	3,5	;RP0=0, select bank0
  5019  0559  1303               	bcf	3,6	;RP1=0, select bank0
  5020  055A  00BD               	movwf	___lldiv@dividend+3
  5021  055B  1683               	bsf	3,5	;RP0=1, select bank1
  5022  055C  1303               	bcf	3,6	;RP1=0, select bank1
  5023  055D  084E               	movf	(_Avrage_buffer+2)^(0+128),w
  5024  055E  1283               	bcf	3,5	;RP0=0, select bank0
  5025  055F  1303               	bcf	3,6	;RP1=0, select bank0
  5026  0560  00BC               	movwf	___lldiv@dividend+2
  5027  0561  1683               	bsf	3,5	;RP0=1, select bank1
  5028  0562  1303               	bcf	3,6	;RP1=0, select bank1
  5029  0563  084D               	movf	(_Avrage_buffer+1)^(0+128),w
  5030  0564  1283               	bcf	3,5	;RP0=0, select bank0
  5031  0565  1303               	bcf	3,6	;RP1=0, select bank0
  5032  0566  00BB               	movwf	___lldiv@dividend+1
  5033  0567  1683               	bsf	3,5	;RP0=1, select bank1
  5034  0568  1303               	bcf	3,6	;RP1=0, select bank1
  5035  0569  084C               	movf	_Avrage_buffer^(0+128),w
  5036  056A  1283               	bcf	3,5	;RP0=0, select bank0
  5037  056B  1303               	bcf	3,6	;RP1=0, select bank0
  5038  056C  00BA               	movwf	___lldiv@dividend
  5039  056D  120A  118A  2716  120A  118A  	fcall	___lldiv
  5040  0572  1283               	bcf	3,5	;RP0=0, select bank0
  5041  0573  1303               	bcf	3,6	;RP1=0, select bank0
  5042  0574  0836               	movf	?___lldiv,w
  5043  0575  00FF               	movwf	btemp+1
  5044  0576  1683               	bsf	3,5	;RP0=1, select bank1
  5045  0577  1303               	bcf	3,6	;RP1=0, select bank1
  5046  0578  0853               	movf	Average_Value@Avrage_Values^(0+128),w
  5047  0579  0084               	movwf	4
  5048  057A  087F               	movf	btemp+1,w
  5049  057B  1383               	bcf	3,7	;select IRP bank0
  5050  057C  0080               	movwf	0
  5051  057D                     l79:
  5052  057D  0008               	return
  5053  057E                     __end_of_Average_Value:
  5054                           
  5055                           	psect	text18
  5056  0C65                     __ptext18:	
  5057 ;; *************** function ___lwmod *****************
  5058 ;; Defined at:
  5059 ;;		line 5 in file "C:\Program Files (x86)\Microchip\xc8\v2.20\pic\sources\c90\common\lwmod.c"
  5060 ;; Parameters:    Size  Location     Type
  5061 ;;  divisor         2   22[BANK0 ] unsigned int 
  5062 ;;  dividend        2   24[BANK0 ] unsigned int 
  5063 ;; Auto vars:     Size  Location     Type
  5064 ;;  counter         1   26[BANK0 ] unsigned char 
  5065 ;; Return value:  Size  Location     Type
  5066 ;;                  2   22[BANK0 ] unsigned int 
  5067 ;; Registers used:
  5068 ;;		wreg, status,2, status,0, btemp+1
  5069 ;; Tracked objects:
  5070 ;;		On entry : 0/0
  5071 ;;		On exit  : 0/0
  5072 ;;		Unchanged: 0/0
  5073 ;; Data sizes:     COMMON   BANK0   BANK1   BANK3   BANK2
  5074 ;;      Params:         0       4       0       0       0
  5075 ;;      Locals:         0       1       0       0       0
  5076 ;;      Temps:          0       0       0       0       0
  5077 ;;      Totals:         0       5       0       0       0
  5078 ;;Total ram usage:        5 bytes
  5079 ;; Hardware stack levels used:    1
  5080 ;; Hardware stack levels required when called:    4
  5081 ;; This function calls:
  5082 ;;		Nothing
  5083 ;; This function is called by:
  5084 ;;		_Average_Value
  5085 ;;		_Temperature_Calc
  5086 ;; This function uses a non-reentrant model
  5087 ;;
  5088                           
  5089                           
  5090                           ;psect for function ___lwmod
  5091  0C65                     ___lwmod:
  5092  0C65                     l3125:	
  5093                           ;incstack = 0
  5094 ;; hardware stack exceeded
  5095                           ; Regs used in ___lwmod: [wreg+status,2+status,0+btemp+1]
  5096                           
  5097  0C65  1283               	bcf	3,5	;RP0=0, select bank0
  5098  0C66  1303               	bcf	3,6	;RP1=0, select bank0
  5099  0C67  0836               	movf	___lwmod@divisor,w
  5100  0C68  0437               	iorwf	___lwmod@divisor+1,w
  5101  0C69  1903               	btfsc	3,2
  5102  0C6A  2C6C               	goto	u3751
  5103  0C6B  2C6D               	goto	u3750
  5104  0C6C                     u3751:
  5105  0C6C  2C9C               	goto	l3143
  5106  0C6D                     u3750:
  5107  0C6D                     l3127:
  5108  0C6D  01BA               	clrf	___lwmod@counter
  5109  0C6E  0ABA               	incf	___lwmod@counter,f
  5110  0C6F  2C7B               	goto	l3133
  5111  0C70                     l3129:
  5112  0C70  3001               	movlw	1
  5113  0C71                     u3765:
  5114  0C71  1003               	clrc
  5115  0C72  0DB6               	rlf	___lwmod@divisor,f
  5116  0C73  0DB7               	rlf	___lwmod@divisor+1,f
  5117  0C74  3EFF               	addlw	-1
  5118  0C75  1D03               	skipz
  5119  0C76  2C71               	goto	u3765
  5120  0C77                     l3131:
  5121  0C77  3001               	movlw	1
  5122  0C78  00FF               	movwf	btemp+1
  5123  0C79  087F               	movf	btemp+1,w
  5124  0C7A  07BA               	addwf	___lwmod@counter,f
  5125  0C7B                     l3133:
  5126  0C7B  1FB7               	btfss	___lwmod@divisor+1,7
  5127  0C7C  2C7E               	goto	u3771
  5128  0C7D  2C7F               	goto	u3770
  5129  0C7E                     u3771:
  5130  0C7E  2C70               	goto	l3129
  5131  0C7F                     u3770:
  5132  0C7F                     l3135:
  5133  0C7F  0837               	movf	___lwmod@divisor+1,w
  5134  0C80  0239               	subwf	___lwmod@dividend+1,w
  5135  0C81  1D03               	skipz
  5136  0C82  2C85               	goto	u3785
  5137  0C83  0836               	movf	___lwmod@divisor,w
  5138  0C84  0238               	subwf	___lwmod@dividend,w
  5139  0C85                     u3785:
  5140  0C85  1C03               	skipc
  5141  0C86  2C88               	goto	u3781
  5142  0C87  2C89               	goto	u3780
  5143  0C88                     u3781:
  5144  0C88  2C8F               	goto	l3139
  5145  0C89                     u3780:
  5146  0C89                     l3137:
  5147  0C89  0836               	movf	___lwmod@divisor,w
  5148  0C8A  02B8               	subwf	___lwmod@dividend,f
  5149  0C8B  0837               	movf	___lwmod@divisor+1,w
  5150  0C8C  1C03               	skipc
  5151  0C8D  03B9               	decf	___lwmod@dividend+1,f
  5152  0C8E  02B9               	subwf	___lwmod@dividend+1,f
  5153  0C8F                     l3139:
  5154  0C8F  3001               	movlw	1
  5155  0C90                     u3795:
  5156  0C90  1003               	clrc
  5157  0C91  0CB7               	rrf	___lwmod@divisor+1,f
  5158  0C92  0CB6               	rrf	___lwmod@divisor,f
  5159  0C93  3EFF               	addlw	-1
  5160  0C94  1D03               	skipz
  5161  0C95  2C90               	goto	u3795
  5162  0C96                     l3141:
  5163  0C96  3001               	movlw	1
  5164  0C97  02BA               	subwf	___lwmod@counter,f
  5165  0C98  1D03               	btfss	3,2
  5166  0C99  2C9B               	goto	u3801
  5167  0C9A  2C9C               	goto	u3800
  5168  0C9B                     u3801:
  5169  0C9B  2C7F               	goto	l3135
  5170  0C9C                     u3800:
  5171  0C9C                     l3143:
  5172  0C9C  0839               	movf	___lwmod@dividend+1,w
  5173  0C9D  00B7               	movwf	?___lwmod+1
  5174  0C9E  0838               	movf	___lwmod@dividend,w
  5175  0C9F  00B6               	movwf	?___lwmod
  5176  0CA0                     l905:
  5177  0CA0  0008               	return
  5178  0CA1                     __end_of___lwmod:
  5179                           
  5180                           	psect	text19
  5181  0716                     __ptext19:	
  5182 ;; *************** function ___lldiv *****************
  5183 ;; Defined at:
  5184 ;;		line 5 in file "C:\Program Files (x86)\Microchip\xc8\v2.20\pic\sources\c90\common\__lldiv.c"
  5185 ;; Parameters:    Size  Location     Type
  5186 ;;  divisor         4   22[BANK0 ] unsigned long 
  5187 ;;  dividend        4   26[BANK0 ] unsigned long 
  5188 ;; Auto vars:     Size  Location     Type
  5189 ;;  quotient        4   31[BANK0 ] unsigned long 
  5190 ;;  counter         1   35[BANK0 ] unsigned char 
  5191 ;; Return value:  Size  Location     Type
  5192 ;;                  4   22[BANK0 ] unsigned long 
  5193 ;; Registers used:
  5194 ;;		wreg, status,2, status,0, btemp+1
  5195 ;; Tracked objects:
  5196 ;;		On entry : 0/0
  5197 ;;		On exit  : 0/0
  5198 ;;		Unchanged: 0/0
  5199 ;; Data sizes:     COMMON   BANK0   BANK1   BANK3   BANK2
  5200 ;;      Params:         0       8       0       0       0
  5201 ;;      Locals:         0       5       0       0       0
  5202 ;;      Temps:          0       1       0       0       0
  5203 ;;      Totals:         0      14       0       0       0
  5204 ;;Total ram usage:       14 bytes
  5205 ;; Hardware stack levels used:    1
  5206 ;; Hardware stack levels required when called:    4
  5207 ;; This function calls:
  5208 ;;		Nothing
  5209 ;; This function is called by:
  5210 ;;		_Average_Value
  5211 ;; This function uses a non-reentrant model
  5212 ;;
  5213                           
  5214                           
  5215                           ;psect for function ___lldiv
  5216  0716                     ___lldiv:
  5217  0716                     l3099:	
  5218                           ;incstack = 0
  5219 ;; hardware stack exceeded
  5220                           ; Regs used in ___lldiv: [wreg+status,2+status,0+btemp+1]
  5221                           
  5222  0716  3000               	movlw	0
  5223  0717  1283               	bcf	3,5	;RP0=0, select bank0
  5224  0718  1303               	bcf	3,6	;RP1=0, select bank0
  5225  0719  00C2               	movwf	___lldiv@quotient+3
  5226  071A  3000               	movlw	0
  5227  071B  00C1               	movwf	___lldiv@quotient+2
  5228  071C  3000               	movlw	0
  5229  071D  00C0               	movwf	___lldiv@quotient+1
  5230  071E  3000               	movlw	0
  5231  071F  00BF               	movwf	___lldiv@quotient
  5232  0720  0839               	movf	___lldiv@divisor+3,w
  5233  0721  0438               	iorwf	___lldiv@divisor+2,w
  5234  0722  0437               	iorwf	___lldiv@divisor+1,w
  5235  0723  0436               	iorwf	___lldiv@divisor,w
  5236  0724  1903               	skipnz
  5237  0725  2F27               	goto	u3681
  5238  0726  2F28               	goto	u3680
  5239  0727                     u3681:
  5240  0727  2F75               	goto	l3121
  5241  0728                     u3680:
  5242  0728                     l3101:
  5243  0728  01C3               	clrf	___lldiv@counter
  5244  0729  0AC3               	incf	___lldiv@counter,f
  5245  072A  2F38               	goto	l3107
  5246  072B                     l3103:
  5247  072B  3001               	movlw	1
  5248  072C  00BE               	movwf	??___lldiv
  5249  072D                     u3695:
  5250  072D  1003               	clrc
  5251  072E  0DB6               	rlf	___lldiv@divisor,f
  5252  072F  0DB7               	rlf	___lldiv@divisor+1,f
  5253  0730  0DB8               	rlf	___lldiv@divisor+2,f
  5254  0731  0DB9               	rlf	___lldiv@divisor+3,f
  5255  0732  0BBE               	decfsz	??___lldiv,f
  5256  0733  2F2D               	goto	u3695
  5257  0734                     l3105:
  5258  0734  3001               	movlw	1
  5259  0735  00FF               	movwf	btemp+1
  5260  0736  087F               	movf	btemp+1,w
  5261  0737  07C3               	addwf	___lldiv@counter,f
  5262  0738                     l3107:
  5263  0738  1FB9               	btfss	___lldiv@divisor+3,7
  5264  0739  2F3B               	goto	u3701
  5265  073A  2F3C               	goto	u3700
  5266  073B                     u3701:
  5267  073B  2F2B               	goto	l3103
  5268  073C                     u3700:
  5269  073C                     l3109:
  5270  073C  3001               	movlw	1
  5271  073D  00BE               	movwf	??___lldiv
  5272  073E                     u3715:
  5273  073E  1003               	clrc
  5274  073F  0DBF               	rlf	___lldiv@quotient,f
  5275  0740  0DC0               	rlf	___lldiv@quotient+1,f
  5276  0741  0DC1               	rlf	___lldiv@quotient+2,f
  5277  0742  0DC2               	rlf	___lldiv@quotient+3,f
  5278  0743  0BBE               	decfsz	??___lldiv,f
  5279  0744  2F3E               	goto	u3715
  5280  0745                     l3111:
  5281  0745  0839               	movf	___lldiv@divisor+3,w
  5282  0746  023D               	subwf	___lldiv@dividend+3,w
  5283  0747  1D03               	skipz
  5284  0748  2F53               	goto	u3725
  5285  0749  0838               	movf	___lldiv@divisor+2,w
  5286  074A  023C               	subwf	___lldiv@dividend+2,w
  5287  074B  1D03               	skipz
  5288  074C  2F53               	goto	u3725
  5289  074D  0837               	movf	___lldiv@divisor+1,w
  5290  074E  023B               	subwf	___lldiv@dividend+1,w
  5291  074F  1D03               	skipz
  5292  0750  2F53               	goto	u3725
  5293  0751  0836               	movf	___lldiv@divisor,w
  5294  0752  023A               	subwf	___lldiv@dividend,w
  5295  0753                     u3725:
  5296  0753  1C03               	skipc
  5297  0754  2F56               	goto	u3721
  5298  0755  2F57               	goto	u3720
  5299  0756                     u3721:
  5300  0756  2F66               	goto	l3117
  5301  0757                     u3720:
  5302  0757                     l3113:
  5303  0757  0836               	movf	___lldiv@divisor,w
  5304  0758  02BA               	subwf	___lldiv@dividend,f
  5305  0759  0837               	movf	___lldiv@divisor+1,w
  5306  075A  1C03               	skipc
  5307  075B  0F37               	incfsz	___lldiv@divisor+1,w
  5308  075C  02BB               	subwf	___lldiv@dividend+1,f
  5309  075D  0838               	movf	___lldiv@divisor+2,w
  5310  075E  1C03               	skipc
  5311  075F  0F38               	incfsz	___lldiv@divisor+2,w
  5312  0760  02BC               	subwf	___lldiv@dividend+2,f
  5313  0761  0839               	movf	___lldiv@divisor+3,w
  5314  0762  1C03               	skipc
  5315  0763  0F39               	incfsz	___lldiv@divisor+3,w
  5316  0764  02BD               	subwf	___lldiv@dividend+3,f
  5317  0765                     l3115:
  5318  0765  143F               	bsf	___lldiv@quotient,0
  5319  0766                     l3117:
  5320  0766  3001               	movlw	1
  5321  0767                     u3735:
  5322  0767  1003               	clrc
  5323  0768  0CB9               	rrf	___lldiv@divisor+3,f
  5324  0769  0CB8               	rrf	___lldiv@divisor+2,f
  5325  076A  0CB7               	rrf	___lldiv@divisor+1,f
  5326  076B  0CB6               	rrf	___lldiv@divisor,f
  5327  076C  3EFF               	addlw	-1
  5328  076D  1D03               	skipz
  5329  076E  2F67               	goto	u3735
  5330  076F                     l3119:
  5331  076F  3001               	movlw	1
  5332  0770  02C3               	subwf	___lldiv@counter,f
  5333  0771  1D03               	btfss	3,2
  5334  0772  2F74               	goto	u3741
  5335  0773  2F75               	goto	u3740
  5336  0774                     u3741:
  5337  0774  2F3C               	goto	l3109
  5338  0775                     u3740:
  5339  0775                     l3121:
  5340  0775  0842               	movf	___lldiv@quotient+3,w
  5341  0776  00B9               	movwf	?___lldiv+3
  5342  0777  0841               	movf	___lldiv@quotient+2,w
  5343  0778  00B8               	movwf	?___lldiv+2
  5344  0779  0840               	movf	___lldiv@quotient+1,w
  5345  077A  00B7               	movwf	?___lldiv+1
  5346  077B  083F               	movf	___lldiv@quotient,w
  5347  077C  00B6               	movwf	?___lldiv
  5348  077D                     l659:
  5349  077D  0008               	return
  5350  077E                     __end_of___lldiv:
  5351                           
  5352                           	psect	text20
  5353  09B7                     __ptext20:	
  5354 ;; *************** function _ADC_Get_Value *****************
  5355 ;; Defined at:
  5356 ;;		line 78 in file "ADC/ADC.c"
  5357 ;; Parameters:    Size  Location     Type
  5358 ;;  Buffer          1    wreg     PTR unsigned char 
  5359 ;;		 -> Temperature(6), 
  5360 ;; Auto vars:     Size  Location     Type
  5361 ;;  Buffer          1   22[BANK0 ] PTR unsigned char 
  5362 ;;		 -> Temperature(6), 
  5363 ;; Return value:  Size  Location     Type
  5364 ;;                  1    wreg      void 
  5365 ;; Registers used:
  5366 ;;		wreg, fsr0l, fsr0h, btemp+1
  5367 ;; Tracked objects:
  5368 ;;		On entry : 0/0
  5369 ;;		On exit  : 0/0
  5370 ;;		Unchanged: 0/0
  5371 ;; Data sizes:     COMMON   BANK0   BANK1   BANK3   BANK2
  5372 ;;      Params:         0       0       0       0       0
  5373 ;;      Locals:         0       1       0       0       0
  5374 ;;      Temps:          0       0       0       0       0
  5375 ;;      Totals:         0       1       0       0       0
  5376 ;;Total ram usage:        1 bytes
  5377 ;; Hardware stack levels used:    1
  5378 ;; Hardware stack levels required when called:    4
  5379 ;; This function calls:
  5380 ;;		Nothing
  5381 ;; This function is called by:
  5382 ;;		_Temperature_MainFunction
  5383 ;; This function uses a non-reentrant model
  5384 ;;
  5385                           
  5386                           
  5387                           ;psect for function _ADC_Get_Value
  5388  09B7                     _ADC_Get_Value:
  5389                           
  5390                           ;incstack = 0
  5391                           ; Regs used in _ADC_Get_Value: [wreg-fsr0h+btemp+1]
  5392                           ;ADC_Get_Value@Buffer stored from wreg
  5393  09B7  1283               	bcf	3,5	;RP0=0, select bank0
  5394  09B8  1303               	bcf	3,6	;RP1=0, select bank0
  5395  09B9  00B6               	movwf	ADC_Get_Value@Buffer
  5396  09BA                     l3523:
  5397                           
  5398                           ;ADC/ADC.c: 78: void ADC_Get_Value(uint8_t *Buffer);ADC/ADC.c: 79: {;ADC/ADC.c: 80:  if(
      +                          ADC_Info.ADC_START_FLAG==1&&ADCON0bits.GO_DONE==0)
  5399  09BA  1CCD               	btfss	_ADC_Info,1
  5400  09BB  29BD               	goto	u4751
  5401  09BC  29BE               	goto	u4750
  5402  09BD                     u4751:
  5403  09BD  29CE               	goto	l21
  5404  09BE                     u4750:
  5405  09BE                     l3525:
  5406  09BE  191F               	btfsc	31,2	;volatile
  5407  09BF  29C1               	goto	u4761
  5408  09C0  29C2               	goto	u4760
  5409  09C1                     u4761:
  5410  09C1  29CE               	goto	l21
  5411  09C2                     u4760:
  5412  09C2                     l3527:
  5413                           
  5414                           ;ADC/ADC.c: 81:  {;ADC/ADC.c: 82:         *Buffer=(ADRESH<<8)|(ADRESL);
  5415  09C2  1683               	bsf	3,5	;RP0=1, select bank1
  5416  09C3  1303               	bcf	3,6	;RP1=0, select bank1
  5417  09C4  081E               	movf	30,w	;volatile
  5418  09C5  00FF               	movwf	btemp+1
  5419  09C6  1283               	bcf	3,5	;RP0=0, select bank0
  5420  09C7  1303               	bcf	3,6	;RP1=0, select bank0
  5421  09C8  0836               	movf	ADC_Get_Value@Buffer,w
  5422  09C9  0084               	movwf	4
  5423  09CA  087F               	movf	btemp+1,w
  5424  09CB  1383               	bcf	3,7	;select IRP bank0
  5425  09CC  0080               	movwf	0
  5426  09CD                     l3529:
  5427                           
  5428                           ;ADC/ADC.c: 83:      ADCON0bits.GO_DONE=1;
  5429  09CD  151F               	bsf	31,2	;volatile
  5430  09CE                     l21:
  5431  09CE  0008               	return
  5432  09CF                     __end_of_ADC_Get_Value:
  5433                           
  5434                           	psect	text21
  5435  0F9A                     __ptext21:	
  5436 ;; *************** function _Elements_MainFunction *****************
  5437 ;; Defined at:
  5438 ;;		line 94 in file "Elements/Elements.c"
  5439 ;; Parameters:    Size  Location     Type
  5440 ;;		None
  5441 ;; Auto vars:     Size  Location     Type
  5442 ;;		None
  5443 ;; Return value:  Size  Location     Type
  5444 ;;                  1    wreg      void 
  5445 ;; Registers used:
  5446 ;;		wreg, fsr0l, fsr0h, status,2, status,0, btemp+1, pclath, cstack
  5447 ;; Tracked objects:
  5448 ;;		On entry : 0/0
  5449 ;;		On exit  : 0/0
  5450 ;;		Unchanged: 0/0
  5451 ;; Data sizes:     COMMON   BANK0   BANK1   BANK3   BANK2
  5452 ;;      Params:         0       0       0       0       0
  5453 ;;      Locals:         0       0       0       0       0
  5454 ;;      Temps:          0       0       4       0       0
  5455 ;;      Totals:         0       0       4       0       0
  5456 ;;Total ram usage:        4 bytes
  5457 ;; Hardware stack levels used:    1
  5458 ;; Hardware stack levels required when called:    7
  5459 ;; This function calls:
  5460 ;;		_LED_Control
  5461 ;; This function is called by:
  5462 ;;		_Scheduler_Task2
  5463 ;; This function uses a non-reentrant model
  5464 ;;
  5465                           
  5466                           
  5467                           ;psect for function _Elements_MainFunction
  5468  0F9A                     _Elements_MainFunction:
  5469  0F9A                     l3631:	
  5470                           ;incstack = 0
  5471 ;; hardware stack exceeded
  5472                           ; Regs used in _Elements_MainFunction: [wreg-fsr0h+status,2+status,0+btemp+1+pclath+csta
      +                          ck]
  5473                           
  5474                           
  5475                           ;Elements/Elements.c: 96:   if(Temperature.Average_Value_Ready_Flag==1 && Mode.Select_Mo
      +                          de==Normal_Mode)
  5476  0F9A  1283               	bcf	3,5	;RP0=0, select bank0
  5477  0F9B  1303               	bcf	3,6	;RP1=0, select bank0
  5478  0F9C  1C52               	btfss	_Temperature+4,0
  5479  0F9D  2F9F               	goto	u5001
  5480  0F9E  2FA0               	goto	u5000
  5481  0F9F                     u5001:
  5482  0F9F  2FF1               	goto	l3651
  5483  0FA0                     u5000:
  5484  0FA0                     l3633:
  5485  0FA0  0354               	decf	_Mode,w
  5486  0FA1  1D03               	btfss	3,2
  5487  0FA2  2FA4               	goto	u5011
  5488  0FA3  2FA5               	goto	u5010
  5489  0FA4                     u5011:
  5490  0FA4  2FF1               	goto	l3651
  5491  0FA5                     u5010:
  5492  0FA5                     l3635:
  5493                           
  5494                           ;Elements/Elements.c: 97:   {;Elements/Elements.c: 99:         if(Temperature.Average_Va
      +                          lue < (Temperature.Set_Temp - (5U)))
  5495  0FA5  0851               	movf	_Temperature+3,w
  5496  0FA6  3EFB               	addlw	251
  5497  0FA7  1683               	bsf	3,5	;RP0=1, select bank1
  5498  0FA8  1303               	bcf	3,6	;RP1=0, select bank1
  5499  0FA9  00D3               	movwf	??_Elements_MainFunction^(0+128)
  5500  0FAA  30FF               	movlw	255
  5501  0FAB  1803               	skipnc
  5502  0FAC  3000               	movlw	0
  5503  0FAD  00D4               	movwf	(??_Elements_MainFunction^(0+128)+1)
  5504  0FAE  1283               	bcf	3,5	;RP0=0, select bank0
  5505  0FAF  1303               	bcf	3,6	;RP1=0, select bank0
  5506  0FB0  084F               	movf	_Temperature+1,w
  5507  0FB1  1683               	bsf	3,5	;RP0=1, select bank1
  5508  0FB2  1303               	bcf	3,6	;RP1=0, select bank1
  5509  0FB3  00D5               	movwf	(??_Elements_MainFunction+2)^(0+128)
  5510  0FB4  01D6               	clrf	((??_Elements_MainFunction+2)^(0+128)+1)
  5511  0FB5  0854               	movf	(??_Elements_MainFunction+1)^(0+128),w
  5512  0FB6  0256               	subwf	(??_Elements_MainFunction+3)^(0+128),w
  5513  0FB7  1D03               	skipz
  5514  0FB8  2FBB               	goto	u5025
  5515  0FB9  0853               	movf	??_Elements_MainFunction^(0+128),w
  5516  0FBA  0255               	subwf	(??_Elements_MainFunction+2)^(0+128),w
  5517  0FBB                     u5025:
  5518  0FBB  1803               	skipnc
  5519  0FBC  2FBE               	goto	u5021
  5520  0FBD  2FBF               	goto	u5020
  5521  0FBE                     u5021:
  5522  0FBE  2FCB               	goto	l3643
  5523  0FBF                     u5020:
  5524  0FBF                     l3637:
  5525                           
  5526                           ;Elements/Elements.c: 100:          {;Elements/Elements.c: 101:          (PORTC &= ~(1<<
      +                          2));
  5527  0FBF  30FB               	movlw	251
  5528  0FC0  00FF               	movwf	btemp+1
  5529  0FC1  087F               	movf	btemp+1,w
  5530  0FC2  1283               	bcf	3,5	;RP0=0, select bank0
  5531  0FC3  1303               	bcf	3,6	;RP1=0, select bank0
  5532  0FC4  0587               	andwf	7,f	;volatile
  5533  0FC5                     l3639:
  5534                           
  5535                           ;Elements/Elements.c: 102:          (PORTC|= (1<<5));
  5536  0FC5  1687               	bsf	7,5	;volatile
  5537  0FC6                     l3641:
  5538                           
  5539                           ;Elements/Elements.c: 103:             LED_Status=_LED_BLINK;
  5540  0FC6  3002               	movlw	2
  5541  0FC7  00FF               	movwf	btemp+1
  5542  0FC8  087F               	movf	btemp+1,w
  5543  0FC9  00CB               	movwf	_LED_Status
  5544                           
  5545                           ;Elements/Elements.c: 105:          }else if(Temperature.Average_Value > (Temperature.Se
      +                          t_Temp + (5U)))
  5546  0FCA  2FFA               	goto	l3655
  5547  0FCB                     l3643:
  5548  0FCB  1283               	bcf	3,5	;RP0=0, select bank0
  5549  0FCC  1303               	bcf	3,6	;RP1=0, select bank0
  5550  0FCD  084F               	movf	_Temperature+1,w
  5551  0FCE  1683               	bsf	3,5	;RP0=1, select bank1
  5552  0FCF  1303               	bcf	3,6	;RP1=0, select bank1
  5553  0FD0  00D3               	movwf	??_Elements_MainFunction^(0+128)
  5554  0FD1  01D4               	clrf	(??_Elements_MainFunction^(0+128)+1)
  5555  0FD2  1283               	bcf	3,5	;RP0=0, select bank0
  5556  0FD3  1303               	bcf	3,6	;RP1=0, select bank0
  5557  0FD4  0851               	movf	_Temperature+3,w
  5558  0FD5  3E05               	addlw	5
  5559  0FD6  1683               	bsf	3,5	;RP0=1, select bank1
  5560  0FD7  1303               	bcf	3,6	;RP1=0, select bank1
  5561  0FD8  00D5               	movwf	(??_Elements_MainFunction+2)^(0+128)
  5562  0FD9  3000               	movlw	0
  5563  0FDA  1803               	skipnc
  5564  0FDB  3001               	movlw	1
  5565  0FDC  00D6               	movwf	((??_Elements_MainFunction+2)^(0+128)+1)
  5566  0FDD  0854               	movf	(??_Elements_MainFunction+1)^(0+128),w
  5567  0FDE  0256               	subwf	(??_Elements_MainFunction+3)^(0+128),w
  5568  0FDF  1D03               	skipz
  5569  0FE0  2FE3               	goto	u5035
  5570  0FE1  0853               	movf	??_Elements_MainFunction^(0+128),w
  5571  0FE2  0255               	subwf	(??_Elements_MainFunction+2)^(0+128),w
  5572  0FE3                     u5035:
  5573  0FE3  1803               	skipnc
  5574  0FE4  2FE6               	goto	u5031
  5575  0FE5  2FE7               	goto	u5030
  5576  0FE6                     u5031:
  5577  0FE6  2FFA               	goto	l3655
  5578  0FE7                     u5030:
  5579  0FE7                     l3645:
  5580                           
  5581                           ;Elements/Elements.c: 106:          {;Elements/Elements.c: 107:           (PORTC &= ~(1<
      +                          <5));
  5582  0FE7  30DF               	movlw	223
  5583  0FE8  00FF               	movwf	btemp+1
  5584  0FE9  087F               	movf	btemp+1,w
  5585  0FEA  1283               	bcf	3,5	;RP0=0, select bank0
  5586  0FEB  1303               	bcf	3,6	;RP1=0, select bank0
  5587  0FEC  0587               	andwf	7,f	;volatile
  5588  0FED                     l3647:
  5589                           
  5590                           ;Elements/Elements.c: 108:           (PORTC|= (1<<2));
  5591  0FED  1507               	bsf	7,2	;volatile
  5592  0FEE                     l3649:
  5593                           
  5594                           ;Elements/Elements.c: 109:              LED_Status=_LED_ON;
  5595  0FEE  01CB               	clrf	_LED_Status
  5596  0FEF  0ACB               	incf	_LED_Status,f
  5597  0FF0  2FFA               	goto	l3655
  5598  0FF1                     l3651:
  5599                           
  5600                           ;Elements/Elements.c: 114:   {;Elements/Elements.c: 115:    (PORTC &= ~(1<<2));
  5601  0FF1  30FB               	movlw	251
  5602  0FF2  00FF               	movwf	btemp+1
  5603  0FF3  087F               	movf	btemp+1,w
  5604  0FF4  0587               	andwf	7,f	;volatile
  5605                           
  5606                           ;Elements/Elements.c: 116:    (PORTC &= ~(1<<5));
  5607  0FF5  30DF               	movlw	223
  5608  0FF6  00FF               	movwf	btemp+1
  5609  0FF7  087F               	movf	btemp+1,w
  5610  0FF8  0587               	andwf	7,f	;volatile
  5611  0FF9                     l3653:
  5612                           
  5613                           ;Elements/Elements.c: 117:       LED_Status=_LED_OFF;
  5614  0FF9  01CB               	clrf	_LED_Status
  5615  0FFA                     l3655:
  5616                           
  5617                           ;Elements/Elements.c: 119:   LED_Control();
  5618  0FFA  120A  158A  2251  120A  158A  	fcall	_LED_Control
  5619  0FFF                     l150:
  5620  0FFF  0008               	return
  5621  1000                     __end_of_Elements_MainFunction:
  5622                           
  5623                           	psect	text22
  5624  0A51                     __ptext22:	
  5625 ;; *************** function _LED_Control *****************
  5626 ;; Defined at:
  5627 ;;		line 67 in file "Elements/Elements.c"
  5628 ;; Parameters:    Size  Location     Type
  5629 ;;		None
  5630 ;; Auto vars:     Size  Location     Type
  5631 ;;		None
  5632 ;; Return value:  Size  Location     Type
  5633 ;;                  1    wreg      void 
  5634 ;; Registers used:
  5635 ;;		wreg, fsr0l, fsr0h, status,2, status,0, btemp+1, pclath, cstack
  5636 ;; Tracked objects:
  5637 ;;		On entry : 0/0
  5638 ;;		On exit  : 0/0
  5639 ;;		Unchanged: 0/0
  5640 ;; Data sizes:     COMMON   BANK0   BANK1   BANK3   BANK2
  5641 ;;      Params:         0       0       0       0       0
  5642 ;;      Locals:         0       0       0       0       0
  5643 ;;      Temps:          0       2       0       0       0
  5644 ;;      Totals:         0       2       0       0       0
  5645 ;;Total ram usage:        2 bytes
  5646 ;; Hardware stack levels used:    1
  5647 ;; Hardware stack levels required when called:    6
  5648 ;; This function calls:
  5649 ;;		_LED_BLINKING
  5650 ;; This function is called by:
  5651 ;;		_Elements_MainFunction
  5652 ;; This function uses a non-reentrant model
  5653 ;;
  5654                           
  5655                           
  5656                           ;psect for function _LED_Control
  5657  0A51                     _LED_Control:
  5658  0A51                     l3531:	
  5659                           ;incstack = 0
  5660 ;; hardware stack exceeded
  5661                           ; Regs used in _LED_Control: [wreg-fsr0h+status,2+status,0+btemp+1+pclath+cstack]
  5662                           
  5663                           
  5664                           ;Elements/Elements.c: 69:     switch(LED_Status)
  5665  0A51  2A63               	goto	l3539
  5666  0A52                     l3533:
  5667  0A52  30E8               	movlw	232
  5668  0A53  00BC               	movwf	LED_BLINKING@Time_Ms
  5669  0A54  3003               	movlw	3
  5670  0A55  00BD               	movwf	LED_BLINKING@Time_Ms+1
  5671  0A56  120A  158A  22A2  120A  158A  	fcall	_LED_BLINKING
  5672                           
  5673                           ;Elements/Elements.c: 72:                           break;
  5674  0A5B  2A78               	goto	l142
  5675  0A5C                     l140:	
  5676                           ;Elements/Elements.c: 74:         case _LED_ON : (PORTB|= (1<<4));;
  5677                           
  5678  0A5C  1606               	bsf	6,4	;volatile
  5679                           
  5680                           ;Elements/Elements.c: 75:                           break;
  5681  0A5D  2A78               	goto	l142
  5682  0A5E                     l3535:
  5683  0A5E  30EF               	movlw	239
  5684  0A5F  00FF               	movwf	btemp+1
  5685  0A60  087F               	movf	btemp+1,w
  5686  0A61  0586               	andwf	6,f	;volatile
  5687                           
  5688                           ;Elements/Elements.c: 78:                           break;
  5689  0A62  2A78               	goto	l142
  5690  0A63                     l3539:
  5691  0A63  1283               	bcf	3,5	;RP0=0, select bank0
  5692  0A64  1303               	bcf	3,6	;RP1=0, select bank0
  5693  0A65  084B               	movf	_LED_Status,w
  5694  0A66  00C0               	movwf	??_LED_Control
  5695  0A67  01C1               	clrf	??_LED_Control+1
  5696                           
  5697                           ; Switch on 2 bytes has been partitioned into a top level switch of size 1, and 1 sub-sw
      +                          itches
  5698                           ; Switch size 1, requested type "simple"
  5699                           ; Number of cases is 1, Range of values is 0 to 0
  5700                           ; switch strategies available:
  5701                           ; Name         Instructions Cycles
  5702                           ; simple_byte            4     3 (average)
  5703                           ; direct_byte           11     8 (fixed)
  5704                           ; jumptable            260     6 (fixed)
  5705                           ;	Chosen strategy is simple_byte
  5706  0A68  0841               	movf	??_LED_Control+1,w
  5707  0A69  3A00               	xorlw	0	; case 0
  5708  0A6A  1903               	skipnz
  5709  0A6B  2A6D               	goto	l3913
  5710  0A6C  2A78               	goto	l142
  5711  0A6D                     l3913:
  5712                           
  5713                           ; Switch size 1, requested type "simple"
  5714                           ; Number of cases is 3, Range of values is 0 to 2
  5715                           ; switch strategies available:
  5716                           ; Name         Instructions Cycles
  5717                           ; simple_byte           10     6 (average)
  5718                           ; direct_byte           17     8 (fixed)
  5719                           ; jumptable            260     6 (fixed)
  5720                           ;	Chosen strategy is simple_byte
  5721  0A6D  0840               	movf	??_LED_Control,w
  5722  0A6E  3A00               	xorlw	0	; case 0
  5723  0A6F  1903               	skipnz
  5724  0A70  2A5E               	goto	l3535
  5725  0A71  3A01               	xorlw	1	; case 1
  5726  0A72  1903               	skipnz
  5727  0A73  2A5C               	goto	l140
  5728  0A74  3A03               	xorlw	3	; case 2
  5729  0A75  1903               	skipnz
  5730  0A76  2A52               	goto	l3533
  5731  0A77  2A78               	goto	l142
  5732  0A78                     l142:
  5733  0A78  0008               	return
  5734  0A79                     __end_of_LED_Control:
  5735                           
  5736                           	psect	text23
  5737  0AA2                     __ptext23:	
  5738 ;; *************** function _LED_BLINKING *****************
  5739 ;; Defined at:
  5740 ;;		line 42 in file "Elements/Elements.c"
  5741 ;; Parameters:    Size  Location     Type
  5742 ;;  Time_Ms         2   28[BANK0 ] unsigned int 
  5743 ;; Auto vars:     Size  Location     Type
  5744 ;;		None
  5745 ;; Return value:  Size  Location     Type
  5746 ;;                  1    wreg      void 
  5747 ;; Registers used:
  5748 ;;		wreg, status,2, status,0, btemp+1, pclath, cstack
  5749 ;; Tracked objects:
  5750 ;;		On entry : 0/0
  5751 ;;		On exit  : 0/0
  5752 ;;		Unchanged: 0/0
  5753 ;; Data sizes:     COMMON   BANK0   BANK1   BANK3   BANK2
  5754 ;;      Params:         0       2       0       0       0
  5755 ;;      Locals:         0       0       0       0       0
  5756 ;;      Temps:          0       2       0       0       0
  5757 ;;      Totals:         0       4       0       0       0
  5758 ;;Total ram usage:        4 bytes
  5759 ;; Hardware stack levels used:    1
  5760 ;; Hardware stack levels required when called:    5
  5761 ;; This function calls:
  5762 ;;		___wmul
  5763 ;; This function is called by:
  5764 ;;		_LED_Control
  5765 ;; This function uses a non-reentrant model
  5766 ;;
  5767                           
  5768                           
  5769                           ;psect for function _LED_BLINKING
  5770  0AA2                     _LED_BLINKING:
  5771  0AA2                     l3181:	
  5772                           ;incstack = 0
  5773 ;; hardware stack exceeded
  5774                           ; Regs used in _LED_BLINKING: [wreg+status,2+status,0+btemp+1+pclath+cstack]
  5775                           
  5776                           
  5777                           ;Elements/Elements.c: 42: void LED_BLINKING(uint16_t Time_Ms);Elements/Elements.c: 43: {
      +                          ;Elements/Elements.c: 44:  static uint8_t Counter=1;;Elements/Elements.c: 46:    if(Coun
      +                          ter*100==Time_Ms)
  5778  0AA2  1283               	bcf	3,5	;RP0=0, select bank0
  5779  0AA3  1303               	bcf	3,6	;RP1=0, select bank0
  5780  0AA4  0859               	movf	LED_BLINKING@Counter,w
  5781  0AA5  00BE               	movwf	??_LED_BLINKING
  5782  0AA6  01BF               	clrf	??_LED_BLINKING+1
  5783  0AA7  083E               	movf	??_LED_BLINKING,w
  5784  0AA8  00B6               	movwf	___wmul@multiplier
  5785  0AA9  083F               	movf	??_LED_BLINKING+1,w
  5786  0AAA  00B7               	movwf	___wmul@multiplier+1
  5787  0AAB  3064               	movlw	100
  5788  0AAC  00B8               	movwf	___wmul@multiplicand
  5789  0AAD  3000               	movlw	0
  5790  0AAE  00B9               	movwf	___wmul@multiplicand+1
  5791  0AAF  120A  158A  222A  120A  158A  	fcall	___wmul
  5792  0AB4  1283               	bcf	3,5	;RP0=0, select bank0
  5793  0AB5  1303               	bcf	3,6	;RP1=0, select bank0
  5794  0AB6  083D               	movf	LED_BLINKING@Time_Ms+1,w
  5795  0AB7  0637               	xorwf	?___wmul+1,w
  5796  0AB8  1D03               	skipz
  5797  0AB9  2ABC               	goto	u3885
  5798  0ABA  083C               	movf	LED_BLINKING@Time_Ms,w
  5799  0ABB  0636               	xorwf	?___wmul,w
  5800  0ABC                     u3885:
  5801  0ABC  1D03               	skipz
  5802  0ABD  2ABF               	goto	u3881
  5803  0ABE  2AC0               	goto	u3880
  5804  0ABF                     u3881:
  5805  0ABF  2AC7               	goto	l3187
  5806  0AC0                     u3880:
  5807  0AC0                     l3183:
  5808                           
  5809                           ;Elements/Elements.c: 47:    {;Elements/Elements.c: 48:     (PORTB^= (1<<4));
  5810  0AC0  3010               	movlw	16
  5811  0AC1  00FF               	movwf	btemp+1
  5812  0AC2  087F               	movf	btemp+1,w
  5813  0AC3  0686               	xorwf	6,f	;volatile
  5814  0AC4                     l3185:
  5815                           
  5816                           ;Elements/Elements.c: 49:        Counter=1;
  5817  0AC4  01D9               	clrf	LED_BLINKING@Counter
  5818  0AC5  0AD9               	incf	LED_BLINKING@Counter,f
  5819                           
  5820                           ;Elements/Elements.c: 50:    }
  5821  0AC6  2ACB               	goto	l134
  5822  0AC7                     l3187:
  5823                           
  5824                           ;Elements/Elements.c: 52:    {;Elements/Elements.c: 53:     Counter++;
  5825  0AC7  3001               	movlw	1
  5826  0AC8  00FF               	movwf	btemp+1
  5827  0AC9  087F               	movf	btemp+1,w
  5828  0ACA  07D9               	addwf	LED_BLINKING@Counter,f
  5829  0ACB                     l134:
  5830  0ACB  0008               	return
  5831  0ACC                     __end_of_LED_BLINKING:
  5832                           
  5833                           	psect	text24
  5834  0E77                     __ptext24:	
  5835 ;; *************** function _Buttons_MainFunction *****************
  5836 ;; Defined at:
  5837 ;;		line 74 in file "Buttons/Buttons.c"
  5838 ;; Parameters:    Size  Location     Type
  5839 ;;		None
  5840 ;; Auto vars:     Size  Location     Type
  5841 ;;		None
  5842 ;; Return value:  Size  Location     Type
  5843 ;;                  1    wreg      void 
  5844 ;; Registers used:
  5845 ;;		wreg, status,2, status,0, btemp+1
  5846 ;; Tracked objects:
  5847 ;;		On entry : 0/0
  5848 ;;		On exit  : 0/0
  5849 ;;		Unchanged: 0/0
  5850 ;; Data sizes:     COMMON   BANK0   BANK1   BANK3   BANK2
  5851 ;;      Params:         0       0       0       0       0
  5852 ;;      Locals:         0       0       0       0       0
  5853 ;;      Temps:          0       1       0       0       0
  5854 ;;      Totals:         0       1       0       0       0
  5855 ;;Total ram usage:        1 bytes
  5856 ;; Hardware stack levels used:    1
  5857 ;; Hardware stack levels required when called:    4
  5858 ;; This function calls:
  5859 ;;		Nothing
  5860 ;; This function is called by:
  5861 ;;		_Scheduler_Task2
  5862 ;; This function uses a non-reentrant model
  5863 ;;
  5864                           
  5865                           
  5866                           ;psect for function _Buttons_MainFunction
  5867  0E77                     _Buttons_MainFunction:
  5868  0E77                     l3613:	
  5869                           ;incstack = 0
  5870                           ; Regs used in _Buttons_MainFunction: [wreg+status,2+status,0+btemp+1]
  5871                           
  5872                           
  5873                           ;Buttons/Buttons.c: 76:     if(((((PORTB>>2)&1)==0) ||(((PORTB>>1)&1)==0)))
  5874  0E77  1283               	bcf	3,5	;RP0=0, select bank0
  5875  0E78  1303               	bcf	3,6	;RP1=0, select bank0
  5876  0E79  0806               	movf	6,w	;volatile
  5877  0E7A  00B6               	movwf	??_Buttons_MainFunction
  5878  0E7B  3002               	movlw	2
  5879  0E7C                     u4865:
  5880  0E7C  1003               	clrc
  5881  0E7D  0CB6               	rrf	??_Buttons_MainFunction,f
  5882  0E7E  3EFF               	addlw	-1
  5883  0E7F  1D03               	skipz
  5884  0E80  2E7C               	goto	u4865
  5885  0E81  1C36               	btfss	??_Buttons_MainFunction,0
  5886  0E82  2E84               	goto	u4871
  5887  0E83  2E85               	goto	u4870
  5888  0E84                     u4871:
  5889  0E84  2E91               	goto	l3617
  5890  0E85                     u4870:
  5891  0E85                     l3615:
  5892  0E85  0806               	movf	6,w	;volatile
  5893  0E86  00B6               	movwf	??_Buttons_MainFunction
  5894  0E87  3001               	movlw	1
  5895  0E88                     u4885:
  5896  0E88  1003               	clrc
  5897  0E89  0CB6               	rrf	??_Buttons_MainFunction,f
  5898  0E8A  3EFF               	addlw	-1
  5899  0E8B  1D03               	skipz
  5900  0E8C  2E88               	goto	u4885
  5901  0E8D  1836               	btfsc	??_Buttons_MainFunction,0
  5902  0E8E  2E90               	goto	u4891
  5903  0E8F  2E91               	goto	u4890
  5904  0E90                     u4891:
  5905  0E90  2ED3               	goto	l112
  5906  0E91                     u4890:
  5907  0E91                     l3617:
  5908                           
  5909                           ;Buttons/Buttons.c: 77:     {;Buttons/Buttons.c: 78:      if(Mode.Select_Mode==Normal_Mo
      +                          de)
  5910  0E91  0354               	decf	_Mode,w
  5911  0E92  1D03               	btfss	3,2
  5912  0E93  2E95               	goto	u4901
  5913  0E94  2E96               	goto	u4900
  5914  0E95                     u4901:
  5915  0E95  2E9B               	goto	l3621
  5916  0E96                     u4900:
  5917  0E96                     l3619:
  5918                           
  5919                           ;Buttons/Buttons.c: 79:         {;Buttons/Buttons.c: 80:          Mode.Select_Mode=Setti
      +                          ng_Mode;
  5920  0E96  3002               	movlw	2
  5921  0E97  00FF               	movwf	btemp+1
  5922  0E98  087F               	movf	btemp+1,w
  5923  0E99  00D4               	movwf	_Mode
  5924                           
  5925                           ;Buttons/Buttons.c: 81:         }
  5926  0E9A  2ED3               	goto	l112
  5927  0E9B                     l3621:
  5928  0E9B  3002               	movlw	2
  5929  0E9C  0654               	xorwf	_Mode,w
  5930  0E9D  1D03               	btfss	3,2
  5931  0E9E  2EA0               	goto	u4911
  5932  0E9F  2EA1               	goto	u4910
  5933  0EA0                     u4911:
  5934  0EA0  2ED3               	goto	l112
  5935  0EA1                     u4910:
  5936  0EA1                     l3623:
  5937                           
  5938                           ;Buttons/Buttons.c: 83:         {;Buttons/Buttons.c: 84:             if(((PORTB>>2)&1)==
      +                          0)
  5939  0EA1  0806               	movf	6,w	;volatile
  5940  0EA2  00B6               	movwf	??_Buttons_MainFunction
  5941  0EA3  3002               	movlw	2
  5942  0EA4                     u4925:
  5943  0EA4  1003               	clrc
  5944  0EA5  0CB6               	rrf	??_Buttons_MainFunction,f
  5945  0EA6  3EFF               	addlw	-1
  5946  0EA7  1D03               	skipz
  5947  0EA8  2EA4               	goto	u4925
  5948  0EA9  1836               	btfsc	??_Buttons_MainFunction,0
  5949  0EAA  2EAC               	goto	u4931
  5950  0EAB  2EAD               	goto	u4930
  5951  0EAC                     u4931:
  5952  0EAC  2EBA               	goto	l3627
  5953  0EAD                     u4930:
  5954  0EAD                     l3625:
  5955                           
  5956                           ;Buttons/Buttons.c: 85:             {;Buttons/Buttons.c: 86:                 Buttons.UpF
      +                          lag=Buttons.UpFlag=1;
  5957  0EAD  144A               	bsf	_Buttons,0
  5958  0EAE  184A               	btfsc	_Buttons,0
  5959  0EAF  2EB1               	goto	u4941
  5960  0EB0  2EB5               	goto	u4940
  5961  0EB1                     u4941:
  5962  0EB1  1283               	bcf	3,5	;RP0=0, select bank0
  5963  0EB2  1303               	bcf	3,6	;RP1=0, select bank0
  5964  0EB3  144A               	bsf	_Buttons,0
  5965  0EB4  2EB8               	goto	u4954
  5966  0EB5                     u4940:
  5967  0EB5  1283               	bcf	3,5	;RP0=0, select bank0
  5968  0EB6  1303               	bcf	3,6	;RP1=0, select bank0
  5969  0EB7  104A               	bcf	_Buttons,0
  5970  0EB8                     u4954:
  5971                           
  5972                           ;Buttons/Buttons.c: 87:                 Buttons.DownFlag=0;
  5973  0EB8  10CA               	bcf	_Buttons,1
  5974                           
  5975                           ;Buttons/Buttons.c: 88:             }
  5976  0EB9  2ED3               	goto	l112
  5977  0EBA                     l3627:
  5978  0EBA  0806               	movf	6,w	;volatile
  5979  0EBB  00B6               	movwf	??_Buttons_MainFunction
  5980  0EBC  3001               	movlw	1
  5981  0EBD                     u4965:
  5982  0EBD  1003               	clrc
  5983  0EBE  0CB6               	rrf	??_Buttons_MainFunction,f
  5984  0EBF  3EFF               	addlw	-1
  5985  0EC0  1D03               	skipz
  5986  0EC1  2EBD               	goto	u4965
  5987  0EC2  1836               	btfsc	??_Buttons_MainFunction,0
  5988  0EC3  2EC5               	goto	u4971
  5989  0EC4  2EC6               	goto	u4970
  5990  0EC5                     u4971:
  5991  0EC5  2ED3               	goto	l107
  5992  0EC6                     u4970:
  5993  0EC6                     l3629:
  5994                           
  5995                           ;Buttons/Buttons.c: 90:             {;Buttons/Buttons.c: 91:                Buttons.Down
      +                          Flag=Buttons.DownFlag=1;
  5996  0EC6  14CA               	bsf	_Buttons,1
  5997  0EC7  18CA               	btfsc	_Buttons,1
  5998  0EC8  2ECA               	goto	u4981
  5999  0EC9  2ECE               	goto	u4980
  6000  0ECA                     u4981:
  6001  0ECA  1283               	bcf	3,5	;RP0=0, select bank0
  6002  0ECB  1303               	bcf	3,6	;RP1=0, select bank0
  6003  0ECC  14CA               	bsf	_Buttons,1
  6004  0ECD  2ED1               	goto	u4994
  6005  0ECE                     u4980:
  6006  0ECE  1283               	bcf	3,5	;RP0=0, select bank0
  6007  0ECF  1303               	bcf	3,6	;RP1=0, select bank0
  6008  0ED0  10CA               	bcf	_Buttons,1
  6009  0ED1                     u4994:
  6010                           
  6011                           ;Buttons/Buttons.c: 92:                Buttons.UpFlag=0;
  6012  0ED1  104A               	bcf	_Buttons,0
  6013  0ED2  2ED3               	goto	l112
  6014  0ED3                     l107:
  6015  0ED3                     l112:
  6016  0ED3  0008               	return
  6017  0ED4                     __end_of_Buttons_MainFunction:
  6018                           
  6019                           	psect	text25
  6020  0DC3                     __ptext25:	
  6021 ;; *************** function _SSD_MainFunction *****************
  6022 ;; Defined at:
  6023 ;;		line 44 in file "SSD/SSD.c"
  6024 ;; Parameters:    Size  Location     Type
  6025 ;;		None
  6026 ;; Auto vars:     Size  Location     Type
  6027 ;;		None
  6028 ;; Return value:  Size  Location     Type
  6029 ;;                  1    wreg      void 
  6030 ;; Registers used:
  6031 ;;		wreg, fsr0l, fsr0h, status,2, status,0, btemp+1, pclath, cstack
  6032 ;; Tracked objects:
  6033 ;;		On entry : 0/0
  6034 ;;		On exit  : 0/0
  6035 ;;		Unchanged: 0/0
  6036 ;; Data sizes:     COMMON   BANK0   BANK1   BANK3   BANK2
  6037 ;;      Params:         0       0       0       0       0
  6038 ;;      Locals:         0       0       0       0       0
  6039 ;;      Temps:          0       2       0       0       0
  6040 ;;      Totals:         0       2       0       0       0
  6041 ;;Total ram usage:        2 bytes
  6042 ;; Hardware stack levels used:    1
  6043 ;; Hardware stack levels required when called:    7
  6044 ;; This function calls:
  6045 ;;		_SSD_SelectDigit
  6046 ;;		_SSD_SelectDisplay
  6047 ;; This function is called by:
  6048 ;;		_Scheduler_Task1
  6049 ;; This function uses a non-reentrant model
  6050 ;;
  6051                           
  6052                           
  6053                           ;psect for function _SSD_MainFunction
  6054  0DC3                     _SSD_MainFunction:
  6055  0DC3                     l3657:	
  6056                           ;incstack = 0
  6057 ;; hardware stack exceeded
  6058                           ; Regs used in _SSD_MainFunction: [wreg-fsr0h+status,2+status,0+btemp+1+pclath+cstack]
  6059                           
  6060                           
  6061                           ;SSD/SSD.c: 47:     SSD_SelectDisplay();
  6062  0DC3  120A  158A  2323  120A  158A  	fcall	_SSD_SelectDisplay
  6063                           
  6064                           ;SSD/SSD.c: 48:     SSD_SelectDigit();
  6065  0DC8  120A  158A  26D4  120A  158A  	fcall	_SSD_SelectDigit
  6066                           
  6067                           ;SSD/SSD.c: 50:     switch(SSD)
  6068  0DCD  2DEE               	goto	l3683
  6069  0DCE                     l3659:
  6070                           
  6071                           ;SSD/SSD.c: 53:         PORTD=0b00111111;
  6072  0DCE  303F               	movlw	63
  6073  0DCF  0088               	movwf	8	;volatile
  6074                           
  6075                           ;SSD/SSD.c: 54:         break;
  6076  0DD0  2E1B               	goto	l507
  6077  0DD1                     l3661:
  6078                           
  6079                           ;SSD/SSD.c: 57:         PORTD=0b00000110;
  6080  0DD1  3006               	movlw	6
  6081  0DD2  0088               	movwf	8	;volatile
  6082                           
  6083                           ;SSD/SSD.c: 58:         break;
  6084  0DD3  2E1B               	goto	l507
  6085  0DD4                     l3663:
  6086                           
  6087                           ;SSD/SSD.c: 61:         PORTD=0b01011011;
  6088  0DD4  305B               	movlw	91
  6089  0DD5  0088               	movwf	8	;volatile
  6090                           
  6091                           ;SSD/SSD.c: 62:         break;
  6092  0DD6  2E1B               	goto	l507
  6093  0DD7                     l3665:
  6094                           
  6095                           ;SSD/SSD.c: 65:         PORTD=0b01001111;
  6096  0DD7  304F               	movlw	79
  6097  0DD8  0088               	movwf	8	;volatile
  6098                           
  6099                           ;SSD/SSD.c: 66:         break;
  6100  0DD9  2E1B               	goto	l507
  6101  0DDA                     l3667:
  6102                           
  6103                           ;SSD/SSD.c: 69:         PORTD=0b01100110;
  6104  0DDA  3066               	movlw	102
  6105  0DDB  0088               	movwf	8	;volatile
  6106                           
  6107                           ;SSD/SSD.c: 70:         break;
  6108  0DDC  2E1B               	goto	l507
  6109  0DDD                     l3669:
  6110                           
  6111                           ;SSD/SSD.c: 73:         PORTD=0b01101101;
  6112  0DDD  306D               	movlw	109
  6113  0DDE  0088               	movwf	8	;volatile
  6114                           
  6115                           ;SSD/SSD.c: 74:         break;
  6116  0DDF  2E1B               	goto	l507
  6117  0DE0                     l3671:
  6118                           
  6119                           ;SSD/SSD.c: 77:         PORTD=0b01111101;
  6120  0DE0  307D               	movlw	125
  6121  0DE1  0088               	movwf	8	;volatile
  6122                           
  6123                           ;SSD/SSD.c: 78:         break;
  6124  0DE2  2E1B               	goto	l507
  6125  0DE3                     l3673:
  6126                           
  6127                           ;SSD/SSD.c: 81:         PORTD=0b00000111;
  6128  0DE3  3007               	movlw	7
  6129  0DE4  0088               	movwf	8	;volatile
  6130                           
  6131                           ;SSD/SSD.c: 82:         break;
  6132  0DE5  2E1B               	goto	l507
  6133  0DE6                     l3675:
  6134                           
  6135                           ;SSD/SSD.c: 85:         PORTD=0b01111111;
  6136  0DE6  307F               	movlw	127
  6137  0DE7  0088               	movwf	8	;volatile
  6138                           
  6139                           ;SSD/SSD.c: 86:         break;
  6140  0DE8  2E1B               	goto	l507
  6141  0DE9                     l3677:
  6142                           
  6143                           ;SSD/SSD.c: 89:         PORTD=0b01101111;
  6144  0DE9  306F               	movlw	111
  6145  0DEA  0088               	movwf	8	;volatile
  6146                           
  6147                           ;SSD/SSD.c: 90:         break;
  6148  0DEB  2E1B               	goto	l507
  6149  0DEC                     l3679:
  6150                           
  6151                           ;SSD/SSD.c: 93:         PORTD=0;
  6152  0DEC  0188               	clrf	8	;volatile
  6153                           
  6154                           ;SSD/SSD.c: 94:         break;
  6155  0DED  2E1B               	goto	l507
  6156  0DEE                     l3683:
  6157  0DEE  1283               	bcf	3,5	;RP0=0, select bank0
  6158  0DEF  1303               	bcf	3,6	;RP1=0, select bank0
  6159  0DF0  0847               	movf	_SSD,w
  6160  0DF1  00C0               	movwf	??_SSD_MainFunction
  6161  0DF2  01C1               	clrf	??_SSD_MainFunction+1
  6162                           
  6163                           ; Switch on 2 bytes has been partitioned into a top level switch of size 1, and 1 sub-sw
      +                          itches
  6164                           ; Switch size 1, requested type "simple"
  6165                           ; Number of cases is 1, Range of values is 0 to 0
  6166                           ; switch strategies available:
  6167                           ; Name         Instructions Cycles
  6168                           ; simple_byte            4     3 (average)
  6169                           ; direct_byte           11     8 (fixed)
  6170                           ; jumptable            260     6 (fixed)
  6171                           ;	Chosen strategy is simple_byte
  6172  0DF3  0841               	movf	??_SSD_MainFunction+1,w
  6173  0DF4  3A00               	xorlw	0	; case 0
  6174  0DF5  1903               	skipnz
  6175  0DF6  2DF8               	goto	l3915
  6176  0DF7  2E1B               	goto	l507
  6177  0DF8                     l3915:
  6178                           
  6179                           ; Switch size 1, requested type "simple"
  6180                           ; Number of cases is 11, Range of values is 0 to 10
  6181                           ; switch strategies available:
  6182                           ; Name         Instructions Cycles
  6183                           ; simple_byte           34    18 (average)
  6184                           ; direct_byte           41     8 (fixed)
  6185                           ; jumptable            260     6 (fixed)
  6186                           ;	Chosen strategy is simple_byte
  6187  0DF8  0840               	movf	??_SSD_MainFunction,w
  6188  0DF9  3A00               	xorlw	0	; case 0
  6189  0DFA  1903               	skipnz
  6190  0DFB  2DCE               	goto	l3659
  6191  0DFC  3A01               	xorlw	1	; case 1
  6192  0DFD  1903               	skipnz
  6193  0DFE  2DD1               	goto	l3661
  6194  0DFF  3A03               	xorlw	3	; case 2
  6195  0E00  1903               	skipnz
  6196  0E01  2DD4               	goto	l3663
  6197  0E02  3A01               	xorlw	1	; case 3
  6198  0E03  1903               	skipnz
  6199  0E04  2DD7               	goto	l3665
  6200  0E05  3A07               	xorlw	7	; case 4
  6201  0E06  1903               	skipnz
  6202  0E07  2DDA               	goto	l3667
  6203  0E08  3A01               	xorlw	1	; case 5
  6204  0E09  1903               	skipnz
  6205  0E0A  2DDD               	goto	l3669
  6206  0E0B  3A03               	xorlw	3	; case 6
  6207  0E0C  1903               	skipnz
  6208  0E0D  2DE0               	goto	l3671
  6209  0E0E  3A01               	xorlw	1	; case 7
  6210  0E0F  1903               	skipnz
  6211  0E10  2DE3               	goto	l3673
  6212  0E11  3A0F               	xorlw	15	; case 8
  6213  0E12  1903               	skipnz
  6214  0E13  2DE6               	goto	l3675
  6215  0E14  3A01               	xorlw	1	; case 9
  6216  0E15  1903               	skipnz
  6217  0E16  2DE9               	goto	l3677
  6218  0E17  3A03               	xorlw	3	; case 10
  6219  0E18  1903               	skipnz
  6220  0E19  2DEC               	goto	l3679
  6221  0E1A  2E1B               	goto	l507
  6222  0E1B                     l507:
  6223  0E1B  0008               	return
  6224  0E1C                     __end_of_SSD_MainFunction:
  6225                           
  6226                           	psect	text26
  6227  0B23                     __ptext26:	
  6228 ;; *************** function _SSD_SelectDisplay *****************
  6229 ;; Defined at:
  6230 ;;		line 140 in file "SSD/SSD.c"
  6231 ;; Parameters:    Size  Location     Type
  6232 ;;		None
  6233 ;; Auto vars:     Size  Location     Type
  6234 ;;		None
  6235 ;; Return value:  Size  Location     Type
  6236 ;;                  1    wreg      void 
  6237 ;; Registers used:
  6238 ;;		wreg, status,2, status,0, btemp+1, pclath, cstack
  6239 ;; Tracked objects:
  6240 ;;		On entry : 0/0
  6241 ;;		On exit  : 0/0
  6242 ;;		Unchanged: 0/0
  6243 ;; Data sizes:     COMMON   BANK0   BANK1   BANK3   BANK2
  6244 ;;      Params:         0       0       0       0       0
  6245 ;;      Locals:         0       0       0       0       0
  6246 ;;      Temps:          0       0       0       0       0
  6247 ;;      Totals:         0       0       0       0       0
  6248 ;;Total ram usage:        0 bytes
  6249 ;; Hardware stack levels used:    1
  6250 ;; Hardware stack levels required when called:    6
  6251 ;; This function calls:
  6252 ;;		_SSD_Blink
  6253 ;; This function is called by:
  6254 ;;		_SSD_MainFunction
  6255 ;; This function uses a non-reentrant model
  6256 ;;
  6257                           
  6258                           
  6259                           ;psect for function _SSD_SelectDisplay
  6260  0B23                     _SSD_SelectDisplay:
  6261  0B23                     l3571:	
  6262                           ;incstack = 0
  6263 ;; hardware stack exceeded
  6264                           ; Regs used in _SSD_SelectDisplay: [wreg+status,2+status,0+btemp+1+pclath+cstack]
  6265                           
  6266                           
  6267                           ;SSD/SSD.c: 144:   if(Mode.Select_Mode==Normal_Mode)
  6268  0B23  1283               	bcf	3,5	;RP0=0, select bank0
  6269  0B24  1303               	bcf	3,6	;RP1=0, select bank0
  6270  0B25  0354               	decf	_Mode,w
  6271  0B26  1D03               	btfss	3,2
  6272  0B27  2B29               	goto	u4791
  6273  0B28  2B2A               	goto	u4790
  6274  0B29                     u4791:
  6275  0B29  2B31               	goto	l3577
  6276  0B2A                     u4790:
  6277  0B2A                     l3573:
  6278                           
  6279                           ;SSD/SSD.c: 145:   {;SSD/SSD.c: 146:    Tempreture=Temperature.Temp_Value;
  6280  0B2A  084E               	movf	_Temperature,w
  6281  0B2B  00FF               	movwf	btemp+1
  6282  0B2C  087F               	movf	btemp+1,w
  6283  0B2D  00C6               	movwf	_Tempreture
  6284  0B2E                     l3575:
  6285                           
  6286                           ;SSD/SSD.c: 147:    Enable_SSD=Enable_SSD_On;
  6287  0B2E  01CC               	clrf	_Enable_SSD
  6288  0B2F  0ACC               	incf	_Enable_SSD,f
  6289                           
  6290                           ;SSD/SSD.c: 148:   }
  6291  0B30  2B52               	goto	l522
  6292  0B31                     l3577:
  6293  0B31  3002               	movlw	2
  6294  0B32  0654               	xorwf	_Mode,w
  6295  0B33  1D03               	btfss	3,2
  6296  0B34  2B36               	goto	u4801
  6297  0B35  2B37               	goto	u4800
  6298  0B36                     u4801:
  6299  0B36  2B45               	goto	l3583
  6300  0B37                     u4800:
  6301  0B37                     l3579:
  6302                           
  6303                           ;SSD/SSD.c: 150:   {;SSD/SSD.c: 151:    Tempreture=Temperature.Set_Temp;
  6304  0B37  0851               	movf	_Temperature+3,w
  6305  0B38  00FF               	movwf	btemp+1
  6306  0B39  087F               	movf	btemp+1,w
  6307  0B3A  00C6               	movwf	_Tempreture
  6308  0B3B                     l3581:
  6309                           
  6310                           ;SSD/SSD.c: 152:       SSD_Blink(1000);
  6311  0B3B  30E8               	movlw	232
  6312  0B3C  00BC               	movwf	SSD_Blink@Times_Ms
  6313  0B3D  3003               	movlw	3
  6314  0B3E  00BD               	movwf	SSD_Blink@Times_Ms+1
  6315  0B3F  120A  158A  242A  120A  158A  	fcall	_SSD_Blink
  6316                           
  6317                           ;SSD/SSD.c: 153:   }
  6318  0B44  2B52               	goto	l522
  6319  0B45                     l3583:
  6320  0B45  0854               	movf	_Mode,w
  6321  0B46  1D03               	btfss	3,2
  6322  0B47  2B49               	goto	u4811
  6323  0B48  2B4A               	goto	u4810
  6324  0B49                     u4811:
  6325  0B49  2B52               	goto	l522
  6326  0B4A                     u4810:
  6327  0B4A                     l3585:
  6328                           
  6329                           ;SSD/SSD.c: 155:   {;SSD/SSD.c: 156:   (PORTA &= ~(1<<5)) ;
  6330  0B4A  30DF               	movlw	223
  6331  0B4B  00FF               	movwf	btemp+1
  6332  0B4C  087F               	movf	btemp+1,w
  6333  0B4D  0585               	andwf	5,f	;volatile
  6334                           
  6335                           ;SSD/SSD.c: 157:   (PORTA &= ~(1<<4)) ;
  6336  0B4E  30EF               	movlw	239
  6337  0B4F  00FF               	movwf	btemp+1
  6338  0B50  087F               	movf	btemp+1,w
  6339  0B51  0585               	andwf	5,f	;volatile
  6340  0B52                     l522:
  6341  0B52  0008               	return
  6342  0B53                     __end_of_SSD_SelectDisplay:
  6343                           
  6344                           	psect	text27
  6345  0C2A                     __ptext27:	
  6346 ;; *************** function _SSD_Blink *****************
  6347 ;; Defined at:
  6348 ;;		line 109 in file "SSD/SSD.c"
  6349 ;; Parameters:    Size  Location     Type
  6350 ;;  Times_Ms        2   28[BANK0 ] unsigned int 
  6351 ;; Auto vars:     Size  Location     Type
  6352 ;;		None
  6353 ;; Return value:  Size  Location     Type
  6354 ;;                  1    wreg      void 
  6355 ;; Registers used:
  6356 ;;		wreg, status,2, status,0, btemp+1, pclath, cstack
  6357 ;; Tracked objects:
  6358 ;;		On entry : 0/0
  6359 ;;		On exit  : 0/0
  6360 ;;		Unchanged: 0/0
  6361 ;; Data sizes:     COMMON   BANK0   BANK1   BANK3   BANK2
  6362 ;;      Params:         0       2       0       0       0
  6363 ;;      Locals:         0       0       0       0       0
  6364 ;;      Temps:          0       2       0       0       0
  6365 ;;      Totals:         0       4       0       0       0
  6366 ;;Total ram usage:        4 bytes
  6367 ;; Hardware stack levels used:    1
  6368 ;; Hardware stack levels required when called:    5
  6369 ;; This function calls:
  6370 ;;		___wmul
  6371 ;; This function is called by:
  6372 ;;		_SSD_SelectDisplay
  6373 ;; This function uses a non-reentrant model
  6374 ;;
  6375                           
  6376                           
  6377                           ;psect for function _SSD_Blink
  6378  0C2A                     _SSD_Blink:
  6379  0C2A                     l3197:	
  6380                           ;incstack = 0
  6381 ;; hardware stack exceeded
  6382                           ; Regs used in _SSD_Blink: [wreg+status,2+status,0+btemp+1+pclath+cstack]
  6383                           
  6384                           
  6385                           ;SSD/SSD.c: 109: void SSD_Blink(uint16_t Times_Ms);SSD/SSD.c: 110: {;SSD/SSD.c: 113:   i
      +                          f(Counter*20==Times_Ms)
  6386  0C2A  1283               	bcf	3,5	;RP0=0, select bank0
  6387  0C2B  1303               	bcf	3,6	;RP1=0, select bank0
  6388  0C2C  0857               	movf	_Counter,w
  6389  0C2D  00BE               	movwf	??_SSD_Blink
  6390  0C2E  01BF               	clrf	??_SSD_Blink+1
  6391  0C2F  083E               	movf	??_SSD_Blink,w
  6392  0C30  00B6               	movwf	___wmul@multiplier
  6393  0C31  083F               	movf	??_SSD_Blink+1,w
  6394  0C32  00B7               	movwf	___wmul@multiplier+1
  6395  0C33  3014               	movlw	20
  6396  0C34  00B8               	movwf	___wmul@multiplicand
  6397  0C35  3000               	movlw	0
  6398  0C36  00B9               	movwf	___wmul@multiplicand+1
  6399  0C37  120A  158A  222A  120A  158A  	fcall	___wmul
  6400  0C3C  1283               	bcf	3,5	;RP0=0, select bank0
  6401  0C3D  1303               	bcf	3,6	;RP1=0, select bank0
  6402  0C3E  083D               	movf	SSD_Blink@Times_Ms+1,w
  6403  0C3F  0637               	xorwf	?___wmul+1,w
  6404  0C40  1D03               	skipz
  6405  0C41  2C44               	goto	u3925
  6406  0C42  083C               	movf	SSD_Blink@Times_Ms,w
  6407  0C43  0636               	xorwf	?___wmul,w
  6408  0C44                     u3925:
  6409  0C44  1D03               	skipz
  6410  0C45  2C47               	goto	u3921
  6411  0C46  2C48               	goto	u3920
  6412  0C47                     u3921:
  6413  0C47  2C60               	goto	l3211
  6414  0C48                     u3920:
  6415  0C48                     l3199:
  6416                           
  6417                           ;SSD/SSD.c: 114:   {;SSD/SSD.c: 115:       if(Enable_SSD==Enable_SSD_On)
  6418  0C48  034C               	decf	_Enable_SSD,w
  6419  0C49  1D03               	btfss	3,2
  6420  0C4A  2C4C               	goto	u3931
  6421  0C4B  2C4D               	goto	u3930
  6422  0C4C                     u3931:
  6423  0C4C  2C57               	goto	l3207
  6424  0C4D                     u3930:
  6425  0C4D                     l3201:
  6426                           
  6427                           ;SSD/SSD.c: 116:       {;SSD/SSD.c: 117:        Enable_SSD=Enable_SSD_Off;
  6428  0C4D  01CC               	clrf	_Enable_SSD
  6429  0C4E                     l3203:
  6430                           
  6431                           ;SSD/SSD.c: 118:         (PORTA &= ~(1<<5)) ;
  6432  0C4E  30DF               	movlw	223
  6433  0C4F  00FF               	movwf	btemp+1
  6434  0C50  087F               	movf	btemp+1,w
  6435  0C51  0585               	andwf	5,f	;volatile
  6436  0C52                     l3205:
  6437                           
  6438                           ;SSD/SSD.c: 119:         (PORTA &= ~(1<<4)) ;
  6439  0C52  30EF               	movlw	239
  6440  0C53  00FF               	movwf	btemp+1
  6441  0C54  087F               	movf	btemp+1,w
  6442  0C55  0585               	andwf	5,f	;volatile
  6443                           
  6444                           ;SSD/SSD.c: 120:       }
  6445  0C56  2C5E               	goto	l512
  6446  0C57                     l3207:
  6447  0C57  084C               	movf	_Enable_SSD,w
  6448  0C58  1D03               	btfss	3,2
  6449  0C59  2C5B               	goto	u3941
  6450  0C5A  2C5C               	goto	u3940
  6451  0C5B                     u3941:
  6452  0C5B  2C5E               	goto	l512
  6453  0C5C                     u3940:
  6454  0C5C                     l3209:
  6455                           
  6456                           ;SSD/SSD.c: 122:       {;SSD/SSD.c: 123:        Enable_SSD=Enable_SSD_On;
  6457  0C5C  01CC               	clrf	_Enable_SSD
  6458  0C5D  0ACC               	incf	_Enable_SSD,f
  6459  0C5E                     l512:
  6460                           
  6461                           ;SSD/SSD.c: 125:         Counter =1;
  6462  0C5E  01D7               	clrf	_Counter
  6463  0C5F  0AD7               	incf	_Counter,f
  6464  0C60                     l3211:
  6465                           
  6466                           ;SSD/SSD.c: 127:   Counter++;
  6467  0C60  3001               	movlw	1
  6468  0C61  00FF               	movwf	btemp+1
  6469  0C62  087F               	movf	btemp+1,w
  6470  0C63  07D7               	addwf	_Counter,f
  6471  0C64                     l514:
  6472  0C64  0008               	return
  6473  0C65                     __end_of_SSD_Blink:
  6474                           
  6475                           	psect	text28
  6476  0A2A                     __ptext28:	
  6477 ;; *************** function ___wmul *****************
  6478 ;; Defined at:
  6479 ;;		line 15 in file "C:\Program Files (x86)\Microchip\xc8\v2.20\pic\sources\c90\common\Umul16.c"
  6480 ;; Parameters:    Size  Location     Type
  6481 ;;  multiplier      2   22[BANK0 ] unsigned int 
  6482 ;;  multiplicand    2   24[BANK0 ] unsigned int 
  6483 ;; Auto vars:     Size  Location     Type
  6484 ;;  product         2   26[BANK0 ] unsigned int 
  6485 ;; Return value:  Size  Location     Type
  6486 ;;                  2   22[BANK0 ] unsigned int 
  6487 ;; Registers used:
  6488 ;;		wreg, status,2, status,0
  6489 ;; Tracked objects:
  6490 ;;		On entry : 0/0
  6491 ;;		On exit  : 0/0
  6492 ;;		Unchanged: 0/0
  6493 ;; Data sizes:     COMMON   BANK0   BANK1   BANK3   BANK2
  6494 ;;      Params:         0       4       0       0       0
  6495 ;;      Locals:         0       2       0       0       0
  6496 ;;      Temps:          0       0       0       0       0
  6497 ;;      Totals:         0       6       0       0       0
  6498 ;;Total ram usage:        6 bytes
  6499 ;; Hardware stack levels used:    1
  6500 ;; Hardware stack levels required when called:    4
  6501 ;; This function calls:
  6502 ;;		Nothing
  6503 ;; This function is called by:
  6504 ;;		_LED_BLINKING
  6505 ;;		_Mode_Setting_Timer
  6506 ;;		_SSD_Blink
  6507 ;; This function uses a non-reentrant model
  6508 ;;
  6509                           
  6510                           
  6511                           ;psect for function ___wmul
  6512  0A2A                     ___wmul:
  6513  0A2A                     l3085:	
  6514                           ;incstack = 0
  6515 ;; hardware stack exceeded
  6516                           ; Regs used in ___wmul: [wreg+status,2+status,0]
  6517                           
  6518  0A2A  1283               	bcf	3,5	;RP0=0, select bank0
  6519  0A2B  1303               	bcf	3,6	;RP1=0, select bank0
  6520  0A2C  01BA               	clrf	___wmul@product
  6521  0A2D  01BB               	clrf	___wmul@product+1
  6522  0A2E                     l3087:
  6523  0A2E  1C36               	btfss	___wmul@multiplier,0
  6524  0A2F  2A31               	goto	u3641
  6525  0A30  2A32               	goto	u3640
  6526  0A31                     u3641:
  6527  0A31  2A38               	goto	l623
  6528  0A32                     u3640:
  6529  0A32                     l3089:
  6530  0A32  0838               	movf	___wmul@multiplicand,w
  6531  0A33  07BA               	addwf	___wmul@product,f
  6532  0A34  1803               	skipnc
  6533  0A35  0ABB               	incf	___wmul@product+1,f
  6534  0A36  0839               	movf	___wmul@multiplicand+1,w
  6535  0A37  07BB               	addwf	___wmul@product+1,f
  6536  0A38                     l623:
  6537  0A38  3001               	movlw	1
  6538  0A39                     u3655:
  6539  0A39  1003               	clrc
  6540  0A3A  0DB8               	rlf	___wmul@multiplicand,f
  6541  0A3B  0DB9               	rlf	___wmul@multiplicand+1,f
  6542  0A3C  3EFF               	addlw	-1
  6543  0A3D  1D03               	skipz
  6544  0A3E  2A39               	goto	u3655
  6545  0A3F                     l3091:
  6546  0A3F  3001               	movlw	1
  6547  0A40                     u3665:
  6548  0A40  1003               	clrc
  6549  0A41  0CB7               	rrf	___wmul@multiplier+1,f
  6550  0A42  0CB6               	rrf	___wmul@multiplier,f
  6551  0A43  3EFF               	addlw	-1
  6552  0A44  1D03               	skipz
  6553  0A45  2A40               	goto	u3665
  6554  0A46                     l3093:
  6555  0A46  0836               	movf	___wmul@multiplier,w
  6556  0A47  0437               	iorwf	___wmul@multiplier+1,w
  6557  0A48  1D03               	btfss	3,2
  6558  0A49  2A4B               	goto	u3671
  6559  0A4A  2A4C               	goto	u3670
  6560  0A4B                     u3671:
  6561  0A4B  2A2E               	goto	l3087
  6562  0A4C                     u3670:
  6563  0A4C                     l3095:
  6564  0A4C  083B               	movf	___wmul@product+1,w
  6565  0A4D  00B7               	movwf	?___wmul+1
  6566  0A4E  083A               	movf	___wmul@product,w
  6567  0A4F  00B6               	movwf	?___wmul
  6568  0A50                     l625:
  6569  0A50  0008               	return
  6570  0A51                     __end_of___wmul:
  6571                           
  6572                           	psect	text29
  6573  0ED4                     __ptext29:	
  6574 ;; *************** function _SSD_SelectDigit *****************
  6575 ;; Defined at:
  6576 ;;		line 173 in file "SSD/SSD.c"
  6577 ;; Parameters:    Size  Location     Type
  6578 ;;		None
  6579 ;; Auto vars:     Size  Location     Type
  6580 ;;		None
  6581 ;; Return value:  Size  Location     Type
  6582 ;;                  1    wreg      void 
  6583 ;; Registers used:
  6584 ;;		wreg, status,2, status,0, btemp+1, pclath, cstack
  6585 ;; Tracked objects:
  6586 ;;		On entry : 0/0
  6587 ;;		On exit  : 0/0
  6588 ;;		Unchanged: 0/0
  6589 ;; Data sizes:     COMMON   BANK0   BANK1   BANK3   BANK2
  6590 ;;      Params:         0       0       0       0       0
  6591 ;;      Locals:         0       0       0       0       0
  6592 ;;      Temps:          0       2       0       0       0
  6593 ;;      Totals:         0       2       0       0       0
  6594 ;;Total ram usage:        2 bytes
  6595 ;; Hardware stack levels used:    1
  6596 ;; Hardware stack levels required when called:    5
  6597 ;; This function calls:
  6598 ;;		___awdiv
  6599 ;;		___awmod
  6600 ;; This function is called by:
  6601 ;;		_SSD_MainFunction
  6602 ;; This function uses a non-reentrant model
  6603 ;;
  6604                           
  6605                           
  6606                           ;psect for function _SSD_SelectDigit
  6607  0ED4                     _SSD_SelectDigit:
  6608  0ED4                     l3587:	
  6609                           ;incstack = 0
  6610 ;; hardware stack exceeded
  6611                           ; Regs used in _SSD_SelectDigit: [wreg+status,2+status,0+btemp+1+pclath+cstack]
  6612                           
  6613                           
  6614                           ;SSD/SSD.c: 175:     static uint8_t Enable_Digit_Selector=1;;SSD/SSD.c: 176:     static 
      +                          uint8_t Digit_1=0;;SSD/SSD.c: 177:     static uint8_t Digit_2=0;;SSD/SSD.c: 179:     if(
      +                          Mode.Select_Mode!=Off_Mode)
  6615  0ED4  1283               	bcf	3,5	;RP0=0, select bank0
  6616  0ED5  1303               	bcf	3,6	;RP1=0, select bank0
  6617  0ED6  0854               	movf	_Mode,w
  6618  0ED7  1903               	btfsc	3,2
  6619  0ED8  2EDA               	goto	u4821
  6620  0ED9  2EDB               	goto	u4820
  6621  0EDA                     u4821:
  6622  0EDA  2F2F               	goto	l3611
  6623  0EDB                     u4820:
  6624  0EDB                     l3589:
  6625                           
  6626                           ;SSD/SSD.c: 180:     {;SSD/SSD.c: 181:         if(Enable_SSD==Enable_SSD_On)
  6627  0EDB  034C               	decf	_Enable_SSD,w
  6628  0EDC  1D03               	btfss	3,2
  6629  0EDD  2EDF               	goto	u4831
  6630  0EDE  2EE0               	goto	u4830
  6631  0EDF                     u4831:
  6632  0EDF  2F33               	goto	l537
  6633  0EE0                     u4830:
  6634  0EE0                     l3591:
  6635                           
  6636                           ;SSD/SSD.c: 182:      {;SSD/SSD.c: 183:             Digit_1=Tempreture%10;
  6637  0EE0  300A               	movlw	10
  6638  0EE1  00B6               	movwf	___awmod@divisor
  6639  0EE2  3000               	movlw	0
  6640  0EE3  00B7               	movwf	___awmod@divisor+1
  6641  0EE4  0846               	movf	_Tempreture,w
  6642  0EE5  00BE               	movwf	??_SSD_SelectDigit
  6643  0EE6  01BF               	clrf	??_SSD_SelectDigit+1
  6644  0EE7  083E               	movf	??_SSD_SelectDigit,w
  6645  0EE8  00B8               	movwf	___awmod@dividend
  6646  0EE9  083F               	movf	??_SSD_SelectDigit+1,w
  6647  0EEA  00B9               	movwf	___awmod@dividend+1
  6648  0EEB  120A  158A  261C  120A  158A  	fcall	___awmod
  6649  0EF0  1283               	bcf	3,5	;RP0=0, select bank0
  6650  0EF1  1303               	bcf	3,6	;RP1=0, select bank0
  6651  0EF2  0836               	movf	?___awmod,w
  6652  0EF3  00FF               	movwf	btemp+1
  6653  0EF4  087F               	movf	btemp+1,w
  6654  0EF5  00C5               	movwf	SSD_SelectDigit@Digit_1
  6655                           
  6656                           ;SSD/SSD.c: 184:             Digit_2=Tempreture/10;
  6657  0EF6  300A               	movlw	10
  6658  0EF7  00B6               	movwf	___awdiv@divisor
  6659  0EF8  3000               	movlw	0
  6660  0EF9  00B7               	movwf	___awdiv@divisor+1
  6661  0EFA  0846               	movf	_Tempreture,w
  6662  0EFB  00BE               	movwf	??_SSD_SelectDigit
  6663  0EFC  01BF               	clrf	??_SSD_SelectDigit+1
  6664  0EFD  083E               	movf	??_SSD_SelectDigit,w
  6665  0EFE  00B8               	movwf	___awdiv@dividend
  6666  0EFF  083F               	movf	??_SSD_SelectDigit+1,w
  6667  0F00  00B9               	movwf	___awdiv@dividend+1
  6668  0F01  120A  118A  26AD  120A  158A  	fcall	___awdiv
  6669  0F06  1283               	bcf	3,5	;RP0=0, select bank0
  6670  0F07  1303               	bcf	3,6	;RP1=0, select bank0
  6671  0F08  0836               	movf	?___awdiv,w
  6672  0F09  00FF               	movwf	btemp+1
  6673  0F0A  087F               	movf	btemp+1,w
  6674  0F0B  00C4               	movwf	SSD_SelectDigit@Digit_2
  6675  0F0C                     l3593:
  6676                           
  6677                           ;SSD/SSD.c: 186:             Enable_Digit_Selector^=1;
  6678  0F0C  3001               	movlw	1
  6679  0F0D  00FF               	movwf	btemp+1
  6680  0F0E  087F               	movf	btemp+1,w
  6681  0F0F  06D6               	xorwf	SSD_SelectDigit@Enable_Digit_Selector,f
  6682  0F10                     l3595:
  6683                           
  6684                           ;SSD/SSD.c: 188:             if(Enable_Digit_Selector==0)
  6685  0F10  0856               	movf	SSD_SelectDigit@Enable_Digit_Selector,w
  6686  0F11  1D03               	btfss	3,2
  6687  0F12  2F14               	goto	u4841
  6688  0F13  2F15               	goto	u4840
  6689  0F14                     u4841:
  6690  0F14  2F1F               	goto	l3603
  6691  0F15                     u4840:
  6692  0F15                     l3597:
  6693                           
  6694                           ;SSD/SSD.c: 189:             {;SSD/SSD.c: 190:               SSD=Digit_1;
  6695  0F15  0845               	movf	SSD_SelectDigit@Digit_1,w
  6696  0F16  00FF               	movwf	btemp+1
  6697  0F17  087F               	movf	btemp+1,w
  6698  0F18  00C7               	movwf	_SSD
  6699  0F19                     l3599:
  6700                           
  6701                           ;SSD/SSD.c: 191:                (PORTA &= ~(1<<4));
  6702  0F19  30EF               	movlw	239
  6703  0F1A  00FF               	movwf	btemp+1
  6704  0F1B  087F               	movf	btemp+1,w
  6705  0F1C  0585               	andwf	5,f	;volatile
  6706  0F1D                     l3601:
  6707                           
  6708                           ;SSD/SSD.c: 192:                (PORTA|= (1<<5)) ;
  6709  0F1D  1685               	bsf	5,5	;volatile
  6710                           
  6711                           ;SSD/SSD.c: 194:             }
  6712  0F1E  2F33               	goto	l537
  6713  0F1F                     l3603:
  6714  0F1F  0356               	decf	SSD_SelectDigit@Enable_Digit_Selector,w
  6715  0F20  1D03               	btfss	3,2
  6716  0F21  2F23               	goto	u4851
  6717  0F22  2F24               	goto	u4850
  6718  0F23                     u4851:
  6719  0F23  2F2E               	goto	l532
  6720  0F24                     u4850:
  6721  0F24                     l3605:
  6722                           
  6723                           ;SSD/SSD.c: 196:             {;SSD/SSD.c: 197:               SSD=Digit_2;
  6724  0F24  0844               	movf	SSD_SelectDigit@Digit_2,w
  6725  0F25  00FF               	movwf	btemp+1
  6726  0F26  087F               	movf	btemp+1,w
  6727  0F27  00C7               	movwf	_SSD
  6728  0F28                     l3607:
  6729                           
  6730                           ;SSD/SSD.c: 198:               (PORTA &= ~(1<<5));
  6731  0F28  30DF               	movlw	223
  6732  0F29  00FF               	movwf	btemp+1
  6733  0F2A  087F               	movf	btemp+1,w
  6734  0F2B  0585               	andwf	5,f	;volatile
  6735  0F2C                     l3609:
  6736                           
  6737                           ;SSD/SSD.c: 199:               (PORTA|= (1<<4));
  6738  0F2C  1605               	bsf	5,4	;volatile
  6739  0F2D  2F33               	goto	l537
  6740  0F2E                     l532:	
  6741                           ;SSD/SSD.c: 202:         }
  6742                           
  6743                           
  6744                           ;SSD/SSD.c: 203:     }
  6745  0F2E  2F33               	goto	l537
  6746  0F2F                     l3611:
  6747                           
  6748                           ;SSD/SSD.c: 205:     {;SSD/SSD.c: 206:      SSD=10;
  6749  0F2F  300A               	movlw	10
  6750  0F30  00FF               	movwf	btemp+1
  6751  0F31  087F               	movf	btemp+1,w
  6752  0F32  00C7               	movwf	_SSD
  6753  0F33                     l537:
  6754  0F33  0008               	return
  6755  0F34                     __end_of_SSD_SelectDigit:
  6756                           
  6757                           	psect	text30
  6758  06AD                     __ptext30:	
  6759 ;; *************** function ___awdiv *****************
  6760 ;; Defined at:
  6761 ;;		line 5 in file "C:\Program Files (x86)\Microchip\xc8\v2.20\pic\sources\c90\common\awdiv.c"
  6762 ;; Parameters:    Size  Location     Type
  6763 ;;  divisor         2   22[BANK0 ] int 
  6764 ;;  dividend        2   24[BANK0 ] int 
  6765 ;; Auto vars:     Size  Location     Type
  6766 ;;  quotient        2   28[BANK0 ] int 
  6767 ;;  sign            1   27[BANK0 ] unsigned char 
  6768 ;;  counter         1   26[BANK0 ] unsigned char 
  6769 ;; Return value:  Size  Location     Type
  6770 ;;                  2   22[BANK0 ] int 
  6771 ;; Registers used:
  6772 ;;		wreg, status,2, status,0, btemp+1
  6773 ;; Tracked objects:
  6774 ;;		On entry : 0/0
  6775 ;;		On exit  : 0/0
  6776 ;;		Unchanged: 0/0
  6777 ;; Data sizes:     COMMON   BANK0   BANK1   BANK3   BANK2
  6778 ;;      Params:         0       4       0       0       0
  6779 ;;      Locals:         0       4       0       0       0
  6780 ;;      Temps:          0       0       0       0       0
  6781 ;;      Totals:         0       8       0       0       0
  6782 ;;Total ram usage:        8 bytes
  6783 ;; Hardware stack levels used:    1
  6784 ;; Hardware stack levels required when called:    4
  6785 ;; This function calls:
  6786 ;;		Nothing
  6787 ;; This function is called by:
  6788 ;;		_SSD_SelectDigit
  6789 ;; This function uses a non-reentrant model
  6790 ;;
  6791                           
  6792                           
  6793                           ;psect for function ___awdiv
  6794  06AD                     ___awdiv:
  6795  06AD                     l3213:	
  6796                           ;incstack = 0
  6797 ;; hardware stack exceeded
  6798                           ; Regs used in ___awdiv: [wreg+status,2+status,0+btemp+1]
  6799                           
  6800  06AD  1283               	bcf	3,5	;RP0=0, select bank0
  6801  06AE  1303               	bcf	3,6	;RP1=0, select bank0
  6802  06AF  01BB               	clrf	___awdiv@sign
  6803  06B0                     l3215:
  6804  06B0  1FB7               	btfss	___awdiv@divisor+1,7
  6805  06B1  2EB3               	goto	u3951
  6806  06B2  2EB4               	goto	u3950
  6807  06B3                     u3951:
  6808  06B3  2EBB               	goto	l3221
  6809  06B4                     u3950:
  6810  06B4                     l3217:
  6811  06B4  09B6               	comf	___awdiv@divisor,f
  6812  06B5  09B7               	comf	___awdiv@divisor+1,f
  6813  06B6  0AB6               	incf	___awdiv@divisor,f
  6814  06B7  1903               	skipnz
  6815  06B8  0AB7               	incf	___awdiv@divisor+1,f
  6816  06B9                     l3219:
  6817  06B9  01BB               	clrf	___awdiv@sign
  6818  06BA  0ABB               	incf	___awdiv@sign,f
  6819  06BB                     l3221:
  6820  06BB  1FB9               	btfss	___awdiv@dividend+1,7
  6821  06BC  2EBE               	goto	u3961
  6822  06BD  2EBF               	goto	u3960
  6823  06BE                     u3961:
  6824  06BE  2EC8               	goto	l3227
  6825  06BF                     u3960:
  6826  06BF                     l3223:
  6827  06BF  09B8               	comf	___awdiv@dividend,f
  6828  06C0  09B9               	comf	___awdiv@dividend+1,f
  6829  06C1  0AB8               	incf	___awdiv@dividend,f
  6830  06C2  1903               	skipnz
  6831  06C3  0AB9               	incf	___awdiv@dividend+1,f
  6832  06C4                     l3225:
  6833  06C4  3001               	movlw	1
  6834  06C5  00FF               	movwf	btemp+1
  6835  06C6  087F               	movf	btemp+1,w
  6836  06C7  06BB               	xorwf	___awdiv@sign,f
  6837  06C8                     l3227:
  6838  06C8  01BC               	clrf	___awdiv@quotient
  6839  06C9  01BD               	clrf	___awdiv@quotient+1
  6840  06CA                     l3229:
  6841  06CA  0836               	movf	___awdiv@divisor,w
  6842  06CB  0437               	iorwf	___awdiv@divisor+1,w
  6843  06CC  1903               	btfsc	3,2
  6844  06CD  2ECF               	goto	u3971
  6845  06CE  2ED0               	goto	u3970
  6846  06CF                     u3971:
  6847  06CF  2F07               	goto	l3249
  6848  06D0                     u3970:
  6849  06D0                     l3231:
  6850  06D0  01BA               	clrf	___awdiv@counter
  6851  06D1  0ABA               	incf	___awdiv@counter,f
  6852  06D2  2EDE               	goto	l3237
  6853  06D3                     l3233:
  6854  06D3  3001               	movlw	1
  6855  06D4                     u3985:
  6856  06D4  1003               	clrc
  6857  06D5  0DB6               	rlf	___awdiv@divisor,f
  6858  06D6  0DB7               	rlf	___awdiv@divisor+1,f
  6859  06D7  3EFF               	addlw	-1
  6860  06D8  1D03               	skipz
  6861  06D9  2ED4               	goto	u3985
  6862  06DA                     l3235:
  6863  06DA  3001               	movlw	1
  6864  06DB  00FF               	movwf	btemp+1
  6865  06DC  087F               	movf	btemp+1,w
  6866  06DD  07BA               	addwf	___awdiv@counter,f
  6867  06DE                     l3237:
  6868  06DE  1FB7               	btfss	___awdiv@divisor+1,7
  6869  06DF  2EE1               	goto	u3991
  6870  06E0  2EE2               	goto	u3990
  6871  06E1                     u3991:
  6872  06E1  2ED3               	goto	l3233
  6873  06E2                     u3990:
  6874  06E2                     l3239:
  6875  06E2  3001               	movlw	1
  6876  06E3                     u4005:
  6877  06E3  1003               	clrc
  6878  06E4  0DBC               	rlf	___awdiv@quotient,f
  6879  06E5  0DBD               	rlf	___awdiv@quotient+1,f
  6880  06E6  3EFF               	addlw	-1
  6881  06E7  1D03               	skipz
  6882  06E8  2EE3               	goto	u4005
  6883  06E9  0837               	movf	___awdiv@divisor+1,w
  6884  06EA  0239               	subwf	___awdiv@dividend+1,w
  6885  06EB  1D03               	skipz
  6886  06EC  2EEF               	goto	u4015
  6887  06ED  0836               	movf	___awdiv@divisor,w
  6888  06EE  0238               	subwf	___awdiv@dividend,w
  6889  06EF                     u4015:
  6890  06EF  1C03               	skipc
  6891  06F0  2EF2               	goto	u4011
  6892  06F1  2EF3               	goto	u4010
  6893  06F2                     u4011:
  6894  06F2  2EFA               	goto	l3245
  6895  06F3                     u4010:
  6896  06F3                     l3241:
  6897  06F3  0836               	movf	___awdiv@divisor,w
  6898  06F4  02B8               	subwf	___awdiv@dividend,f
  6899  06F5  0837               	movf	___awdiv@divisor+1,w
  6900  06F6  1C03               	skipc
  6901  06F7  03B9               	decf	___awdiv@dividend+1,f
  6902  06F8  02B9               	subwf	___awdiv@dividend+1,f
  6903  06F9                     l3243:
  6904  06F9  143C               	bsf	___awdiv@quotient,0
  6905  06FA                     l3245:
  6906  06FA  3001               	movlw	1
  6907  06FB                     u4025:
  6908  06FB  1003               	clrc
  6909  06FC  0CB7               	rrf	___awdiv@divisor+1,f
  6910  06FD  0CB6               	rrf	___awdiv@divisor,f
  6911  06FE  3EFF               	addlw	-1
  6912  06FF  1D03               	skipz
  6913  0700  2EFB               	goto	u4025
  6914  0701                     l3247:
  6915  0701  3001               	movlw	1
  6916  0702  02BA               	subwf	___awdiv@counter,f
  6917  0703  1D03               	btfss	3,2
  6918  0704  2F06               	goto	u4031
  6919  0705  2F07               	goto	u4030
  6920  0706                     u4031:
  6921  0706  2EE2               	goto	l3239
  6922  0707                     u4030:
  6923  0707                     l3249:
  6924  0707  083B               	movf	___awdiv@sign,w
  6925  0708  1903               	btfsc	3,2
  6926  0709  2F0B               	goto	u4041
  6927  070A  2F0C               	goto	u4040
  6928  070B                     u4041:
  6929  070B  2F11               	goto	l3253
  6930  070C                     u4040:
  6931  070C                     l3251:
  6932  070C  09BC               	comf	___awdiv@quotient,f
  6933  070D  09BD               	comf	___awdiv@quotient+1,f
  6934  070E  0ABC               	incf	___awdiv@quotient,f
  6935  070F  1903               	skipnz
  6936  0710  0ABD               	incf	___awdiv@quotient+1,f
  6937  0711                     l3253:
  6938  0711  083D               	movf	___awdiv@quotient+1,w
  6939  0712  00B7               	movwf	?___awdiv+1
  6940  0713  083C               	movf	___awdiv@quotient,w
  6941  0714  00B6               	movwf	?___awdiv
  6942  0715                     l776:
  6943  0715  0008               	return
  6944  0716                     __end_of___awdiv:
  6945                           
  6946                           	psect	text31
  6947  0931                     __ptext31:	
  6948 ;; *************** function _Scheduler_Init *****************
  6949 ;; Defined at:
  6950 ;;		line 29 in file "Scheduler/Scheduler.c"
  6951 ;; Parameters:    Size  Location     Type
  6952 ;;		None
  6953 ;; Auto vars:     Size  Location     Type
  6954 ;;		None
  6955 ;; Return value:  Size  Location     Type
  6956 ;;                  1    wreg      void 
  6957 ;; Registers used:
  6958 ;;		wreg, fsr0l, fsr0h, status,2, status,0, btemp+1, pclath, cstack
  6959 ;; Tracked objects:
  6960 ;;		On entry : 0/0
  6961 ;;		On exit  : 0/0
  6962 ;;		Unchanged: 0/0
  6963 ;; Data sizes:     COMMON   BANK0   BANK1   BANK3   BANK2
  6964 ;;      Params:         0       0       0       0       0
  6965 ;;      Locals:         0       0       0       0       0
  6966 ;;      Temps:          0       0       0       0       0
  6967 ;;      Totals:         0       0       0       0       0
  6968 ;;Total ram usage:        0 bytes
  6969 ;; Hardware stack levels used:    1
  6970 ;; Hardware stack levels required when called:    5
  6971 ;; This function calls:
  6972 ;;		_memset
  6973 ;; This function is called by:
  6974 ;;		_main
  6975 ;; This function uses a non-reentrant model
  6976 ;;
  6977                           
  6978                           
  6979                           ;psect for function _Scheduler_Init
  6980  0931                     _Scheduler_Init:
  6981  0931                     l3817:	
  6982                           ;incstack = 0
  6983                           ; Regs used in _Scheduler_Init: [wreg-fsr0h+status,2+status,0+btemp+1+pclath+cstack]
  6984                           
  6985                           
  6986                           ;Scheduler/Scheduler.c: 31:   memset( Scheduler_ActivationFlags , 0 , sizeof( Scheduler_
      +                          ActivationFlags ) );
  6987  0931  3000               	movlw	0
  6988  0932  1283               	bcf	3,5	;RP0=0, select bank0
  6989  0933  1303               	bcf	3,6	;RP1=0, select bank0
  6990  0934  00B6               	movwf	memset@c
  6991  0935  00B7               	movwf	memset@c+1
  6992  0936  3003               	movlw	3
  6993  0937  00B8               	movwf	memset@n
  6994  0938  3000               	movlw	0
  6995  0939  00B9               	movwf	memset@n+1
  6996  093A  30D0               	movlw	(low (_Scheduler_ActivationFlags| 0))& (0+255)
  6997  093B  120A  158A  2208  120A  158A  	fcall	_memset
  6998  0940                     l247:
  6999  0940  0008               	return
  7000  0941                     __end_of_Scheduler_Init:
  7001                           
  7002                           	psect	text32
  7003  0A08                     __ptext32:	
  7004 ;; *************** function _memset *****************
  7005 ;; Defined at:
  7006 ;;		line 8 in file "C:\Program Files (x86)\Microchip\xc8\v2.20\pic\sources\c90\common\memset.c"
  7007 ;; Parameters:    Size  Location     Type
  7008 ;;  p1              1    wreg     PTR void 
  7009 ;;		 -> Scheduler_ActivationFlags(3), 
  7010 ;;  c               2   22[BANK0 ] int 
  7011 ;;  n               2   24[BANK0 ] unsigned int 
  7012 ;; Auto vars:     Size  Location     Type
  7013 ;;  p1              1   27[BANK0 ] PTR void 
  7014 ;;		 -> Scheduler_ActivationFlags(3), 
  7015 ;;  p               1   26[BANK0 ] PTR unsigned char 
  7016 ;;		 -> Scheduler_ActivationFlags(3), 
  7017 ;; Return value:  Size  Location     Type
  7018 ;;                  1    wreg      PTR void 
  7019 ;; Registers used:
  7020 ;;		wreg, fsr0l, fsr0h, status,2, status,0, btemp+1
  7021 ;; Tracked objects:
  7022 ;;		On entry : 0/0
  7023 ;;		On exit  : 0/0
  7024 ;;		Unchanged: 0/0
  7025 ;; Data sizes:     COMMON   BANK0   BANK1   BANK3   BANK2
  7026 ;;      Params:         0       4       0       0       0
  7027 ;;      Locals:         0       2       0       0       0
  7028 ;;      Temps:          0       0       0       0       0
  7029 ;;      Totals:         0       6       0       0       0
  7030 ;;Total ram usage:        6 bytes
  7031 ;; Hardware stack levels used:    1
  7032 ;; Hardware stack levels required when called:    4
  7033 ;; This function calls:
  7034 ;;		Nothing
  7035 ;; This function is called by:
  7036 ;;		_Scheduler_Init
  7037 ;; This function uses a non-reentrant model
  7038 ;;
  7039                           
  7040                           
  7041                           ;psect for function _memset
  7042  0A08                     _memset:
  7043                           
  7044                           ;incstack = 0
  7045                           ; Regs used in _memset: [wreg-fsr0h+status,2+status,0+btemp+1]
  7046                           ;memset@p1 stored from wreg
  7047  0A08  1283               	bcf	3,5	;RP0=0, select bank0
  7048  0A09  1303               	bcf	3,6	;RP1=0, select bank0
  7049  0A0A  00BB               	movwf	memset@p1
  7050  0A0B                     l3735:
  7051  0A0B  083B               	movf	memset@p1,w
  7052  0A0C  00FF               	movwf	btemp+1
  7053  0A0D  087F               	movf	btemp+1,w
  7054  0A0E  00BA               	movwf	memset@p
  7055  0A0F  2A1B               	goto	l3741
  7056  0A10                     l3737:
  7057  0A10  0836               	movf	memset@c,w
  7058  0A11  00FF               	movwf	btemp+1
  7059  0A12  083A               	movf	memset@p,w
  7060  0A13  0084               	movwf	4
  7061  0A14  087F               	movf	btemp+1,w
  7062  0A15  1383               	bcf	3,7	;select IRP bank0
  7063  0A16  0080               	movwf	0
  7064  0A17                     l3739:
  7065  0A17  3001               	movlw	1
  7066  0A18  00FF               	movwf	btemp+1
  7067  0A19  087F               	movf	btemp+1,w
  7068  0A1A  07BA               	addwf	memset@p,f
  7069  0A1B                     l3741:
  7070  0A1B  3001               	movlw	1
  7071  0A1C  02B8               	subwf	memset@n,f
  7072  0A1D  3000               	movlw	0
  7073  0A1E  1C03               	skipc
  7074  0A1F  03B9               	decf	memset@n+1,f
  7075  0A20  02B9               	subwf	memset@n+1,f
  7076  0A21  0A38               	incf	memset@n,w
  7077  0A22  1D03               	skipz
  7078  0A23  2A28               	goto	u5131
  7079  0A24  0A39               	incf	memset@n+1,w
  7080  0A25  1D03               	btfss	3,2
  7081  0A26  2A28               	goto	u5131
  7082  0A27  2A29               	goto	u5130
  7083  0A28                     u5131:
  7084  0A28  2A10               	goto	l3737
  7085  0A29                     u5130:
  7086  0A29                     l1077:
  7087  0A29  0008               	return
  7088  0A2A                     __end_of_memset:
  7089                           
  7090                           	psect	text33
  7091  0916                     __ptext33:	
  7092 ;; *************** function _SSD_Init *****************
  7093 ;; Defined at:
  7094 ;;		line 27 in file "SSD/SSD.c"
  7095 ;; Parameters:    Size  Location     Type
  7096 ;;		None
  7097 ;; Auto vars:     Size  Location     Type
  7098 ;;		None
  7099 ;; Return value:  Size  Location     Type
  7100 ;;                  1    wreg      void 
  7101 ;; Registers used:
  7102 ;;		wreg, status,2, status,0, btemp+1
  7103 ;; Tracked objects:
  7104 ;;		On entry : 0/0
  7105 ;;		On exit  : 0/0
  7106 ;;		Unchanged: 0/0
  7107 ;; Data sizes:     COMMON   BANK0   BANK1   BANK3   BANK2
  7108 ;;      Params:         0       0       0       0       0
  7109 ;;      Locals:         0       0       0       0       0
  7110 ;;      Temps:          0       0       0       0       0
  7111 ;;      Totals:         0       0       0       0       0
  7112 ;;Total ram usage:        0 bytes
  7113 ;; Hardware stack levels used:    1
  7114 ;; Hardware stack levels required when called:    4
  7115 ;; This function calls:
  7116 ;;		Nothing
  7117 ;; This function is called by:
  7118 ;;		_main
  7119 ;; This function uses a non-reentrant model
  7120 ;;
  7121                           
  7122                           
  7123                           ;psect for function _SSD_Init
  7124  0916                     _SSD_Init:
  7125  0916                     l2949:	
  7126                           ;incstack = 0
  7127                           ; Regs used in _SSD_Init: [wreg+status,2+status,0+btemp+1]
  7128                           
  7129                           
  7130                           ;SSD/SSD.c: 29:  (PORTA &= ~(1<<5)) ;
  7131  0916  30DF               	movlw	223
  7132  0917  00FF               	movwf	btemp+1
  7133  0918  087F               	movf	btemp+1,w
  7134  0919  1283               	bcf	3,5	;RP0=0, select bank0
  7135  091A  1303               	bcf	3,6	;RP1=0, select bank0
  7136  091B  0585               	andwf	5,f	;volatile
  7137                           
  7138                           ;SSD/SSD.c: 30:  (PORTA &= ~(1<<4)) ;
  7139  091C  30EF               	movlw	239
  7140  091D  00FF               	movwf	btemp+1
  7141  091E  087F               	movf	btemp+1,w
  7142  091F  0585               	andwf	5,f	;volatile
  7143  0920                     l2951:
  7144                           
  7145                           ;SSD/SSD.c: 31:  PORTD=0;
  7146  0920  0188               	clrf	8	;volatile
  7147  0921                     l491:
  7148  0921  0008               	return
  7149  0922                     __end_of_SSD_Init:
  7150                           
  7151                           	psect	text34
  7152  08AF                     __ptext34:	
  7153 ;; *************** function _On_Off_Init *****************
  7154 ;; Defined at:
  7155 ;;		line 23 in file "Buttons/Buttons.c"
  7156 ;; Parameters:    Size  Location     Type
  7157 ;;		None
  7158 ;; Auto vars:     Size  Location     Type
  7159 ;;		None
  7160 ;; Return value:  Size  Location     Type
  7161 ;;                  1    wreg      void 
  7162 ;; Registers used:
  7163 ;;		None
  7164 ;; Tracked objects:
  7165 ;;		On entry : 0/0
  7166 ;;		On exit  : 0/0
  7167 ;;		Unchanged: 0/0
  7168 ;; Data sizes:     COMMON   BANK0   BANK1   BANK3   BANK2
  7169 ;;      Params:         0       0       0       0       0
  7170 ;;      Locals:         0       0       0       0       0
  7171 ;;      Temps:          0       0       0       0       0
  7172 ;;      Totals:         0       0       0       0       0
  7173 ;;Total ram usage:        0 bytes
  7174 ;; Hardware stack levels used:    1
  7175 ;; Hardware stack levels required when called:    4
  7176 ;; This function calls:
  7177 ;;		Nothing
  7178 ;; This function is called by:
  7179 ;;		_main
  7180 ;; This function uses a non-reentrant model
  7181 ;;
  7182                           
  7183                           
  7184                           ;psect for function _On_Off_Init
  7185  08AF                     _On_Off_Init:
  7186  08AF                     l2947:	
  7187                           ;incstack = 0
  7188                           ; Regs used in _On_Off_Init: []
  7189                           
  7190                           
  7191                           ;Buttons/Buttons.c: 26:     INTCONbits.INTE=1;
  7192  08AF  160B               	bsf	11,4	;volatile
  7193                           
  7194                           ;Buttons/Buttons.c: 27:     INTEDG=1;
  7195  08B0  1683               	bsf	3,5	;RP0=1, select bank1
  7196  08B1  1303               	bcf	3,6	;RP1=0, select bank1
  7197  08B2  1701               	bsf	1,6	;volatile
  7198                           
  7199                           ;Buttons/Buttons.c: 28:     INTCONbits.INTF=0;
  7200  08B3  108B               	bcf	11,1	;volatile
  7201  08B4                     l92:
  7202  08B4  0008               	return
  7203  08B5                     __end_of_On_Off_Init:
  7204                           
  7205                           	psect	text35
  7206  08A1                     __ptext35:	
  7207 ;; *************** function _ModeManager_Init *****************
  7208 ;; Defined at:
  7209 ;;		line 27 in file "WaterHeater_Mode/WaterHeater_Mode.c"
  7210 ;; Parameters:    Size  Location     Type
  7211 ;;		None
  7212 ;; Auto vars:     Size  Location     Type
  7213 ;;		None
  7214 ;; Return value:  Size  Location     Type
  7215 ;;                  1    wreg      void 
  7216 ;; Registers used:
  7217 ;;		status,2
  7218 ;; Tracked objects:
  7219 ;;		On entry : 0/0
  7220 ;;		On exit  : 0/0
  7221 ;;		Unchanged: 0/0
  7222 ;; Data sizes:     COMMON   BANK0   BANK1   BANK3   BANK2
  7223 ;;      Params:         0       0       0       0       0
  7224 ;;      Locals:         0       0       0       0       0
  7225 ;;      Temps:          0       0       0       0       0
  7226 ;;      Totals:         0       0       0       0       0
  7227 ;;Total ram usage:        0 bytes
  7228 ;; Hardware stack levels used:    1
  7229 ;; Hardware stack levels required when called:    4
  7230 ;; This function calls:
  7231 ;;		Nothing
  7232 ;; This function is called by:
  7233 ;;		_main
  7234 ;; This function uses a non-reentrant model
  7235 ;;
  7236                           
  7237                           
  7238                           ;psect for function _ModeManager_Init
  7239  08A1                     _ModeManager_Init:
  7240  08A1                     l2959:	
  7241                           ;incstack = 0
  7242                           ; Regs used in _ModeManager_Init: [status,2]
  7243                           
  7244                           
  7245                           ;WaterHeater_Mode/WaterHeater_Mode.c: 29:  Mode.Select_Mode=Off_Mode;
  7246  08A1  1283               	bcf	3,5	;RP0=0, select bank0
  7247  08A2  1303               	bcf	3,6	;RP1=0, select bank0
  7248  08A3  01D4               	clrf	_Mode
  7249  08A4                     l349:
  7250  08A4  0008               	return
  7251  08A5                     __end_of_ModeManager_Init:
  7252                           
  7253                           	psect	text36
  7254  090A                     __ptext36:	
  7255 ;; *************** function _I2c_Init *****************
  7256 ;; Defined at:
  7257 ;;		line 10 in file "I2C/I2C.c"
  7258 ;; Parameters:    Size  Location     Type
  7259 ;;		None
  7260 ;; Auto vars:     Size  Location     Type
  7261 ;;		None
  7262 ;; Return value:  Size  Location     Type
  7263 ;;                  1    wreg      void 
  7264 ;; Registers used:
  7265 ;;		wreg
  7266 ;; Tracked objects:
  7267 ;;		On entry : 0/0
  7268 ;;		On exit  : 0/0
  7269 ;;		Unchanged: 0/0
  7270 ;; Data sizes:     COMMON   BANK0   BANK1   BANK3   BANK2
  7271 ;;      Params:         0       0       0       0       0
  7272 ;;      Locals:         0       0       0       0       0
  7273 ;;      Temps:          0       0       0       0       0
  7274 ;;      Totals:         0       0       0       0       0
  7275 ;;Total ram usage:        0 bytes
  7276 ;; Hardware stack levels used:    1
  7277 ;; Hardware stack levels required when called:    4
  7278 ;; This function calls:
  7279 ;;		Nothing
  7280 ;; This function is called by:
  7281 ;;		_main
  7282 ;; This function uses a non-reentrant model
  7283 ;;
  7284                           
  7285                           
  7286                           ;psect for function _I2c_Init
  7287  090A                     _I2c_Init:
  7288  090A                     l2935:	
  7289                           ;incstack = 0
  7290                           ; Regs used in _I2c_Init: [wreg]
  7291                           
  7292                           
  7293                           ;I2C/I2C.c: 12:     SSPADD = (8000000/(4*100000))-1;
  7294  090A  3013               	movlw	19
  7295  090B  1683               	bsf	3,5	;RP0=1, select bank1
  7296  090C  1303               	bcf	3,6	;RP1=0, select bank1
  7297  090D  0093               	movwf	19	;volatile
  7298  090E                     l2937:
  7299                           
  7300                           ;I2C/I2C.c: 14:     SSPM0=0;
  7301  090E  1283               	bcf	3,5	;RP0=0, select bank0
  7302  090F  1303               	bcf	3,6	;RP1=0, select bank0
  7303  0910  1014               	bcf	20,0	;volatile
  7304  0911                     l2939:
  7305                           
  7306                           ;I2C/I2C.c: 15:     SSPM1=0;
  7307  0911  1094               	bcf	20,1	;volatile
  7308  0912                     l2941:
  7309                           
  7310                           ;I2C/I2C.c: 16:     SSPM2=0;
  7311  0912  1114               	bcf	20,2	;volatile
  7312  0913                     l2943:
  7313                           
  7314                           ;I2C/I2C.c: 17:     SSPM3=1;
  7315  0913  1594               	bsf	20,3	;volatile
  7316  0914                     l2945:
  7317                           
  7318                           ;I2C/I2C.c: 19:     SSPEN=1;
  7319  0914  1694               	bsf	20,5	;volatile
  7320  0915                     l392:
  7321  0915  0008               	return
  7322  0916                     __end_of_I2c_Init:
  7323                           
  7324                           	psect	text37
  7325  0BB8                     __ptext37:	
  7326 ;; *************** function _Get_EEPROM_Data *****************
  7327 ;; Defined at:
  7328 ;;		line 27 in file "EEPROM/EEPROM.c"
  7329 ;; Parameters:    Size  Location     Type
  7330 ;;		None
  7331 ;; Auto vars:     Size  Location     Type
  7332 ;;		None
  7333 ;; Return value:  Size  Location     Type
  7334 ;;                  1    wreg      void 
  7335 ;; Registers used:
  7336 ;;		wreg, status,2, status,0, btemp+1, pclath, cstack
  7337 ;; Tracked objects:
  7338 ;;		On entry : 0/0
  7339 ;;		On exit  : 0/0
  7340 ;;		Unchanged: 0/0
  7341 ;; Data sizes:     COMMON   BANK0   BANK1   BANK3   BANK2
  7342 ;;      Params:         0       0       0       0       0
  7343 ;;      Locals:         0       0       0       0       0
  7344 ;;      Temps:          0       2       0       0       0
  7345 ;;      Totals:         0       2       0       0       0
  7346 ;;Total ram usage:        2 bytes
  7347 ;; Hardware stack levels used:    1
  7348 ;; Hardware stack levels required when called:    6
  7349 ;; This function calls:
  7350 ;;		_EEPROM_Read
  7351 ;;		___awmod
  7352 ;; This function is called by:
  7353 ;;		_main
  7354 ;; This function uses a non-reentrant model
  7355 ;;
  7356                           
  7357                           
  7358                           ;psect for function _Get_EEPROM_Data
  7359  0BB8                     _Get_EEPROM_Data:
  7360  0BB8                     l3805:	
  7361                           ;incstack = 0
  7362                           ; Regs used in _Get_EEPROM_Data: [wreg+status,2+status,0+btemp+1+pclath+cstack]
  7363                           
  7364                           
  7365                           ;EEPROM/EEPROM.c: 31:  EEPROM_Data=EEPROM_Read(0x0A);
  7366  0BB8  300A               	movlw	10
  7367  0BB9  120A  158A  2525  120A  158A  	fcall	_EEPROM_Read
  7368  0BBE  00FF               	movwf	btemp+1
  7369  0BBF  087F               	movf	btemp+1,w
  7370  0BC0  1283               	bcf	3,5	;RP0=0, select bank0
  7371  0BC1  1303               	bcf	3,6	;RP1=0, select bank0
  7372  0BC2  00C9               	movwf	_EEPROM_Data
  7373  0BC3                     l3807:
  7374                           
  7375                           ;EEPROM/EEPROM.c: 33:  if((EEPROM_Data<=(75U))&&(EEPROM_Data>=(35U) )&& ((EEPROM_Data%5)
      +                          ==0) )
  7376  0BC3  304C               	movlw	76
  7377  0BC4  0249               	subwf	_EEPROM_Data,w
  7378  0BC5  1803               	skipnc
  7379  0BC6  2BC8               	goto	u5181
  7380  0BC7  2BC9               	goto	u5180
  7381  0BC8                     u5181:
  7382  0BC8  2BEC               	goto	l3815
  7383  0BC9                     u5180:
  7384  0BC9                     l3809:
  7385  0BC9  3023               	movlw	35
  7386  0BCA  0249               	subwf	_EEPROM_Data,w
  7387  0BCB  1C03               	skipc
  7388  0BCC  2BCE               	goto	u5191
  7389  0BCD  2BCF               	goto	u5190
  7390  0BCE                     u5191:
  7391  0BCE  2BEC               	goto	l3815
  7392  0BCF                     u5190:
  7393  0BCF                     l3811:
  7394  0BCF  3005               	movlw	5
  7395  0BD0  00B6               	movwf	___awmod@divisor
  7396  0BD1  3000               	movlw	0
  7397  0BD2  00B7               	movwf	___awmod@divisor+1
  7398  0BD3  0849               	movf	_EEPROM_Data,w
  7399  0BD4  00BC               	movwf	??_Get_EEPROM_Data
  7400  0BD5  01BD               	clrf	??_Get_EEPROM_Data+1
  7401  0BD6  083C               	movf	??_Get_EEPROM_Data,w
  7402  0BD7  00B8               	movwf	___awmod@dividend
  7403  0BD8  083D               	movf	??_Get_EEPROM_Data+1,w
  7404  0BD9  00B9               	movwf	___awmod@dividend+1
  7405  0BDA  120A  158A  261C  120A  158A  	fcall	___awmod
  7406  0BDF  1283               	bcf	3,5	;RP0=0, select bank0
  7407  0BE0  1303               	bcf	3,6	;RP1=0, select bank0
  7408  0BE1  0836               	movf	?___awmod,w
  7409  0BE2  0437               	iorwf	?___awmod+1,w
  7410  0BE3  1D03               	btfss	3,2
  7411  0BE4  2BE6               	goto	u5201
  7412  0BE5  2BE7               	goto	u5200
  7413  0BE6                     u5201:
  7414  0BE6  2BEC               	goto	l3815
  7415  0BE7                     u5200:
  7416  0BE7                     l3813:
  7417                           
  7418                           ;EEPROM/EEPROM.c: 34:  {;EEPROM/EEPROM.c: 35:    Temperature.Set_Temp=EEPROM_Data;
  7419  0BE7  0849               	movf	_EEPROM_Data,w
  7420  0BE8  00FF               	movwf	btemp+1
  7421  0BE9  087F               	movf	btemp+1,w
  7422  0BEA  00D1               	movwf	_Temperature+3
  7423                           
  7424                           ;EEPROM/EEPROM.c: 36:  }
  7425  0BEB  2BF0               	goto	l454
  7426  0BEC                     l3815:
  7427                           
  7428                           ;EEPROM/EEPROM.c: 38:  {;EEPROM/EEPROM.c: 39:    Temperature.Set_Temp=(60U);
  7429  0BEC  303C               	movlw	60
  7430  0BED  00FF               	movwf	btemp+1
  7431  0BEE  087F               	movf	btemp+1,w
  7432  0BEF  00D1               	movwf	_Temperature+3
  7433  0BF0                     l454:
  7434  0BF0  0008               	return
  7435  0BF1                     __end_of_Get_EEPROM_Data:
  7436                           
  7437                           	psect	text38
  7438  0E1C                     __ptext38:	
  7439 ;; *************** function ___awmod *****************
  7440 ;; Defined at:
  7441 ;;		line 5 in file "C:\Program Files (x86)\Microchip\xc8\v2.20\pic\sources\c90\common\awmod.c"
  7442 ;; Parameters:    Size  Location     Type
  7443 ;;  divisor         2   22[BANK0 ] int 
  7444 ;;  dividend        2   24[BANK0 ] int 
  7445 ;; Auto vars:     Size  Location     Type
  7446 ;;  sign            1   27[BANK0 ] unsigned char 
  7447 ;;  counter         1   26[BANK0 ] unsigned char 
  7448 ;; Return value:  Size  Location     Type
  7449 ;;                  2   22[BANK0 ] int 
  7450 ;; Registers used:
  7451 ;;		wreg, status,2, status,0, btemp+1
  7452 ;; Tracked objects:
  7453 ;;		On entry : 0/0
  7454 ;;		On exit  : 0/0
  7455 ;;		Unchanged: 0/0
  7456 ;; Data sizes:     COMMON   BANK0   BANK1   BANK3   BANK2
  7457 ;;      Params:         0       4       0       0       0
  7458 ;;      Locals:         0       2       0       0       0
  7459 ;;      Temps:          0       0       0       0       0
  7460 ;;      Totals:         0       6       0       0       0
  7461 ;;Total ram usage:        6 bytes
  7462 ;; Hardware stack levels used:    1
  7463 ;; Hardware stack levels required when called:    4
  7464 ;; This function calls:
  7465 ;;		Nothing
  7466 ;; This function is called by:
  7467 ;;		_Get_EEPROM_Data
  7468 ;;		_SSD_SelectDigit
  7469 ;; This function uses a non-reentrant model
  7470 ;;
  7471                           
  7472                           
  7473                           ;psect for function ___awmod
  7474  0E1C                     ___awmod:
  7475  0E1C                     l3257:	
  7476                           ;incstack = 0
  7477 ;; hardware stack exceeded
  7478                           ; Regs used in ___awmod: [wreg+status,2+status,0+btemp+1]
  7479                           
  7480  0E1C  1283               	bcf	3,5	;RP0=0, select bank0
  7481  0E1D  1303               	bcf	3,6	;RP1=0, select bank0
  7482  0E1E  01BB               	clrf	___awmod@sign
  7483  0E1F                     l3259:
  7484  0E1F  1FB9               	btfss	___awmod@dividend+1,7
  7485  0E20  2E22               	goto	u4051
  7486  0E21  2E23               	goto	u4050
  7487  0E22                     u4051:
  7488  0E22  2E2A               	goto	l3265
  7489  0E23                     u4050:
  7490  0E23                     l3261:
  7491  0E23  09B8               	comf	___awmod@dividend,f
  7492  0E24  09B9               	comf	___awmod@dividend+1,f
  7493  0E25  0AB8               	incf	___awmod@dividend,f
  7494  0E26  1903               	skipnz
  7495  0E27  0AB9               	incf	___awmod@dividend+1,f
  7496  0E28                     l3263:
  7497  0E28  01BB               	clrf	___awmod@sign
  7498  0E29  0ABB               	incf	___awmod@sign,f
  7499  0E2A                     l3265:
  7500  0E2A  1FB7               	btfss	___awmod@divisor+1,7
  7501  0E2B  2E2D               	goto	u4061
  7502  0E2C  2E2E               	goto	u4060
  7503  0E2D                     u4061:
  7504  0E2D  2E33               	goto	l3269
  7505  0E2E                     u4060:
  7506  0E2E                     l3267:
  7507  0E2E  09B6               	comf	___awmod@divisor,f
  7508  0E2F  09B7               	comf	___awmod@divisor+1,f
  7509  0E30  0AB6               	incf	___awmod@divisor,f
  7510  0E31  1903               	skipnz
  7511  0E32  0AB7               	incf	___awmod@divisor+1,f
  7512  0E33                     l3269:
  7513  0E33  0836               	movf	___awmod@divisor,w
  7514  0E34  0437               	iorwf	___awmod@divisor+1,w
  7515  0E35  1903               	btfsc	3,2
  7516  0E36  2E38               	goto	u4071
  7517  0E37  2E39               	goto	u4070
  7518  0E38                     u4071:
  7519  0E38  2E68               	goto	l3287
  7520  0E39                     u4070:
  7521  0E39                     l3271:
  7522  0E39  01BA               	clrf	___awmod@counter
  7523  0E3A  0ABA               	incf	___awmod@counter,f
  7524  0E3B  2E47               	goto	l3277
  7525  0E3C                     l3273:
  7526  0E3C  3001               	movlw	1
  7527  0E3D                     u4085:
  7528  0E3D  1003               	clrc
  7529  0E3E  0DB6               	rlf	___awmod@divisor,f
  7530  0E3F  0DB7               	rlf	___awmod@divisor+1,f
  7531  0E40  3EFF               	addlw	-1
  7532  0E41  1D03               	skipz
  7533  0E42  2E3D               	goto	u4085
  7534  0E43                     l3275:
  7535  0E43  3001               	movlw	1
  7536  0E44  00FF               	movwf	btemp+1
  7537  0E45  087F               	movf	btemp+1,w
  7538  0E46  07BA               	addwf	___awmod@counter,f
  7539  0E47                     l3277:
  7540  0E47  1FB7               	btfss	___awmod@divisor+1,7
  7541  0E48  2E4A               	goto	u4091
  7542  0E49  2E4B               	goto	u4090
  7543  0E4A                     u4091:
  7544  0E4A  2E3C               	goto	l3273
  7545  0E4B                     u4090:
  7546  0E4B                     l3279:
  7547  0E4B  0837               	movf	___awmod@divisor+1,w
  7548  0E4C  0239               	subwf	___awmod@dividend+1,w
  7549  0E4D  1D03               	skipz
  7550  0E4E  2E51               	goto	u4105
  7551  0E4F  0836               	movf	___awmod@divisor,w
  7552  0E50  0238               	subwf	___awmod@dividend,w
  7553  0E51                     u4105:
  7554  0E51  1C03               	skipc
  7555  0E52  2E54               	goto	u4101
  7556  0E53  2E55               	goto	u4100
  7557  0E54                     u4101:
  7558  0E54  2E5B               	goto	l3283
  7559  0E55                     u4100:
  7560  0E55                     l3281:
  7561  0E55  0836               	movf	___awmod@divisor,w
  7562  0E56  02B8               	subwf	___awmod@dividend,f
  7563  0E57  0837               	movf	___awmod@divisor+1,w
  7564  0E58  1C03               	skipc
  7565  0E59  03B9               	decf	___awmod@dividend+1,f
  7566  0E5A  02B9               	subwf	___awmod@dividend+1,f
  7567  0E5B                     l3283:
  7568  0E5B  3001               	movlw	1
  7569  0E5C                     u4115:
  7570  0E5C  1003               	clrc
  7571  0E5D  0CB7               	rrf	___awmod@divisor+1,f
  7572  0E5E  0CB6               	rrf	___awmod@divisor,f
  7573  0E5F  3EFF               	addlw	-1
  7574  0E60  1D03               	skipz
  7575  0E61  2E5C               	goto	u4115
  7576  0E62                     l3285:
  7577  0E62  3001               	movlw	1
  7578  0E63  02BA               	subwf	___awmod@counter,f
  7579  0E64  1D03               	btfss	3,2
  7580  0E65  2E67               	goto	u4121
  7581  0E66  2E68               	goto	u4120
  7582  0E67                     u4121:
  7583  0E67  2E4B               	goto	l3279
  7584  0E68                     u4120:
  7585  0E68                     l3287:
  7586  0E68  083B               	movf	___awmod@sign,w
  7587  0E69  1903               	btfsc	3,2
  7588  0E6A  2E6C               	goto	u4131
  7589  0E6B  2E6D               	goto	u4130
  7590  0E6C                     u4131:
  7591  0E6C  2E72               	goto	l3291
  7592  0E6D                     u4130:
  7593  0E6D                     l3289:
  7594  0E6D  09B8               	comf	___awmod@dividend,f
  7595  0E6E  09B9               	comf	___awmod@dividend+1,f
  7596  0E6F  0AB8               	incf	___awmod@dividend,f
  7597  0E70  1903               	skipnz
  7598  0E71  0AB9               	incf	___awmod@dividend+1,f
  7599  0E72                     l3291:
  7600  0E72  0839               	movf	___awmod@dividend+1,w
  7601  0E73  00B7               	movwf	?___awmod+1
  7602  0E74  0838               	movf	___awmod@dividend,w
  7603  0E75  00B6               	movwf	?___awmod
  7604  0E76                     l789:
  7605  0E76  0008               	return
  7606  0E77                     __end_of___awmod:
  7607                           
  7608                           	psect	text39
  7609  0D25                     __ptext39:	
  7610 ;; *************** function _EEPROM_Read *****************
  7611 ;; Defined at:
  7612 ;;		line 104 in file "EEPROM/EEPROM.c"
  7613 ;; Parameters:    Size  Location     Type
  7614 ;;  Addr            1    wreg     unsigned char 
  7615 ;; Auto vars:     Size  Location     Type
  7616 ;;  Addr            1   23[BANK0 ] unsigned char 
  7617 ;; Return value:  Size  Location     Type
  7618 ;;                  1    wreg      unsigned char 
  7619 ;; Registers used:
  7620 ;;		wreg, status,2, status,0, btemp+1, pclath, cstack
  7621 ;; Tracked objects:
  7622 ;;		On entry : 0/0
  7623 ;;		On exit  : 0/0
  7624 ;;		Unchanged: 0/0
  7625 ;; Data sizes:     COMMON   BANK0   BANK1   BANK3   BANK2
  7626 ;;      Params:         0       0       0       0       0
  7627 ;;      Locals:         0       1       0       0       0
  7628 ;;      Temps:          0       0       0       0       0
  7629 ;;      Totals:         0       1       0       0       0
  7630 ;;Total ram usage:        1 bytes
  7631 ;; Hardware stack levels used:    1
  7632 ;; Hardware stack levels required when called:    5
  7633 ;; This function calls:
  7634 ;;		_I2c_Read
  7635 ;;		_I2c_Send_NAck
  7636 ;;		_I2c_Start
  7637 ;;		_I2c_Stop
  7638 ;;		_I2c_WaitAck
  7639 ;;		_I2c_Write
  7640 ;; This function is called by:
  7641 ;;		_Get_EEPROM_Data
  7642 ;; This function uses a non-reentrant model
  7643 ;;
  7644                           
  7645                           
  7646                           ;psect for function _EEPROM_Read
  7647  0D25                     _EEPROM_Read:
  7648                           
  7649                           ;incstack = 0
  7650                           ; Regs used in _EEPROM_Read: [wreg+status,2+status,0+btemp+1+pclath+cstack]
  7651                           ;EEPROM_Read@Addr stored from wreg
  7652  0D25  1283               	bcf	3,5	;RP0=0, select bank0
  7653  0D26  1303               	bcf	3,6	;RP1=0, select bank0
  7654  0D27  00B7               	movwf	EEPROM_Read@Addr
  7655  0D28                     l3767:
  7656                           
  7657                           ;EEPROM/EEPROM.c: 104: uint8_t EEPROM_Read(uint8_t Addr);EEPROM/EEPROM.c: 105: {;EEPROM/
      +                          EEPROM.c: 106:   static uint8_t Data;;EEPROM/EEPROM.c: 107:   I2c_Start();
  7658  0D28  120A  158A  20DD  120A  158A  	fcall	_I2c_Start
  7659  0D2D                     l3769:
  7660                           
  7661                           ;EEPROM/EEPROM.c: 108:   I2c_Write(0xA0);
  7662  0D2D  30A0               	movlw	160
  7663  0D2E  120A  158A  20A9  120A  158A  	fcall	_I2c_Write
  7664  0D33                     l3771:
  7665                           
  7666                           ;EEPROM/EEPROM.c: 109:   I2c_WaitAck();
  7667  0D33  120A  158A  20BB  120A  158A  	fcall	_I2c_WaitAck
  7668                           
  7669                           ;EEPROM/EEPROM.c: 110:   I2c_Write(Addr);
  7670  0D38  1283               	bcf	3,5	;RP0=0, select bank0
  7671  0D39  1303               	bcf	3,6	;RP1=0, select bank0
  7672  0D3A  0837               	movf	EEPROM_Read@Addr,w
  7673  0D3B  120A  158A  20A9  120A  158A  	fcall	_I2c_Write
  7674  0D40                     l3773:
  7675                           
  7676                           ;EEPROM/EEPROM.c: 111:   I2c_WaitAck();
  7677  0D40  120A  158A  20BB  120A  158A  	fcall	_I2c_WaitAck
  7678  0D45                     l3775:
  7679                           
  7680                           ;EEPROM/EEPROM.c: 112:   I2c_Start();
  7681  0D45  120A  158A  20DD  120A  158A  	fcall	_I2c_Start
  7682                           
  7683                           ;EEPROM/EEPROM.c: 113:   I2c_Write(0xA0 +1);
  7684  0D4A  30A1               	movlw	161
  7685  0D4B  120A  158A  20A9  120A  158A  	fcall	_I2c_Write
  7686  0D50                     l3777:
  7687                           
  7688                           ;EEPROM/EEPROM.c: 114:   I2c_WaitAck();
  7689  0D50  120A  158A  20BB  120A  158A  	fcall	_I2c_WaitAck
  7690  0D55                     l3779:
  7691                           
  7692                           ;EEPROM/EEPROM.c: 115:   Data=I2c_Read();
  7693  0D55  120A  158A  2122  120A  158A  	fcall	_I2c_Read
  7694  0D5A  00FF               	movwf	btemp+1
  7695  0D5B  087F               	movf	btemp+1,w
  7696  0D5C  1283               	bcf	3,5	;RP0=0, select bank0
  7697  0D5D  1303               	bcf	3,6	;RP1=0, select bank0
  7698  0D5E  00C8               	movwf	EEPROM_Read@Data
  7699  0D5F                     l3781:
  7700                           
  7701                           ;EEPROM/EEPROM.c: 116:   I2c_Send_NAck();
  7702  0D5F  120A  158A  20D4  120A  158A  	fcall	_I2c_Send_NAck
  7703  0D64                     l3783:
  7704                           
  7705                           ;EEPROM/EEPROM.c: 117:   I2c_Stop();
  7706  0D64  120A  158A  20E8  120A  158A  	fcall	_I2c_Stop
  7707  0D69                     l3785:
  7708                           
  7709                           ;EEPROM/EEPROM.c: 118:   return Data;
  7710  0D69  1283               	bcf	3,5	;RP0=0, select bank0
  7711  0D6A  1303               	bcf	3,6	;RP1=0, select bank0
  7712  0D6B  0848               	movf	EEPROM_Read@Data,w
  7713  0D6C                     l466:
  7714  0D6C  0008               	return
  7715  0D6D                     __end_of_EEPROM_Read:
  7716                           
  7717                           	psect	text40
  7718  08A9                     __ptext40:	
  7719 ;; *************** function _I2c_Write *****************
  7720 ;; Defined at:
  7721 ;;		line 55 in file "I2C/I2C.c"
  7722 ;; Parameters:    Size  Location     Type
  7723 ;;  data            1    wreg     unsigned char 
  7724 ;; Auto vars:     Size  Location     Type
  7725 ;;  data            1   22[BANK0 ] unsigned char 
  7726 ;; Return value:  Size  Location     Type
  7727 ;;                  1    wreg      void 
  7728 ;; Registers used:
  7729 ;;		wreg
  7730 ;; Tracked objects:
  7731 ;;		On entry : 0/0
  7732 ;;		On exit  : 0/0
  7733 ;;		Unchanged: 0/0
  7734 ;; Data sizes:     COMMON   BANK0   BANK1   BANK3   BANK2
  7735 ;;      Params:         0       0       0       0       0
  7736 ;;      Locals:         0       1       0       0       0
  7737 ;;      Temps:          0       0       0       0       0
  7738 ;;      Totals:         0       1       0       0       0
  7739 ;;Total ram usage:        1 bytes
  7740 ;; Hardware stack levels used:    1
  7741 ;; Hardware stack levels required when called:    4
  7742 ;; This function calls:
  7743 ;;		Nothing
  7744 ;; This function is called by:
  7745 ;;		_EEPROM_Write
  7746 ;;		_EEPROM_Read
  7747 ;; This function uses a non-reentrant model
  7748 ;;
  7749                           
  7750                           
  7751                           ;psect for function _I2c_Write
  7752  08A9                     _I2c_Write:
  7753                           
  7754                           ;incstack = 0
  7755 ;; hardware stack exceeded
  7756                           ; Regs used in _I2c_Write: [wreg]
  7757                           ;I2c_Write@data stored from wreg
  7758  08A9  1283               	bcf	3,5	;RP0=0, select bank0
  7759  08AA  1303               	bcf	3,6	;RP1=0, select bank0
  7760  08AB  00B6               	movwf	I2c_Write@data
  7761  08AC                     l3193:
  7762                           
  7763                           ;I2C/I2C.c: 55: void I2c_Write(uint8_t data);I2C/I2C.c: 56: {;I2C/I2C.c: 57:     SSPBUF=
      +                          data;
  7764  08AC  0836               	movf	I2c_Write@data,w
  7765  08AD  0093               	movwf	19	;volatile
  7766  08AE                     l419:
  7767  08AE  0008               	return
  7768  08AF                     __end_of_I2c_Write:
  7769                           
  7770                           	psect	text41
  7771  08BB                     __ptext41:	
  7772 ;; *************** function _I2c_WaitAck *****************
  7773 ;; Defined at:
  7774 ;;		line 61 in file "I2C/I2C.c"
  7775 ;; Parameters:    Size  Location     Type
  7776 ;;		None
  7777 ;; Auto vars:     Size  Location     Type
  7778 ;;		None
  7779 ;; Return value:  Size  Location     Type
  7780 ;;                  1    wreg      void 
  7781 ;; Registers used:
  7782 ;;		None
  7783 ;; Tracked objects:
  7784 ;;		On entry : 0/0
  7785 ;;		On exit  : 0/0
  7786 ;;		Unchanged: 0/0
  7787 ;; Data sizes:     COMMON   BANK0   BANK1   BANK3   BANK2
  7788 ;;      Params:         0       0       0       0       0
  7789 ;;      Locals:         0       0       0       0       0
  7790 ;;      Temps:          0       0       0       0       0
  7791 ;;      Totals:         0       0       0       0       0
  7792 ;;Total ram usage:        0 bytes
  7793 ;; Hardware stack levels used:    1
  7794 ;; Hardware stack levels required when called:    4
  7795 ;; This function calls:
  7796 ;;		Nothing
  7797 ;; This function is called by:
  7798 ;;		_EEPROM_Write
  7799 ;;		_EEPROM_Read
  7800 ;; This function uses a non-reentrant model
  7801 ;;
  7802                           
  7803                           
  7804                           ;psect for function _I2c_WaitAck
  7805  08BB                     _I2c_WaitAck:
  7806  08BB                     l3195:	
  7807                           ;incstack = 0
  7808 ;; hardware stack exceeded
  7809                           ; Regs used in _I2c_WaitAck: []
  7810                           
  7811  08BB                     l422:	
  7812                           ;I2C/I2C.c: 63:     while(!SSPIF);
  7813                           
  7814  08BB  1283               	bcf	3,5	;RP0=0, select bank0
  7815  08BC  1303               	bcf	3,6	;RP1=0, select bank0
  7816  08BD  1D8C               	btfss	12,3	;volatile
  7817  08BE  28C0               	goto	u3911
  7818  08BF  28C1               	goto	u3910
  7819  08C0                     u3911:
  7820  08C0  28BB               	goto	l422
  7821  08C1                     u3910:
  7822  08C1                     l424:
  7823                           
  7824                           ;I2C/I2C.c: 64:     SSPIF=0;
  7825  08C1  118C               	bcf	12,3	;volatile
  7826  08C2                     l425:
  7827  08C2  0008               	return
  7828  08C3                     __end_of_I2c_WaitAck:
  7829                           
  7830                           	psect	text42
  7831  08E8                     __ptext42:	
  7832 ;; *************** function _I2c_Stop *****************
  7833 ;; Defined at:
  7834 ;;		line 48 in file "I2C/I2C.c"
  7835 ;; Parameters:    Size  Location     Type
  7836 ;;		None
  7837 ;; Auto vars:     Size  Location     Type
  7838 ;;		None
  7839 ;; Return value:  Size  Location     Type
  7840 ;;                  1    wreg      void 
  7841 ;; Registers used:
  7842 ;;		None
  7843 ;; Tracked objects:
  7844 ;;		On entry : 0/0
  7845 ;;		On exit  : 0/0
  7846 ;;		Unchanged: 0/0
  7847 ;; Data sizes:     COMMON   BANK0   BANK1   BANK3   BANK2
  7848 ;;      Params:         0       0       0       0       0
  7849 ;;      Locals:         0       0       0       0       0
  7850 ;;      Temps:          0       0       0       0       0
  7851 ;;      Totals:         0       0       0       0       0
  7852 ;;Total ram usage:        0 bytes
  7853 ;; Hardware stack levels used:    1
  7854 ;; Hardware stack levels required when called:    4
  7855 ;; This function calls:
  7856 ;;		Nothing
  7857 ;; This function is called by:
  7858 ;;		_EEPROM_Write
  7859 ;;		_EEPROM_Read
  7860 ;; This function uses a non-reentrant model
  7861 ;;
  7862                           
  7863                           
  7864                           ;psect for function _I2c_Stop
  7865  08E8                     _I2c_Stop:
  7866  08E8                     l3191:	
  7867                           ;incstack = 0
  7868 ;; hardware stack exceeded
  7869                           ; Regs used in _I2c_Stop: []
  7870                           
  7871                           
  7872                           ;I2C/I2C.c: 50:     PEN=1;
  7873  08E8  1683               	bsf	3,5	;RP0=1, select bank1
  7874  08E9  1303               	bcf	3,6	;RP1=0, select bank1
  7875  08EA  1511               	bsf	17,2	;volatile
  7876  08EB                     l413:	
  7877                           ;I2C/I2C.c: 51:     while(PEN);
  7878                           
  7879  08EB  1911               	btfsc	17,2	;volatile
  7880  08EC  28EE               	goto	u3901
  7881  08ED  28EF               	goto	u3900
  7882  08EE                     u3901:
  7883  08EE  28EB               	goto	l413
  7884  08EF                     u3900:
  7885  08EF                     l415:
  7886                           
  7887                           ;I2C/I2C.c: 52:     SSPIF=0;
  7888  08EF  1283               	bcf	3,5	;RP0=0, select bank0
  7889  08F0  1303               	bcf	3,6	;RP1=0, select bank0
  7890  08F1  118C               	bcf	12,3	;volatile
  7891  08F2                     l416:
  7892  08F2  0008               	return
  7893  08F3                     __end_of_I2c_Stop:
  7894                           
  7895                           	psect	text43
  7896  08DD                     __ptext43:	
  7897 ;; *************** function _I2c_Start *****************
  7898 ;; Defined at:
  7899 ;;		line 23 in file "I2C/I2C.c"
  7900 ;; Parameters:    Size  Location     Type
  7901 ;;		None
  7902 ;; Auto vars:     Size  Location     Type
  7903 ;;		None
  7904 ;; Return value:  Size  Location     Type
  7905 ;;                  1    wreg      void 
  7906 ;; Registers used:
  7907 ;;		None
  7908 ;; Tracked objects:
  7909 ;;		On entry : 0/0
  7910 ;;		On exit  : 0/0
  7911 ;;		Unchanged: 0/0
  7912 ;; Data sizes:     COMMON   BANK0   BANK1   BANK3   BANK2
  7913 ;;      Params:         0       0       0       0       0
  7914 ;;      Locals:         0       0       0       0       0
  7915 ;;      Temps:          0       0       0       0       0
  7916 ;;      Totals:         0       0       0       0       0
  7917 ;;Total ram usage:        0 bytes
  7918 ;; Hardware stack levels used:    1
  7919 ;; Hardware stack levels required when called:    4
  7920 ;; This function calls:
  7921 ;;		Nothing
  7922 ;; This function is called by:
  7923 ;;		_EEPROM_Write
  7924 ;;		_EEPROM_Read
  7925 ;; This function uses a non-reentrant model
  7926 ;;
  7927                           
  7928                           
  7929                           ;psect for function _I2c_Start
  7930  08DD                     _I2c_Start:
  7931  08DD                     l3189:	
  7932                           ;incstack = 0
  7933 ;; hardware stack exceeded
  7934                           ; Regs used in _I2c_Start: []
  7935                           
  7936                           
  7937                           ;I2C/I2C.c: 25:     SEN=1;
  7938  08DD  1683               	bsf	3,5	;RP0=1, select bank1
  7939  08DE  1303               	bcf	3,6	;RP1=0, select bank1
  7940  08DF  1411               	bsf	17,0	;volatile
  7941  08E0                     l395:	
  7942                           ;I2C/I2C.c: 26:     while(SEN);
  7943                           
  7944  08E0  1811               	btfsc	17,0	;volatile
  7945  08E1  28E3               	goto	u3891
  7946  08E2  28E4               	goto	u3890
  7947  08E3                     u3891:
  7948  08E3  28E0               	goto	l395
  7949  08E4                     u3890:
  7950  08E4                     l397:
  7951                           
  7952                           ;I2C/I2C.c: 27:     SSPIF=0;
  7953  08E4  1283               	bcf	3,5	;RP0=0, select bank0
  7954  08E5  1303               	bcf	3,6	;RP1=0, select bank0
  7955  08E6  118C               	bcf	12,3	;volatile
  7956  08E7                     l398:
  7957  08E7  0008               	return
  7958  08E8                     __end_of_I2c_Start:
  7959                           
  7960                           	psect	text44
  7961  08D4                     __ptext44:	
  7962 ;; *************** function _I2c_Send_NAck *****************
  7963 ;; Defined at:
  7964 ;;		line 40 in file "I2C/I2C.c"
  7965 ;; Parameters:    Size  Location     Type
  7966 ;;		None
  7967 ;; Auto vars:     Size  Location     Type
  7968 ;;		None
  7969 ;; Return value:  Size  Location     Type
  7970 ;;                  1    wreg      void 
  7971 ;; Registers used:
  7972 ;;		None
  7973 ;; Tracked objects:
  7974 ;;		On entry : 0/0
  7975 ;;		On exit  : 0/0
  7976 ;;		Unchanged: 0/0
  7977 ;; Data sizes:     COMMON   BANK0   BANK1   BANK3   BANK2
  7978 ;;      Params:         0       0       0       0       0
  7979 ;;      Locals:         0       0       0       0       0
  7980 ;;      Temps:          0       0       0       0       0
  7981 ;;      Totals:         0       0       0       0       0
  7982 ;;Total ram usage:        0 bytes
  7983 ;; Hardware stack levels used:    1
  7984 ;; Hardware stack levels required when called:    4
  7985 ;; This function calls:
  7986 ;;		Nothing
  7987 ;; This function is called by:
  7988 ;;		_EEPROM_Read
  7989 ;; This function uses a non-reentrant model
  7990 ;;
  7991                           
  7992                           
  7993                           ;psect for function _I2c_Send_NAck
  7994  08D4                     _I2c_Send_NAck:
  7995  08D4                     l2767:	
  7996                           ;incstack = 0
  7997                           ; Regs used in _I2c_Send_NAck: []
  7998                           
  7999                           
  8000                           ;I2C/I2C.c: 42:     ACKDT=1;
  8001  08D4  1683               	bsf	3,5	;RP0=1, select bank1
  8002  08D5  1303               	bcf	3,6	;RP1=0, select bank1
  8003  08D6  1691               	bsf	17,5	;volatile
  8004                           
  8005                           ;I2C/I2C.c: 43:     ACKEN=1;
  8006  08D7  1611               	bsf	17,4	;volatile
  8007  08D8                     l407:	
  8008                           ;I2C/I2C.c: 44:     while(ACKEN);
  8009                           
  8010  08D8  1A11               	btfsc	17,4	;volatile
  8011  08D9  28DB               	goto	u3321
  8012  08DA  28DC               	goto	u3320
  8013  08DB                     u3321:
  8014  08DB  28D8               	goto	l407
  8015  08DC                     u3320:
  8016  08DC                     l410:
  8017  08DC  0008               	return
  8018  08DD                     __end_of_I2c_Send_NAck:
  8019                           
  8020                           	psect	text45
  8021  0922                     __ptext45:	
  8022 ;; *************** function _I2c_Read *****************
  8023 ;; Defined at:
  8024 ;;		line 31 in file "I2C/I2C.c"
  8025 ;; Parameters:    Size  Location     Type
  8026 ;;		None
  8027 ;; Auto vars:     Size  Location     Type
  8028 ;;  data            1   22[BANK0 ] unsigned char 
  8029 ;; Return value:  Size  Location     Type
  8030 ;;                  1    wreg      unsigned char 
  8031 ;; Registers used:
  8032 ;;		wreg, btemp+1
  8033 ;; Tracked objects:
  8034 ;;		On entry : 0/0
  8035 ;;		On exit  : 0/0
  8036 ;;		Unchanged: 0/0
  8037 ;; Data sizes:     COMMON   BANK0   BANK1   BANK3   BANK2
  8038 ;;      Params:         0       0       0       0       0
  8039 ;;      Locals:         0       1       0       0       0
  8040 ;;      Temps:          0       0       0       0       0
  8041 ;;      Totals:         0       1       0       0       0
  8042 ;;Total ram usage:        1 bytes
  8043 ;; Hardware stack levels used:    1
  8044 ;; Hardware stack levels required when called:    4
  8045 ;; This function calls:
  8046 ;;		Nothing
  8047 ;; This function is called by:
  8048 ;;		_EEPROM_Read
  8049 ;; This function uses a non-reentrant model
  8050 ;;
  8051                           
  8052                           
  8053                           ;psect for function _I2c_Read
  8054  0922                     _I2c_Read:
  8055  0922                     l2759:	
  8056                           ;incstack = 0
  8057                           ; Regs used in _I2c_Read: [wreg+btemp+1]
  8058                           
  8059                           
  8060                           ;I2C/I2C.c: 33:     uint8_t data;;I2C/I2C.c: 34:     RCEN=1;
  8061  0922  1683               	bsf	3,5	;RP0=1, select bank1
  8062  0923  1303               	bcf	3,6	;RP1=0, select bank1
  8063  0924  1591               	bsf	17,3	;volatile
  8064  0925                     l401:	
  8065                           ;I2C/I2C.c: 35:     while(!BF);
  8066                           
  8067  0925  1C14               	btfss	20,0	;volatile
  8068  0926  2928               	goto	u3311
  8069  0927  2929               	goto	u3310
  8070  0928                     u3311:
  8071  0928  2925               	goto	l401
  8072  0929                     u3310:
  8073  0929                     l2761:
  8074                           
  8075                           ;I2C/I2C.c: 36:     data= SSPBUF;
  8076  0929  1283               	bcf	3,5	;RP0=0, select bank0
  8077  092A  1303               	bcf	3,6	;RP1=0, select bank0
  8078  092B  0813               	movf	19,w	;volatile
  8079  092C  00FF               	movwf	btemp+1
  8080  092D  087F               	movf	btemp+1,w
  8081  092E  00B6               	movwf	I2c_Read@data
  8082  092F                     l2763:
  8083                           
  8084                           ;I2C/I2C.c: 37:     return data;
  8085  092F  0836               	movf	I2c_Read@data,w
  8086  0930                     l404:
  8087  0930  0008               	return
  8088  0931                     __end_of_I2c_Read:
  8089                           
  8090                           	psect	text46
  8091  09EA                     __ptext46:	
  8092 ;; *************** function _GPIO_Init *****************
  8093 ;; Defined at:
  8094 ;;		line 23 in file "gpio/gpio.c"
  8095 ;; Parameters:    Size  Location     Type
  8096 ;;		None
  8097 ;; Auto vars:     Size  Location     Type
  8098 ;;		None
  8099 ;; Return value:  Size  Location     Type
  8100 ;;                  1    wreg      void 
  8101 ;; Registers used:
  8102 ;;		wreg, status,2, status,0, btemp+1
  8103 ;; Tracked objects:
  8104 ;;		On entry : 0/0
  8105 ;;		On exit  : 0/0
  8106 ;;		Unchanged: 0/0
  8107 ;; Data sizes:     COMMON   BANK0   BANK1   BANK3   BANK2
  8108 ;;      Params:         0       0       0       0       0
  8109 ;;      Locals:         0       0       0       0       0
  8110 ;;      Temps:          0       0       0       0       0
  8111 ;;      Totals:         0       0       0       0       0
  8112 ;;Total ram usage:        0 bytes
  8113 ;; Hardware stack levels used:    1
  8114 ;; Hardware stack levels required when called:    4
  8115 ;; This function calls:
  8116 ;;		Nothing
  8117 ;; This function is called by:
  8118 ;;		_main
  8119 ;; This function uses a non-reentrant model
  8120 ;;
  8121                           
  8122                           
  8123                           ;psect for function _GPIO_Init
  8124  09EA                     _GPIO_Init:
  8125  09EA                     l2909:	
  8126                           ;incstack = 0
  8127                           ; Regs used in _GPIO_Init: [wreg+status,2+status,0+btemp+1]
  8128                           
  8129  09EA  30DF               	movlw	223
  8130  09EB  00FF               	movwf	btemp+1
  8131  09EC  087F               	movf	btemp+1,w
  8132  09ED  1683               	bsf	3,5	;RP0=1, select bank1
  8133  09EE  1303               	bcf	3,6	;RP1=0, select bank1
  8134  09EF  0587               	andwf	7,f	;volatile
  8135  09F0                     l2911:
  8136  09F0  30FB               	movlw	251
  8137  09F1  00FF               	movwf	btemp+1
  8138  09F2  087F               	movf	btemp+1,w
  8139  09F3  0587               	andwf	7,f	;volatile
  8140  09F4                     l2913:
  8141  09F4  30EF               	movlw	239
  8142  09F5  00FF               	movwf	btemp+1
  8143  09F6  087F               	movf	btemp+1,w
  8144  09F7  0586               	andwf	6,f	;volatile
  8145  09F8                     l2915:
  8146  09F8  30DF               	movlw	223
  8147  09F9  00FF               	movwf	btemp+1
  8148  09FA  087F               	movf	btemp+1,w
  8149  09FB  0585               	andwf	5,f	;volatile
  8150  09FC                     l2917:
  8151  09FC  30EF               	movlw	239
  8152  09FD  00FF               	movwf	btemp+1
  8153  09FE  087F               	movf	btemp+1,w
  8154  09FF  0585               	andwf	5,f	;volatile
  8155  0A00                     l182:
  8156  0A00  1486               	bsf	6,1	;volatile
  8157  0A01                     l186:
  8158  0A01  1506               	bsf	6,2	;volatile
  8159  0A02                     l190:
  8160  0A02  1406               	bsf	6,0	;volatile
  8161  0A03                     l194:
  8162  0A03  1505               	bsf	5,2	;volatile
  8163  0A04                     l198:
  8164  0A04  1587               	bsf	7,3	;volatile
  8165  0A05                     l202:
  8166  0A05  1607               	bsf	7,4	;volatile
  8167  0A06                     l2931:
  8168  0A06  0188               	clrf	8	;volatile
  8169  0A07                     l209:
  8170  0A07  0008               	return
  8171  0A08                     __end_of_GPIO_Init:
  8172                           
  8173                           	psect	text47
  8174  08FE                     __ptext47:	
  8175 ;; *************** function _Elements_Init *****************
  8176 ;; Defined at:
  8177 ;;		line 23 in file "Elements/Elements.c"
  8178 ;; Parameters:    Size  Location     Type
  8179 ;;		None
  8180 ;; Auto vars:     Size  Location     Type
  8181 ;;		None
  8182 ;; Return value:  Size  Location     Type
  8183 ;;                  1    wreg      void 
  8184 ;; Registers used:
  8185 ;;		wreg, status,2, status,0, btemp+1
  8186 ;; Tracked objects:
  8187 ;;		On entry : 0/0
  8188 ;;		On exit  : 0/0
  8189 ;;		Unchanged: 0/0
  8190 ;; Data sizes:     COMMON   BANK0   BANK1   BANK3   BANK2
  8191 ;;      Params:         0       0       0       0       0
  8192 ;;      Locals:         0       0       0       0       0
  8193 ;;      Temps:          0       0       0       0       0
  8194 ;;      Totals:         0       0       0       0       0
  8195 ;;Total ram usage:        0 bytes
  8196 ;; Hardware stack levels used:    1
  8197 ;; Hardware stack levels required when called:    4
  8198 ;; This function calls:
  8199 ;;		Nothing
  8200 ;; This function is called by:
  8201 ;;		_main
  8202 ;; This function uses a non-reentrant model
  8203 ;;
  8204                           
  8205                           
  8206                           ;psect for function _Elements_Init
  8207  08FE                     _Elements_Init:
  8208  08FE                     l2953:	
  8209                           ;incstack = 0
  8210                           ; Regs used in _Elements_Init: [wreg+status,2+status,0+btemp+1]
  8211                           
  8212                           
  8213                           ;Elements/Elements.c: 25:  LED_Status=_LED_OFF;
  8214  08FE  1283               	bcf	3,5	;RP0=0, select bank0
  8215  08FF  1303               	bcf	3,6	;RP1=0, select bank0
  8216  0900  01CB               	clrf	_LED_Status
  8217  0901                     l2955:
  8218                           
  8219                           ;Elements/Elements.c: 26:  (PORTC &= ~(1<<5));
  8220  0901  30DF               	movlw	223
  8221  0902  00FF               	movwf	btemp+1
  8222  0903  087F               	movf	btemp+1,w
  8223  0904  0587               	andwf	7,f	;volatile
  8224  0905                     l2957:
  8225                           
  8226                           ;Elements/Elements.c: 27:  (PORTC &= ~(1<<2));
  8227  0905  30FB               	movlw	251
  8228  0906  00FF               	movwf	btemp+1
  8229  0907  087F               	movf	btemp+1,w
  8230  0908  0587               	andwf	7,f	;volatile
  8231  0909                     l127:
  8232  0909  0008               	return
  8233  090A                     __end_of_Elements_Init:
  8234                           
  8235                           	psect	text48
  8236  08CB                     __ptext48:	
  8237 ;; *************** function _ADC_Start_Conv *****************
  8238 ;; Defined at:
  8239 ;;		line 58 in file "ADC/ADC.c"
  8240 ;; Parameters:    Size  Location     Type
  8241 ;;		None
  8242 ;; Auto vars:     Size  Location     Type
  8243 ;;		None
  8244 ;; Return value:  Size  Location     Type
  8245 ;;                  1    wreg      void 
  8246 ;; Registers used:
  8247 ;;		None
  8248 ;; Tracked objects:
  8249 ;;		On entry : 0/0
  8250 ;;		On exit  : 0/0
  8251 ;;		Unchanged: 0/0
  8252 ;; Data sizes:     COMMON   BANK0   BANK1   BANK3   BANK2
  8253 ;;      Params:         0       0       0       0       0
  8254 ;;      Locals:         0       0       0       0       0
  8255 ;;      Temps:          0       0       0       0       0
  8256 ;;      Totals:         0       0       0       0       0
  8257 ;;Total ram usage:        0 bytes
  8258 ;; Hardware stack levels used:    1
  8259 ;; Hardware stack levels required when called:    4
  8260 ;; This function calls:
  8261 ;;		Nothing
  8262 ;; This function is called by:
  8263 ;;		_main
  8264 ;; This function uses a non-reentrant model
  8265 ;;
  8266                           
  8267                           
  8268                           ;psect for function _ADC_Start_Conv
  8269  08CB                     _ADC_Start_Conv:
  8270  08CB                     l2905:	
  8271                           ;incstack = 0
  8272                           ; Regs used in _ADC_Start_Conv: []
  8273                           
  8274                           
  8275                           ;ADC/ADC.c: 60:  if (ADC_Info.ADC_INIT_FLAG==1)
  8276  08CB  1283               	bcf	3,5	;RP0=0, select bank0
  8277  08CC  1303               	bcf	3,6	;RP1=0, select bank0
  8278  08CD  1C4D               	btfss	_ADC_Info,0
  8279  08CE  28D0               	goto	u3531
  8280  08CF  28D1               	goto	u3530
  8281  08D0                     u3531:
  8282  08D0  28D3               	goto	l17
  8283  08D1                     u3530:
  8284  08D1                     l2907:
  8285                           
  8286                           ;ADC/ADC.c: 61:  {;ADC/ADC.c: 62:      ADCON0bits.GO_DONE=1 ;
  8287  08D1  151F               	bsf	31,2	;volatile
  8288                           
  8289                           ;ADC/ADC.c: 63:      ADC_Info.ADC_START_FLAG=1;
  8290  08D2  14CD               	bsf	_ADC_Info,1
  8291  08D3                     l17:
  8292  08D3  0008               	return
  8293  08D4                     __end_of_ADC_Start_Conv:
  8294                           
  8295                           	psect	text49
  8296  09CF                     __ptext49:	
  8297 ;; *************** function _ADC_Init *****************
  8298 ;; Defined at:
  8299 ;;		line 22 in file "ADC/ADC.c"
  8300 ;; Parameters:    Size  Location     Type
  8301 ;;		None
  8302 ;; Auto vars:     Size  Location     Type
  8303 ;;		None
  8304 ;; Return value:  Size  Location     Type
  8305 ;;                  1    wreg      void 
  8306 ;; Registers used:
  8307 ;;		None
  8308 ;; Tracked objects:
  8309 ;;		On entry : 0/0
  8310 ;;		On exit  : 0/0
  8311 ;;		Unchanged: 0/0
  8312 ;; Data sizes:     COMMON   BANK0   BANK1   BANK3   BANK2
  8313 ;;      Params:         0       0       0       0       0
  8314 ;;      Locals:         0       0       0       0       0
  8315 ;;      Temps:          0       0       0       0       0
  8316 ;;      Totals:         0       0       0       0       0
  8317 ;;Total ram usage:        0 bytes
  8318 ;; Hardware stack levels used:    1
  8319 ;; Hardware stack levels required when called:    4
  8320 ;; This function calls:
  8321 ;;		Nothing
  8322 ;; This function is called by:
  8323 ;;		_main
  8324 ;; This function uses a non-reentrant model
  8325 ;;
  8326                           
  8327                           
  8328                           ;psect for function _ADC_Init
  8329  09CF                     _ADC_Init:
  8330  09CF                     l2903:	
  8331                           ;incstack = 0
  8332                           ; Regs used in _ADC_Init: []
  8333                           
  8334                           
  8335                           ;ADC/ADC.c: 25:     ADCON1bits.ADFM=1;
  8336  09CF  1683               	bsf	3,5	;RP0=1, select bank1
  8337  09D0  1303               	bcf	3,6	;RP1=0, select bank1
  8338  09D1  179F               	bsf	31,7	;volatile
  8339                           
  8340                           ;ADC/ADC.c: 27:     ADCON0bits.ADCS0=1 ;
  8341  09D2  1283               	bcf	3,5	;RP0=0, select bank0
  8342  09D3  1303               	bcf	3,6	;RP1=0, select bank0
  8343  09D4  171F               	bsf	31,6	;volatile
  8344                           
  8345                           ;ADC/ADC.c: 28:     ADCON0bits.ADCS1=0;
  8346  09D5  139F               	bcf	31,7	;volatile
  8347                           
  8348                           ;ADC/ADC.c: 29:     ADCON1bits.ADCS2=1 ;
  8349  09D6  1683               	bsf	3,5	;RP0=1, select bank1
  8350  09D7  1303               	bcf	3,6	;RP1=0, select bank1
  8351  09D8  171F               	bsf	31,6	;volatile
  8352                           
  8353                           ;ADC/ADC.c: 32:     ADCON0bits.CHS0=0;
  8354  09D9  1283               	bcf	3,5	;RP0=0, select bank0
  8355  09DA  1303               	bcf	3,6	;RP1=0, select bank0
  8356  09DB  119F               	bcf	31,3	;volatile
  8357                           
  8358                           ;ADC/ADC.c: 33:     ADCON0bits.CHS1=1;
  8359  09DC  161F               	bsf	31,4	;volatile
  8360                           
  8361                           ;ADC/ADC.c: 34:     ADCON0bits.CHS2=0;
  8362  09DD  129F               	bcf	31,5	;volatile
  8363                           
  8364                           ;ADC/ADC.c: 37:     ADCON1bits.PCFG0=0;
  8365  09DE  1683               	bsf	3,5	;RP0=1, select bank1
  8366  09DF  1303               	bcf	3,6	;RP1=0, select bank1
  8367  09E0  101F               	bcf	31,0	;volatile
  8368                           
  8369                           ;ADC/ADC.c: 38:     ADCON1bits.PCFG1=1;
  8370  09E1  149F               	bsf	31,1	;volatile
  8371                           
  8372                           ;ADC/ADC.c: 39:     ADCON1bits.PCFG2=0;
  8373  09E2  111F               	bcf	31,2	;volatile
  8374                           
  8375                           ;ADC/ADC.c: 40:     ADCON1bits.PCFG3=0;
  8376  09E3  119F               	bcf	31,3	;volatile
  8377                           
  8378                           ;ADC/ADC.c: 42:     ADCON0bits.ADON=1;
  8379  09E4  1283               	bcf	3,5	;RP0=0, select bank0
  8380  09E5  1303               	bcf	3,6	;RP1=0, select bank0
  8381  09E6  141F               	bsf	31,0	;volatile
  8382                           
  8383                           ;ADC/ADC.c: 43:     ADCON0bits.GO_DONE=0;
  8384  09E7  111F               	bcf	31,2	;volatile
  8385                           
  8386                           ;ADC/ADC.c: 44:     ADC_Info.ADC_INIT_FLAG=1;
  8387  09E8  144D               	bsf	_ADC_Info,0
  8388  09E9                     l13:
  8389  09E9  0008               	return
  8390  09EA                     __end_of_ADC_Init:
  8391                           
  8392                           	psect	text50
  8393  0B53                     __ptext50:	
  8394 ;; *************** function _myISR *****************
  8395 ;; Defined at:
  8396 ;;		line 9 in file "Interrupt/Interrupt.c"
  8397 ;; Parameters:    Size  Location     Type
  8398 ;;		None
  8399 ;; Auto vars:     Size  Location     Type
  8400 ;;		None
  8401 ;; Return value:  Size  Location     Type
  8402 ;;                  1    wreg      void 
  8403 ;; Registers used:
  8404 ;;		wreg, fsr0l, fsr0h, status,2, status,0, btemp+1, pclath, cstack
  8405 ;; Tracked objects:
  8406 ;;		On entry : 0/0
  8407 ;;		On exit  : 0/0
  8408 ;;		Unchanged: 0/0
  8409 ;; Data sizes:     COMMON   BANK0   BANK1   BANK3   BANK2
  8410 ;;      Params:         0       0       0       0       0
  8411 ;;      Locals:         0       0       0       0       0
  8412 ;;      Temps:          0       4       0       0       0
  8413 ;;      Totals:         0       4       0       0       0
  8414 ;;Total ram usage:        4 bytes
  8415 ;; Hardware stack levels used:    1
  8416 ;; Hardware stack levels required when called:    3
  8417 ;; This function calls:
  8418 ;;		_EXTI_On_Off_CallBack
  8419 ;;		_Timer0_CallBack
  8420 ;; This function is called by:
  8421 ;;		Interrupt level 1
  8422 ;; This function uses a non-reentrant model
  8423 ;;
  8424                           
  8425                           
  8426                           ;psect for function _myISR
  8427  0B53                     _myISR:
  8428  0B53                     i1l3861:
  8429                           
  8430                           ;Interrupt/Interrupt.c: 12:  if(INTCONbits.INTF)
  8431  0B53  1C8B               	btfss	11,1	;volatile
  8432  0B54  2B56               	goto	u523_21
  8433  0B55  2B57               	goto	u523_20
  8434  0B56                     u523_21:
  8435  0B56  2B65               	goto	i1l226
  8436  0B57                     u523_20:
  8437  0B57                     i1l3863:
  8438                           
  8439                           ;Interrupt/Interrupt.c: 13:  {;Interrupt/Interrupt.c: 14:         INTCONbits.INTF=0;
  8440  0B57  108B               	bcf	11,1	;volatile
  8441  0B58                     i1l3865:
  8442                           
  8443                           ;Interrupt/Interrupt.c: 15:   Interrupt_CallBack.ExtiCallBack();
  8444  0B58  3010               	movlw	low (_Interrupt_CallBack-__stringbase)
  8445  0B59  0084               	movwf	4
  8446  0B5A  120A  158A  2000  120A  158A  	fcall	stringdir
  8447  0B5F  120A  118A  2053  120A  158A  	fcall	i1fptable
  8448                           
  8449                           ;Interrupt/Interrupt.c: 16:  }
  8450  0B64  2B78               	goto	i1l229
  8451  0B65                     i1l226:	
  8452                           ;Interrupt/Interrupt.c: 17:  else if(INTCONbits.TMR0IF)
  8453                           
  8454  0B65  1D0B               	btfss	11,2	;volatile
  8455  0B66  2B68               	goto	u524_21
  8456  0B67  2B69               	goto	u524_20
  8457  0B68                     u524_21:
  8458  0B68  2B78               	goto	i1l229
  8459  0B69                     u524_20:
  8460  0B69                     i1l3867:
  8461                           
  8462                           ;Interrupt/Interrupt.c: 18:  {;Interrupt/Interrupt.c: 19:         INTCONbits.TMR0IF=0;
  8463  0B69  110B               	bcf	11,2	;volatile
  8464  0B6A                     i1l3869:
  8465                           
  8466                           ;Interrupt/Interrupt.c: 20:         TMR0=100;
  8467  0B6A  3064               	movlw	100
  8468  0B6B  0081               	movwf	1	;volatile
  8469  0B6C                     i1l3871:
  8470                           
  8471                           ;Interrupt/Interrupt.c: 22:   Interrupt_CallBack.Timer0CallBack();
  8472  0B6C  3011               	movlw	low (((_Interrupt_CallBack+1)-__stringbase)| (0+32768))
  8473  0B6D  0084               	movwf	4
  8474  0B6E  120A  158A  2000  120A  158A  	fcall	stringdir
  8475  0B73  120A  118A  2053  120A  158A  	fcall	i1fptable
  8476  0B78                     i1l229:
  8477  0B78  1283               	bcf	3,5	;RP0=0, select bank0
  8478  0B79  1303               	bcf	3,6	;RP1=0, select bank0
  8479  0B7A  0835               	movf	??_myISR+3,w
  8480  0B7B  00FF               	movwf	btemp+1
  8481  0B7C  0834               	movf	??_myISR+2,w
  8482  0B7D  008A               	movwf	10
  8483  0B7E  0833               	movf	??_myISR+1,w
  8484  0B7F  0084               	movwf	4
  8485  0B80  0E32               	swapf	??_myISR^0,w
  8486  0B81  0083               	movwf	3
  8487  0B82  0EFE               	swapf	btemp,f
  8488  0B83  0E7E               	swapf	btemp,w
  8489  0B84  0009               	retfie
  8490  0B85                     __end_of_myISR:
  8491                           
  8492                           	psect	intentry
  8493  0004                     __pintentry:	
  8494                           ;incstack = 0
  8495 ;; hardware stack exceeded
  8496                           ; Regs used in _myISR: [wreg-fsr0h+status,2+status,0+btemp+1+pclath+cstack]
  8497                           
  8498  0004                     interrupt_function:
  8499  007E                     saved_w	set	btemp
  8500  0004  00FE               	movwf	btemp
  8501  0005  0E03               	swapf	3,w
  8502  0006  1283               	bcf	3,5	;RP0=0, select bank0
  8503  0007  1303               	bcf	3,6	;RP1=0, select bank0
  8504  0008  00B2               	movwf	??_myISR
  8505  0009  0804               	movf	4,w
  8506  000A  00B3               	movwf	??_myISR+1
  8507  000B  080A               	movf	10,w
  8508  000C  00B4               	movwf	??_myISR+2
  8509  000D  087F               	movf	btemp+1,w
  8510  000E  00B5               	movwf	??_myISR+3
  8511  000F  120A  158A  2B53   	ljmp	_myISR
  8512                           
  8513                           	psect	text51
  8514  0AF7                     __ptext51:	
  8515 ;; *************** function _Timer0_CallBack *****************
  8516 ;; Defined at:
  8517 ;;		line 54 in file "Timer/Timer.c"
  8518 ;; Parameters:    Size  Location     Type
  8519 ;;		None
  8520 ;; Auto vars:     Size  Location     Type
  8521 ;;		None
  8522 ;; Return value:  Size  Location     Type
  8523 ;;                  1    wreg      void 
  8524 ;; Registers used:
  8525 ;;		wreg, fsr0l, fsr0h, status,2, status,0, btemp+1, pclath, cstack
  8526 ;; Tracked objects:
  8527 ;;		On entry : 0/0
  8528 ;;		On exit  : 0/0
  8529 ;;		Unchanged: 0/0
  8530 ;; Data sizes:     COMMON   BANK0   BANK1   BANK3   BANK2
  8531 ;;      Params:         0       0       0       0       0
  8532 ;;      Locals:         0       0       0       0       0
  8533 ;;      Temps:          0       0       0       0       0
  8534 ;;      Totals:         0       0       0       0       0
  8535 ;;Total ram usage:        0 bytes
  8536 ;; Hardware stack levels used:    1
  8537 ;; Hardware stack levels required when called:    2
  8538 ;; This function calls:
  8539 ;;		_Scheduler_ActivateTask
  8540 ;; This function is called by:
  8541 ;;		_myISR
  8542 ;; This function uses a non-reentrant model
  8543 ;;
  8544                           
  8545                           
  8546                           ;psect for function _Timer0_CallBack
  8547  0AF7                     _Timer0_CallBack:
  8548  0AF7                     i1l3835:	
  8549                           ;incstack = 0
  8550 ;; hardware stack exceeded
  8551                           ; Regs used in _Timer0_CallBack: [wreg-fsr0h+status,2+status,0+btemp+1+pclath+cstack]
  8552                           
  8553                           
  8554                           ;Timer/Timer.c: 56:  Tick_Num++;
  8555  0AF7  3001               	movlw	1
  8556  0AF8  1683               	bsf	3,5	;RP0=1, select bank1
  8557  0AF9  1303               	bcf	3,6	;RP1=0, select bank1
  8558  0AFA  07C8               	addwf	_Tick_Num^(0+128),f
  8559  0AFB  3000               	movlw	0
  8560  0AFC  1803               	skipnc
  8561  0AFD  3001               	movlw	1
  8562  0AFE  07C9               	addwf	(_Tick_Num+1)^(0+128),f
  8563  0AFF  3000               	movlw	0
  8564  0B00  1803               	skipnc
  8565  0B01  3001               	movlw	1
  8566  0B02  07CA               	addwf	(_Tick_Num+2)^(0+128),f
  8567  0B03  3000               	movlw	0
  8568  0B04  1803               	skipnc
  8569  0B05  3001               	movlw	1
  8570  0B06  07CB               	addwf	(_Tick_Num+3)^(0+128),f
  8571  0B07                     i1l3837:
  8572                           
  8573                           ;Timer/Timer.c: 57:  Scheduler_ActivateTask(Tick_Num );
  8574  0B07  084B               	movf	(_Tick_Num+3)^(0+128),w
  8575  0B08  1283               	bcf	3,5	;RP0=0, select bank0
  8576  0B09  1303               	bcf	3,6	;RP1=0, select bank0
  8577  0B0A  00B0               	movwf	Scheduler_ActivateTask@SystemTick+3
  8578  0B0B  1683               	bsf	3,5	;RP0=1, select bank1
  8579  0B0C  1303               	bcf	3,6	;RP1=0, select bank1
  8580  0B0D  084A               	movf	(_Tick_Num+2)^(0+128),w
  8581  0B0E  1283               	bcf	3,5	;RP0=0, select bank0
  8582  0B0F  1303               	bcf	3,6	;RP1=0, select bank0
  8583  0B10  00AF               	movwf	Scheduler_ActivateTask@SystemTick+2
  8584  0B11  1683               	bsf	3,5	;RP0=1, select bank1
  8585  0B12  1303               	bcf	3,6	;RP1=0, select bank1
  8586  0B13  0849               	movf	(_Tick_Num+1)^(0+128),w
  8587  0B14  1283               	bcf	3,5	;RP0=0, select bank0
  8588  0B15  1303               	bcf	3,6	;RP1=0, select bank0
  8589  0B16  00AE               	movwf	Scheduler_ActivateTask@SystemTick+1
  8590  0B17  1683               	bsf	3,5	;RP0=1, select bank1
  8591  0B18  1303               	bcf	3,6	;RP1=0, select bank1
  8592  0B19  0848               	movf	_Tick_Num^(0+128),w
  8593  0B1A  1283               	bcf	3,5	;RP0=0, select bank0
  8594  0B1B  1303               	bcf	3,6	;RP1=0, select bank0
  8595  0B1C  00AD               	movwf	Scheduler_ActivateTask@SystemTick
  8596  0B1D  120A  158A  2734  120A  158A  	fcall	_Scheduler_ActivateTask
  8597  0B22                     i1l332:
  8598  0B22  0008               	return
  8599  0B23                     __end_of_Timer0_CallBack:
  8600                           
  8601                           	psect	text52
  8602  0F34                     __ptext52:	
  8603 ;; *************** function _Scheduler_ActivateTask *****************
  8604 ;; Defined at:
  8605 ;;		line 35 in file "Scheduler/Scheduler.c"
  8606 ;; Parameters:    Size  Location     Type
  8607 ;;  SystemTick      4   13[BANK0 ] unsigned long 
  8608 ;; Auto vars:     Size  Location     Type
  8609 ;;  IntityIndex     1   17[BANK0 ] unsigned char 
  8610 ;; Return value:  Size  Location     Type
  8611 ;;                  1    wreg      void 
  8612 ;; Registers used:
  8613 ;;		wreg, fsr0l, fsr0h, status,2, status,0, btemp+1, pclath, cstack
  8614 ;; Tracked objects:
  8615 ;;		On entry : 0/0
  8616 ;;		On exit  : 0/0
  8617 ;;		Unchanged: 0/0
  8618 ;; Data sizes:     COMMON   BANK0   BANK1   BANK3   BANK2
  8619 ;;      Params:         0       4       0       0       0
  8620 ;;      Locals:         0       1       0       0       0
  8621 ;;      Temps:          0       0       0       0       0
  8622 ;;      Totals:         0       5       0       0       0
  8623 ;;Total ram usage:        5 bytes
  8624 ;; Hardware stack levels used:    1
  8625 ;; Hardware stack levels required when called:    1
  8626 ;; This function calls:
  8627 ;;		___llmod
  8628 ;;		i1___bmul
  8629 ;;		i1___lldiv
  8630 ;; This function is called by:
  8631 ;;		_Timer0_CallBack
  8632 ;; This function uses a non-reentrant model
  8633 ;;
  8634                           
  8635                           
  8636                           ;psect for function _Scheduler_ActivateTask
  8637  0F34                     _Scheduler_ActivateTask:
  8638  0F34                     i1l3743:	
  8639                           ;incstack = 0
  8640 ;; hardware stack exceeded
  8641                           ; Regs used in _Scheduler_ActivateTask: [wreg-fsr0h+status,2+status,0+btemp+1+pclath+cst
      +                          ack]
  8642                           
  8643                           
  8644                           ;Scheduler/Scheduler.c: 35: void Scheduler_ActivateTask(uint32_t SystemTick);Scheduler/S
      +                          cheduler.c: 36: {;Scheduler/Scheduler.c: 38:   for( uint8_t IntityIndex = 0 ; IntityInde
      +                          x < ( 3U ) ; IntityIndex++ )
  8645  0F34  1283               	bcf	3,5	;RP0=0, select bank0
  8646  0F35  1303               	bcf	3,6	;RP1=0, select bank0
  8647  0F36  01B1               	clrf	Scheduler_ActivateTask@IntityIndex
  8648  0F37                     i1l3749:
  8649                           
  8650                           ;Scheduler/Scheduler.c: 39:   {;Scheduler/Scheduler.c: 40:     if( ( ((SystemTick)%(Sche
      +                          duler_Intitys[IntityIndex].Peroid/(20UL)))?0:1 ) )
  8651  0F37  3000               	movlw	0
  8652  0F38  00F6               	movwf	i1___lldiv@divisor+3
  8653  0F39  3000               	movlw	0
  8654  0F3A  00F5               	movwf	i1___lldiv@divisor+2
  8655  0F3B  3000               	movlw	0
  8656  0F3C  00F4               	movwf	i1___lldiv@divisor+1
  8657  0F3D  3014               	movlw	20
  8658  0F3E  00F3               	movwf	i1___lldiv@divisor
  8659  0F3F  3005               	movlw	5
  8660  0F40  00FF               	movwf	btemp+1
  8661  0F41  087F               	movf	btemp+1,w
  8662  0F42  00F0               	movwf	i1___bmul@multiplicand
  8663  0F43  0831               	movf	Scheduler_ActivateTask@IntityIndex,w
  8664  0F44  120A  158A  2174  120A  158A  	fcall	i1___bmul
  8665  0F49  3E02               	addlw	low (((_Scheduler_Intitys-__stringbase)| (0+32768)+1))
  8666  0F4A  0084               	movwf	4
  8667  0F4B  120A  158A  2000  120A  158A  	fcall	stringdir
  8668  0F50  00F7               	movwf	i1___lldiv@dividend
  8669  0F51  120A  158A  2000  120A  158A  	fcall	stringdir
  8670  0F56  00F8               	movwf	i1___lldiv@dividend+1
  8671  0F57  120A  158A  2000  120A  158A  	fcall	stringdir
  8672  0F5C  00F9               	movwf	i1___lldiv@dividend+2
  8673  0F5D  120A  158A  2000  120A  158A  	fcall	stringdir
  8674  0F62  00FA               	movwf	i1___lldiv@dividend+3
  8675  0F63  120A  118A  277E  120A  158A  	fcall	i1___lldiv
  8676  0F68  0876               	movf	?i1___lldiv+3,w
  8677  0F69  1283               	bcf	3,5	;RP0=0, select bank0
  8678  0F6A  1303               	bcf	3,6	;RP1=0, select bank0
  8679  0F6B  00A8               	movwf	___llmod@divisor+3
  8680  0F6C  0875               	movf	?i1___lldiv+2,w
  8681  0F6D  00A7               	movwf	___llmod@divisor+2
  8682  0F6E  0874               	movf	?i1___lldiv+1,w
  8683  0F6F  00A6               	movwf	___llmod@divisor+1
  8684  0F70  0873               	movf	?i1___lldiv,w
  8685  0F71  00A5               	movwf	___llmod@divisor
  8686  0F72  0830               	movf	Scheduler_ActivateTask@SystemTick+3,w
  8687  0F73  00AC               	movwf	___llmod@dividend+3
  8688  0F74  082F               	movf	Scheduler_ActivateTask@SystemTick+2,w
  8689  0F75  00AB               	movwf	___llmod@dividend+2
  8690  0F76  082E               	movf	Scheduler_ActivateTask@SystemTick+1,w
  8691  0F77  00AA               	movwf	___llmod@dividend+1
  8692  0F78  082D               	movf	Scheduler_ActivateTask@SystemTick,w
  8693  0F79  00A9               	movwf	___llmod@dividend
  8694  0F7A  120A  158A  256D  120A  158A  	fcall	___llmod
  8695  0F7F  1283               	bcf	3,5	;RP0=0, select bank0
  8696  0F80  1303               	bcf	3,6	;RP1=0, select bank0
  8697  0F81  0828               	movf	?___llmod+3,w
  8698  0F82  0427               	iorwf	?___llmod+2,w
  8699  0F83  0426               	iorwf	?___llmod+1,w
  8700  0F84  0425               	iorwf	?___llmod,w
  8701  0F85  1D03               	skipz
  8702  0F86  2F88               	goto	u514_21
  8703  0F87  2F89               	goto	u514_20
  8704  0F88                     u514_21:
  8705  0F88  2F8F               	goto	i1l3753
  8706  0F89                     u514_20:
  8707  0F89                     i1l3751:
  8708                           
  8709                           ;Scheduler/Scheduler.c: 41:     {;Scheduler/Scheduler.c: 42:      Scheduler_ActivationFl
      +                          ags[IntityIndex] = 1 ;
  8710  0F89  0831               	movf	Scheduler_ActivateTask@IntityIndex,w
  8711  0F8A  3ED0               	addlw	(low (_Scheduler_ActivationFlags| 0))& (0+255)
  8712  0F8B  0084               	movwf	4
  8713  0F8C  1383               	bcf	3,7	;select IRP bank1
  8714  0F8D  0180               	clrf	0
  8715  0F8E  0A80               	incf	0,f
  8716  0F8F                     i1l3753:
  8717                           
  8718                           ;Scheduler/Scheduler.c: 44:   }
  8719  0F8F  3001               	movlw	1
  8720  0F90  00FF               	movwf	btemp+1
  8721  0F91  087F               	movf	btemp+1,w
  8722  0F92  07B1               	addwf	Scheduler_ActivateTask@IntityIndex,f
  8723  0F93                     i1l3755:
  8724  0F93  3003               	movlw	3
  8725  0F94  0231               	subwf	Scheduler_ActivateTask@IntityIndex,w
  8726  0F95  1C03               	skipc
  8727  0F96  2F98               	goto	u515_21
  8728  0F97  2F99               	goto	u515_20
  8729  0F98                     u515_21:
  8730  0F98  2F37               	goto	i1l3749
  8731  0F99                     u515_20:
  8732  0F99                     i1l253:
  8733  0F99  0008               	return
  8734  0F9A                     __end_of_Scheduler_ActivateTask:
  8735                           
  8736                           	psect	text53
  8737  077E                     __ptext53:	
  8738 ;; *************** function i1___lldiv *****************
  8739 ;; Defined at:
  8740 ;;		line 5 in file "C:\Program Files (x86)\Microchip\xc8\v2.20\pic\sources\c90\common\__lldiv.c"
  8741 ;; Parameters:    Size  Location     Type
  8742 ;;  divisor         4    3[COMMON] unsigned long 
  8743 ;;  dividend        4    7[COMMON] unsigned long 
  8744 ;; Auto vars:     Size  Location     Type
  8745 ;;  quotient        4    0[BANK0 ] unsigned long 
  8746 ;;  counter         1    4[BANK0 ] unsigned char 
  8747 ;; Return value:  Size  Location     Type
  8748 ;;                  4    3[COMMON] unsigned long 
  8749 ;; Registers used:
  8750 ;;		wreg, status,2, status,0, btemp+1
  8751 ;; Tracked objects:
  8752 ;;		On entry : 0/0
  8753 ;;		On exit  : 0/0
  8754 ;;		Unchanged: 0/0
  8755 ;; Data sizes:     COMMON   BANK0   BANK1   BANK3   BANK2
  8756 ;;      Params:         8       0       0       0       0
  8757 ;;      Locals:         0       5       0       0       0
  8758 ;;      Temps:          1       0       0       0       0
  8759 ;;      Totals:         9       5       0       0       0
  8760 ;;Total ram usage:       14 bytes
  8761 ;; Hardware stack levels used:    1
  8762 ;; This function calls:
  8763 ;;		Nothing
  8764 ;; This function is called by:
  8765 ;;		_Scheduler_ActivateTask
  8766 ;; This function uses a non-reentrant model
  8767 ;;
  8768                           
  8769                           
  8770                           ;psect for function i1___lldiv
  8771  077E                     i1___lldiv:
  8772  077E                     i1l2791:	
  8773                           ;incstack = 0
  8774 ;; hardware stack exceeded
  8775                           ; Regs used in i1___lldiv: [wreg+status,2+status,0+btemp+1]
  8776                           
  8777  077E  3000               	movlw	0
  8778  077F  1283               	bcf	3,5	;RP0=0, select bank0
  8779  0780  1303               	bcf	3,6	;RP1=0, select bank0
  8780  0781  00A3               	movwf	i1___lldiv@quotient+3
  8781  0782  3000               	movlw	0
  8782  0783  00A2               	movwf	i1___lldiv@quotient+2
  8783  0784  3000               	movlw	0
  8784  0785  00A1               	movwf	i1___lldiv@quotient+1
  8785  0786  3000               	movlw	0
  8786  0787  00A0               	movwf	i1___lldiv@quotient
  8787  0788  0876               	movf	i1___lldiv@divisor+3,w
  8788  0789  0475               	iorwf	i1___lldiv@divisor+2,w
  8789  078A  0474               	iorwf	i1___lldiv@divisor+1,w
  8790  078B  0473               	iorwf	i1___lldiv@divisor,w
  8791  078C  1903               	skipnz
  8792  078D  2F8F               	goto	u339_21
  8793  078E  2F90               	goto	u339_20
  8794  078F                     u339_21:
  8795  078F  2FDD               	goto	i1l2813
  8796  0790                     u339_20:
  8797  0790                     i1l2793:
  8798  0790  01A4               	clrf	i1___lldiv@counter
  8799  0791  0AA4               	incf	i1___lldiv@counter,f
  8800  0792  2FA0               	goto	i1l2799
  8801  0793                     i1l2795:
  8802  0793  3001               	movlw	1
  8803  0794  00FB               	movwf	??i1___lldiv
  8804  0795                     u340_25:
  8805  0795  1003               	clrc
  8806  0796  0DF3               	rlf	i1___lldiv@divisor,f
  8807  0797  0DF4               	rlf	i1___lldiv@divisor+1,f
  8808  0798  0DF5               	rlf	i1___lldiv@divisor+2,f
  8809  0799  0DF6               	rlf	i1___lldiv@divisor+3,f
  8810  079A  0BFB               	decfsz	??i1___lldiv,f
  8811  079B  2F95               	goto	u340_25
  8812  079C                     i1l2797:
  8813  079C  3001               	movlw	1
  8814  079D  00FF               	movwf	btemp+1
  8815  079E  087F               	movf	btemp+1,w
  8816  079F  07A4               	addwf	i1___lldiv@counter,f
  8817  07A0                     i1l2799:
  8818  07A0  1FF6               	btfss	i1___lldiv@divisor+3,7
  8819  07A1  2FA3               	goto	u341_21
  8820  07A2  2FA4               	goto	u341_20
  8821  07A3                     u341_21:
  8822  07A3  2F93               	goto	i1l2795
  8823  07A4                     u341_20:
  8824  07A4                     i1l2801:
  8825  07A4  3001               	movlw	1
  8826  07A5  00FB               	movwf	??i1___lldiv
  8827  07A6                     u342_25:
  8828  07A6  1003               	clrc
  8829  07A7  0DA0               	rlf	i1___lldiv@quotient,f
  8830  07A8  0DA1               	rlf	i1___lldiv@quotient+1,f
  8831  07A9  0DA2               	rlf	i1___lldiv@quotient+2,f
  8832  07AA  0DA3               	rlf	i1___lldiv@quotient+3,f
  8833  07AB  0BFB               	decfsz	??i1___lldiv,f
  8834  07AC  2FA6               	goto	u342_25
  8835  07AD                     i1l2803:
  8836  07AD  0876               	movf	i1___lldiv@divisor+3,w
  8837  07AE  027A               	subwf	i1___lldiv@dividend+3,w
  8838  07AF  1D03               	skipz
  8839  07B0  2FBB               	goto	u343_25
  8840  07B1  0875               	movf	i1___lldiv@divisor+2,w
  8841  07B2  0279               	subwf	i1___lldiv@dividend+2,w
  8842  07B3  1D03               	skipz
  8843  07B4  2FBB               	goto	u343_25
  8844  07B5  0874               	movf	i1___lldiv@divisor+1,w
  8845  07B6  0278               	subwf	i1___lldiv@dividend+1,w
  8846  07B7  1D03               	skipz
  8847  07B8  2FBB               	goto	u343_25
  8848  07B9  0873               	movf	i1___lldiv@divisor,w
  8849  07BA  0277               	subwf	i1___lldiv@dividend,w
  8850  07BB                     u343_25:
  8851  07BB  1C03               	skipc
  8852  07BC  2FBE               	goto	u343_21
  8853  07BD  2FBF               	goto	u343_20
  8854  07BE                     u343_21:
  8855  07BE  2FCE               	goto	i1l2809
  8856  07BF                     u343_20:
  8857  07BF                     i1l2805:
  8858  07BF  0873               	movf	i1___lldiv@divisor,w
  8859  07C0  02F7               	subwf	i1___lldiv@dividend,f
  8860  07C1  0874               	movf	i1___lldiv@divisor+1,w
  8861  07C2  1C03               	skipc
  8862  07C3  0F74               	incfsz	i1___lldiv@divisor+1,w
  8863  07C4  02F8               	subwf	i1___lldiv@dividend+1,f
  8864  07C5  0875               	movf	i1___lldiv@divisor+2,w
  8865  07C6  1C03               	skipc
  8866  07C7  0F75               	incfsz	i1___lldiv@divisor+2,w
  8867  07C8  02F9               	subwf	i1___lldiv@dividend+2,f
  8868  07C9  0876               	movf	i1___lldiv@divisor+3,w
  8869  07CA  1C03               	skipc
  8870  07CB  0F76               	incfsz	i1___lldiv@divisor+3,w
  8871  07CC  02FA               	subwf	i1___lldiv@dividend+3,f
  8872  07CD                     i1l2807:
  8873  07CD  1420               	bsf	i1___lldiv@quotient,0
  8874  07CE                     i1l2809:
  8875  07CE  3001               	movlw	1
  8876  07CF                     u344_25:
  8877  07CF  1003               	clrc
  8878  07D0  0CF6               	rrf	i1___lldiv@divisor+3,f
  8879  07D1  0CF5               	rrf	i1___lldiv@divisor+2,f
  8880  07D2  0CF4               	rrf	i1___lldiv@divisor+1,f
  8881  07D3  0CF3               	rrf	i1___lldiv@divisor,f
  8882  07D4  3EFF               	addlw	-1
  8883  07D5  1D03               	skipz
  8884  07D6  2FCF               	goto	u344_25
  8885  07D7                     i1l2811:
  8886  07D7  3001               	movlw	1
  8887  07D8  02A4               	subwf	i1___lldiv@counter,f
  8888  07D9  1D03               	btfss	3,2
  8889  07DA  2FDC               	goto	u345_21
  8890  07DB  2FDD               	goto	u345_20
  8891  07DC                     u345_21:
  8892  07DC  2FA4               	goto	i1l2801
  8893  07DD                     u345_20:
  8894  07DD                     i1l2813:
  8895  07DD  0823               	movf	i1___lldiv@quotient+3,w
  8896  07DE  00F6               	movwf	?i1___lldiv+3
  8897  07DF  0822               	movf	i1___lldiv@quotient+2,w
  8898  07E0  00F5               	movwf	?i1___lldiv+2
  8899  07E1  0821               	movf	i1___lldiv@quotient+1,w
  8900  07E2  00F4               	movwf	?i1___lldiv+1
  8901  07E3  0820               	movf	i1___lldiv@quotient,w
  8902  07E4  00F3               	movwf	?i1___lldiv
  8903  07E5                     i1l659:
  8904  07E5  0008               	return
  8905  07E6                     __end_ofi1___lldiv:
  8906                           
  8907                           	psect	text54
  8908  0974                     __ptext54:	
  8909 ;; *************** function i1___bmul *****************
  8910 ;; Defined at:
  8911 ;;		line 4 in file "C:\Program Files (x86)\Microchip\xc8\v2.20\pic\sources\c90\common\Umul8.c"
  8912 ;; Parameters:    Size  Location     Type
  8913 ;;  multiplier      1    wreg     unsigned char 
  8914 ;;  multiplicand    1    0[COMMON] unsigned char 
  8915 ;; Auto vars:     Size  Location     Type
  8916 ;;  multiplier      1    2[COMMON] unsigned char 
  8917 ;;  product         1    1[COMMON] unsigned char 
  8918 ;; Return value:  Size  Location     Type
  8919 ;;                  1    wreg      unsigned char 
  8920 ;; Registers used:
  8921 ;;		wreg, status,2, status,0, btemp+1
  8922 ;; Tracked objects:
  8923 ;;		On entry : 0/0
  8924 ;;		On exit  : 0/0
  8925 ;;		Unchanged: 0/0
  8926 ;; Data sizes:     COMMON   BANK0   BANK1   BANK3   BANK2
  8927 ;;      Params:         1       0       0       0       0
  8928 ;;      Locals:         2       0       0       0       0
  8929 ;;      Temps:          0       0       0       0       0
  8930 ;;      Totals:         3       0       0       0       0
  8931 ;;Total ram usage:        3 bytes
  8932 ;; Hardware stack levels used:    1
  8933 ;; This function calls:
  8934 ;;		Nothing
  8935 ;; This function is called by:
  8936 ;;		_Scheduler_ActivateTask
  8937 ;; This function uses a non-reentrant model
  8938 ;;
  8939                           
  8940                           
  8941                           ;psect for function i1___bmul
  8942  0974                     i1___bmul:
  8943                           
  8944                           ;incstack = 0
  8945 ;; hardware stack exceeded
  8946                           ; Regs used in i1___bmul: [wreg+status,2+status,0+btemp+1]
  8947                           ;i1___bmul@multiplier stored from wreg
  8948  0974  00F2               	movwf	i1___bmul@multiplier
  8949  0975                     i1l2817:
  8950  0975  01F1               	clrf	i1___bmul@product
  8951  0976                     i1l2819:
  8952  0976  1C72               	btfss	i1___bmul@multiplier,0
  8953  0977  2979               	goto	u346_21
  8954  0978  297A               	goto	u346_20
  8955  0979                     u346_21:
  8956  0979  297E               	goto	i1l2823
  8957  097A                     u346_20:
  8958  097A                     i1l2821:
  8959  097A  0870               	movf	i1___bmul@multiplicand,w
  8960  097B  00FF               	movwf	btemp+1
  8961  097C  087F               	movf	btemp+1,w
  8962  097D  07F1               	addwf	i1___bmul@product,f
  8963  097E                     i1l2823:
  8964  097E  1003               	clrc
  8965  097F  0DF0               	rlf	i1___bmul@multiplicand,f
  8966  0980                     i1l2825:
  8967  0980  1003               	clrc
  8968  0981  0CF2               	rrf	i1___bmul@multiplier,f
  8969  0982                     i1l2827:
  8970  0982  0872               	movf	i1___bmul@multiplier,w
  8971  0983  1D03               	btfss	3,2
  8972  0984  2986               	goto	u347_21
  8973  0985  2987               	goto	u347_20
  8974  0986                     u347_21:
  8975  0986  2976               	goto	i1l2819
  8976  0987                     u347_20:
  8977  0987                     i1l2829:
  8978  0987  0871               	movf	i1___bmul@product,w
  8979  0988                     i1l649:
  8980  0988  0008               	return
  8981  0989                     __end_ofi1___bmul:
  8982                           
  8983                           	psect	text55
  8984  0D6D                     __ptext55:	
  8985 ;; *************** function ___llmod *****************
  8986 ;; Defined at:
  8987 ;;		line 5 in file "C:\Program Files (x86)\Microchip\xc8\v2.20\pic\sources\c90\common\llmod.c"
  8988 ;; Parameters:    Size  Location     Type
  8989 ;;  divisor         4    5[BANK0 ] unsigned long 
  8990 ;;  dividend        4    9[BANK0 ] unsigned long 
  8991 ;; Auto vars:     Size  Location     Type
  8992 ;;  counter         1   13[COMMON] unsigned char 
  8993 ;; Return value:  Size  Location     Type
  8994 ;;                  4    5[BANK0 ] unsigned long 
  8995 ;; Registers used:
  8996 ;;		wreg, status,2, status,0, btemp+1
  8997 ;; Tracked objects:
  8998 ;;		On entry : 0/0
  8999 ;;		On exit  : 0/0
  9000 ;;		Unchanged: 0/0
  9001 ;; Data sizes:     COMMON   BANK0   BANK1   BANK3   BANK2
  9002 ;;      Params:         0       8       0       0       0
  9003 ;;      Locals:         1       0       0       0       0
  9004 ;;      Temps:          1       0       0       0       0
  9005 ;;      Totals:         2       8       0       0       0
  9006 ;;Total ram usage:       10 bytes
  9007 ;; Hardware stack levels used:    1
  9008 ;; This function calls:
  9009 ;;		Nothing
  9010 ;; This function is called by:
  9011 ;;		_Scheduler_ActivateTask
  9012 ;; This function uses a non-reentrant model
  9013 ;;
  9014                           
  9015                           
  9016                           ;psect for function ___llmod
  9017  0D6D                     ___llmod:
  9018  0D6D                     i1l2769:	
  9019                           ;incstack = 0
  9020 ;; hardware stack exceeded
  9021                           ; Regs used in ___llmod: [wreg+status,2+status,0+btemp+1]
  9022                           
  9023  0D6D  1283               	bcf	3,5	;RP0=0, select bank0
  9024  0D6E  1303               	bcf	3,6	;RP1=0, select bank0
  9025  0D6F  0828               	movf	___llmod@divisor+3,w
  9026  0D70  0427               	iorwf	___llmod@divisor+2,w
  9027  0D71  0426               	iorwf	___llmod@divisor+1,w
  9028  0D72  0425               	iorwf	___llmod@divisor,w
  9029  0D73  1903               	skipnz
  9030  0D74  2D76               	goto	u333_21
  9031  0D75  2D77               	goto	u333_20
  9032  0D76                     u333_21:
  9033  0D76  2DBA               	goto	i1l2787
  9034  0D77                     u333_20:
  9035  0D77                     i1l2771:
  9036  0D77  01FD               	clrf	___llmod@counter
  9037  0D78  0AFD               	incf	___llmod@counter,f
  9038  0D79  2D87               	goto	i1l2777
  9039  0D7A                     i1l2773:
  9040  0D7A  3001               	movlw	1
  9041  0D7B  00FC               	movwf	??___llmod
  9042  0D7C                     u334_25:
  9043  0D7C  1003               	clrc
  9044  0D7D  0DA5               	rlf	___llmod@divisor,f
  9045  0D7E  0DA6               	rlf	___llmod@divisor+1,f
  9046  0D7F  0DA7               	rlf	___llmod@divisor+2,f
  9047  0D80  0DA8               	rlf	___llmod@divisor+3,f
  9048  0D81  0BFC               	decfsz	??___llmod,f
  9049  0D82  2D7C               	goto	u334_25
  9050  0D83                     i1l2775:
  9051  0D83  3001               	movlw	1
  9052  0D84  00FF               	movwf	btemp+1
  9053  0D85  087F               	movf	btemp+1,w
  9054  0D86  07FD               	addwf	___llmod@counter,f
  9055  0D87                     i1l2777:
  9056  0D87  1FA8               	btfss	___llmod@divisor+3,7
  9057  0D88  2D8A               	goto	u335_21
  9058  0D89  2D8B               	goto	u335_20
  9059  0D8A                     u335_21:
  9060  0D8A  2D7A               	goto	i1l2773
  9061  0D8B                     u335_20:
  9062  0D8B                     i1l2779:
  9063  0D8B  0828               	movf	___llmod@divisor+3,w
  9064  0D8C  022C               	subwf	___llmod@dividend+3,w
  9065  0D8D  1D03               	skipz
  9066  0D8E  2D99               	goto	u336_25
  9067  0D8F  0827               	movf	___llmod@divisor+2,w
  9068  0D90  022B               	subwf	___llmod@dividend+2,w
  9069  0D91  1D03               	skipz
  9070  0D92  2D99               	goto	u336_25
  9071  0D93  0826               	movf	___llmod@divisor+1,w
  9072  0D94  022A               	subwf	___llmod@dividend+1,w
  9073  0D95  1D03               	skipz
  9074  0D96  2D99               	goto	u336_25
  9075  0D97  0825               	movf	___llmod@divisor,w
  9076  0D98  0229               	subwf	___llmod@dividend,w
  9077  0D99                     u336_25:
  9078  0D99  1C03               	skipc
  9079  0D9A  2D9C               	goto	u336_21
  9080  0D9B  2D9D               	goto	u336_20
  9081  0D9C                     u336_21:
  9082  0D9C  2DAB               	goto	i1l2783
  9083  0D9D                     u336_20:
  9084  0D9D                     i1l2781:
  9085  0D9D  0825               	movf	___llmod@divisor,w
  9086  0D9E  02A9               	subwf	___llmod@dividend,f
  9087  0D9F  0826               	movf	___llmod@divisor+1,w
  9088  0DA0  1C03               	skipc
  9089  0DA1  0F26               	incfsz	___llmod@divisor+1,w
  9090  0DA2  02AA               	subwf	___llmod@dividend+1,f
  9091  0DA3  0827               	movf	___llmod@divisor+2,w
  9092  0DA4  1C03               	skipc
  9093  0DA5  0F27               	incfsz	___llmod@divisor+2,w
  9094  0DA6  02AB               	subwf	___llmod@dividend+2,f
  9095  0DA7  0828               	movf	___llmod@divisor+3,w
  9096  0DA8  1C03               	skipc
  9097  0DA9  0F28               	incfsz	___llmod@divisor+3,w
  9098  0DAA  02AC               	subwf	___llmod@dividend+3,f
  9099  0DAB                     i1l2783:
  9100  0DAB  3001               	movlw	1
  9101  0DAC                     u337_25:
  9102  0DAC  1003               	clrc
  9103  0DAD  0CA8               	rrf	___llmod@divisor+3,f
  9104  0DAE  0CA7               	rrf	___llmod@divisor+2,f
  9105  0DAF  0CA6               	rrf	___llmod@divisor+1,f
  9106  0DB0  0CA5               	rrf	___llmod@divisor,f
  9107  0DB1  3EFF               	addlw	-1
  9108  0DB2  1D03               	skipz
  9109  0DB3  2DAC               	goto	u337_25
  9110  0DB4                     i1l2785:
  9111  0DB4  3001               	movlw	1
  9112  0DB5  02FD               	subwf	___llmod@counter,f
  9113  0DB6  1D03               	btfss	3,2
  9114  0DB7  2DB9               	goto	u338_21
  9115  0DB8  2DBA               	goto	u338_20
  9116  0DB9                     u338_21:
  9117  0DB9  2D8B               	goto	i1l2779
  9118  0DBA                     u338_20:
  9119  0DBA                     i1l2787:
  9120  0DBA  082C               	movf	___llmod@dividend+3,w
  9121  0DBB  00A8               	movwf	?___llmod+3
  9122  0DBC  082B               	movf	___llmod@dividend+2,w
  9123  0DBD  00A7               	movwf	?___llmod+2
  9124  0DBE  082A               	movf	___llmod@dividend+1,w
  9125  0DBF  00A6               	movwf	?___llmod+1
  9126  0DC0  0829               	movf	___llmod@dividend,w
  9127  0DC1  00A5               	movwf	?___llmod
  9128  0DC2                     i1l845:
  9129  0DC2  0008               	return
  9130  0DC3                     __end_of___llmod:
  9131                           
  9132                           	psect	text56
  9133  0989                     __ptext56:	
  9134 ;; *************** function _EXTI_On_Off_CallBack *****************
  9135 ;; Defined at:
  9136 ;;		line 43 in file "Buttons/Buttons.c"
  9137 ;; Parameters:    Size  Location     Type
  9138 ;;		None
  9139 ;; Auto vars:     Size  Location     Type
  9140 ;;		None
  9141 ;; Return value:  Size  Location     Type
  9142 ;;                  1    wreg      void 
  9143 ;; Registers used:
  9144 ;;		wreg, status,2, status,0
  9145 ;; Tracked objects:
  9146 ;;		On entry : 0/0
  9147 ;;		On exit  : 0/0
  9148 ;;		Unchanged: 0/0
  9149 ;; Data sizes:     COMMON   BANK0   BANK1   BANK3   BANK2
  9150 ;;      Params:         0       0       0       0       0
  9151 ;;      Locals:         0       0       0       0       0
  9152 ;;      Temps:          0       0       0       0       0
  9153 ;;      Totals:         0       0       0       0       0
  9154 ;;Total ram usage:        0 bytes
  9155 ;; Hardware stack levels used:    1
  9156 ;; This function calls:
  9157 ;;		Nothing
  9158 ;; This function is called by:
  9159 ;;		_myISR
  9160 ;; This function uses a non-reentrant model
  9161 ;;
  9162                           
  9163                           
  9164                           ;psect for function _EXTI_On_Off_CallBack
  9165  0989                     _EXTI_On_Off_CallBack:
  9166  0989                     i1l2997:	
  9167                           ;incstack = 0
  9168                           ; Regs used in _EXTI_On_Off_CallBack: [wreg+status,2+status,0]
  9169                           
  9170                           
  9171                           ;Buttons/Buttons.c: 45:  if((Mode.Select_Mode==Setting_Mode) || (Mode.Select_Mode==Norma
      +                          l_Mode))
  9172  0989  3002               	movlw	2
  9173  098A  1283               	bcf	3,5	;RP0=0, select bank0
  9174  098B  1303               	bcf	3,6	;RP1=0, select bank0
  9175  098C  0654               	xorwf	_Mode,w
  9176  098D  1903               	btfsc	3,2
  9177  098E  2990               	goto	u359_21
  9178  098F  2991               	goto	u359_20
  9179  0990                     u359_21:
  9180  0990  2996               	goto	i1l3001
  9181  0991                     u359_20:
  9182  0991                     i1l2999:
  9183  0991  0354               	decf	_Mode,w
  9184  0992  1D03               	btfss	3,2
  9185  0993  2995               	goto	u360_21
  9186  0994  2996               	goto	u360_20
  9187  0995                     u360_21:
  9188  0995  2998               	goto	i1l3003
  9189  0996                     u360_20:
  9190  0996                     i1l3001:
  9191                           
  9192                           ;Buttons/Buttons.c: 46:  {;Buttons/Buttons.c: 48:   Mode.Select_Mode=Off_Mode;
  9193  0996  01D4               	clrf	_Mode
  9194                           
  9195                           ;Buttons/Buttons.c: 50:  }
  9196  0997  299F               	goto	i1l100
  9197  0998                     i1l3003:
  9198  0998  0854               	movf	_Mode,w
  9199  0999  1D03               	btfss	3,2
  9200  099A  299C               	goto	u361_21
  9201  099B  299D               	goto	u361_20
  9202  099C                     u361_21:
  9203  099C  299F               	goto	i1l100
  9204  099D                     u361_20:
  9205  099D                     i1l3005:
  9206                           
  9207                           ;Buttons/Buttons.c: 52:  {;Buttons/Buttons.c: 54:   Mode.Select_Mode=Normal_Mode;
  9208  099D  01D4               	clrf	_Mode
  9209  099E  0AD4               	incf	_Mode,f
  9210  099F                     i1l100:
  9211  099F  0008               	return
  9212  09A0                     __end_of_EXTI_On_Off_CallBack:
  9213  0004                     
  9214                           	psect	functab
  9215  0042                     __pfunctab:
  9216  0042                     __fptable:
  9217  0042                     fptable:
  9218  0042  00FF               	movwf	(btemp+1)& (0+127)
  9219  0043  3000               	movlw	high fptable
  9220  0044  008A               	movwf	10
  9221  0045  087F               	movf	(btemp+1)& (0+127),w
  9222  0046  0782               	addwf	2,f
  9223  0047                     fpbase:
  9224  0047  2847               	goto	fpbase	; Call via a null pointer and you will get stuck here.
  9225  0048                     fp_u0:
  9226  0048  2848               	ljmp	fp_u0	; unused
  9227  0049                     fp_u1:
  9228  0049  2849               	ljmp	fp_u1	; unused
  9229  004A                     fp__Scheduler_Task3:
  9230  004A  120A  158A  28F3   	ljmp	_Scheduler_Task3
  9231  004D                     fp__Scheduler_Task1:
  9232  004D  120A  158A  28B5   	ljmp	_Scheduler_Task1
  9233  0050                     fp__Scheduler_Task2:
  9234  0050  120A  158A  2941   	ljmp	_Scheduler_Task2
  9235  0053                     __end_of__fptable:
  9236  0053                     __i1fptable:
  9237  0053                     i1fptable:
  9238  0053  00FF               	movwf	(btemp+1)& (0+127)
  9239  0054  3000               	movlw	high i1fptable
  9240  0055  008A               	movwf	10
  9241  0056  087F               	movf	(btemp+1)& (0+127),w
  9242  0057  0782               	addwf	2,f
  9243  0058                     i1fpbase:
  9244  0058  2858               	goto	i1fpbase	; Call via a null pointer and you will get stuck here.
  9245  0059                     fp__EXTI_On_Off_CallBack:
  9246  0059  120A  158A  2989   	ljmp	_EXTI_On_Off_CallBack
  9247  005C                     fp__Timer0_CallBack:
  9248  005C  120A  158A  2AF7   	ljmp	_Timer0_CallBack
  9249  005F                     __end_of__i1fptable:
  9250  007E                     btemp	set	126	;btemp
  9251  007E                     wtemp0	set	126
  9252                           
  9253                           	psect	config
  9254                           
  9255                           ;Config register CONFIG @ 0x2007
  9256                           ;	Oscillator Selection bits
  9257                           ;	FOSC = HS, HS oscillator
  9258                           ;	Watchdog Timer Enable bit
  9259                           ;	WDTE = OFF, WDT disabled
  9260                           ;	Power-up Timer Enable bit
  9261                           ;	PWRTE = OFF, PWRT disabled
  9262                           ;	Brown-out Reset Enable bit
  9263                           ;	BOREN = OFF, BOR disabled
  9264                           ;	Low-Voltage (Single-Supply) In-Circuit Serial Programming Enable bit
  9265                           ;	LVP = OFF, RB3 is digital I/O, HV on MCLR must be used for programming
  9266                           ;	Data EEPROM Memory Code Protection bit
  9267                           ;	CPD = OFF, Data EEPROM code protection off
  9268                           ;	Flash Program Memory Write Enable bits
  9269                           ;	WRT = OFF, Write protection off; all program memory may be written to by EECON control
  9270                           ;	In-Circuit Debugger Mode bit
  9271                           ;	DEBUG = 0x1, unprogrammed default
  9272                           ;	Flash Program Memory Code Protection bit
  9273                           ;	CP = OFF, Code protection off
  9274  2007                     	org	8199
  9275  2007  3F3A               	dw	16186

Data Sizes:
    Strings     0
    Constant    17
    Data        4
    BSS         69
    Persistent  0
    Stack       0

Auto Spaces:
    Space          Size  Autos    Used
    COMMON           14     14      14
    BANK0            80     36      58
    BANK1            80     29      80
    BANK3            96     12      12
    BANK2            96      0       0

Pointer List with Targets:

    Scheduler_Start$1348	const PTR FTN()void  size(1) Largest target is 1
		 -> Scheduler_Task3(), Scheduler_Task2(), Scheduler_Task1(), 

    memset@p1	PTR void  size(1) Largest target is 3
		 -> Scheduler_ActivationFlags(BANK1[3]), 

    memset@p	PTR unsigned char  size(1) Largest target is 3
		 -> Scheduler_ActivationFlags(BANK1[3]), 

    sp__memset	PTR void  size(1) Largest target is 3
		 -> Scheduler_ActivationFlags(BANK1[3]), 

    S381$fuction_ptr	PTR FTN()void  size(1) Largest target is 1
		 -> Scheduler_Task3(), Scheduler_Task2(), Scheduler_Task1(), 

    Scheduler_Intitys.fuction_ptr	PTR FTN()void  size(1) Largest target is 1
		 -> Scheduler_Task3(), Scheduler_Task2(), Scheduler_Task1(), 

    Average_Value@Avrage_Values	PTR unsigned char  size(1) Largest target is 6
		 -> Temperature(BANK0[6]), 

    S156_CallBack_t$Timer0CallBack	PTR FTN()void  size(1) Largest target is 1
		 -> Timer0_CallBack(), 

    Interrupt_CallBack.Timer0CallBack	PTR FTN()void  size(1) Largest target is 1
		 -> Timer0_CallBack(), 

    S156_CallBack_t$ExtiCallBack	PTR FTN()void  size(1) Largest target is 1
		 -> EXTI_On_Off_CallBack(), 

    Interrupt_CallBack.ExtiCallBack	PTR FTN()void  size(1) Largest target is 1
		 -> EXTI_On_Off_CallBack(), 

    ADC_Get_Value@Buffer	PTR unsigned char  size(1) Largest target is 6
		 -> Temperature(BANK0[6]), 


Critical Paths under _main in COMMON

    None.

Critical Paths under _myISR in COMMON

    _Scheduler_ActivateTask->___llmod
    i1___lldiv->i1___bmul
    ___llmod->i1___lldiv

Critical Paths under _main in BANK0

    _Set_EEPROM_Data->_EEPROM_Write
    _EEPROM_Write->_I2c_Write
    _ModeManager_MainFunction->_Mode_Setting_Timer
    _Mode_Setting_Timer->___wmul
    _Temperature_Calc->___xxtofl
    ___fltol->___xxtofl
    ___flmul->___xxtofl
    _Average_Value->___lldiv
    _Elements_MainFunction->_LED_Control
    _LED_Control->_LED_BLINKING
    _LED_BLINKING->___wmul
    _Scheduler_Task1->_SSD_MainFunction
    _SSD_MainFunction->_SSD_SelectDigit
    _SSD_SelectDisplay->_SSD_Blink
    _SSD_Blink->___wmul
    _SSD_SelectDigit->___awdiv
    _Scheduler_Init->_memset
    _Get_EEPROM_Data->___awmod
    _EEPROM_Read->_I2c_Read
    _EEPROM_Read->_I2c_Write

Critical Paths under _myISR in BANK0

    _Timer0_CallBack->_Scheduler_ActivateTask
    _Scheduler_ActivateTask->___llmod
    ___llmod->i1___lldiv

Critical Paths under _main in BANK1

    _main->_Scheduler_Start
    _Temperature_Calc->___fltol
    ___fltol->___flmul

Critical Paths under _myISR in BANK1

    None.

Critical Paths under _main in BANK3

    _Temperature_MainFunction->_Temperature_Calc
    _Temperature_Calc->___fltol

Critical Paths under _myISR in BANK3

    None.

Critical Paths under _main in BANK2

    None.

Critical Paths under _myISR in BANK2

    None.

Call Graph Tables:

 ---------------------------------------------------------------------------------
 (Depth) Function   	        Calls       Base Space   Used Autos Params    Refs
 ---------------------------------------------------------------------------------
 (0) _main                                                 0     0      0   12136
                           _ADC_Init
                     _ADC_Start_Conv
                      _Elements_Init
                          _GPIO_Init
                    _Get_EEPROM_Data
                           _I2c_Init
                   _ModeManager_Init
                        _On_Off_Init
                           _SSD_Init
                     _Scheduler_Init
                    _Scheduler_Start
                        _Timer0_Init
 ---------------------------------------------------------------------------------
 (1) _Timer0_Init                                          0     0      0       0
 ---------------------------------------------------------------------------------
 (1) _Scheduler_Start                                      1     1      0   10855
                                             28 BANK1      1     1      0
                    _Scheduler_Task1 *
                    _Scheduler_Task2 *
                    _Scheduler_Task3 *
                             ___bmul
 ---------------------------------------------------------------------------------
 (2) ___bmul                                               3     2      1     179
                                             22 BANK0      3     2      1
 ---------------------------------------------------------------------------------
 (2) _Scheduler_Task3                                      0     0      0    1028
           _ModeManager_MainFunction
                    _Set_EEPROM_Data
 ---------------------------------------------------------------------------------
 (3) _Set_EEPROM_Data                                      0     0      0     183
                       _EEPROM_Write
 ---------------------------------------------------------------------------------
 (4) _EEPROM_Write                                         2     1      1     183
                                             23 BANK0      2     1      1
                          _I2c_Start
                           _I2c_Stop
                        _I2c_WaitAck
                          _I2c_Write
 ---------------------------------------------------------------------------------
 (3) _ModeManager_MainFunction                             0     0      0     845
                 _Mode_Setting_Timer
 ---------------------------------------------------------------------------------
 (4) _Mode_Setting_Timer                                   4     2      2     845
                                             28 BANK0      4     2      2
                             ___wmul
 ---------------------------------------------------------------------------------
 (2) _Scheduler_Task2                                      0     0      0    7224
               _Buttons_MainFunction
              _Elements_MainFunction
           _Temperature_MainFunction
 ---------------------------------------------------------------------------------
 (3) _Temperature_MainFunction                             0     0      0    6379
                      _ADC_Get_Value
                   _Temperature_Calc
 ---------------------------------------------------------------------------------
 (4) _Temperature_Calc                                     4     4      0    6312
                                              8 BANK3      4     4      0
                      _Average_Value
                            ___flmul
                            ___fltol
                            ___lwmod
                           ___xxtofl
 ---------------------------------------------------------------------------------
 (5) ___xxtofl                                            14    10      4     566
                                             22 BANK0     14    10      4
 ---------------------------------------------------------------------------------
 (5) ___fltol                                             10     6      4     427
                                             26 BANK1      2     2      0
                                              0 BANK3      8     4      4
                            ___flmul (ARG)
                           ___xxtofl (ARG)
 ---------------------------------------------------------------------------------
 (5) ___flmul                                             26    18      8    3353
                                              0 BANK1     26    18      8
                          __Umul8_16
                           ___xxtofl (ARG)
 ---------------------------------------------------------------------------------
 (6) __Umul8_16                                            9     7      2     980
                                             22 BANK0      9     7      2
 ---------------------------------------------------------------------------------
 (5) _Average_Value                                        8     7      1    1374
                                              0 BANK1      8     7      1
                            ___lldiv
                            ___lwmod
 ---------------------------------------------------------------------------------
 (5) ___lwmod                                              5     1      4     592
                                             22 BANK0      5     1      4
 ---------------------------------------------------------------------------------
 (6) ___lldiv                                             14     6      8     531
                                             22 BANK0     14     6      8
 ---------------------------------------------------------------------------------
 (4) _ADC_Get_Value                                        1     1      0      67
                                             22 BANK0      1     1      0
 ---------------------------------------------------------------------------------
 (3) _Elements_MainFunction                                4     4      0     845
                                              0 BANK1      4     4      0
                        _LED_Control
 ---------------------------------------------------------------------------------
 (4) _LED_Control                                          2     2      0     845
                                             32 BANK0      2     2      0
                       _LED_BLINKING
 ---------------------------------------------------------------------------------
 (5) _LED_BLINKING                                         4     2      2     845
                                             28 BANK0      4     2      2
                             ___wmul
 ---------------------------------------------------------------------------------
 (3) _Buttons_MainFunction                                 1     1      0       0
                                             22 BANK0      1     1      0
 ---------------------------------------------------------------------------------
 (2) _Scheduler_Task1                                      0     0      0    2263
                   _SSD_MainFunction
 ---------------------------------------------------------------------------------
 (3) _SSD_MainFunction                                     2     2      0    2263
                                             32 BANK0      2     2      0
                    _SSD_SelectDigit
                  _SSD_SelectDisplay
 ---------------------------------------------------------------------------------
 (4) _SSD_SelectDisplay                                    0     0      0     845
                          _SSD_Blink
 ---------------------------------------------------------------------------------
 (5) _SSD_Blink                                            4     2      2     845
                                             28 BANK0      4     2      2
                             ___wmul
 ---------------------------------------------------------------------------------
 (5) ___wmul                                               6     2      4     724
                                             22 BANK0      6     2      4
 ---------------------------------------------------------------------------------
 (4) _SSD_SelectDigit                                      2     2      0    1418
                                             30 BANK0      2     2      0
                            ___awdiv
                            ___awmod
 ---------------------------------------------------------------------------------
 (5) ___awdiv                                              8     4      4     625
                                             22 BANK0      8     4      4
 ---------------------------------------------------------------------------------
 (1) _Scheduler_Init                                       0     0      0     403
                             _memset
 ---------------------------------------------------------------------------------
 (2) _memset                                               6     2      4     403
                                             22 BANK0      6     2      4
 ---------------------------------------------------------------------------------
 (1) _SSD_Init                                             0     0      0       0
 ---------------------------------------------------------------------------------
 (1) _On_Off_Init                                          0     0      0       0
 ---------------------------------------------------------------------------------
 (1) _ModeManager_Init                                     0     0      0       0
 ---------------------------------------------------------------------------------
 (1) _I2c_Init                                             0     0      0       0
 ---------------------------------------------------------------------------------
 (1) _Get_EEPROM_Data                                      2     2      0     878
                                             28 BANK0      2     2      0
                        _EEPROM_Read
                            ___awmod
 ---------------------------------------------------------------------------------
 (5) ___awmod                                              6     2      4     793
                                             22 BANK0      6     2      4
 ---------------------------------------------------------------------------------
 (2) _EEPROM_Read                                          1     1      0      85
                                             23 BANK0      1     1      0
                           _I2c_Read
                      _I2c_Send_NAck
                          _I2c_Start
                           _I2c_Stop
                        _I2c_WaitAck
                          _I2c_Write
 ---------------------------------------------------------------------------------
 (5) _I2c_Write                                            1     1      0      31
                                             22 BANK0      1     1      0
 ---------------------------------------------------------------------------------
 (5) _I2c_WaitAck                                          0     0      0       0
 ---------------------------------------------------------------------------------
 (5) _I2c_Stop                                             0     0      0       0
 ---------------------------------------------------------------------------------
 (5) _I2c_Start                                            0     0      0       0
 ---------------------------------------------------------------------------------
 (3) _I2c_Send_NAck                                        0     0      0       0
 ---------------------------------------------------------------------------------
 (3) _I2c_Read                                             1     1      0      23
                                             22 BANK0      1     1      0
 ---------------------------------------------------------------------------------
 (1) _GPIO_Init                                            0     0      0       0
 ---------------------------------------------------------------------------------
 (1) _Elements_Init                                        0     0      0       0
 ---------------------------------------------------------------------------------
 (1) _ADC_Start_Conv                                       0     0      0       0
 ---------------------------------------------------------------------------------
 (1) _ADC_Init                                             0     0      0       0
 ---------------------------------------------------------------------------------
 Estimated maximum stack depth 6
 ---------------------------------------------------------------------------------
 (Depth) Function   	        Calls       Base Space   Used Autos Params    Refs
 ---------------------------------------------------------------------------------
 (7) _myISR                                                4     4      0     863
                                             18 BANK0      4     4      0
               _EXTI_On_Off_CallBack *
                    _Timer0_CallBack *
 ---------------------------------------------------------------------------------
 (8) _Timer0_CallBack                                      0     0      0     863
             _Scheduler_ActivateTask
 ---------------------------------------------------------------------------------
 (9) _Scheduler_ActivateTask                               5     1      4     863
                                             13 BANK0      5     1      4
                            ___llmod
                           i1___bmul
                          i1___lldiv
 ---------------------------------------------------------------------------------
 (10) i1___lldiv                                          14     6      8     214
                                              3 COMMON     9     1      8
                                              0 BANK0      5     5      0
                           i1___bmul (ARG)
 ---------------------------------------------------------------------------------
 (10) i1___bmul                                            3     2      1      87
                                              0 COMMON     3     2      1
 ---------------------------------------------------------------------------------
 (10) ___llmod                                            10     2      8     311
                                             12 COMMON     2     2      0
                                              5 BANK0      8     0      8
                           i1___bmul (ARG)
                          i1___lldiv (ARG)
 ---------------------------------------------------------------------------------
 (8) _EXTI_On_Off_CallBack                                 0     0      0       0
 ---------------------------------------------------------------------------------
 Estimated maximum stack depth 10
 ---------------------------------------------------------------------------------

 Call Graph Graphs:

 _main (ROOT)
   _ADC_Init
   _ADC_Start_Conv
   _Elements_Init
   _GPIO_Init
   _Get_EEPROM_Data
     _EEPROM_Read
       _I2c_Read
       _I2c_Send_NAck
       _I2c_Start
       _I2c_Stop
       _I2c_WaitAck
       _I2c_Write
     ___awmod
   _I2c_Init
   _ModeManager_Init
   _On_Off_Init
   _SSD_Init
   _Scheduler_Init
     _memset
   _Scheduler_Start
     _Scheduler_Task1 *
       _SSD_MainFunction
         _SSD_SelectDigit
           ___awdiv
           ___awmod
         _SSD_SelectDisplay
           _SSD_Blink
             ___wmul
     _Scheduler_Task2 *
       _Buttons_MainFunction
       _Elements_MainFunction
         _LED_Control
           _LED_BLINKING
             ___wmul
       _Temperature_MainFunction
         _ADC_Get_Value
         _Temperature_Calc
           _Average_Value
             ___lldiv
             ___lwmod
           ___flmul
             __Umul8_16
             ___xxtofl (ARG)
           ___fltol
             ___flmul (ARG)
               __Umul8_16
               ___xxtofl (ARG)
             ___xxtofl (ARG)
           ___lwmod
           ___xxtofl
     _Scheduler_Task3 *
       _ModeManager_MainFunction
         _Mode_Setting_Timer
           ___wmul
       _Set_EEPROM_Data
         _EEPROM_Write
           _I2c_Start
           _I2c_Stop
           _I2c_WaitAck
           _I2c_Write
     ___bmul *
   _Timer0_Init

 _myISR (ROOT)
   _EXTI_On_Off_CallBack *
   _Timer0_CallBack *
     _Scheduler_ActivateTask
       ___llmod
         i1___bmul (ARG)
         i1___lldiv (ARG)
           i1___bmul (ARG)
       i1___bmul
       i1___lldiv
         i1___bmul (ARG)

 Address spaces:
Name               Size   Autos  Total    Cost      Usage
BANK3               60      C       C       9       12.5%
BITBANK3            60      0       0       8        0.0%
SFR3                 0      0       0       4        0.0%
BITSFR3              0      0       0       4        0.0%
BANK2               60      0       0      11        0.0%
BITBANK2            60      0       0      10        0.0%
SFR2                 0      0       0       5        0.0%
BITSFR2              0      0       0       5        0.0%
BANK1               50     1D      50       7      100.0%
BITBANK1            50      0       0       6        0.0%
SFR1                 0      0       0       2        0.0%
BITSFR1              0      0       0       2        0.0%
BANK0               50     24      3A       5       72.5%
BITBANK0            50      0       0       4        0.0%
SFR0                 0      0       0       1        0.0%
BITSFR0              0      0       0       1        0.0%
COMMON               E      E       E       1      100.0%
BITCOMMON            E      0       0       0        0.0%
CODE                 0      0       0       0        0.0%
DATA                 0      0      A4      12        0.0%
ABS                  0      0      A4       3        0.0%
NULL                 0      0       0       0        0.0%
STACK                0      0       0       2        0.0%
EEDATA             100      0       0       0        0.0%


Microchip Technology PIC Macro Assembler V2.20 build 20200408173844 
Symbol Table                                                                                   Sat Jul 18 01:59:39 2020

                                   pc 0002                        ___bmul@product 0037  
                                  l13 09E9                                    l21 09CE  
                                  _BF 04A0                                    l17 08D3  
                                  l92 08B4                                    l68 0CDD  
                                  l79 057D                          ___awdiv@sign 003B  
                                  fsr 0004                   ___wmul@multiplicand 0038  
                 __Umul8_16@word_mpld 003C                      ??_ADC_Start_Conv 0036  
                                 l112 0ED3                                   l202 0A05  
                                 l107 0ED3                                   l140 0A5C  
                                 l134 0ACB                                   l142 0A78  
                                 l150 0FFF                                   l127 0909  
                                 l311 096E                                   l312 0973  
                                 l209 0A07                                   l401 0925  
                                 l410 08DC                                   l404 0930  
                                 l316 061A                                   l413 08EB  
                                 l190 0A02                                   l182 0A00  
                                 l422 08BB                                   l238 0BF1  
                                 l407 08D8                                   l415 08EF  
                                 l247 0940                                   l416 08F2  
                                 l424 08C1                                   l512 0C5E  
                                 l425 08C2                                   l361 0AF6  
                                 l353 0D0D                                   l329 0960  
                                 l194 0A03                                   l186 0A01  
                                 l514 0C64                                   l522 0B52  
                                 l290 08BA                                   l419 08AE  
                                 l507 0E1B                                   l532 0F2E  
                                 l356 0D24                                   l349 08A4  
                                 l461 0BB7                                   l293 0950  
                                 l198 0A04                                   l454 0BF0  
                                 l623 0A38                                   l392 0915  
                                 l296 08FD                                   l537 0F33  
                                 l625 0A50                                   l466 0D6C  
                                 l458 07FD                                   l395 08E0  
                                 l491 0921                                   l397 08E4  
                                 l398 08E7                                   l816 0695  
                                 l905 0CA0                                   l809 06AC  
                                 l649 09B6                                   l659 077D  
                                 l819 06AC                                   l776 0715  
                                 l789 0E76                                   _PEN 048A  
                                 _SEN 0488                                   _SSD 0047  
                                 fsr0 0004                                   indf 0000  
                        ___awmod@sign 003B                    _Mode_Setting_Timer 0ACC  
                        ?_LED_Control 0070                          ___flmul@aexp 00E1  
                        ___flmul@bexp 00E6                          ___flmul@sign 00E0  
                        ___flmul@temp 00EB                          ___flmul@prod 00E7  
                        ___fltol@exp1 00EE                                  l1012 0419  
                                l1031 0A8F                                  l1024 040D  
                                l1033 0AA1                                  l1018 0385  
                                l1070 04AB                                  l1056 043E  
                                l1058 04D5                                  l1077 0A29  
                                l3101 0728                                  l1069 049F  
                                l3111 0745                                  l3103 072B  
                                l3201 0C4D                                  l3113 0757  
                                l3105 0734                                  l3121 0775  
                                l3203 0C4E                                  l3211 0C60  
                                l3115 0765                                  l3107 0738  
                                l3131 0C77                                  l3221 06BB  
                                l3213 06AD                                  l3205 0C52  
                                l3117 0766                                  l3109 073C  
                                l3141 0C96                                  l3133 0C7B  
                                l3125 0C65                                  l3301 0635  
                                l3231 06D0                                  l3223 06BF  
                                l3215 06B0                                  l3207 0C57  
                                l3119 076F                                  l3135 0C7F  
                                l3127 0C6D                                  l3143 0C9C  
                                l3151 0A85                                  l3311 0661  
                                l3303 064E                                  l3241 06F3  
                                l3233 06D3                                  l3225 06C4  
                                l3217 06B4                                  l3209 0C5C  
                                l3137 0C89                                  l3129 0C70  
                                l3161 04D9                                  l3153 0A89  
                                l3401 021B                                  l3321 067F  
                                l3305 0651                                  l3251 070C  
                                l3243 06F9                                  l3235 06DA  
                                l3227 06C8                                  l3219 06B9  
                                l3091 0A3F                                  l3139 0C8F  
                                l3163 04E1                                  l3155 0A98  
                                l3147 0A7C                                  l3411 02E3  
                                l3403 023E                                  l3331 069F  
                                l3307 0659                                  l3261 0E23  
                                l3253 0711                                  l3245 06FA  
                                l3237 06DE                                  l3229 06CA  
                                l3093 0A46                                  l3085 0A2A  
                                l3181 0AA2                                  l3173 051D  
                                l3165 0502                                  l3157 0A9D  
                                l3149 0A7E                                  l3421 0351  
                                l3413 0309                                  l3405 025B  
                                l3341 0071                                  l3333 005F  
                                l3317 0669                                  l3309 065D  
                                l3501 0483                                  l3191 08E8  
                                l3271 0E39                                  l3263 0E28  
                                l3247 0701                                  l3239 06E2  
                                l3095 0A4C                                  l3087 0A2E  
                                l3183 0AC0                                  l3175 0541  
                                l3167 051A                                  l3431 0369  
                                l3423 0355                                  l3415 0331  
                                l3407 0292                                  l3351 008D  
                                l3343 0076                                  l3335 0066  
                                l3327 0686                                  l3319 0674  
                                l3511 04AD                                  l3503 048A  
                                l3193 08AC                                  l3281 0E55  
                                l3273 0E3C                                  l3265 0E2A  
                                l3257 0E1C                                  l3249 0707  
                                l3601 0F1D                                  l3089 0A32  
                                l3185 0AC4                                  l3177 0545  
                                l3441 038A                                  l3433 036A  
                                l3425 0356                                  l3417 033A  
                                l3409 02AC                                  l3361 00A2  
                                l3353 0092                                  l3345 007B  
                                l3337 006C                                  l3329 069A  
                                l3513 04C3                                  l3505 0495  
                                l3195 08BB                                  l3291 0E72  
                                l3283 0E5B                                  l3275 0E43  
                                l3267 0E2E                                  l3259 0E1F  
                                l3603 0F1F                                  l3611 0F2F  
                                l3187 0AC7                                  l3531 0A51  
                                l3523 09BA                                  l3099 0716  
                                l3179 054B                                  l3443 038F  
                                l3451 03C0                                  l3435 036E  
                                l3427 035F                                  l3419 0348  
                                l3371 00BE                                  l3363 00A7  
                                l3355 0098                                  l3347 0083  
                                l3339 0070                                  l3515 04C8  
                                l3507 0499                                  l3189 08DD  
                                l3285 0E62                                  l3277 0E47  
                                l3269 0E33                                  l3605 0F24  
                                l3197 0C2A                                  l3621 0E9B  
                                l3613 0E77                                  l3533 0A52  
                                l3525 09BE                                  l3461 03F3  
                                l3453 03CD                                  l3445 039D  
                                l3437 0382                                  l3429 0365  
                                l3381 00F3                                  l3373 00C3  
                                l3365 00AF                                  l3357 009C  
                                l3349 0085                                  l3517 04CC  
                                l3509 04A3                                  l3701 0CFB  
                                l2903 09CF                                  l2911 09F0  
                                l3279 0E4B                                  l3287 0E68  
                                l3607 0F28                                  l3199 0C48  
                                l3623 0EA1                                  l3615 0E85  
                                l3535 0A5E                                  l3631 0F9A  
                                l3527 09C2                                  l3471 0411  
                                l3463 03F9                                  l3455 03D8  
                                l3447 03A1                                  l3391 01A4  
                                l3383 011A                                  l3367 00B1  
                                l3359 009D                                  l3295 061B  
                                l3519 04CD                                  l3551 0613  
                                l3711 0D0B                                  l3703 0D01  
                                l2905 08CB                                  l2913 09F4  
                                l2761 0929                                  l3289 0E6D  
                                l3609 0F2C                                  l3625 0EAD  
                                l3617 0E91                                  l3641 0FC6  
                                l3633 0FA0                                  l3529 09CD  
                                l3465 0401                                  l3457 03E7  
                                l3449 03BA                                  l3393 01AD  
                                l3385 0136                                  l3377 00CC  
                                l3369 00B9                                  l3297 062A  
                                l3481 0436                                  l3553 0619  
                                l3545 057E                                  l3721 0D1F  
                                l3713 0D11                                  l3705 0D05  
                                l3561 0B88                                  l3801 09B5  
                                l2907 08D1                                  l2931 0A06  
                                l2915 09F8                                  l2763 092F  
                                l3811 0BCF                                  l3571 0B23  
                                l3627 0EBA                                  l3619 0E96  
                                l3539 0A63                                  l3643 0FCB  
                                l3635 0FA5                                  l3651 0FF1  
                                l3467 0405                                  l3459 03F1  
                                l3395 01C7                                  l3387 016C  
                                l3379 00E6                                  l3491 0458  
                                l3483 0446                                  l3475 041D  
                                l3547 05ED                                  l3555 0ACC  
                                l3723 0D21                                  l3715 0D15  
                                l3707 0D07                                  l3563 0B8D  
                                l3731 07F0                                  l2917 09FC  
                                l2909 09EA                                  l3813 0BE7  
                                l3805 0BB8                                  l2941 0912  
                                l3741 0A1B                                  l3581 0B3B  
                                l3573 0B2A                                  l3661 0DD1  
                                l3629 0EC6                                  l3653 0FF9  
                                l3645 0FE7                                  l3637 0FBF  
                                l3469 0406                                  l3397 01E4  
                                l3389 0188                                  l3493 0461  
                                l3477 0422                                  l3549 05FB  
                                l3557 0AEA                                  l3725 0D23  
                                l3717 0D1B                                  l3709 0D09  
                                l3565 0B93                                  l3733 07FA  
                                l2759 0922                                  l2767 08D4  
                                l3815 0BEC                                  l3807 0BC3  
                                l2943 0913                                  l2935 090A  
                                l2951 0920                                  l3735 0A0B  
                                l3591 0EE0                                  l3583 0B45  
                                l3575 0B2E                                  l3671 0DE0  
                                l3663 0DD4                                  l3647 0FED  
                                l3655 0FFA                                  l3639 0FC5  
                                l3399 01FE                                  l3495 0468  
                                l3487 044F                                  l3479 0426  
                                l3559 0AF2                                  l3719 0D1D  
                                l3567 0BA0                                  l3727 07E6  
                                l3831 0C1E                                  l2953 08FE  
                                l3809 0BC9                                  l2945 0914  
                                l2937 090E                                  l3737 0A10  
                                l3817 0931                                  l3593 0F0C  
                                l3585 0B4A                                  l3577 0B31  
                                l3673 0DE3                                  l3665 0DD7  
                                l3657 0DC3                                  l3913 0A6D  
                                l3649 0FEE                                  l3497 046C  
                                l3489 0454                                  l3569 0BA5  
                                l3729 07EC                                  l3761 0946  
                                l3833 0C22                                  l3825 0BF4  
                                l3841 0CA6                                  l2955 0901  
                                l3771 0D33                                  l2939 0911  
                                l2947 08AF                                  l3739 0A17  
                                l3595 0F10                                  l3587 0ED4  
                                l3579 0B37                                  l3915 0DF8  
                                l3675 0DE6                                  l3667 0DDA  
                                l3659 0DCE                                  l3683 0DEE  
                                l3499 047A                                  l3691 0968  
                                l3763 094B                                  l3827 0BFD  
                                l3819 0BF1                                  l3851 0CBF  
                                l3843 0CAB                                  l2957 0905  
                                l3781 0D5F                                  l3773 0D40  
                                l2949 0916                                  l3597 0F15  
                                l3589 0EDB                                  l3677 0DE9  
                                l3669 0DDD                                  l3693 0CE0  
                                l3765 08F3                                  l3757 08B5  
                                l3829 0C17                                  l3853 0CC4  
                                l3845 0CB0                                  l3783 0D64  
                                l3775 0D45                                  l3767 0D28  
                                l2959 08A1                                  l3599 0F19  
                                l3679 0DEC                                  l3695 0CE8  
                                l3759 0941                                  l3791 09A4  
                                l2975 0951                                  l3855 0CC9  
                                l3847 0CB5                                  l3839 0CA1  
                                l3785 0D69                                  l3777 0D50  
                                l3769 0D2D                                  l3689 0961  
                                l3697 0CF1                                  l3793 09A8  
                                l2977 095B                                  l3857 0CCE  
                                l3849 0CBA                                  l3779 0D55  
                                l3699 0CF7                                  l3795 09AC  
                                l2979 095F                                  l3859 0CD3  
                                l3797 09AE                                  l3789 09A3  
                                l3799 09B0                    __size_of_I2c_Start 000B  
                  __size_of_I2c_Write 0006                        ??_LED_BLINKING 003E  
                                u4010 06F3                                  u4011 06F2  
                                u4100 0E55                                  u4101 0E54  
                                u4005 06E3                                  u3310 0929  
                                u4030 0707                                  u3311 0928  
                                u4031 0706                                  u4015 06EF  
                                u3320 08DC                                  u4120 0E68  
                                u4040 070C                                  u5000 0FA0  
                                u4200 0685                                  u3321 08DB  
                                u4121 0E67                                  u4105 0E51  
                                u4041 070B                                  u4025 06FB  
                                u5001 0F9F                                  u4201 0684  
                                u4130 0E6D                                  u4050 0E23  
                                u5010 0FA5                                  u4131 0E6C  
                                u4115 0E5C                                  u4051 0E22  
                                u5011 0FA4                                  u4060 0E2E  
                                u5020 0FBF                                  u4300 00BE  
                                u4220 069A                                  u4140 062A  
                                u5100 0D15                                  u4061 0E2D  
                                u5021 0FBE                                  u4301 00BD  
                                u4221 0699                                  u4141 0629  
                                u5101 0D14                                  u4070 0E39  
                                u5030 0FE7                                  u4310 00C3  
                                u4230 069F                                  u4150 0645  
                                u5110 0D1B                                  u4071 0E38  
                                u5031 0FE6                                  u4311 00C2  
                                u4231 069E                                  u4215 068A  
                                u5111 0D1A                                  u5200 0BE7  
                                u4240 0070                                  u4160 0661  
                                u5040 0968                                  u5120 07EC  
                                u5201 0BE6                                  u5025 0FBB  
                                u4401 024D                                  u4321 0128  
                                u4241 006F                                  u4161 0660  
                                u5041 0967                                  u5121 07EB  
                                u3530 08D1                                  u4090 0E4B  
                                u5130 0A29                                  u4402 0254  
                                u4322 012F                                  u4250 0076  
                                u4170 0668                                  u5050 0CE8  
                                u5210 0BFD                                  u3531 08D0  
                                u4091 0E4A                                  u5131 0A28  
                                u5035 0FE3                                  u4411 0284  
                                u4403 025B                                  u4331 0144  
                                u4323 0136                                  u4251 0075  
                                u4171 0667                                  u4155 0640  
                                u5051 0CE7                                  u5211 0BFC  
                                u3700 073C                                  u4412 028B  
                                u4332 014B                                  u4260 007B  
                                u5060 0CF7                                  u5220 0C28  
                                u4085 0E3D                                  u3701 073B  
                                u4421 02BB                                  u4413 0292  
                                u4341 017A                                  u4333 0152  
                                u4261 007A                                  u5061 0CF6  
                                u5221 0C27                                  u4510 0369  
                                u4430 02EF                                  u4422 02C2  
                                u4342 0181                                  u4270 009C  
                                u4190 067E                                  u5070 0CFB  
                                u4511 0368                                  u4423 02C9  
                                u4351 0196                                  u4343 0188  
                                u4271 009B                                  u4191 067D  
                                u5071 0CFA                                  u3640 0A32  
                                u3720 0757                                  u3800 0C9C  
                                u4600 0405                                  u4520 036E  
                                u4352 019D                                  u4280 00A2  
                                u5080 0D01                                  u5160 09A8  
                                u3641 0A31                                  u3721 0756  
                                u3801 0C9B                                  u4601 0404  
                                u4521 036D                                  u4505 0358  
                                u4441 02FB                                  u4353 01A4  
                                u4281 00A1                                  u4185 066A  
                                u5081 0D00                                  u5161 09A7  
                                u3810 0A89                                  u4530 0382  
                                u4450 0317                                  u4442 0302  
                                u4290 00A7                                  u4610 0422  
                                u5090 0D11                                  u5170 09B5  
                                u3715 073E                                  u3811 0A88  
                                u4531 0381                                  u4443 0309  
                                u4435 02EA                                  u4371 01D6  
                                u4291 00A6                                  u4611 0421  
                                u5091 0D10                                  u5171 09B4  
                                u3900 08EF                                  u5180 0BC9  
                                u3740 0775                                  u4540 0389  
                                u4372 01DD                                  u4700 049F  
                                u4620 0426                                  u3901 08EE  
                                u5181 0BC8                                  u3741 0774  
                                u3725 0753                                  u4541 0388  
                                u4461 0323                                  u4381 020D  
                                u4373 01E4                                  u4365 01A6  
                                u4701 049E                                  u4621 0425  
                                u3910 08C1                                  u5190 0BCF  
                                u3670 0A4C                                  u3750 0C6D  
                                u3830 0A9D                                  u4550 038F  
                                u4462 032A                                  u4382 0214  
                                u4710 04A3                                  u4630 0446  
                                u3911 08C0                                  u5191 0BCE  
                                u3671 0A4B                                  u3655 0A39  
                                u3735 0767                                  u3751 0C6C  
                                u3831 0A9C                                  u4551 038E  
                                u4463 0331                                  u4455 0312  
                                u4383 021B                                  u4711 04A2  
                                u4631 0445                                  u3920 0C48  
                                u4800 0B37                                  u3680 0728  
                                u4560 03A1                                  u4720 04B8  
                                u3665 0A40                                  u3921 0C47  
                                u4801 0B36                                  u3681 0727  
                                u3825 0A90                                  u4561 03A0  
                                u3930 0C4D                                  u4810 0B4A  
                                u3770 0C7F                                  u4570 03B0  
                                u4490 0355                                  u4730 04C8  
                                u4650 0467                                  u3931 0C4C  
                                u4811 0B49                                  u3771 0C7E  
                                u4491 0354                                  u4475 0333  
                                u4395 021D                                  u4731 04C7  
                                u4651 0466                                  u4820 0EDB  
                                u3940 0C5C                                  u4900 0E96  
                                u3780 0C89                                  u4580 03CD  
                                u4740 04CC                                  _RCEN 048B  
                                u4821 0EDA                                  u3941 0C5B  
                                u3925 0C44                                  u4901 0E95  
                                u3781 0C88                                  u3765 0C71  
                                u3861 0532                                  u3845 04ED  
                                u4581 03CC                                  u4485 034A  
                                u4741 04CB                                  u4725 04B3  
                                u4645 0459                                  u3950 06B4  
                                u4830 0EE0                                  u4910 0EA1  
                                u4750 09BE                                  u3870 054B  
                                u3862 0533                                  u4590 03E7  
                                u4670 0489                                  u3951 06B3  
                                u4831 0EDF                                  u4911 0EA0  
                                u4751 09BD                                  u3695 072D  
                                u3871 054A                                  u3863 0539  
                                u3855 0520                                  u4591 03E6  
                                u4575 03AB                                  u4671 0488  
                                u3960 06BF                                  u4840 0F15  
                                u3880 0AC0                                  u4760 09C2  
                                u3864 053A                                  u3961 06BE  
                                u4841 0F14                                  u3881 0ABF  
                                u4761 09C1                                  u3785 0C85  
                                u3865 0540                                  u4585 03C9  
                                u4665 047B                                  u3890 08E4  
                                u3970 06D0                                  u4850 0F24  
                                u4930 0EAD                                  u3866 0541  
                                u4690 0499                                  u4770 0619  
                                u3891 08E3                                  u3971 06CF  
                                u4851 0F23                                  u4931 0EAC  
                                u3795 0C90                                  u4595 03E3  
                                u4691 0498                                  u4771 0618  
                                u4940 0EB5                                  u4780 0AEA  
                                u4941 0EB1                                  u4925 0EA4  
                                u3885 0ABC                                  u4685 048E  
                                u4781 0AE9                                  u3990 06E2  
                                u4790 0B2A                                  u4870 0E85  
                                u3991 06E1                                  u4791 0B29  
                                u4871 0E84                   ?_Mode_Setting_Timer 003C  
                                u3985 06D4                                  u4865 0E7C  
                                u4785 0AE6                                  u4970 0EC6  
                                u4954 0EB8                                  u4890 0E91  
                                u4971 0EC5                                  u4891 0E90  
                                u4980 0ECE                                  u4981 0ECA  
                                u4965 0EBD                                  u4885 0E88  
                                u4994 0ED1                                  _TMR0 0001  
                                _Mode 0054             __size_of_Temperature_Calc 009D  
                   i1___lldiv@divisor 0073                                  _main 0CA1  
            ??_Scheduler_ActivateTask 007E                                  fp_u0 0048  
                                fp_u1 0049                                  btemp 007E  
                   i1___lldiv@counter 0024                      __end_of_ADC_Init 09EA  
                                start 0012                    __size_of_GPIO_Init 001E  
                       ??_On_Off_Init 0036                     ___bmul@multiplier 0038  
                    ??_Scheduler_Init 003C                      __end_of_I2c_Init 0916  
                    __end_of_I2c_Read 0931                      __end_of_I2c_Stop 08F3  
                          _Enable_SSD 004C                     ??_Timer0_CallBack 007E  
                __end_of_EEPROM_Write 0BB8                  ??_Mode_Setting_Timer 003E  
                     _Average_Nvalues 0058                         ___fltol@sign1 00ED  
                               ?_main 0070                                 _ACKEN 048C  
                               _ACKDT 048D                       __end_of___awdiv 0716  
                     __end_of___awmod 0E77                       __end_of___flmul 041A  
                     __end_of___fltol 06AD                       __end_of___lldiv 077E  
                     ___awdiv@divisor 0036                       __end_of___llmod 0DC3  
                               i1l100 099F                                 i1l226 0B65  
                               i1l332 0B22                                 i1l253 0F99  
                               i1l229 0B78                       __end_of___lwmod 0CA1  
                               i1l649 0988                                 i1l659 07E5  
                               i1l845 0DC2                       ___awdiv@counter 003A  
                               _PORTA 0005                                 _PORTB 0006  
                               _PORTC 0007                                 _PORTD 0008  
                               _SSPM0 00A0                                 _SSPM1 00A1  
                               _SSPM2 00A2                                 _SSPM3 00A3  
                               _TRISA 0085                                 _TRISB 0086  
                               _TRISC 0087                                 _TRISD 0088  
                               _SSPEN 00A5                                 _SSPIF 0063  
                    _ModeManager_Init 08A1                    i1___lldiv@dividend 0077  
                               _myISR 0B53                                 fpbase 0047  
                    __end_of_SSD_Init 0922            Average_Value@Avrage_Values 00D3  
                    __end_ofi1___bmul 0989                                 pclath 000A  
                  __size_of_SSD_Blink 003B                                 status 0003  
                    EEPROM_Write@Addr 0037                                 wtemp0 007E  
                    EEPROM_Write@Data 0038                    __size_ofi1___lldiv 0068  
                     _Set_EEPROM_Data 07E6                      ?_Get_EEPROM_Data 0070  
                __size_of_EEPROM_Read 0048                       __initialization 0015  
                   ??_Scheduler_Task1 0042                     ??_Scheduler_Task2 0044  
                   ??_Scheduler_Task3 0040                          __end_of_main 0CE0  
                   ??_Scheduler_Start 0044                       _SSD_SelectDigit 0ED4  
                  i1___lldiv@quotient 0020                __size_of_ADC_Get_Value 0018  
                   __end_of_I2c_Start 08E8               ??_Elements_MainFunction 00D3  
                   __end_of_I2c_Write 08AF                   __end_of_On_Off_Init 08B5  
                              ??_main 0044                     __end_of_GPIO_Init 0A08  
                __size_of_I2c_WaitAck 0008                                ?_myISR 0070  
          ??_ModeManager_MainFunction 0040                      ___llmod@dividend 0029  
                              _ADRESL 009E                      ___awdiv@dividend 0038  
                              i1l3001 0996                                i1l3003 0998  
                              i1l3005 099D                                i1l2801 07A4  
                              i1l2811 07D7                                i1l2803 07AD  
                              i1l2821 097A                                i1l2805 07BF  
                              i1l2813 07DD                                i1l2823 097E  
                              i1l2807 07CD                                i1l2825 0980  
                              i1l2817 0975                                i1l2809 07CE  
                              i1l2771 0D77                                i1l2827 0982  
                              i1l2819 0976                                i1l2781 0D9D  
                              i1l2773 0D7A                                i1l2829 0987  
                              i1l2783 0DAB                                i1l2775 0D83  
                              i1l2791 077E                                i1l3751 0F89  
                              i1l3743 0F34                                i1l2785 0DB4  
                              i1l2777 0D87                                i1l2769 0D6D  
                              i1l2793 0790                                i1l3753 0F8F  
                              i1l2779 0D8B                                i1l2787 0DBA  
                              i1l2795 0793                                i1l3755 0F93  
                              i1l3835 0AF7                                i1l2797 079C  
                              i1l3749 0F37                                i1l3837 0B07  
                              i1l3861 0B53                                i1l2799 07A0  
                              i1l3871 0B6C                                i1l3863 0B57  
                              i1l3865 0B58                                i1l3867 0B69  
                              i1l2997 0989                                i1l3869 0B6A  
                              i1l2999 0991                                _INTEDG 040E  
                              u340_25 0795                                u333_20 0D77  
                              u341_20 07A4                                u333_21 0D76  
                              u341_21 07A3                                u334_25 0D7C  
                              u342_25 07A6                                u335_20 0D8B  
                              u343_20 07BF                                u335_21 0D8A  
                              u343_21 07BE                                u343_25 07BB  
                              u360_20 0996                                u336_20 0D9D  
                              u360_21 0995                                u336_21 0D9C  
                              u336_25 0D99                                u344_25 07CF  
                              u361_20 099D                                u345_20 07DD  
                              u361_21 099C                                u345_21 07DC  
                              u337_25 0DAC                                u338_20 0DBA  
                              u346_20 097A                                u514_20 0F89  
                              u338_21 0DB9                                u346_21 0979  
                              u514_21 0F88                                u347_20 0987  
                              u339_20 0790                                u515_20 0F99  
                              u523_20 0B57                                u347_21 0986  
                              u339_21 078F                                u515_21 0F98  
                              u523_21 0B56                                u524_20 0B69  
                              u524_21 0B68                                u359_20 0991  
                              u359_21 0990                            __i1fptable 0053  
                              _SSPADD 0093                                _SSPBUF 0013  
                    __end_of__fptable 0053                      __end_of___xxtofl 04D6  
     __size_of_Scheduler_ActivateTask 0066                         ??_Timer0_Init 0036  
        __end_of_EXTI_On_Off_CallBack 09A0                                ___bmul 09A0  
       __size_of_Buttons_MainFunction 005D                                ___wmul 0A2A  
                           ??___awdiv 003A                             ??___awmod 003A  
                           ??___flmul 00DB                             ??___fltol 0194  
                           ??___lldiv 003E                             ??___llmod 007C  
                           ??___lwmod 003A                            _Tempreture 0046  
                              _memset 0A08                  __end_of_LED_BLINKING 0ACC  
                    ___awdiv@quotient 003C                       ___awmod@divisor 0036  
                     ___awmod@counter 003A     Scheduler_ActivateTask@IntityIndex 0031  
                   __end_of_SSD_Blink 0C65              __end_of_SSD_MainFunction 0E1C  
                              fptable 0042                     __end_ofi1___lldiv 07E6  
                              fptotal 0006                    __size_of__Umul8_16 0029  
                           ?_ADC_Init 0070                                saved_w 007E  
    __end_of_Temperature_MainFunction 0974                  __size_of_LED_Control 0028  
    Scheduler_ActivateTask@SystemTick 002D               __end_of_Set_EEPROM_Data 07FE  
                       _ADC_Get_Value 09B7                             ?_I2c_Init 0070  
                           ?_I2c_Read 0070                             ?_I2c_Stop 0070  
               __end_of_Elements_Init 090A                          ___xxtofl@arg 0040  
                        ___xxtofl@exp 003F                          ___xxtofl@val 0036  
                    _Temperature_Calc 057E               __end_of__initialization 003E  
                          ___fltol@f1 0190               __end_of_SSD_SelectDigit 0F34  
               __size_of_EEPROM_Write 0033                   ___bmul@multiplicand 0036  
                         _On_Off_Init 08AF                        __pcstackCOMMON 0070  
                        __pidataBANK0 08A5                         __end_of_myISR 0B85  
                 __end_of_Timer0_Init 0961                             ?_SSD_Init 0070  
                           ?i1___bmul 0070                _Scheduler_ActivateTask 0F34  
               __end_of_I2c_Send_NAck 08DD                        _OPTION_REGbits 0081  
                          ??_ADC_Init 0036                 __end_of_Average_Value 057E  
                    i1___bmul@product 0071                               ??_myISR 0032  
                      ?_ADC_Get_Value 0070                            ??_I2c_Init 0036  
                          ??_I2c_Read 0036                          _EEPROM_Write 0B85  
                          __pbssBANK0 0044                            __pbssBANK1 00A0  
                          ??_I2c_Stop 0036                       _Timer0_CallBack 0AF7  
                   __end_of__Umul8_16 0AA2              __end_of_ModeManager_Init 08A5  
                          __pmaintext 0CA1                               ?___bmul 0036  
                             ?___wmul 0036                            __pintentry 0004  
                             ?_memset 0036                            ??_SSD_Init 0036  
                          ??i1___bmul 0071                             ?___xxtofl 0036  
                _EXTI_On_Off_CallBack 0989                      ?_Set_EEPROM_Data 0070  
                          __stringtab 0800                       _Scheduler_Task1 08B5  
                     _Scheduler_Task2 0941                       _Scheduler_Task3 08F3  
                     _Scheduler_Start 0BF1                               i1fpbase 0058  
            _Temperature_MainFunction 0961                               _Counter 0057  
                             _Buttons 004A                      ?_SSD_SelectDigit 0070  
                         _Timer0_Init 0951                 __size_of_LED_BLINKING 002A  
                     __size_of___bmul 0017                               ___awdiv 06AD  
SSD_SelectDigit@Enable_Digit_Selector 0056                               ___awmod 0E1C  
                             ___flmul 005F                               ___fltol 061B  
                             ___lldiv 0716                       __size_of___wmul 0027  
                 ADC_Get_Value@Buffer 0036                               ___llmod 0D6D  
                             ___lwmod 0C65           __size_of_Mode_Setting_Timer 002B  
                         _Temperature 004E                       __size_of_memset 0022  
      __size_of_Elements_MainFunction 0066                               __ptext1 0951  
                             __ptext2 0BF1                               __ptext3 09A0  
                             __ptext4 0941                               __ptext5 08B5  
                             __ptext6 08F3                               __ptext7 07E6  
                             __ptext8 0B85                               __ptext9 0CE0  
       __end_of_Elements_MainFunction 1000                   __size_of__i1fptable 000C  
                           _I2c_Start 08DD                             _I2c_Write 08A9  
                          ??___xxtofl 003A                      ___awmod@dividend 0038  
                 i1___bmul@multiplier 0072                       ??_ADC_Get_Value 0036  
               ?_EXTI_On_Off_CallBack 0070               __end_of_Timer0_CallBack 0B23  
                             clrloop0 08C4                             _GPIO_Init 09EA  
                end_of_initialization 003E               __size_of_ADC_Start_Conv 0009  
                        _LED_BLINKING 0AA2                         ??_EEPROM_Read 0037  
                             memset@c 0036                               memset@n 0038  
                             memset@p 003A                       ___lldiv@divisor 0036  
                     ___lldiv@counter 0043              __size_of_Get_EEPROM_Data 0039  
            __end_of_Temperature_Calc 061B                         ??_I2c_WaitAck 0036  
                          ?_I2c_Start 0070                            ?_I2c_Write 0070  
             __size_of_Scheduler_Init 0010                     ?_SSD_MainFunction 0070  
                       ___xxtofl@sign 003E               __end_of_Scheduler_Task1 08BB  
             __end_of_Scheduler_Task2 0951               __end_of_Scheduler_Task3 08FE  
                           _SSD_Blink 0C2A          __end_of_Buttons_MainFunction 0ED4  
             __end_of_Scheduler_Start 0C2A                    ??_SSD_MainFunction 0040  
                           i1___lldiv 077E                     __size_of_ADC_Init 001B  
                          ?_GPIO_Init 0070                   LED_BLINKING@Counter 0059  
                         ___flmul@grs 00E2                     __size_of_I2c_Init 000C  
                   __size_of_I2c_Read 000F                     __size_of_I2c_Stop 000B  
                   _Scheduler_Intitys 0806                   LED_BLINKING@Time_Ms 003C  
                        ?_On_Off_Init 0070                   __end_of_EEPROM_Read 0D6D  
   __size_of_ModeManager_MainFunction 0045             ?_ModeManager_MainFunction 0070  
             ?_Scheduler_ActivateTask 002D                        __end_of___bmul 09B7  
                      __end_of___wmul 0A51                        __end_of_memset 0A2A  
                   __size_of_SSD_Init 000C                     __size_ofi1___bmul 0015  
                       ??_LED_Control 0040                   start_initialization 0015  
              ??_EXTI_On_Off_CallBack 0070                            ?_SSD_Blink 003C  
                   SSD_Blink@Times_Ms 003C                            ?i1___lldiv 0073  
                    ?_Timer0_CallBack 0070                     _SSD_SelectDisplay 0B23  
                 __end_of_I2c_WaitAck 08C3                    ?_SSD_SelectDisplay 0070  
           __end_of_Scheduler_Intitys 0815                       ___llmod@divisor 0025  
                     ___llmod@counter 007D                   ??_SSD_SelectDisplay 0040  
                   ?_ModeManager_Init 0070        __end_of_Scheduler_ActivateTask 0F9A  
                            ??___bmul 0037                              ??___wmul 003A  
                           __Umul8_16 0A79                    ??_ModeManager_Init 0036  
                         __pdataBANK0 0056                              ??_memset 003A  
              __size_of_Elements_Init 000C                           ??_I2c_Start 0036  
                         ??_I2c_Write 0036                    __end_of__i1fptable 005F  
                           ___flmul@a 00D7                             ___flmul@b 00D3  
                   ??_Get_EEPROM_Data 003C                             ___latbits 0002  
          ??_Temperature_MainFunction 0044                         __pcstackBANK0 0020  
                       __pcstackBANK1 00D3                         __pcstackBANK3 0190  
           __end_of_SSD_SelectDisplay 0B53                      ?_Scheduler_Task1 0070  
                    ?_Scheduler_Task2 0070                      ?_Scheduler_Task3 0070  
                    ?_Scheduler_Start 0070                     __size_of__fptable 0011  
                   __size_of___xxtofl 00BC                           ??_GPIO_Init 0036  
                      _ADC_Start_Conv 08CB                   __end_of_LED_Control 0A79  
                         _EEPROM_Data 0049                           _EEPROM_Read 0D25  
              __size_of_I2c_Send_NAck 0009                          ?_Timer0_Init 0070  
              SSD_SelectDigit@Digit_1 0045                SSD_SelectDigit@Digit_2 0044  
          __end_of_Interrupt_CallBack 0817                             __pfunctab 0042  
                _Buttons_MainFunction 0E77                __size_of_Average_Value 00A8  
                            ?___awdiv 0036                              ?___awmod 0036  
                            ?___flmul 00D3                              ?___fltol 0190  
                            ?___lldiv 0036                              ?___llmod 0025  
                          ?__Umul8_16 0036                              ?___lwmod 0036  
                           __pstrings 0800                        _Scheduler_Init 0931  
                         _I2c_WaitAck 08BB                              _ADC_Info 004D  
                            _ADC_Init 09CF                           ??_SSD_Blink 003E  
              __end_of_ADC_Start_Conv 08D4                           ??i1___lldiv 007B  
                      __size_of_myISR 0032                              _I2c_Init 090A  
                            _I2c_Read 0922                              _I2c_Stop 08E8  
                   interrupt_function 0004                         _Elements_Init 08FE  
                      ___wmul@product 003A                             clear_ram0 08C3  
               i1___bmul@multiplicand 0070              __size_of_Set_EEPROM_Data 0018  
               ?_Buttons_MainFunction 0070            __end_of_Mode_Setting_Timer 0AF7  
                __size_of_On_Off_Init 0006              __size_of_SSD_SelectDigit 0060  
              __end_of_Scheduler_Init 0941                              _SSD_Init 0916  
                            i1___bmul 0974                            _ADCON0bits 001F  
                         __stringbase 0805                            _ADCON1bits 009F  
                   ___wmul@multiplier 0036                     ?_Temperature_Calc 0070  
                       _I2c_Send_NAck 08D4                 _Elements_MainFunction 0F9A  
                  ??_Temperature_Calc 0198                           _LED_Control 0A51  
          __size_of_SSD_SelectDisplay 0030                       ?_ADC_Start_Conv 0070  
                       _Average_Value 04D6                              i1fptable 0053  
               __end_of_ADC_Get_Value 09CF                              i1fptotal 0004  
             fp__EXTI_On_Off_CallBack 0059      __end_of_ModeManager_MainFunction 0D25  
                      ?_Elements_Init 0070             __size_of_SSD_MainFunction 0059  
          Mode_Setting_Timer@Timer_Ms 003C                              _Tick_Num 00C8  
                         ??__Umul8_16 0038                      __size_of___awdiv 0069  
                    __size_of___awmod 005B                      __size_of___flmul 03BB  
                    __size_of___fltol 0092                      __size_of___lldiv 0068  
                    __size_of___llmod 0056                      __size_of___lwmod 003C  
                     ?_Scheduler_Init 0070                    __end_of__stringtab 0806  
                      ?_I2c_Send_NAck 0070                              __fptable 0042  
                            ___xxtofl 041A                        ?_Average_Value 00D3  
                            __ptext10 0ACC                              __ptext11 0961  
                            __ptext20 09B7                              __ptext12 057E  
                            __ptext21 0F9A                              __ptext13 041A  
                            __ptext30 06AD                              __ptext22 0A51  
                            __ptext14 061B                              __ptext31 0931  
                            __ptext23 0AA2                              __ptext15 005F  
                            __ptext40 08A9                              __ptext32 0A08  
                            __ptext24 0E77                              __ptext16 0A79  
                            __ptext41 08BB                              __ptext33 0916  
                            __ptext25 0DC3                              __ptext17 04D6  
                            __ptext50 0B53                              __ptext42 08E8  
                            __ptext34 08AF                              __ptext26 0B23  
                            __ptext18 0C65                              __ptext51 0AF7  
                            __ptext43 08DD                              __ptext35 08A1  
                            __ptext27 0C2A                              __ptext19 0716  
                            __ptext52 0F34                              __ptext44 08D4  
                            __ptext36 090A                              __ptext28 0A2A  
                            __ptext53 077E                              __ptext45 0922  
                            __ptext37 0BB8                              __ptext29 0ED4  
                            __ptext54 0974                              __ptext46 09EA  
                            __ptext38 0E1C                              __ptext55 0D6D  
                            __ptext47 08FE                              __ptext39 0D25  
                            __ptext56 0989                              __ptext48 08CB  
                            __ptext49 09CF                         ?_EEPROM_Write 0037  
                       __size_of_main 003F                ??_Buttons_MainFunction 0036  
                            _temb_val 00A0                         _Avrage_buffer 00CC  
                __size_of_Timer0_Init 0010                       _Get_EEPROM_Data 0BB8  
                        I2c_Read@data 0036                     ??_Set_EEPROM_Data 0039  
              ?_Elements_MainFunction 0070                            _LED_Status 004B  
                       I2c_Write@data 0036                            _INTCONbits 000B  
                   ??_SSD_SelectDigit 003E             __size_of_ModeManager_Init 0004  
                            memset@p1 003B         __size_of_EXTI_On_Off_CallBack 0017  
                      ??_EEPROM_Write 0038                       ??_Elements_Init 0036  
                            intlevel1 0042                      ___lwmod@dividend 0038  
                        ?_EEPROM_Read 0070                      ___lldiv@dividend 003A  
          Scheduler_Start@IntityIndex 00EF             _Scheduler_ActivationFlags 00D0  
            __size_of_Timer0_CallBack 002C                    fp__Timer0_CallBack 005C  
            _ModeManager_MainFunction 0CE0                             stringcode 0800  
                     ??_I2c_Send_NAck 0036                __Umul8_16@multiplicand 0036  
                        ?_I2c_WaitAck 0070                    _Interrupt_CallBack 0815  
                     ??_Average_Value 00D4                      ___lldiv@quotient 003F  
                     ___lwmod@divisor 0036                       ___lwmod@counter 003A  
                            stringdir 0800                              stringtab 0800  
                  Average_Value@Value 00D9                    Average_Value@index 00DA  
                       ?_LED_BLINKING 003C              __size_of_Scheduler_Task1 0006  
            __size_of_Scheduler_Task2 0010              __size_of_Scheduler_Task3 000B  
                  fp__Scheduler_Task1 004D                    fp__Scheduler_Task2 0050  
                  fp__Scheduler_Task3 004A                       EEPROM_Read@Addr 0037  
                     EEPROM_Read@Data 0048              __size_of_Scheduler_Start 0039  
                __Umul8_16@multiplier 003E                      _SSD_MainFunction 0DC3  
             __end_of_Get_EEPROM_Data 0BF1     __size_of_Temperature_MainFunction 0013  
           ?_Temperature_MainFunction 0070                     __Umul8_16@product 003A  
